Archive member included because of file (symbol)

/home/pcl2483/pedro/jadesoft/util/mcgen/Plib/libmc105j.a(mcgetf.o)
                              mcar48p_105j.o (mcgetf_)
/home/pcl2483/pedro/jadesoft/util/mcgen/Plib/libmc105j.a(mcgeth.o)
                              mcar48p_105j.o (mcgeth_)
/home/pcl2483/pedro/jadesoft/util/mcgen/Plib/libmc105j.a(mcgetp.o)
                              mcar48p_105j.o (mcgetp_)
/home/pcl2483/pedro/jadesoft/util/mcgen/Plib/libmc105j.a(mcinit.o)
                              mcar48p_105j.o (mcinit_)
/home/pcl2483/pedro/jadesoft/util/mcgen/Plib/libmc105j.a(mcstbl.o)
                              mcar48p_105j.o (mcstbl_)
/home/pcl2483/pedro/jadesoft/util/mcgen/Plib/libmc105j.a(mcwrit.o)
                              mcar48p_105j.o (mcwrit_)
/home/pcl2483/pedro/jadesoft/util/mcgen/Plib/libmc105j.a(mytype.o)
                              mcar48p_105j.o (mytype_)
/home/pcl2483/pedro/jadesoft/util/mcgen/Plib/libmc105j.a(pxeecb.o)
                              mcar48p_105j.o (pxeecb_)
/home/pcl2483/pedro/jadesoft/util/mcgen/Plib/libmc105j.a(evwrtj.o)
                              /home/pcl2483/pedro/jadesoft/util/mcgen/Plib/libmc105j.a(mcwrit.o) (evwrtj_)
/home/pcl2483/pedro/jadesoft/util/mcgen/Plib/libmc105j.a(incprd.o)
                              /home/pcl2483/pedro/jadesoft/util/mcgen/Plib/libmc105j.a(evwrtj.o) (incprd_)
/home/pcl2483/pedro/jadesoft/util/mcgen/Plib/libmc105j.a(jadeco.o)
                              /home/pcl2483/pedro/jadesoft/util/mcgen/Plib/libmc105j.a(evwrtj.o) (jadeco_)
/home/pcl2483/pedro/jadesoft/util/mcgen/Plib/libmc105j.a(jtconv.o)
                              /home/pcl2483/pedro/jadesoft/util/mcgen/Plib/libmc105j.a(mcgeth.o) (jtconv_)
/home/pcl2483/pedro/jadesoft/util/mcgen/Plib/libmc105j.a(mcrnst.o)
                              /home/pcl2483/pedro/jadesoft/util/mcgen/Plib/libmc105j.a(mcwrit.o) (mcrnst_)
/home/pcl2483/pedro/jadesoft/util/mcgen/Plib/libmc105j.a(ntcprd.o)
                              /home/pcl2483/pedro/jadesoft/util/mcgen/Plib/libmc105j.a(evwrtj.o) (ntcprd_)
/home/pcl2483/pedro/jadesoft/util/mcgen/Plib/libmc105j.a(prcprd.o)
                              /home/pcl2483/pedro/jadesoft/util/mcgen/Plib/libmc105j.a(evwrtj.o) (prcprd_)
/home/pcl2483/pedro/jadesoft/util/mcgen/Plib/libmc105j.a(wrcprd.o)
                              /home/pcl2483/pedro/jadesoft/util/mcgen/Plib/libmc105j.a(evwrtj.o) (wrcprd_)
/home/pcl2483/pedro/jadesoft/util/mcgen/Plib/libpythia5722.a(pydata.o)
                              mcar48p_105j.o (pypars_)
/home/pcl2483/pedro/jadesoft/util/mcgen/Plib/libpythia5722.a(pyevnt.o)
                              mcar48p_105j.o (pyevnt_)
/home/pcl2483/pedro/jadesoft/util/mcgen/Plib/libpythia5722.a(pyfram.o)
                              /home/pcl2483/pedro/jadesoft/util/mcgen/Plib/libpythia5722.a(pyevnt.o) (pyfram_)
/home/pcl2483/pedro/jadesoft/util/mcgen/Plib/libpythia5722.a(pyinit.o)
                              mcar48p_105j.o (pyinit_)
/home/pcl2483/pedro/jadesoft/util/mcgen/Plib/libpythia5722.a(pyinki.o)
                              /home/pcl2483/pedro/jadesoft/util/mcgen/Plib/libpythia5722.a(pyevnt.o) (pyinki_)
/home/pcl2483/pedro/jadesoft/util/mcgen/Plib/libpythia5722.a(pyinpr.o)
                              /home/pcl2483/pedro/jadesoft/util/mcgen/Plib/libpythia5722.a(pyinit.o) (pyinpr_)
/home/pcl2483/pedro/jadesoft/util/mcgen/Plib/libpythia5722.a(pyinre.o)
                              /home/pcl2483/pedro/jadesoft/util/mcgen/Plib/libpythia5722.a(pyinit.o) (pyinre_)
/home/pcl2483/pedro/jadesoft/util/mcgen/Plib/libpythia5722.a(pymaxi.o)
                              /home/pcl2483/pedro/jadesoft/util/mcgen/Plib/libpythia5722.a(pyinit.o) (pymaxi_)
/home/pcl2483/pedro/jadesoft/util/mcgen/Plib/libpythia5722.a(pymult.o)
                              /home/pcl2483/pedro/jadesoft/util/mcgen/Plib/libpythia5722.a(pyevnt.o) (pymult_)
/home/pcl2483/pedro/jadesoft/util/mcgen/Plib/libpythia5722.a(pyofsh.o)
                              /home/pcl2483/pedro/jadesoft/util/mcgen/Plib/libpythia5722.a(pymaxi.o) (pyofsh_)
/home/pcl2483/pedro/jadesoft/util/mcgen/Plib/libpythia5722.a(pypile.o)
                              /home/pcl2483/pedro/jadesoft/util/mcgen/Plib/libpythia5722.a(pyevnt.o) (pypile_)
/home/pcl2483/pedro/jadesoft/util/mcgen/Plib/libpythia5722.a(pyrand.o)
                              /home/pcl2483/pedro/jadesoft/util/mcgen/Plib/libpythia5722.a(pyevnt.o) (pyrand_)
/home/pcl2483/pedro/jadesoft/util/mcgen/Plib/libpythia5722.a(pyremn.o)
                              /home/pcl2483/pedro/jadesoft/util/mcgen/Plib/libpythia5722.a(pyevnt.o) (pyremn_)
/home/pcl2483/pedro/jadesoft/util/mcgen/Plib/libpythia5722.a(pyresd.o)
                              /home/pcl2483/pedro/jadesoft/util/mcgen/Plib/libpythia5722.a(pyevnt.o) (pyresd_)
/home/pcl2483/pedro/jadesoft/util/mcgen/Plib/libpythia5722.a(pysave.o)
                              /home/pcl2483/pedro/jadesoft/util/mcgen/Plib/libpythia5722.a(pyevnt.o) (pysave_)
/home/pcl2483/pedro/jadesoft/util/mcgen/Plib/libpythia5722.a(pyscat.o)
                              /home/pcl2483/pedro/jadesoft/util/mcgen/Plib/libpythia5722.a(pyevnt.o) (pyscat_)
/home/pcl2483/pedro/jadesoft/util/mcgen/Plib/libpythia5722.a(pysigh.o)
                              /home/pcl2483/pedro/jadesoft/util/mcgen/Plib/libpythia5722.a(pymaxi.o) (pysigh_)
/home/pcl2483/pedro/jadesoft/util/mcgen/Plib/libpythia5722.a(pyspli.o)
                              /home/pcl2483/pedro/jadesoft/util/mcgen/Plib/libpythia5722.a(pyrand.o) (pyspli_)
/home/pcl2483/pedro/jadesoft/util/mcgen/Plib/libpythia5722.a(pysspa.o)
                              /home/pcl2483/pedro/jadesoft/util/mcgen/Plib/libpythia5722.a(pyevnt.o) (pysspa_)
/home/pcl2483/pedro/jadesoft/util/mcgen/Plib/libpythia5722.a(pystfl.o)
                              /home/pcl2483/pedro/jadesoft/util/mcgen/Plib/libpythia5722.a(pyrand.o) (pystfl_)
/home/pcl2483/pedro/jadesoft/util/mcgen/Plib/libpythia5722.a(pystfu.o)
                              /home/pcl2483/pedro/jadesoft/util/mcgen/Plib/libpythia5722.a(pyrand.o) (pystfu_)
/home/pcl2483/pedro/jadesoft/util/mcgen/Plib/libpythia5722.a(pystga.o)
                              /home/pcl2483/pedro/jadesoft/util/mcgen/Plib/libpythia5722.a(pystfu.o) (pystga_)
/home/pcl2483/pedro/jadesoft/util/mcgen/Plib/libpythia5722.a(pystpi.o)
                              /home/pcl2483/pedro/jadesoft/util/mcgen/Plib/libpythia5722.a(pystfu.o) (pystpi_)
/home/pcl2483/pedro/jadesoft/util/mcgen/Plib/libpythia5722.a(pystpr.o)
                              /home/pcl2483/pedro/jadesoft/util/mcgen/Plib/libpythia5722.a(pystfu.o) (pystpr_)
/home/pcl2483/pedro/jadesoft/util/mcgen/Plib/libpythia5722.a(pyupev.o)
                              /home/pcl2483/pedro/jadesoft/util/mcgen/Plib/libpythia5722.a(pyrand.o) (pyupev_)
/home/pcl2483/pedro/jadesoft/util/mcgen/Plib/libpythia5722.a(pywaux.o)
                              /home/pcl2483/pedro/jadesoft/util/mcgen/Plib/libpythia5722.a(pysigh.o) (pywaux_)
/home/pcl2483/pedro/jadesoft/util/mcgen/Plib/libpythia5722.a(pywidt.o)
                              /home/pcl2483/pedro/jadesoft/util/mcgen/Plib/libpythia5722.a(pyinre.o) (pywidt_)
/home/pcl2483/pedro/jadesoft/util/mcgen/Plib/libpythia5722.a(pyxtot.o)
                              /home/pcl2483/pedro/jadesoft/util/mcgen/Plib/libpythia5722.a(pyevnt.o) (pyxtot_)
/home/pcl2483/pedro/jadesoft/util/mcgen/Plib/libpythia5722.a(rkbbv.o)
                              /home/pcl2483/pedro/jadesoft/util/mcgen/Plib/libpythia5722.a(pysigh.o) (rkbbv_)
/home/pcl2483/pedro/jadesoft/util/mcgen/Plib/libpythia5722.a(rkdot.o)
                              /home/pcl2483/pedro/jadesoft/util/mcgen/Plib/libpythia5722.a(rkbbv.o) (rkdot_)
/home/pcl2483/pedro/jadesoft/util/mcgen/Plib/libpythia5722.a(rkhlpk.o)
                              /home/pcl2483/pedro/jadesoft/util/mcgen/Plib/libpythia5722.a(rkbbv.o) (rkhlpk_)
/home/pcl2483/pedro/jadesoft/util/mcgen/Plib/libpythia5722.a(rkrand.o)
                              /home/pcl2483/pedro/jadesoft/util/mcgen/Plib/libpythia5722.a(rkbbv.o) (rkrand_)
/home/pcl2483/pedro/jadesoft/util/mcgen/Plib/libpythia5722.a(rkzf.o)
                              /home/pcl2483/pedro/jadesoft/util/mcgen/Plib/libpythia5722.a(rkbbv.o) (rkzf_)
/home/pcl2483/pedro/jadesoft/util/mcgen/Plib/libpythia5722.a(rkzpr.o)
                              /home/pcl2483/pedro/jadesoft/util/mcgen/Plib/libpythia5722.a(rkzf.o) (rkzpr_)
/home/pcl2483/pedro/jadesoft/util/mcgen/Plib/libpythia5722.a(rkzsf.o)
                              /home/pcl2483/pedro/jadesoft/util/mcgen/Plib/libpythia5722.a(rkbbv.o) (rkzsf_)
/home/pcl2483/pedro/jadesoft/util/mcgen/Plib/libpythia5722.a(structm.o)
                              /home/pcl2483/pedro/jadesoft/util/mcgen/Plib/libpythia5722.a(pystfu.o) (structm_)
/home/pcl2483/pedro/jadesoft/util/mcgen/Plib/libpythia5722.a(pdfset.o)
                              /home/pcl2483/pedro/jadesoft/util/mcgen/Plib/libpythia5722.a(pyinit.o) (pdfset_)
/home/pcl2483/pedro/jadesoft/util/mcgen/Plib/libpythia5722.a(pyctq2.o)
                              /home/pcl2483/pedro/jadesoft/util/mcgen/Plib/libpythia5722.a(pystpr.o) (pyctq2_)
/home/pcl2483/pedro/jadesoft/util/mcgen/Plib/libpythia5722.a(pydiff.o)
                              /home/pcl2483/pedro/jadesoft/util/mcgen/Plib/libpythia5722.a(pyevnt.o) (pydiff_)
/home/pcl2483/pedro/jadesoft/util/mcgen/Plib/libpythia5722.a(pydocu.o)
                              /home/pcl2483/pedro/jadesoft/util/mcgen/Plib/libpythia5722.a(pyevnt.o) (pydocu_)
/home/pcl2483/pedro/jadesoft/util/mcgen/Plib/libpythia5722.a(pyevwt.o)
                              /home/pcl2483/pedro/jadesoft/util/mcgen/Plib/libpythia5722.a(pymaxi.o) (pyevwt_)
/home/pcl2483/pedro/jadesoft/util/mcgen/Plib/libpythia5722.a(pygamm.o)
                              /home/pcl2483/pedro/jadesoft/util/mcgen/Plib/libpythia5722.a(pystpi.o) (pygamm_)
/home/pcl2483/pedro/jadesoft/util/mcgen/Plib/libpythia5722.a(pygano.o)
                              /home/pcl2483/pedro/jadesoft/util/mcgen/Plib/libpythia5722.a(pystfu.o) (pygano_)
/home/pcl2483/pedro/jadesoft/util/mcgen/Plib/libpythia5722.a(pyggam.o)
                              /home/pcl2483/pedro/jadesoft/util/mcgen/Plib/libpythia5722.a(pystfu.o) (pyggam_)
/home/pcl2483/pedro/jadesoft/util/mcgen/Plib/libpythia5722.a(pygvmd.o)
                              /home/pcl2483/pedro/jadesoft/util/mcgen/Plib/libpythia5722.a(pystfu.o) (pygvmd_)
/home/pcl2483/pedro/jadesoft/util/mcgen/Plib/libpythia5722.a(pyhfth.o)
                              /home/pcl2483/pedro/jadesoft/util/mcgen/Plib/libpythia5722.a(pysigh.o) (pyhfth_)
/home/pcl2483/pedro/jadesoft/util/mcgen/Plib/libpythia5722.a(pyi3au.o)
                              /home/pcl2483/pedro/jadesoft/util/mcgen/Plib/libpythia5722.a(pysigh.o) (pyi3au_)
/home/pcl2483/pedro/jadesoft/util/mcgen/Plib/libpythia5722.a(pyinbm.o)
                              /home/pcl2483/pedro/jadesoft/util/mcgen/Plib/libpythia5722.a(pyinit.o) (pyinbm_)
/home/pcl2483/pedro/jadesoft/util/mcgen/Plib/libpythia5722.a(pykcut.o)
                              /home/pcl2483/pedro/jadesoft/util/mcgen/Plib/libpythia5722.a(pyrand.o) (pykcut_)
/home/pcl2483/pedro/jadesoft/util/mcgen/Plib/libpythia5722.a(pyklim.o)
                              /home/pcl2483/pedro/jadesoft/util/mcgen/Plib/libpythia5722.a(pymaxi.o) (pyklim_)
/home/pcl2483/pedro/jadesoft/util/mcgen/Plib/libpythia5722.a(pykmap.o)
                              /home/pcl2483/pedro/jadesoft/util/mcgen/Plib/libpythia5722.a(pymaxi.o) (pykmap_)
/home/pcl2483/pedro/jadesoft/util/mcgen/Plib/libpythia5722.a(pyqqbh.o)
                              /home/pcl2483/pedro/jadesoft/util/mcgen/Plib/libpythia5722.a(pysigh.o) (pyqqbh_)
/home/pcl2483/pedro/jadesoft/util/mcgen/Plib/libpythia5722.a(pyspen.o)
                              /home/pcl2483/pedro/jadesoft/util/mcgen/Plib/libpythia5722.a(pyi3au.o) (pyspen_)
/home/pcl2483/pedro/jadesoft/util/mcgen/Plib/libpythia5722.a(pystel.o)
                              /home/pcl2483/pedro/jadesoft/util/mcgen/Plib/libpythia5722.a(pystfu.o) (pystel_)
/home/pcl2483/pedro/jadesoft/util/mcgen/Plib/libpythia5722.a(pygbeh.o)
                              /home/pcl2483/pedro/jadesoft/util/mcgen/Plib/libpythia5722.a(pyggam.o) (pygbeh_)
/home/pcl2483/pedro/jadesoft/util/mcgen/Plib/libpythia5722.a(pygdir.o)
                              /home/pcl2483/pedro/jadesoft/util/mcgen/Plib/libpythia5722.a(pyggam.o) (pygdir_)
/home/pcl2483/pedro/jadesoft/util/mcgen/Plib/libariadne408.a(ardata.o)
                              mcar48p_105j.o (ardat1_)
/home/pcl2483/pedro/jadesoft/util/mcgen/Plib/libariadne408.a(arexec.o)
                              mcar48p_105j.o (arexec_)
/home/pcl2483/pedro/jadesoft/util/mcgen/Plib/libariadne408.a(arinit.o)
                              mcar48p_105j.o (arinit_)
/home/pcl2483/pedro/jadesoft/util/mcgen/Plib/libariadne408.a(arlept.o)
                              /home/pcl2483/pedro/jadesoft/util/mcgen/Plib/libariadne408.a(arexec.o) (arlept_)
/home/pcl2483/pedro/jadesoft/util/mcgen/Plib/libariadne408.a(arpars.o)
                              /home/pcl2483/pedro/jadesoft/util/mcgen/Plib/libariadne408.a(arexec.o) (arpars_)
/home/pcl2483/pedro/jadesoft/util/mcgen/Plib/libariadne408.a(arphas.o)
                              /home/pcl2483/pedro/jadesoft/util/mcgen/Plib/libariadne408.a(arlept.o) (arphas_)
/home/pcl2483/pedro/jadesoft/util/mcgen/Plib/libariadne408.a(arptqq.o)
                              /home/pcl2483/pedro/jadesoft/util/mcgen/Plib/libariadne408.a(arlept.o) (arptqq_)
/home/pcl2483/pedro/jadesoft/util/mcgen/Plib/libariadne408.a(arpyth.o)
                              /home/pcl2483/pedro/jadesoft/util/mcgen/Plib/libariadne408.a(arexec.o) (arpyth_)
/home/pcl2483/pedro/jadesoft/util/mcgen/Plib/libariadne408.a(arpyww.o)
                              /home/pcl2483/pedro/jadesoft/util/mcgen/Plib/libariadne408.a(arpyth.o) (arpyww_)
/home/pcl2483/pedro/jadesoft/util/mcgen/Plib/libariadne408.a(arremn.o)
                              /home/pcl2483/pedro/jadesoft/util/mcgen/Plib/libariadne408.a(arlept.o) (arremn_)
/home/pcl2483/pedro/jadesoft/util/mcgen/Plib/libariadne408.a(arscan.o)
                              /home/pcl2483/pedro/jadesoft/util/mcgen/Plib/libariadne408.a(arpyth.o) (arscan_)
/home/pcl2483/pedro/jadesoft/util/mcgen/Plib/libariadne408.a(arstra.o)
                              /home/pcl2483/pedro/jadesoft/util/mcgen/Plib/libariadne408.a(arptqq.o) (arstra_)
/home/pcl2483/pedro/jadesoft/util/mcgen/Plib/libariadne408.a(artune.o)
                              mcar48p_105j.o (artune_)
/home/pcl2483/pedro/jadesoft/util/mcgen/Plib/libariadne408.a(arupom.o)
                              /home/pcl2483/pedro/jadesoft/util/mcgen/Plib/libariadne408.a(arremn.o) (arupom_)
/home/pcl2483/pedro/jadesoft/util/mcgen/Plib/libariadne408.a(arzcms.o)
                              /home/pcl2483/pedro/jadesoft/util/mcgen/Plib/libariadne408.a(arremn.o) (arzcms_)
/home/pcl2483/pedro/jadesoft/util/mcgen/Plib/libariadne408.a(lnstrf.o)
                              /home/pcl2483/pedro/jadesoft/util/mcgen/Plib/libariadne408.a(arremn.o) (lnstrf_)
/home/pcl2483/pedro/jadesoft/util/mcgen/Plib/libariadne408.a(arbole.o)
                              /home/pcl2483/pedro/jadesoft/util/mcgen/Plib/libariadne408.a(arexec.o) (arbole_)
/home/pcl2483/pedro/jadesoft/util/mcgen/Plib/libariadne408.a(arbopy.o)
                              /home/pcl2483/pedro/jadesoft/util/mcgen/Plib/libariadne408.a(arpyth.o) (arbopy_)
/home/pcl2483/pedro/jadesoft/util/mcgen/Plib/libariadne408.a(arcasc.o)
                              /home/pcl2483/pedro/jadesoft/util/mcgen/Plib/libariadne408.a(arlept.o) (arcasc_)
/home/pcl2483/pedro/jadesoft/util/mcgen/Plib/libariadne408.a(archem.o)
                              /home/pcl2483/pedro/jadesoft/util/mcgen/Plib/libariadne408.a(arlept.o) (archem_)
/home/pcl2483/pedro/jadesoft/util/mcgen/Plib/libariadne408.a(arcoli.o)
                              /home/pcl2483/pedro/jadesoft/util/mcgen/Plib/libariadne408.a(arlept.o) (arcoli_)
/home/pcl2483/pedro/jadesoft/util/mcgen/Plib/libariadne408.a(arcont.o)
                              /home/pcl2483/pedro/jadesoft/util/mcgen/Plib/libariadne408.a(arpyww.o) (arcont_)
/home/pcl2483/pedro/jadesoft/util/mcgen/Plib/libariadne408.a(arcopa.o)
                              /home/pcl2483/pedro/jadesoft/util/mcgen/Plib/libariadne408.a(arlept.o) (arcopa_)
/home/pcl2483/pedro/jadesoft/util/mcgen/Plib/libariadne408.a(arcrdi.o)
                              /home/pcl2483/pedro/jadesoft/util/mcgen/Plib/libariadne408.a(arlept.o) (arcrdi_)
/home/pcl2483/pedro/jadesoft/util/mcgen/Plib/libariadne408.a(ardump.o)
                              /home/pcl2483/pedro/jadesoft/util/mcgen/Plib/libariadne408.a(arlept.o) (ardump_)
/home/pcl2483/pedro/jadesoft/util/mcgen/Plib/libariadne408.a(arerrm.o)
                              /home/pcl2483/pedro/jadesoft/util/mcgen/Plib/libariadne408.a(arexec.o) (arerrm_)
/home/pcl2483/pedro/jadesoft/util/mcgen/Plib/libariadne408.a(arevol.o)
                              /home/pcl2483/pedro/jadesoft/util/mcgen/Plib/libariadne408.a(arlept.o) (arevol_)
/home/pcl2483/pedro/jadesoft/util/mcgen/Plib/libariadne408.a(arexma.o)
                              /home/pcl2483/pedro/jadesoft/util/mcgen/Plib/libariadne408.a(arpars.o) (arexma_)
/home/pcl2483/pedro/jadesoft/util/mcgen/Plib/libariadne408.a(arfidy.o)
                              /home/pcl2483/pedro/jadesoft/util/mcgen/Plib/libariadne408.a(arpyth.o) (arfidy_)
/home/pcl2483/pedro/jadesoft/util/mcgen/Plib/libariadne408.a(argpt2.o)
                              /home/pcl2483/pedro/jadesoft/util/mcgen/Plib/libariadne408.a(arlept.o) (argpt2_)
/home/pcl2483/pedro/jadesoft/util/mcgen/Plib/libariadne408.a(argqcd.o)
                              /home/pcl2483/pedro/jadesoft/util/mcgen/Plib/libariadne408.a(argpt2.o) (argqcd_)
/home/pcl2483/pedro/jadesoft/util/mcgen/Plib/libariadne408.a(argqcg.o)
                              /home/pcl2483/pedro/jadesoft/util/mcgen/Plib/libariadne408.a(argqcd.o) (argqcg_)
/home/pcl2483/pedro/jadesoft/util/mcgen/Plib/libariadne408.a(argqcq.o)
                              /home/pcl2483/pedro/jadesoft/util/mcgen/Plib/libariadne408.a(argqcd.o) (argqcq_)
/home/pcl2483/pedro/jadesoft/util/mcgen/Plib/libariadne408.a(argqed.o)
                              /home/pcl2483/pedro/jadesoft/util/mcgen/Plib/libariadne408.a(argpt2.o) (argqed_)
/home/pcl2483/pedro/jadesoft/util/mcgen/Plib/libariadne408.a(argtyp.o)
                              /home/pcl2483/pedro/jadesoft/util/mcgen/Plib/libariadne408.a(arpars.o) (argtyp_)
/home/pcl2483/pedro/jadesoft/util/mcgen/Plib/libariadne408.a(arincr.o)
                              /home/pcl2483/pedro/jadesoft/util/mcgen/Plib/libariadne408.a(arremn.o) (arincr_)
/home/pcl2483/pedro/jadesoft/util/mcgen/Plib/libariadne408.a(arinqq.o)
                              /home/pcl2483/pedro/jadesoft/util/mcgen/Plib/libariadne408.a(arlept.o) (arinqq_)
/home/pcl2483/pedro/jadesoft/util/mcgen/Plib/libariadne408.a(armade.o)
                              /home/pcl2483/pedro/jadesoft/util/mcgen/Plib/libariadne408.a(argqcg.o) (armade_)
/home/pcl2483/pedro/jadesoft/util/mcgen/Plib/libariadne408.a(armas2.o)
                              /home/pcl2483/pedro/jadesoft/util/mcgen/Plib/libariadne408.a(argpt2.o) (armas2_)
/home/pcl2483/pedro/jadesoft/util/mcgen/Plib/libariadne408.a(armass.o)
                              /home/pcl2483/pedro/jadesoft/util/mcgen/Plib/libariadne408.a(armas2.o) (armass_)
/home/pcl2483/pedro/jadesoft/util/mcgen/Plib/libariadne408.a(armcdi.o)
                              /home/pcl2483/pedro/jadesoft/util/mcgen/Plib/libariadne408.a(argqcg.o) (armcdi_)
/home/pcl2483/pedro/jadesoft/util/mcgen/Plib/libariadne408.a(armipt.o)
                              /home/pcl2483/pedro/jadesoft/util/mcgen/Plib/libariadne408.a(arpars.o) (armipt_)
/home/pcl2483/pedro/jadesoft/util/mcgen/Plib/libariadne408.a(armtqq.o)
                              /home/pcl2483/pedro/jadesoft/util/mcgen/Plib/libariadne408.a(arptqq.o) (armtqq_)
/home/pcl2483/pedro/jadesoft/util/mcgen/Plib/libariadne408.a(arndx1.o)
                              /home/pcl2483/pedro/jadesoft/util/mcgen/Plib/libariadne408.a(argqcg.o) (arndx1_)
/home/pcl2483/pedro/jadesoft/util/mcgen/Plib/libariadne408.a(arndx2.o)
                              /home/pcl2483/pedro/jadesoft/util/mcgen/Plib/libariadne408.a(argqcg.o) (arndx2_)
/home/pcl2483/pedro/jadesoft/util/mcgen/Plib/libariadne408.a(arndx3.o)
                              /home/pcl2483/pedro/jadesoft/util/mcgen/Plib/libariadne408.a(argqcq.o) (arndx3_)
/home/pcl2483/pedro/jadesoft/util/mcgen/Plib/libariadne408.a(arndy1.o)
                              /home/pcl2483/pedro/jadesoft/util/mcgen/Plib/libariadne408.a(argqcg.o) (arndy1_)
/home/pcl2483/pedro/jadesoft/util/mcgen/Plib/libariadne408.a(arndy2.o)
                              /home/pcl2483/pedro/jadesoft/util/mcgen/Plib/libariadne408.a(argqcg.o) (arndy2_)
/home/pcl2483/pedro/jadesoft/util/mcgen/Plib/libariadne408.a(arndy3.o)
                              /home/pcl2483/pedro/jadesoft/util/mcgen/Plib/libariadne408.a(argqcq.o) (arndy3_)
/home/pcl2483/pedro/jadesoft/util/mcgen/Plib/libariadne408.a(arndy4.o)
                              /home/pcl2483/pedro/jadesoft/util/mcgen/Plib/libariadne408.a(argqcq.o) (arndy4_)
/home/pcl2483/pedro/jadesoft/util/mcgen/Plib/libariadne408.a(arniqq.o)
                              /home/pcl2483/pedro/jadesoft/util/mcgen/Plib/libariadne408.a(arinqq.o) (arniqq_)
/home/pcl2483/pedro/jadesoft/util/mcgen/Plib/libariadne408.a(arnofl.o)
                              /home/pcl2483/pedro/jadesoft/util/mcgen/Plib/libariadne408.a(arptqq.o) (arnofl_)
/home/pcl2483/pedro/jadesoft/util/mcgen/Plib/libariadne408.a(arobo1.o)
                              /home/pcl2483/pedro/jadesoft/util/mcgen/Plib/libariadne408.a(argqcg.o) (arobo1_)
/home/pcl2483/pedro/jadesoft/util/mcgen/Plib/libariadne408.a(arobo2.o)
                              /home/pcl2483/pedro/jadesoft/util/mcgen/Plib/libariadne408.a(arremn.o) (arobo2_)
/home/pcl2483/pedro/jadesoft/util/mcgen/Plib/libariadne408.a(arobo3.o)
                              /home/pcl2483/pedro/jadesoft/util/mcgen/Plib/libariadne408.a(arremn.o) (arobo3_)
/home/pcl2483/pedro/jadesoft/util/mcgen/Plib/libariadne408.a(arpcms.o)
                              /home/pcl2483/pedro/jadesoft/util/mcgen/Plib/libariadne408.a(arinqq.o) (arpcms_)
/home/pcl2483/pedro/jadesoft/util/mcgen/Plib/libariadne408.a(arpoki.o)
                              /home/pcl2483/pedro/jadesoft/util/mcgen/Plib/libariadne408.a(arremn.o) (arpoki_)
/home/pcl2483/pedro/jadesoft/util/mcgen/Plib/libariadne408.a(arposf.o)
                              /home/pcl2483/pedro/jadesoft/util/mcgen/Plib/libariadne408.a(arremn.o) (arposf_)
/home/pcl2483/pedro/jadesoft/util/mcgen/Plib/libariadne408.a(arprda.o)
                              /home/pcl2483/pedro/jadesoft/util/mcgen/Plib/libariadne408.a(arerrm.o) (arprda_)
/home/pcl2483/pedro/jadesoft/util/mcgen/Plib/libariadne408.a(arprdy.o)
                              /home/pcl2483/pedro/jadesoft/util/mcgen/Plib/libariadne408.a(arpyth.o) (arprdy_)
/home/pcl2483/pedro/jadesoft/util/mcgen/Plib/libariadne408.a(arprgc.o)
                              /home/pcl2483/pedro/jadesoft/util/mcgen/Plib/libariadne408.a(argqcd.o) (arprgc_)
/home/pcl2483/pedro/jadesoft/util/mcgen/Plib/libariadne408.a(arrobo.o)
                              /home/pcl2483/pedro/jadesoft/util/mcgen/Plib/libariadne408.a(arincr.o) (arrobo_)
/home/pcl2483/pedro/jadesoft/util/mcgen/Plib/libariadne408.a(arsume.o)
                              /home/pcl2483/pedro/jadesoft/util/mcgen/Plib/libariadne408.a(arinqq.o) (arsume_)
/home/pcl2483/pedro/jadesoft/util/mcgen/Plib/libariadne408.a(arvet1.o)
                              /home/pcl2483/pedro/jadesoft/util/mcgen/Plib/libariadne408.a(argqed.o) (arvet1_)
/home/pcl2483/pedro/jadesoft/util/mcgen/Plib/libariadne408.a(arvet3.o)
                              /home/pcl2483/pedro/jadesoft/util/mcgen/Plib/libariadne408.a(argqcg.o) (arvet3_)
/home/pcl2483/pedro/jadesoft/util/mcgen/Plib/libariadne408.a(arvet4.o)
                              /home/pcl2483/pedro/jadesoft/util/mcgen/Plib/libariadne408.a(argqcg.o) (arvet4_)
/home/pcl2483/pedro/jadesoft/util/mcgen/Plib/libariadne408.a(arvet5.o)
                              /home/pcl2483/pedro/jadesoft/util/mcgen/Plib/libariadne408.a(argqcq.o) (arvet5_)
/home/pcl2483/pedro/jadesoft/util/mcgen/Plib/libariadne408.a(arveth.o)
                              /home/pcl2483/pedro/jadesoft/util/mcgen/Plib/libariadne408.a(arvet1.o) (arveth_)
/home/pcl2483/pedro/jadesoft/util/mcgen/Plib/libariadne408.a(arbocm.o)
                              /home/pcl2483/pedro/jadesoft/util/mcgen/Plib/libariadne408.a(argqcg.o) (arbocm_)
/home/pcl2483/pedro/jadesoft/util/mcgen/Plib/libariadne408.a(archki.o)
                              /home/pcl2483/pedro/jadesoft/util/mcgen/Plib/libariadne408.a(armcdi.o) (archki_)
/home/pcl2483/pedro/jadesoft/util/mcgen/Plib/libariadne408.a(ardbrb.o)
                              /home/pcl2483/pedro/jadesoft/util/mcgen/Plib/libariadne408.a(arinqq.o) (ardbrb_)
/home/pcl2483/pedro/jadesoft/util/mcgen/Plib/libariadne408.a(arearr.o)
                              /home/pcl2483/pedro/jadesoft/util/mcgen/Plib/libariadne408.a(arevol.o) (arearr_)
/home/pcl2483/pedro/jadesoft/util/mcgen/Plib/libariadne408.a(aremit.o)
                              /home/pcl2483/pedro/jadesoft/util/mcgen/Plib/libariadne408.a(arevol.o) (aremit_)
/home/pcl2483/pedro/jadesoft/util/mcgen/Plib/libariadne408.a(arevst.o)
                              /home/pcl2483/pedro/jadesoft/util/mcgen/Plib/libariadne408.a(arearr.o) (arevst_)
/home/pcl2483/pedro/jadesoft/util/mcgen/Plib/libariadne408.a(argdis.o)
                              /home/pcl2483/pedro/jadesoft/util/mcgen/Plib/libariadne408.a(argpt2.o) (argdis_)
/home/pcl2483/pedro/jadesoft/util/mcgen/Plib/libariadne408.a(arging.o)
                              /home/pcl2483/pedro/jadesoft/util/mcgen/Plib/libariadne408.a(argpt2.o) (arging_)
/home/pcl2483/pedro/jadesoft/util/mcgen/Plib/libariadne408.a(aripsf.o)
                              /home/pcl2483/pedro/jadesoft/util/mcgen/Plib/libariadne408.a(arposf.o) (aripsf_)
/home/pcl2483/pedro/jadesoft/util/mcgen/Plib/libariadne408.a(aript2.o)
                              /home/pcl2483/pedro/jadesoft/util/mcgen/Plib/libariadne408.a(armipt.o) (aript2_)
/home/pcl2483/pedro/jadesoft/util/mcgen/Plib/libariadne408.a(arjoqq.o)
                              /home/pcl2483/pedro/jadesoft/util/mcgen/Plib/libariadne408.a(arpoki.o) (arjoqq_)
/home/pcl2483/pedro/jadesoft/util/mcgen/Plib/libariadne408.a(arjost.o)
                              /home/pcl2483/pedro/jadesoft/util/mcgen/Plib/libariadne408.a(arjoqq.o) (arjost_)
/home/pcl2483/pedro/jadesoft/util/mcgen/Plib/libariadne408.a(armas3.o)
                              /home/pcl2483/pedro/jadesoft/util/mcgen/Plib/libariadne408.a(aript2.o) (armas3_)
/home/pcl2483/pedro/jadesoft/util/mcgen/Plib/libariadne408.a(arpadd.o)
                              /home/pcl2483/pedro/jadesoft/util/mcgen/Plib/libariadne408.a(arging.o) (arpadd_)
/home/pcl2483/pedro/jadesoft/util/mcgen/Plib/libariadne408.a(arradg.o)
                              /home/pcl2483/pedro/jadesoft/util/mcgen/Plib/libariadne408.a(aremit.o) (arradg_)
/home/pcl2483/pedro/jadesoft/util/mcgen/Plib/libariadne408.a(arradp.o)
                              /home/pcl2483/pedro/jadesoft/util/mcgen/Plib/libariadne408.a(aremit.o) (arradp_)
/home/pcl2483/pedro/jadesoft/util/mcgen/Plib/libariadne408.a(arradq.o)
                              /home/pcl2483/pedro/jadesoft/util/mcgen/Plib/libariadne408.a(aremit.o) (arradq_)
/home/pcl2483/pedro/jadesoft/util/mcgen/Plib/libariadne408.a(arreca.o)
                              /home/pcl2483/pedro/jadesoft/util/mcgen/Plib/libariadne408.a(aremit.o) (arreca_)
/home/pcl2483/pedro/jadesoft/util/mcgen/Plib/libariadne408.a(arremd.o)
                              /home/pcl2483/pedro/jadesoft/util/mcgen/Plib/libariadne408.a(arjoqq.o) (arremd_)
/home/pcl2483/pedro/jadesoft/util/mcgen/Plib/libariadne408.a(arremp.o)
                              /home/pcl2483/pedro/jadesoft/util/mcgen/Plib/libariadne408.a(arjoqq.o) (arremp_)
/home/pcl2483/pedro/jadesoft/util/mcgen/Plib/libariadne408.a(arsplg.o)
                              /home/pcl2483/pedro/jadesoft/util/mcgen/Plib/libariadne408.a(arradq.o) (arsplg_)
/home/pcl2483/pedro/jadesoft/util/mcgen/Plib/libariadne408.a(arstor.o)
                              /home/pcl2483/pedro/jadesoft/util/mcgen/Plib/libariadne408.a(aremit.o) (arstor_)
/home/pcl2483/pedro/jadesoft/util/mcgen/Plib/libariadne408.a(arswap.o)
                              /home/pcl2483/pedro/jadesoft/util/mcgen/Plib/libariadne408.a(arearr.o) (arswap_)
/home/pcl2483/pedro/jadesoft/util/mcgen/Plib/libariadne408.a(artpt2.o)
                              /home/pcl2483/pedro/jadesoft/util/mcgen/Plib/libariadne408.a(archki.o) (artpt2_)
/home/pcl2483/pedro/jadesoft/util/mcgen/Plib/libariadne408.a(araddg.o)
                              /home/pcl2483/pedro/jadesoft/util/mcgen/Plib/libariadne408.a(arradg.o) (araddg_)
/home/pcl2483/pedro/jadesoft/util/mcgen/Plib/libariadne408.a(archfl.o)
                              /home/pcl2483/pedro/jadesoft/util/mcgen/Plib/libariadne408.a(arswap.o) (archfl_)
/home/pcl2483/pedro/jadesoft/util/mcgen/Plib/libariadne408.a(arduph.o)
                              /home/pcl2483/pedro/jadesoft/util/mcgen/Plib/libariadne408.a(arradp.o) (arduph_)
/home/pcl2483/pedro/jadesoft/util/mcgen/Plib/libariadne408.a(ardyre.o)
                              /home/pcl2483/pedro/jadesoft/util/mcgen/Plib/libariadne408.a(arradg.o) (ardyre_)
/home/pcl2483/pedro/jadesoft/util/mcgen/Plib/libariadne408.a(aremi2.o)
                              /home/pcl2483/pedro/jadesoft/util/mcgen/Plib/libariadne408.a(aremit.o) (aremi2_)
/home/pcl2483/pedro/jadesoft/util/mcgen/Plib/libariadne408.a(aremi3.o)
                              /home/pcl2483/pedro/jadesoft/util/mcgen/Plib/libariadne408.a(aremit.o) (aremi3_)
/home/pcl2483/pedro/jadesoft/util/mcgen/Plib/libariadne408.a(argdig.o)
                              /home/pcl2483/pedro/jadesoft/util/mcgen/Plib/libariadne408.a(argdis.o) (argdig_)
/home/pcl2483/pedro/jadesoft/util/mcgen/Plib/libariadne408.a(argetr.o)
                              /home/pcl2483/pedro/jadesoft/util/mcgen/Plib/libariadne408.a(aremi3.o) (argetr_)
/home/pcl2483/pedro/jadesoft/util/mcgen/Plib/libariadne408.a(argig2.o)
                              /home/pcl2483/pedro/jadesoft/util/mcgen/Plib/libariadne408.a(arging.o) (argig2_)
/home/pcl2483/pedro/jadesoft/util/mcgen/Plib/libariadne408.a(arobo4.o)
                              /home/pcl2483/pedro/jadesoft/util/mcgen/Plib/libariadne408.a(arradg.o) (arobo4_)
/home/pcl2483/pedro/jadesoft/util/mcgen/Plib/libariadne408.a(arobo5.o)
                              /home/pcl2483/pedro/jadesoft/util/mcgen/Plib/libariadne408.a(arradg.o) (arobo5_)
/home/pcl2483/pedro/jadesoft/util/mcgen/Plib/libariadne408.a(arorie.o)
                              /home/pcl2483/pedro/jadesoft/util/mcgen/Plib/libariadne408.a(arradg.o) (arorie_)
/home/pcl2483/pedro/jadesoft/util/mcgen/Plib/libariadne408.a(arpado.o)
                              /home/pcl2483/pedro/jadesoft/util/mcgen/Plib/libariadne408.a(aremi2.o) (arpado_)
/home/pcl2483/pedro/jadesoft/util/mcgen/Plib/libariadne408.a(arpins.o)
                              /home/pcl2483/pedro/jadesoft/util/mcgen/Plib/libariadne408.a(arpado.o) (arpins_)
/home/pcl2483/pedro/jadesoft/util/mcgen/Plib/libariadne408.a(arputr.o)
                              /home/pcl2483/pedro/jadesoft/util/mcgen/Plib/libariadne408.a(aremi3.o) (arputr_)
/home/pcl2483/pedro/jadesoft/util/mcgen/Plib/libariadne408.a(arremg.o)
                              /home/pcl2483/pedro/jadesoft/util/mcgen/Plib/libariadne408.a(ardyre.o) (arremg_)
/home/pcl2483/pedro/jadesoft/util/mcgen/Plib/libariadne408.a(arrems.o)
                              /home/pcl2483/pedro/jadesoft/util/mcgen/Plib/libariadne408.a(arswap.o) (arrems_)
/home/pcl2483/pedro/jadesoft/util/mcgen/Plib/libariadne408.a(arthrw.o)
                              /home/pcl2483/pedro/jadesoft/util/mcgen/Plib/libariadne408.a(aremi3.o) (arthrw_)
/home/pcl2483/pedro/jadesoft/util/mcgen/Plib/libariadne408.a(aruthr.o)
                              /home/pcl2483/pedro/jadesoft/util/mcgen/Plib/libariadne408.a(arthrw.o) (aruthr_)
/home/pcl2483/pedro/jadesoft/util/mcgen/Plib/libariadne408.a(arvet6.o)
                              /home/pcl2483/pedro/jadesoft/util/mcgen/Plib/libariadne408.a(argdig.o) (arvet6_)
/home/pcl2483/pedro/jadesoft/util/mcgen/Plib/libariadne408.a(arvet7.o)
                              /home/pcl2483/pedro/jadesoft/util/mcgen/Plib/libariadne408.a(argdig.o) (arvet7_)
/home/pcl2483/pedro/jadesoft/util/mcgen/Plib/libariadne408.a(aradig.o)
                              /home/pcl2483/pedro/jadesoft/util/mcgen/Plib/libariadne408.a(aremi2.o) (aradig_)
/home/pcl2483/pedro/jadesoft/util/mcgen/Plib/libariadne408.a(arcodi.o)
                              /home/pcl2483/pedro/jadesoft/util/mcgen/Plib/libariadne408.a(aremi2.o) (arcodi_)
/home/pcl2483/pedro/jadesoft/util/mcgen/Plib/libariadne408.a(arecoi.o)
                              /home/pcl2483/pedro/jadesoft/util/mcgen/Plib/libariadne408.a(arorie.o) (arecoi_)
/home/pcl2483/pedro/jadesoft/util/mcgen/Plib/libariadne408.a(aradg2.o)
                              /home/pcl2483/pedro/jadesoft/util/mcgen/Plib/libariadne408.a(aradig.o) (aradg2_)
/home/pcl2483/pedro/jadesoft/util/mcgen/Plib/libjt74opal.a(klu.o)
                              /home/pcl2483/pedro/jadesoft/util/mcgen/Plib/libariadne408.a(arpyth.o) (klu_)
/home/pcl2483/pedro/jadesoft/util/mcgen/Plib/libjt74opal.a(lu2ent.o)
                              /home/pcl2483/pedro/jadesoft/util/mcgen/Plib/libpythia5722.a(pyresd.o) (lu2ent_)
/home/pcl2483/pedro/jadesoft/util/mcgen/Plib/libjt74opal.a(luchge.o)
                              /home/pcl2483/pedro/jadesoft/util/mcgen/Plib/libmc105j.a(mcgeth.o) (luchge_)
/home/pcl2483/pedro/jadesoft/util/mcgen/Plib/libjt74opal.a(lucomp.o)
                              /home/pcl2483/pedro/jadesoft/util/mcgen/Plib/libmc105j.a(mcgeth.o) (lucomp_)
/home/pcl2483/pedro/jadesoft/util/mcgen/Plib/libjt74opal.a(ludata.o)
                              mcar48p_105j.o (gudatr_)
/home/pcl2483/pedro/jadesoft/util/mcgen/Plib/libjt74opal.a(ludecy.o)
                              /home/pcl2483/pedro/jadesoft/util/mcgen/Plib/libpythia5722.a(pydiff.o) (ludecy_)
/home/pcl2483/pedro/jadesoft/util/mcgen/Plib/libjt74opal.a(luedit.o)
                              mcar48p_105j.o (luedit_)
/home/pcl2483/pedro/jadesoft/util/mcgen/Plib/libjt74opal.a(luerrm.o)
                              /home/pcl2483/pedro/jadesoft/util/mcgen/Plib/libpythia5722.a(pyevnt.o) (luerrm_)
/home/pcl2483/pedro/jadesoft/util/mcgen/Plib/libjt74opal.a(luexec.o)
                              /home/pcl2483/pedro/jadesoft/util/mcgen/Plib/libpythia5722.a(pyevnt.o) (luexec_)
/home/pcl2483/pedro/jadesoft/util/mcgen/Plib/libjt74opal.a(lugive.o)
                              mcar48p_105j.o (lugive_)
/home/pcl2483/pedro/jadesoft/util/mcgen/Plib/libjt74opal.a(luindf.o)
                              /home/pcl2483/pedro/jadesoft/util/mcgen/Plib/libjt74opal.a(luexec.o) (luindf_)
/home/pcl2483/pedro/jadesoft/util/mcgen/Plib/libjt74opal.a(lukfdi.o)
                              /home/pcl2483/pedro/jadesoft/util/mcgen/Plib/libpythia5722.a(pyspli.o) (lukfdi_)
/home/pcl2483/pedro/jadesoft/util/mcgen/Plib/libjt74opal.a(lulist.o)
                              mcar48p_105j.o (lulist_)
/home/pcl2483/pedro/jadesoft/util/mcgen/Plib/libjt74opal.a(lulogo.o)
                              /home/pcl2483/pedro/jadesoft/util/mcgen/Plib/libjt74opal.a(lulist.o) (lulogo_)
/home/pcl2483/pedro/jadesoft/util/mcgen/Plib/libjt74opal.a(luname.o)
                              /home/pcl2483/pedro/jadesoft/util/mcgen/Plib/libmc105j.a(mcstbl.o) (luname_)
/home/pcl2483/pedro/jadesoft/util/mcgen/Plib/libjt74opal.a(luprep.o)
                              /home/pcl2483/pedro/jadesoft/util/mcgen/Plib/libpythia5722.a(pyevnt.o) (luprep_)
/home/pcl2483/pedro/jadesoft/util/mcgen/Plib/libjt74opal.a(luptdi.o)
                              /home/pcl2483/pedro/jadesoft/util/mcgen/Plib/libpythia5722.a(pyremn.o) (luptdi_)
/home/pcl2483/pedro/jadesoft/util/mcgen/Plib/libjt74opal.a(lurobo.o)
                              /home/pcl2483/pedro/jadesoft/util/mcgen/Plib/libpythia5722.a(pyfram.o) (lurobo_)
/home/pcl2483/pedro/jadesoft/util/mcgen/Plib/libjt74opal.a(lushow.o)
                              /home/pcl2483/pedro/jadesoft/util/mcgen/Plib/libpythia5722.a(pyevnt.o) (lushow_)
/home/pcl2483/pedro/jadesoft/util/mcgen/Plib/libjt74opal.a(lustrf.o)
                              /home/pcl2483/pedro/jadesoft/util/mcgen/Plib/libjt74opal.a(luexec.o) (lustrf_)
/home/pcl2483/pedro/jadesoft/util/mcgen/Plib/libjt74opal.a(lutabu.o)
                              mcar48p_105j.o (lutabu_)
/home/pcl2483/pedro/jadesoft/util/mcgen/Plib/libjt74opal.a(lutaud.o)
                              /home/pcl2483/pedro/jadesoft/util/mcgen/Plib/libjt74opal.a(ludecy.o) (lutaud_)
/home/pcl2483/pedro/jadesoft/util/mcgen/Plib/libjt74opal.a(luzdis.o)
                              /home/pcl2483/pedro/jadesoft/util/mcgen/Plib/libpythia5722.a(pyremn.o) (luzdis_)
/home/pcl2483/pedro/jadesoft/util/mcgen/Plib/libjt74opal.a(plu.o)
                              /home/pcl2483/pedro/jadesoft/util/mcgen/Plib/libmc105j.a(mcwrit.o) (plu_)
/home/pcl2483/pedro/jadesoft/util/mcgen/Plib/libjt74opal.a(rlu.o)
                              /home/pcl2483/pedro/jadesoft/util/mcgen/Plib/libpythia5722.a(pyevnt.o) (rlu_)
/home/pcl2483/pedro/jadesoft/util/mcgen/Plib/libjt74opal.a(taupol.o)
                              /home/pcl2483/pedro/jadesoft/util/mcgen/Plib/libjt74opal.a(lutaud.o) (taupol_)
/home/pcl2483/pedro/jadesoft/util/mcgen/Plib/libjt74opal.a(ulalem.o)
                              /home/pcl2483/pedro/jadesoft/util/mcgen/Plib/libpythia5722.a(pyinre.o) (ulalem_)
/home/pcl2483/pedro/jadesoft/util/mcgen/Plib/libjt74opal.a(ulalps.o)
                              /home/pcl2483/pedro/jadesoft/util/mcgen/Plib/libpythia5722.a(pysigh.o) (ulalps_)
/home/pcl2483/pedro/jadesoft/util/mcgen/Plib/libjt74opal.a(ulangl.o)
                              /home/pcl2483/pedro/jadesoft/util/mcgen/Plib/libpythia5722.a(pyinki.o) (ulangl_)
/home/pcl2483/pedro/jadesoft/util/mcgen/Plib/libjt74opal.a(ulmass.o)
                              /home/pcl2483/pedro/jadesoft/util/mcgen/Plib/libpythia5722.a(pyrand.o) (ulmass_)
/home/pcl2483/pedro/jadesoft/util/mcgen/Plib/libjt74opal.a(dexay.o)
                              /home/pcl2483/pedro/jadesoft/util/mcgen/Plib/libjt74opal.a(lutaud.o) (dexay_)
/home/pcl2483/pedro/jadesoft/util/mcgen/Plib/libjt74opal.a(dexay1.o)
                              /home/pcl2483/pedro/jadesoft/util/mcgen/Plib/libjt74opal.a(dexay.o) (dexay1_)
/home/pcl2483/pedro/jadesoft/util/mcgen/Plib/libjt74opal.a(dexel.o)
                              /home/pcl2483/pedro/jadesoft/util/mcgen/Plib/libjt74opal.a(dexay.o) (dexel_)
/home/pcl2483/pedro/jadesoft/util/mcgen/Plib/libjt74opal.a(dexkk.o)
                              /home/pcl2483/pedro/jadesoft/util/mcgen/Plib/libjt74opal.a(dexay.o) (dexkk_)
/home/pcl2483/pedro/jadesoft/util/mcgen/Plib/libjt74opal.a(dexks.o)
                              /home/pcl2483/pedro/jadesoft/util/mcgen/Plib/libjt74opal.a(dexay.o) (dexks_)
/home/pcl2483/pedro/jadesoft/util/mcgen/Plib/libjt74opal.a(dexmu.o)
                              /home/pcl2483/pedro/jadesoft/util/mcgen/Plib/libjt74opal.a(dexay.o) (dexmu_)
/home/pcl2483/pedro/jadesoft/util/mcgen/Plib/libjt74opal.a(dexnew.o)
                              /home/pcl2483/pedro/jadesoft/util/mcgen/Plib/libjt74opal.a(dexay.o) (dexnew_)
/home/pcl2483/pedro/jadesoft/util/mcgen/Plib/libjt74opal.a(dexpi.o)
                              /home/pcl2483/pedro/jadesoft/util/mcgen/Plib/libjt74opal.a(dexay.o) (dexpi_)
/home/pcl2483/pedro/jadesoft/util/mcgen/Plib/libjt74opal.a(dexro.o)
                              /home/pcl2483/pedro/jadesoft/util/mcgen/Plib/libjt74opal.a(dexay.o) (dexro_)
/home/pcl2483/pedro/jadesoft/util/mcgen/Plib/libjt74opal.a(dwlnew.o)
                              /home/pcl2483/pedro/jadesoft/util/mcgen/Plib/libjt74opal.a(dexay1.o) (dwlnew_)
/home/pcl2483/pedro/jadesoft/util/mcgen/Plib/libjt74opal.a(dwluaa.o)
                              /home/pcl2483/pedro/jadesoft/util/mcgen/Plib/libjt74opal.a(dexay1.o) (dwluaa_)
/home/pcl2483/pedro/jadesoft/util/mcgen/Plib/libjt74opal.a(dwluel.o)
                              /home/pcl2483/pedro/jadesoft/util/mcgen/Plib/libjt74opal.a(dexay1.o) (dwluel_)
/home/pcl2483/pedro/jadesoft/util/mcgen/Plib/libjt74opal.a(dwlukk.o)
                              /home/pcl2483/pedro/jadesoft/util/mcgen/Plib/libjt74opal.a(dexay1.o) (dwlukk_)
/home/pcl2483/pedro/jadesoft/util/mcgen/Plib/libjt74opal.a(dwluks.o)
                              /home/pcl2483/pedro/jadesoft/util/mcgen/Plib/libjt74opal.a(dexay1.o) (dwluks_)
/home/pcl2483/pedro/jadesoft/util/mcgen/Plib/libjt74opal.a(dwlumu.o)
                              /home/pcl2483/pedro/jadesoft/util/mcgen/Plib/libjt74opal.a(dexay1.o) (dwlumu_)
/home/pcl2483/pedro/jadesoft/util/mcgen/Plib/libjt74opal.a(dwlupi.o)
                              /home/pcl2483/pedro/jadesoft/util/mcgen/Plib/libjt74opal.a(dexay1.o) (dwlupi_)
/home/pcl2483/pedro/jadesoft/util/mcgen/Plib/libjt74opal.a(dwluro.o)
                              /home/pcl2483/pedro/jadesoft/util/mcgen/Plib/libjt74opal.a(dexay1.o) (dwluro_)
/home/pcl2483/pedro/jadesoft/util/mcgen/Plib/libjt74opal.a(dwrph.o)
                              /home/pcl2483/pedro/jadesoft/util/mcgen/Plib/libjt74opal.a(dexay1.o) (dwrph_)
/home/pcl2483/pedro/jadesoft/util/mcgen/Plib/libjt74opal.a(filhep.o)
                              /home/pcl2483/pedro/jadesoft/util/mcgen/Plib/libjt74opal.a(dwlnew.o) (filhep_)
/home/pcl2483/pedro/jadesoft/util/mcgen/Plib/libjt74opal.a(initdk.o)
                              /home/pcl2483/pedro/jadesoft/util/mcgen/Plib/libjt74opal.a(lutaud.o) (initdk_)
/home/pcl2483/pedro/jadesoft/util/mcgen/Plib/libjt74opal.a(jaker.o)
                              /home/pcl2483/pedro/jadesoft/util/mcgen/Plib/libjt74opal.a(dexay1.o) (jaker_)
/home/pcl2483/pedro/jadesoft/util/mcgen/Plib/libjt74opal.a(luboei.o)
                              /home/pcl2483/pedro/jadesoft/util/mcgen/Plib/libjt74opal.a(luexec.o) (luboei_)
/home/pcl2483/pedro/jadesoft/util/mcgen/Plib/libjt74opal.a(lunpik.o)
                              /home/pcl2483/pedro/jadesoft/util/mcgen/Plib/libjt74opal.a(dwlnew.o) (lunpik_)
/home/pcl2483/pedro/jadesoft/util/mcgen/Plib/libjt74opal.a(dadmel.o)
                              /home/pcl2483/pedro/jadesoft/util/mcgen/Plib/libjt74opal.a(dexel.o) (dadmel_)
/home/pcl2483/pedro/jadesoft/util/mcgen/Plib/libjt74opal.a(dadmkk.o)
                              /home/pcl2483/pedro/jadesoft/util/mcgen/Plib/libjt74opal.a(dexkk.o) (dadmkk_)
/home/pcl2483/pedro/jadesoft/util/mcgen/Plib/libjt74opal.a(dadmks.o)
                              /home/pcl2483/pedro/jadesoft/util/mcgen/Plib/libjt74opal.a(dexks.o) (dadmks_)
/home/pcl2483/pedro/jadesoft/util/mcgen/Plib/libjt74opal.a(dadmmu.o)
                              /home/pcl2483/pedro/jadesoft/util/mcgen/Plib/libjt74opal.a(dexmu.o) (dadmmu_)
/home/pcl2483/pedro/jadesoft/util/mcgen/Plib/libjt74opal.a(dadmpi.o)
                              /home/pcl2483/pedro/jadesoft/util/mcgen/Plib/libjt74opal.a(dexpi.o) (dadmpi_)
/home/pcl2483/pedro/jadesoft/util/mcgen/Plib/libjt74opal.a(dadmro.o)
                              /home/pcl2483/pedro/jadesoft/util/mcgen/Plib/libjt74opal.a(dexro.o) (dadmro_)
/home/pcl2483/pedro/jadesoft/util/mcgen/Plib/libjt74opal.a(dadnew.o)
                              /home/pcl2483/pedro/jadesoft/util/mcgen/Plib/libjt74opal.a(dexnew.o) (dadnew_)
/home/pcl2483/pedro/jadesoft/util/mcgen/Plib/libjt74opal.a(dexaa.o)
                              /home/pcl2483/pedro/jadesoft/util/mcgen/Plib/libjt74opal.a(dexay.o) (dexaa_)
/home/pcl2483/pedro/jadesoft/util/mcgen/Plib/libjt74opal.a(dph4pi.o)
                              /home/pcl2483/pedro/jadesoft/util/mcgen/Plib/libjt74opal.a(dadnew.o) (dph4pi_)
/home/pcl2483/pedro/jadesoft/util/mcgen/Plib/libjt74opal.a(dph5pi.o)
                              /home/pcl2483/pedro/jadesoft/util/mcgen/Plib/libjt74opal.a(dadnew.o) (dph5pi_)
/home/pcl2483/pedro/jadesoft/util/mcgen/Plib/libjt74opal.a(dphnpi.o)
                              /home/pcl2483/pedro/jadesoft/util/mcgen/Plib/libjt74opal.a(dadnew.o) (dphnpi_)
/home/pcl2483/pedro/jadesoft/util/mcgen/Plib/libjt74opal.a(dphsel.o)
                              /home/pcl2483/pedro/jadesoft/util/mcgen/Plib/libjt74opal.a(dadmel.o) (dphsel_)
/home/pcl2483/pedro/jadesoft/util/mcgen/Plib/libjt74opal.a(dphsks.o)
                              /home/pcl2483/pedro/jadesoft/util/mcgen/Plib/libjt74opal.a(dadmks.o) (dphsks_)
/home/pcl2483/pedro/jadesoft/util/mcgen/Plib/libjt74opal.a(dphsmu.o)
                              /home/pcl2483/pedro/jadesoft/util/mcgen/Plib/libjt74opal.a(dadmmu.o) (dphsmu_)
/home/pcl2483/pedro/jadesoft/util/mcgen/Plib/libjt74opal.a(dphspk.o)
                              /home/pcl2483/pedro/jadesoft/util/mcgen/Plib/libjt74opal.a(dadnew.o) (dphspk_)
/home/pcl2483/pedro/jadesoft/util/mcgen/Plib/libjt74opal.a(dphsrk.o)
                              /home/pcl2483/pedro/jadesoft/util/mcgen/Plib/libjt74opal.a(dadnew.o) (dphsrk_)
/home/pcl2483/pedro/jadesoft/util/mcgen/Plib/libjt74opal.a(dphsro.o)
                              /home/pcl2483/pedro/jadesoft/util/mcgen/Plib/libjt74opal.a(dadmro.o) (dphsro_)
/home/pcl2483/pedro/jadesoft/util/mcgen/Plib/libjt74opal.a(dphtre.o)
                              /home/pcl2483/pedro/jadesoft/util/mcgen/Plib/libjt74opal.a(dphspk.o) (dphtre_)
/home/pcl2483/pedro/jadesoft/util/mcgen/Plib/libjt74opal.a(drcmu.o)
                              /home/pcl2483/pedro/jadesoft/util/mcgen/Plib/libjt74opal.a(dphsel.o) (drcmu_)
/home/pcl2483/pedro/jadesoft/util/mcgen/Plib/libjt74opal.a(dwluph.o)
                              /home/pcl2483/pedro/jadesoft/util/mcgen/Plib/libjt74opal.a(dwrph.o) (dwluph_)
/home/pcl2483/pedro/jadesoft/util/mcgen/Plib/libjt74opal.a(fpirho.o)
                              /home/pcl2483/pedro/jadesoft/util/mcgen/Plib/libjt74opal.a(dphsro.o) (fpirho_)
/home/pcl2483/pedro/jadesoft/util/mcgen/Plib/libjt74opal.a(fpirk.o)
                              /home/pcl2483/pedro/jadesoft/util/mcgen/Plib/libjt74opal.a(dphsrk.o) (fpirk_)
/home/pcl2483/pedro/jadesoft/util/mcgen/Plib/libjt74opal.a(rotor2.o)
                              /home/pcl2483/pedro/jadesoft/util/mcgen/Plib/libjt74opal.a(dadmel.o) (rotor2_)
/home/pcl2483/pedro/jadesoft/util/mcgen/Plib/libjt74opal.a(rotor3.o)
                              /home/pcl2483/pedro/jadesoft/util/mcgen/Plib/libjt74opal.a(dadmel.o) (rotor3_)
/home/pcl2483/pedro/jadesoft/util/mcgen/Plib/libjt74opal.a(rotpol.o)
                              /home/pcl2483/pedro/jadesoft/util/mcgen/Plib/libjt74opal.a(dph4pi.o) (rotpol_)
/home/pcl2483/pedro/jadesoft/util/mcgen/Plib/libjt74opal.a(rotpox.o)
                              /home/pcl2483/pedro/jadesoft/util/mcgen/Plib/libjt74opal.a(drcmu.o) (rotpox_)
/home/pcl2483/pedro/jadesoft/util/mcgen/Plib/libjt74opal.a(sigee.o)
                              /home/pcl2483/pedro/jadesoft/util/mcgen/Plib/libjt74opal.a(dphnpi.o) (sigee_)
/home/pcl2483/pedro/jadesoft/util/mcgen/Plib/libjt74opal.a(sphera.o)
                              /home/pcl2483/pedro/jadesoft/util/mcgen/Plib/libjt74opal.a(dadmkk.o) (sphera_)
/home/pcl2483/pedro/jadesoft/util/mcgen/Plib/libjt74opal.a(spherd.o)
                              /home/pcl2483/pedro/jadesoft/util/mcgen/Plib/libjt74opal.a(drcmu.o) (spherd_)
/home/pcl2483/pedro/jadesoft/util/mcgen/Plib/libjt74opal.a(bostd3.o)
                              /home/pcl2483/pedro/jadesoft/util/mcgen/Plib/libjt74opal.a(drcmu.o) (bostd3_)
/home/pcl2483/pedro/jadesoft/util/mcgen/Plib/libjt74opal.a(bostr3.o)
                              /home/pcl2483/pedro/jadesoft/util/mcgen/Plib/libjt74opal.a(dph4pi.o) (bostr3_)
/home/pcl2483/pedro/jadesoft/util/mcgen/Plib/libjt74opal.a(bwigs.o)
                              /home/pcl2483/pedro/jadesoft/util/mcgen/Plib/libjt74opal.a(dphsks.o) (bwigs_)
/home/pcl2483/pedro/jadesoft/util/mcgen/Plib/libjt74opal.a(choice.o)
                              /home/pcl2483/pedro/jadesoft/util/mcgen/Plib/libjt74opal.a(dph4pi.o) (choice_)
/home/pcl2483/pedro/jadesoft/util/mcgen/Plib/libjt74opal.a(dadmaa.o)
                              /home/pcl2483/pedro/jadesoft/util/mcgen/Plib/libjt74opal.a(dexaa.o) (dadmaa_)
/home/pcl2483/pedro/jadesoft/util/mcgen/Plib/libjt74opal.a(dam4pi.o)
                              /home/pcl2483/pedro/jadesoft/util/mcgen/Plib/libjt74opal.a(dph4pi.o) (dam4pi_)
/home/pcl2483/pedro/jadesoft/util/mcgen/Plib/libjt74opal.a(dampog.o)
                              /home/pcl2483/pedro/jadesoft/util/mcgen/Plib/libjt74opal.a(dphtre.o) (dampog_)
/home/pcl2483/pedro/jadesoft/util/mcgen/Plib/libjt74opal.a(damppk.o)
                              /home/pcl2483/pedro/jadesoft/util/mcgen/Plib/libjt74opal.a(dphtre.o) (damppk_)
/home/pcl2483/pedro/jadesoft/util/mcgen/Plib/libjt74opal.a(dampry.o)
                              /home/pcl2483/pedro/jadesoft/util/mcgen/Plib/libjt74opal.a(drcmu.o) (dampry_)
/home/pcl2483/pedro/jadesoft/util/mcgen/Plib/libjt74opal.a(dcdmas.o)
                              /home/pcl2483/pedro/jadesoft/util/mcgen/Plib/libjt74opal.a(dph5pi.o) (dcdmas_)
/home/pcl2483/pedro/jadesoft/util/mcgen/Plib/libjt74opal.a(dphsaa.o)
                              /home/pcl2483/pedro/jadesoft/util/mcgen/Plib/libjt74opal.a(dadmaa.o) (dphsaa_)
/home/pcl2483/pedro/jadesoft/util/mcgen/Plib/libjt74opal.a(form1.o)
                              /home/pcl2483/pedro/jadesoft/util/mcgen/Plib/libjt74opal.a(damppk.o) (form1_)
/home/pcl2483/pedro/jadesoft/util/mcgen/Plib/libjt74opal.a(form2.o)
                              /home/pcl2483/pedro/jadesoft/util/mcgen/Plib/libjt74opal.a(damppk.o) (form2_)
/home/pcl2483/pedro/jadesoft/util/mcgen/Plib/libjt74opal.a(form3.o)
                              /home/pcl2483/pedro/jadesoft/util/mcgen/Plib/libjt74opal.a(damppk.o) (form3_)
/home/pcl2483/pedro/jadesoft/util/mcgen/Plib/libjt74opal.a(form4.o)
                              /home/pcl2483/pedro/jadesoft/util/mcgen/Plib/libjt74opal.a(damppk.o) (form4_)
/home/pcl2483/pedro/jadesoft/util/mcgen/Plib/libjt74opal.a(form5.o)
                              /home/pcl2483/pedro/jadesoft/util/mcgen/Plib/libjt74opal.a(damppk.o) (form5_)
/home/pcl2483/pedro/jadesoft/util/mcgen/Plib/libjt74opal.a(formom.o)
                              /home/pcl2483/pedro/jadesoft/util/mcgen/Plib/libjt74opal.a(dampog.o) (formom_)
/home/pcl2483/pedro/jadesoft/util/mcgen/Plib/libjt74opal.a(fpik.o)
                              /home/pcl2483/pedro/jadesoft/util/mcgen/Plib/libjt74opal.a(fpirho.o) (fpik_)
/home/pcl2483/pedro/jadesoft/util/mcgen/Plib/libjt74opal.a(fpikm.o)
                              /home/pcl2483/pedro/jadesoft/util/mcgen/Plib/libjt74opal.a(fpirk.o) (fpikm_)
/home/pcl2483/pedro/jadesoft/util/mcgen/Plib/libjt74opal.a(fpikmd.o)
                              /home/pcl2483/pedro/jadesoft/util/mcgen/Plib/libjt74opal.a(form5.o) (fpikmd_)
/home/pcl2483/pedro/jadesoft/util/mcgen/Plib/libjt74opal.a(gfun.o)
                              /home/pcl2483/pedro/jadesoft/util/mcgen/Plib/libjt74opal.a(form1.o) (gfun_)
/home/pcl2483/pedro/jadesoft/util/mcgen/Plib/libjt74opal.a(prod5.o)
                              /home/pcl2483/pedro/jadesoft/util/mcgen/Plib/libjt74opal.a(damppk.o) (prod5_)
/home/pcl2483/pedro/jadesoft/util/mcgen/Plib/libjt74opal.a(rotod2.o)
                              /home/pcl2483/pedro/jadesoft/util/mcgen/Plib/libjt74opal.a(rotpox.o) (rotod2_)
/home/pcl2483/pedro/jadesoft/util/mcgen/Plib/libjt74opal.a(rotod3.o)
                              /home/pcl2483/pedro/jadesoft/util/mcgen/Plib/libjt74opal.a(rotpox.o) (rotod3_)
/home/pcl2483/pedro/jadesoft/util/mcgen/Plib/libjt74opal.a(sqm2.o)
                              /home/pcl2483/pedro/jadesoft/util/mcgen/Plib/libjt74opal.a(dampry.o) (sqm2_)
/home/pcl2483/pedro/jadesoft/util/mcgen/Plib/libjt74opal.a(thb.o)
                              /home/pcl2483/pedro/jadesoft/util/mcgen/Plib/libjt74opal.a(dampry.o) (thb_)
/home/pcl2483/pedro/jadesoft/util/mcgen/Plib/libjt74opal.a(wigfor.o)
                              /home/pcl2483/pedro/jadesoft/util/mcgen/Plib/libjt74opal.a(form1.o) (wigfor_)
/home/pcl2483/pedro/jadesoft/util/mcgen/Plib/libjt74opal.a(bwig.o)
                              /home/pcl2483/pedro/jadesoft/util/mcgen/Plib/libjt74opal.a(fpik.o) (bwig_)
/home/pcl2483/pedro/jadesoft/util/mcgen/Plib/libjt74opal.a(bwigm.o)
                              /home/pcl2483/pedro/jadesoft/util/mcgen/Plib/libjt74opal.a(form1.o) (bwigm_)
/home/pcl2483/pedro/jadesoft/util/mcgen/Plib/libjt74opal.a(claxi.o)
                              /home/pcl2483/pedro/jadesoft/util/mcgen/Plib/libjt74opal.a(dam4pi.o) (claxi_)
/home/pcl2483/pedro/jadesoft/util/mcgen/Plib/libjt74opal.a(clnut.o)
                              /home/pcl2483/pedro/jadesoft/util/mcgen/Plib/libjt74opal.a(dam4pi.o) (clnut_)
/home/pcl2483/pedro/jadesoft/util/mcgen/Plib/libjt74opal.a(clvec.o)
                              /home/pcl2483/pedro/jadesoft/util/mcgen/Plib/libjt74opal.a(dam4pi.o) (clvec_)
/home/pcl2483/pedro/jadesoft/util/mcgen/Plib/libjt74opal.a(curr.o)
                              /home/pcl2483/pedro/jadesoft/util/mcgen/Plib/libjt74opal.a(dam4pi.o) (curr_)
/home/pcl2483/pedro/jadesoft/util/mcgen/Plib/libjt74opal.a(dilog.o)
                              /home/pcl2483/pedro/jadesoft/util/mcgen/Plib/libjt74opal.a(thb.o) (dilog_)
/home/pcl2483/pedro/jadesoft/util/mcgen/Plib/libckern105.a(ckern.o)
                              mcar48p_105j.o (ckern_)
/home/pcl2483/pedro/jadesoft/util/mcgen/Plib/libckern105.a(cksord.o)
                              /home/pcl2483/pedro/jadesoft/util/mcgen/Plib/libckern105.a(ckern.o) (cksord_)
/home/pcl2483/pedro/jadesoft/util/mcgen/Plib/libckern105.a(cnjet.o)
                              mcar48p_105j.o (cnjet_)
/home/pcl2483/pedro/jadesoft/util/mcgen/Plib/libpx114.a(pxang3.o)
                              /home/pcl2483/pedro/jadesoft/util/mcgen/Plib/libmc105j.a(pxeecb.o) (pxang3_)
/home/pcl2483/pedro/jadesoft/util/mcgen/Plib/libpx114.a(pxanxy.o)
                              /home/pcl2483/pedro/jadesoft/util/mcgen/Plib/libmc105j.a(evwrtj.o) (pxanxy_)
/home/pcl2483/pedro/jadesoft/util/mcgen/Plib/libpx114.a(pxcone.o)
                              mcar48p_105j.o (pxcone_)
/home/pcl2483/pedro/jadesoft/util/mcgen/Plib/libpx114.a(pxcopv.o)
                              /home/pcl2483/pedro/jadesoft/util/mcgen/Plib/libmc105j.a(mcrnst.o) (pxcopv_)
/home/pcl2483/pedro/jadesoft/util/mcgen/Plib/libpx114.a(pxjpdg.o)
                              /home/pcl2483/pedro/jadesoft/util/mcgen/Plib/libmc105j.a(jtconv.o) (pxjpdg_)
/home/pcl2483/pedro/jadesoft/util/mcgen/Plib/libpx114.a(pxjsp3.o)
                              mcar48p_105j.o (pxjsp3_)
/home/pcl2483/pedro/jadesoft/util/mcgen/Plib/libpx114.a(pxlsp3.o)
                              mcar48p_105j.o (pxlsp3_)
/home/pcl2483/pedro/jadesoft/util/mcgen/Plib/libpx114.a(pxlth4.o)
                              mcar48p_105j.o (pxlth4_)
/home/pcl2483/pedro/jadesoft/util/mcgen/Plib/libpx114.a(pxlut3.o)
                              /home/pcl2483/pedro/jadesoft/util/mcgen/Plib/libpx114.a(pxlth4.o) (pxlut3_)
/home/pcl2483/pedro/jadesoft/util/mcgen/Plib/libpx114.a(pxlzf5.o)
                              mcar48p_105j.o (pxlzf5_)
/home/pcl2483/pedro/jadesoft/util/mcgen/Plib/libpx114.a(pxmmbb.o)
                              mcar48p_105j.o (pxmmbb_)
/home/pcl2483/pedro/jadesoft/util/mcgen/Plib/libpx114.a(pxnorv.o)
                              /home/pcl2483/pedro/jadesoft/util/mcgen/Plib/libpx114.a(pxcone.o) (pxnorv_)
/home/pcl2483/pedro/jadesoft/util/mcgen/Plib/libpx114.a(pxolap.o)
                              /home/pcl2483/pedro/jadesoft/util/mcgen/Plib/libpx114.a(pxcone.o) (pxolap_)
/home/pcl2483/pedro/jadesoft/util/mcgen/Plib/libpx114.a(pxord.o)
                              /home/pcl2483/pedro/jadesoft/util/mcgen/Plib/libpx114.a(pxcone.o) (pxord_)
/home/pcl2483/pedro/jadesoft/util/mcgen/Plib/libpx114.a(pxplt3.o)
                              mcar48p_105j.o (pxplt3_)
/home/pcl2483/pedro/jadesoft/util/mcgen/Plib/libpx114.a(pxplu3.o)
                              /home/pcl2483/pedro/jadesoft/util/mcgen/Plib/libpx114.a(pxlut3.o) (pxplu3_)
/home/pcl2483/pedro/jadesoft/util/mcgen/Plib/libpx114.a(pxprcv.o)
                              /home/pcl2483/pedro/jadesoft/util/mcgen/Plib/libmc105j.a(mcstbl.o) (pxprcv_)
/home/pcl2483/pedro/jadesoft/util/mcgen/Plib/libpx114.a(pxprrv.o)
                              /home/pcl2483/pedro/jadesoft/util/mcgen/Plib/libmc105j.a(mcwrit.o) (pxprrv_)
/home/pcl2483/pedro/jadesoft/util/mcgen/Plib/libpx114.a(pxrap4.o)
                              mcar48p_105j.o (pxrap4_)
/home/pcl2483/pedro/jadesoft/util/mcgen/Plib/libpx114.a(pxrmx3.o)
                              /home/pcl2483/pedro/jadesoft/util/mcgen/Plib/libpx114.a(pxlut3.o) (pxrmx3_)
/home/pcl2483/pedro/jadesoft/util/mcgen/Plib/libpx114.a(pxrob3.o)
                              /home/pcl2483/pedro/jadesoft/util/mcgen/Plib/libpx114.a(pxlut3.o) (pxrob3_)
/home/pcl2483/pedro/jadesoft/util/mcgen/Plib/libpx114.a(pxrof3.o)
                              /home/pcl2483/pedro/jadesoft/util/mcgen/Plib/libpx114.a(pxlut3.o) (pxrof3_)
/home/pcl2483/pedro/jadesoft/util/mcgen/Plib/libpx114.a(pxsear.o)
                              /home/pcl2483/pedro/jadesoft/util/mcgen/Plib/libpx114.a(pxcone.o) (pxsear_)
/home/pcl2483/pedro/jadesoft/util/mcgen/Plib/libpx114.a(pxsorv.o)
                              /home/pcl2483/pedro/jadesoft/util/mcgen/Plib/libpx114.a(pxord.o) (pxsorv_)
/home/pcl2483/pedro/jadesoft/util/mcgen/Plib/libpx114.a(pxtry.o)
                              /home/pcl2483/pedro/jadesoft/util/mcgen/Plib/libpx114.a(pxsear.o) (pxtry_)
/home/pcl2483/pedro/jadesoft/util/mcgen/Plib/libpx114.a(pxuvec.o)
                              /home/pcl2483/pedro/jadesoft/util/mcgen/Plib/libpx114.a(pxcone.o) (pxuvec_)
/home/pcl2483/pedro/jadesoft/util/mcgen/Plib/libpx114.a(pxzerv.o)
                              /home/pcl2483/pedro/jadesoft/util/mcgen/Plib/libpx114.a(pxcone.o) (pxzerv_)
/home/pcl2483/pedro/jadesoft/util/mcgen/Plib/libpx114.a(ykern.o)
                              mcar48p_105j.o (ykern_)
/home/pcl2483/pedro/jadesoft/util/mcgen/Plib/libpx114.a(ynjet.o)
                              mcar48p_105j.o (ynjet_)
/home/pcl2483/pedro/jadesoft/util/mcgen/Plib/libpx114.a(yyjet.o)
                              mcar48p_105j.o (yyjet_)
/home/pcl2483/pedro/jadesoft/util/mcgen/Plib/libpx114.a(pxaddv.o)
                              /home/pcl2483/pedro/jadesoft/util/mcgen/Plib/libpx114.a(pxcone.o) (pxaddv_)
/home/pcl2483/pedro/jadesoft/util/mcgen/Plib/libpx114.a(pxdiam.o)
                              /home/pcl2483/pedro/jadesoft/util/mcgen/Plib/libpx114.a(pxlsp3.o) (pxdiam_)
/home/pcl2483/pedro/jadesoft/util/mcgen/Plib/libpx114.a(pxmulm.o)
                              /home/pcl2483/pedro/jadesoft/util/mcgen/Plib/libpx114.a(pxdiam.o) (pxmulm_)
/home/pcl2483/pedro/jadesoft/util/mcgen/Plib/libpx114.a(pxnew.o)
                              /home/pcl2483/pedro/jadesoft/util/mcgen/Plib/libpx114.a(pxsear.o) (pxnew_)
/home/pcl2483/pedro/jadesoft/util/mcgen/Plib/libpx114.a(pxsame.o)
                              /home/pcl2483/pedro/jadesoft/util/mcgen/Plib/libpx114.a(pxsear.o) (pxsame_)
/home/pcl2483/pedro/jadesoft/util/mcgen/Plib/libpx114.a(pxunim.o)
                              /home/pcl2483/pedro/jadesoft/util/mcgen/Plib/libpx114.a(pxdiam.o) (pxunim_)
/cern/99/lib/libpacklib.a(ffgo.o)
                              /home/pcl2483/pedro/jadesoft/util/mcgen/Plib/libmc105j.a(mcinit.o) (ffgo_)
/cern/99/lib/libpacklib.a(ffinit.o)
                              /home/pcl2483/pedro/jadesoft/util/mcgen/Plib/libmc105j.a(mcinit.o) (ffinit_)
/cern/99/lib/libpacklib.a(ffkey.o)
                              mcar48p_105j.o (ffkey_)
/cern/99/lib/libpacklib.a(ffset.o)
                              /home/pcl2483/pedro/jadesoft/util/mcgen/Plib/libmc105j.a(mcinit.o) (ffset_)
/cern/99/lib/libpacklib.a(ffskip.o)
                              /cern/99/lib/libpacklib.a(ffgo.o) (ffskip_)
/cern/99/lib/libpacklib.a(ffupca.o)
                              /cern/99/lib/libpacklib.a(ffgo.o) (ffupca_)
/cern/99/lib/libpacklib.a(ffuser.o)
                              /cern/99/lib/libpacklib.a(ffinit.o) (ffuser_)
/cern/99/lib/libpacklib.a(ffuset.o)
                              /cern/99/lib/libpacklib.a(ffinit.o) (ffuset_)
/cern/99/lib/libpacklib.a(hrput.o)
                              mcar48p_105j.o (hrput_)
/cern/99/lib/libpacklib.a(hbook1.o)
                              mcar48p_105j.o (hbook1_)
/cern/99/lib/libpacklib.a(hbook2.o)
                              mcar48p_105j.o (hbook2_)
/cern/99/lib/libpacklib.a(hbookb.o)
                              mcar48p_105j.o (hbookb_)
/cern/99/lib/libpacklib.a(hbtit.o)
                              /cern/99/lib/libpacklib.a(hbook1.o) (hbtit_)
/cern/99/lib/libpacklib.a(hbug.o)
                              /cern/99/lib/libpacklib.a(hbook1.o) (hbug_)
/cern/99/lib/libpacklib.a(hcdir.o)
                              mcar48p_105j.o (hcdir_)
/cern/99/lib/libpacklib.a(hchnam.o)
                              /cern/99/lib/libpacklib.a(hcdir.o) (hchnam_)
/cern/99/lib/libpacklib.a(hdelet.o)
                              /cern/99/lib/libpacklib.a(hbook1.o) (hdelet_)
/cern/99/lib/libpacklib.a(hfill.o)
                              mcar48p_105j.o (hfill_)
/cern/99/lib/libpacklib.a(hfilpf.o)
                              /cern/99/lib/libpacklib.a(hfill.o) (hfilpf_)
/cern/99/lib/libpacklib.a(hgive.o)
                              mcar48p_105j.o (hgive_)
/cern/99/lib/libpacklib.a(hidopt.o)
                              mcar48p_105j.o (hidopt_)
/cern/99/lib/libpacklib.a(hlimit.o)
                              mcar48p_105j.o (hlimit_)
/cern/99/lib/libpacklib.a(hloop.o)
                              /cern/99/lib/libpacklib.a(hidopt.o) (hloop_)
/cern/99/lib/libpacklib.a(hmachi.o)
                              /cern/99/lib/libpacklib.a(hlimit.o) (hmachi_)
/cern/99/lib/libpacklib.a(hnoent.o)
                              mcar48p_105j.o (hnoent_)
/cern/99/lib/libpacklib.a(hopera.o)
                              mcar48p_105j.o (hopera_)
/cern/99/lib/libpacklib.a(hpaff.o)
                              /cern/99/lib/libpacklib.a(hcdir.o) (hpaff_)
/cern/99/lib/libpacklib.a(hpak.o)
                              mcar48p_105j.o (hpak_)
/cern/99/lib/libpacklib.a(hpake.o)
                              mcar48p_105j.o (hpake_)
/cern/99/lib/libpacklib.a(hpath.o)
                              /cern/99/lib/libpacklib.a(hcdir.o) (hpath_)
/cern/99/lib/libpacklib.a(hrebin.o)
                              mcar48p_105j.o (hrebin_)
/cern/99/lib/libpacklib.a(hreset.o)
                              /cern/99/lib/libpacklib.a(hopera.o) (hreset_)
/cern/99/lib/libpacklib.a(hrez0.o)
                              /cern/99/lib/libpacklib.a(hreset.o) (hrez0_)
/cern/99/lib/libpacklib.a(hsifla.o)
                              /cern/99/lib/libpacklib.a(hidopt.o) (hsifla_)
/cern/99/lib/libpacklib.a(hspace.o)
                              /cern/99/lib/libpacklib.a(hbook1.o) (hspace_)
/cern/99/lib/libpacklib.a(hstaf.o)
                              mcar48p_105j.o (hstaf_)
/cern/99/lib/libpacklib.a(hsupis.o)
                              /cern/99/lib/libpacklib.a(hreset.o) (hsupis_)
/cern/99/lib/libpacklib.a(huoptc.o)
                              /cern/99/lib/libpacklib.a(hrput.o) (huoptc_)
/cern/99/lib/libpacklib.a(hlogpf.o)
                              /cern/99/lib/libpacklib.a(hcdir.o) (hlogpf_)
/cern/99/lib/libpacklib.a(hoptpf.o)
                              /cern/99/lib/libpacklib.a(hstaf.o) (hoptpf_)
/cern/99/lib/libpacklib.a(hitoc.o)
                              /cern/99/lib/libpacklib.a(hchnam.o) (hitoc_)
/cern/99/lib/libpacklib.a(hnbufd.o)
                              /cern/99/lib/libpacklib.a(hdelet.o) (hnbufd_)
/cern/99/lib/libpacklib.a(hntmpd.o)
                              /cern/99/lib/libpacklib.a(hnbufd.o) (hntmpd_)
/cern/99/lib/libpacklib.a(hntrset.o)
                              /cern/99/lib/libpacklib.a(hreset.o) (hntrset_)
/cern/99/lib/libpacklib.a(fzin.o)
                              /cern/99/lib/libpacklib.a(hlogpf.o) (fzin_)
/cern/99/lib/libpacklib.a(fzirel.o)
                              /cern/99/lib/libpacklib.a(fzin.o) (fzirel_)
/cern/99/lib/libpacklib.a(fzloc.o)
                              /cern/99/lib/libpacklib.a(fzin.o) (fzloc_)
/cern/99/lib/libpacklib.a(mzbook.o)
                              /cern/99/lib/libpacklib.a(hbook1.o) (mzbook_)
/cern/99/lib/libpacklib.a(mzdrop.o)
                              /cern/99/lib/libpacklib.a(hdelet.o) (mzdrop_)
/cern/99/lib/libpacklib.a(mzebra.o)
                              /cern/99/lib/libpacklib.a(hlimit.o) (mzebra_)
/cern/99/lib/libpacklib.a(mzflag.o)
                              /cern/99/lib/libpacklib.a(mzdrop.o) (mzflag_)
/cern/99/lib/libpacklib.a(mzinco.o)
                              /cern/99/lib/libpacklib.a(mzebra.o) (mzinco_)
/cern/99/lib/libpacklib.a(mzlift.o)
                              /cern/99/lib/libpacklib.a(mzbook.o) (mzlift_)
/cern/99/lib/libpacklib.a(mzlink.o)
                              /cern/99/lib/libpacklib.a(hlimit.o) (mzlink_)
/cern/99/lib/libpacklib.a(mzneed.o)
                              /cern/99/lib/libpacklib.a(hspace.o) (mzneed_)
/cern/99/lib/libpacklib.a(mzpaw.o)
                              /cern/99/lib/libpacklib.a(hlimit.o) (mzpaw_)
/cern/99/lib/libpacklib.a(mzpush.o)
                              /cern/99/lib/libpacklib.a(hbook1.o) (mzpush_)
/cern/99/lib/libpacklib.a(mzstor.o)
                              /cern/99/lib/libpacklib.a(mzpaw.o) (mzstor_)
/cern/99/lib/libpacklib.a(mzvers.o)
                              /cern/99/lib/libpacklib.a(mzebra.o) (mzvers_)
/cern/99/lib/libpacklib.a(mzgar1.o)
                              /cern/99/lib/libpacklib.a(mzlift.o) (mzgar1_)
/cern/99/lib/libpacklib.a(mzgsta.o)
                              /cern/99/lib/libpacklib.a(mzgar1.o) (mzgsta_)
/cern/99/lib/libpacklib.a(mzmove.o)
                              /cern/99/lib/libpacklib.a(mzgar1.o) (mzmove_)
/cern/99/lib/libpacklib.a(mzrelb.o)
                              /cern/99/lib/libpacklib.a(fzirel.o) (mzrelb_)
/cern/99/lib/libpacklib.a(mzrell.o)
                              /cern/99/lib/libpacklib.a(fzirel.o) (mzrell_)
/cern/99/lib/libpacklib.a(mzrelx.o)
                              /cern/99/lib/libpacklib.a(mzpush.o) (mzrelx_)
/cern/99/lib/libpacklib.a(mztabf.o)
                              /cern/99/lib/libpacklib.a(mzgar1.o) (mztabf_)
/cern/99/lib/libpacklib.a(mztabm.o)
                              /cern/99/lib/libpacklib.a(mzpush.o) (mztabm_)
/cern/99/lib/libpacklib.a(mztabr.o)
                              /cern/99/lib/libpacklib.a(mzgar1.o) (mztabr_)
/cern/99/lib/libpacklib.a(mztabs.o)
                              /cern/99/lib/libpacklib.a(mzgar1.o) (mztabs_)
/cern/99/lib/libpacklib.a(mztabx.o)
                              /cern/99/lib/libpacklib.a(mzpush.o) (mztabx_)
/cern/99/lib/libpacklib.a(mzchln.o)
                              /cern/99/lib/libpacklib.a(mzrelb.o) (mzchln_)
/cern/99/lib/libpacklib.a(mzchls.o)
                              /cern/99/lib/libpacklib.a(mzdrop.o) (mzchls_)
/cern/99/lib/libpacklib.a(mzchnb.o)
                              /cern/99/lib/libpacklib.a(mzlift.o) (mzchnb_)
/cern/99/lib/libpacklib.a(mzfdiv.o)
                              /cern/99/lib/libpacklib.a(mzpush.o) (mzfdiv_)
/cern/99/lib/libpacklib.a(mzform.o)
                              /cern/99/lib/libpacklib.a(hlimit.o) (mzform_)
/cern/99/lib/libpacklib.a(mzioch.o)
                              /cern/99/lib/libpacklib.a(mzform.o) (mzioch_)
/cern/99/lib/libpacklib.a(mzresv.o)
                              /cern/99/lib/libpacklib.a(mzlift.o) (mzresv_)
/cern/99/lib/libpacklib.a(mzsdiv.o)
                              /cern/99/lib/libpacklib.a(fzin.o) (mzsdiv_)
/cern/99/lib/libpacklib.a(zvautx.o)
                              /cern/99/lib/libpacklib.a(fzin.o) (zvautx_)
/cern/99/lib/libpacklib.a(zfatal.o)
                              /cern/99/lib/libpacklib.a(fzin.o) (zfatal_)
/cern/99/lib/libpacklib.a(zfatam.o)
                              /cern/99/lib/libpacklib.a(mzebra.o) (zfatam_)
/cern/99/lib/libpacklib.a(ztell.o)
                              /cern/99/lib/libpacklib.a(mzgar1.o) (ztell_)
/cern/99/lib/libpacklib.a(ztelus.o)
                              /cern/99/lib/libpacklib.a(ztell.o) (ztelus_)
/cern/99/lib/libpacklib.a(izbcdt.o)
                              /cern/99/lib/libpacklib.a(mzioch.o) (izbcdt_)
/cern/99/lib/libpacklib.a(izhnum.o)
                              /cern/99/lib/libpacklib.a(mzinco.o) (izhnum_)
/cern/99/lib/libpacklib.a(zshunt.o)
                              /cern/99/lib/libpacklib.a(fzin.o) (zshunt_)
/cern/99/lib/libpacklib.a(rzcdir.o)
                              /cern/99/lib/libpacklib.a(hrput.o) (rzcdir_)
/cern/99/lib/libpacklib.a(rzdate.o)
                              /cern/99/lib/libpacklib.a(rzcdir.o) (rzdate_)
/cern/99/lib/libpacklib.a(rzfdir.o)
                              /cern/99/lib/libpacklib.a(rzcdir.o) (rzfdir_)
/cern/99/lib/libpacklib.a(rziodo.o)
                              /cern/99/lib/libpacklib.a(rzfdir.o) (rziodo_)
/cern/99/lib/libpacklib.a(rzpaff.o)
                              /cern/99/lib/libpacklib.a(rzcdir.o) (rzpaff_)
/cern/99/lib/libpacklib.a(rzpath.o)
                              /cern/99/lib/libpacklib.a(rzcdir.o) (rzpath_)
/cern/99/lib/libpacklib.a(rzrtop.o)
                              /cern/99/lib/libpacklib.a(rzcdir.o) (rzrtop_)
/cern/99/lib/libpacklib.a(rzsame.o)
                              /cern/99/lib/libpacklib.a(rzfdir.o) (rzsame_)
/cern/99/lib/libpacklib.a(rzsave.o)
                              /cern/99/lib/libpacklib.a(rzcdir.o) (rzsave_)
/cern/99/lib/libpacklib.a(rzstrir.o)
                              /cern/99/lib/libpacklib.a(rziodo.o) (rzstrir_)
/cern/99/lib/libpacklib.a(rzvcyc.o)
                              /cern/99/lib/libpacklib.a(rzfdir.o) (rzvcyc_)
/cern/99/lib/libpacklib.a(abend.o)
                              /cern/99/lib/libpacklib.a(zfatal.o) (abend_)
/cern/99/lib/libpacklib.a(datime.o)
                              /cern/99/lib/libpacklib.a(hmachi.o) (datime_)
/cern/99/lib/libpacklib.a(datimh.o)
                              /cern/99/lib/libpacklib.a(hmachi.o) (datimh_)
/cern/99/lib/libpacklib.a(jumpxn.o)
                              /cern/99/lib/libpacklib.a(ffuset.o) (jumpad_)
/cern/99/lib/libpacklib.a(locf.o)
                              /cern/99/lib/libpacklib.a(ffkey.o) (locf_)
/cern/99/lib/libpacklib.a(qnexte.o)
                              /cern/99/lib/libpacklib.a(ztell.o) (qnexte_)
/cern/99/lib/libpacklib.a(lenocc.o)
                              mcar48p_105j.o (lenocc_)
/cern/99/lib/libpacklib.a(vxinvb.o)
                              /cern/99/lib/libpacklib.a(rziodo.o) (vxinvb_)
/cern/99/lib/libpacklib.a(cfclos.o)
                              /cern/99/lib/libpacklib.a(rzstrir.o) (cfclos_)
/cern/99/lib/libpacklib.a(cfget.o)
                              /cern/99/lib/libpacklib.a(rziodo.o) (cfget_)
/cern/99/lib/libpacklib.a(cfput.o)
                              /cern/99/lib/libpacklib.a(rziodo.o) (cfput_)
/cern/99/lib/libpacklib.a(cfseek.o)
                              /cern/99/lib/libpacklib.a(rziodo.o) (cfseek_)
/cern/99/lib/libpacklib.a(cfopen.o)
                              /cern/99/lib/libpacklib.a(rzstrir.o) (cfopen_)
/cern/99/lib/libpacklib.a(cleft.o)
                              /cern/99/lib/libpacklib.a(mzebra.o) (cleft_)
/cern/99/lib/libpacklib.a(cltou.o)
                              /cern/99/lib/libpacklib.a(hidopt.o) (cltou_)
/cern/99/lib/libpacklib.a(cutol.o)
                              /cern/99/lib/libpacklib.a(cfopen.o) (cutol_)
/cern/99/lib/libpacklib.a(floarg.o)
                              /cern/99/lib/libpacklib.a(hbook1.o) (floarg_)
/cern/99/lib/libpacklib.a(intarg.o)
                              /cern/99/lib/libpacklib.a(hbook1.o) (intarg_)
/cern/99/lib/libpacklib.a(kerngt.o)
                              /cern/99/lib/libpacklib.a(mzvers.o) (kerngt_)
/cern/99/lib/libpacklib.a(uoptc.o)
                              /cern/99/lib/libpacklib.a(huoptc.o) (uoptc_)
/cern/99/lib/libpacklib.a(utrans.o)
                              /cern/99/lib/libpacklib.a(mzioch.o) (utrans_)
/cern/99/lib/libpacklib.a(ishftr.o)
                              /cern/99/lib/libpacklib.a(fzloc.o) (ishftr_)
/cern/99/lib/libpacklib.a(qnext.o)
                              /cern/99/lib/libpacklib.a(qnexte.o) (qnext_)
/cern/99/lib/libpacklib.a(ucopy2c.o)
                              /cern/99/lib/libpacklib.a(ffgo.o) (ucopy2_)
/cern/99/lib/libpacklib.a(iucomp.o)
                              /cern/99/lib/libpacklib.a(ffkey.o) (iucomp_)
/cern/99/lib/libpacklib.a(noarg.o)
                              /cern/99/lib/libpacklib.a(hbook1.o) (noarg_)
/cern/99/lib/libpacklib.a(sbit0.o)
                              /cern/99/lib/libpacklib.a(hopera.o) (sbit0_)
/cern/99/lib/libpacklib.a(sbit1.o)
                              /cern/99/lib/libpacklib.a(hbook1.o) (sbit1_)
/cern/99/lib/libpacklib.a(ublow.o)
                              /cern/99/lib/libpacklib.a(hmachi.o) (ublow_)
/cern/99/lib/libpacklib.a(ubunch.o)
                              /cern/99/lib/libpacklib.a(utrans.o) (ubunch_)
/cern/99/lib/libpacklib.a(ucopy.o)
                              /home/pcl2483/pedro/jadesoft/util/mcgen/Plib/libmc105j.a(mcstbl.o) (ucopy_)
/cern/99/lib/libpacklib.a(uctoh.o)
                              /cern/99/lib/libpacklib.a(ffgo.o) (uctoh_)
/cern/99/lib/libpacklib.a(uctoh1.o)
                              /cern/99/lib/libpacklib.a(mzinco.o) (uctoh1_)
/cern/99/lib/libpacklib.a(uhtoc.o)
                              mcar48p_105j.o (uhtoc_)
/cern/99/lib/libpacklib.a(vblank.o)
                              mcar48p_105j.o (vblank_)
/cern/99/lib/libpacklib.a(vfill.o)
                              /cern/99/lib/libpacklib.a(ffinit.o) (vfill_)
/cern/99/lib/libpacklib.a(vzero.o)
                              mcar48p_105j.o (vzero_)
/cern/99/lib/libpacklib.a(jbit.o)
                              /cern/99/lib/libpacklib.a(hdelet.o) (jbit_)
/cern/99/lib/libpacklib.a(jbyt.o)
                              /cern/99/lib/libpacklib.a(hidopt.o) (jbyt_)
/cern/99/lib/libpacklib.a(sbyt.o)
                              /cern/99/lib/libpacklib.a(hidopt.o) (sbyt_)
/cern/99/lib/libpacklib.a(locati.o)
                              /cern/99/lib/libpacklib.a(hbook1.o) (locati_)
/cern/99/lib/libpacklib.a(czgeta.o)
                              /cern/99/lib/libpacklib.a(hcdir.o) (czgeta_)
/cern/99/lib/libpacklib.a(czputa.o)
                              /cern/99/lib/libpacklib.a(hcdir.o) (czputa_)
/cern/99/lib/libpacklib.a(ffcard.o)
                              /cern/99/lib/libpacklib.a(ffgo.o) (ffcard_)
/cern/99/lib/libpacklib.a(fffind.o)
                              /cern/99/lib/libpacklib.a(ffgo.o) (fffind_)
/cern/99/lib/libpacklib.a(hqputf.o)
                              /cern/99/lib/libpacklib.a(hsupis.o) (hqputf_)
/cern/99/lib/libpacklib.a(hbpqry.o)
                              /cern/99/lib/libpacklib.a(hlogpf.o) (greppqry_)
/cern/99/lib/libpacklib.a(hrendc.o)
                              /cern/99/lib/libpacklib.a(hrput.o) (hrendc_)
/cern/99/lib/libpacklib.a(hropen.o)
                              /cern/99/lib/libpacklib.a(hrput.o) (hropen_)
/cern/99/lib/libpacklib.a(hrout.o)
                              /cern/99/lib/libpacklib.a(hrput.o) (hrout_)
/cern/99/lib/libpacklib.a(hrzcd.o)
                              /cern/99/lib/libpacklib.a(hcdir.o) (hrzcd_)
/cern/99/lib/libpacklib.a(hrzout.o)
                              /cern/99/lib/libpacklib.a(hrout.o) (hrzout_)
/cern/99/lib/libpacklib.a(hbar2.o)
                              /cern/99/lib/libpacklib.a(hopera.o) (hbar2_)
/cern/99/lib/libpacklib.a(hbarx.o)
                              /cern/99/lib/libpacklib.a(hopera.o) (hbarx_)
/cern/99/lib/libpacklib.a(hbary.o)
                              /cern/99/lib/libpacklib.a(hopera.o) (hbary_)
/cern/99/lib/libpacklib.a(hbin.o)
                              /cern/99/lib/libpacklib.a(hbook1.o) (hbin_)
/cern/99/lib/libpacklib.a(hcopy.o)
                              /cern/99/lib/libpacklib.a(hopera.o) (hcopy_)
/cern/99/lib/libpacklib.a(hcx.o)
                              /cern/99/lib/libpacklib.a(hbarx.o) (hcx_)
/cern/99/lib/libpacklib.a(hcxy.o)
                              /cern/99/lib/libpacklib.a(hopera.o) (hcxy_)
/cern/99/lib/libpacklib.a(hdcofl.o)
                              /cern/99/lib/libpacklib.a(hgive.o) (hdcofl_)
/cern/99/lib/libpacklib.a(hf1.o)
                              /cern/99/lib/libpacklib.a(hfill.o) (hf1_)
/cern/99/lib/libpacklib.a(hf1aut.o)
                              /cern/99/lib/libpacklib.a(hf1.o) (hf1aut_)
/cern/99/lib/libpacklib.a(hf2.o)
                              /cern/99/lib/libpacklib.a(hfill.o) (hf2_)
/cern/99/lib/libpacklib.a(hfcx.o)
                              /cern/99/lib/libpacklib.a(hpak.o) (hfcx_)
/cern/99/lib/libpacklib.a(hfcxy.o)
                              /cern/99/lib/libpacklib.a(hopera.o) (hfcxy_)
/cern/99/lib/libpacklib.a(hfidp.o)
                              /cern/99/lib/libpacklib.a(hfill.o) (hfidp_)
/cern/99/lib/libpacklib.a(hfind.o)
                              /cern/99/lib/libpacklib.a(hgive.o) (hfind_)
/cern/99/lib/libpacklib.a(hi.o)
                              /cern/99/lib/libpacklib.a(hrebin.o) (hi_)
/cern/99/lib/libpacklib.a(hie.o)
                              /cern/99/lib/libpacklib.a(hrebin.o) (hie_)
/cern/99/lib/libpacklib.a(hix.o)
                              /cern/99/lib/libpacklib.a(hrebin.o) (hix_)
/cern/99/lib/libpacklib.a(hlabeq.o)
                              /cern/99/lib/libpacklib.a(hopera.o) (hlabeq_)
/cern/99/lib/libpacklib.a(hmdir.o)
                              /cern/99/lib/libpacklib.a(hrout.o) (hmdir_)
/cern/99/lib/libpacklib.a(hoper1.o)
                              /cern/99/lib/libpacklib.a(hopera.o) (hoper1_)
/cern/99/lib/libpacklib.a(hoper1a.o)
                              /cern/99/lib/libpacklib.a(hopera.o) (hoper1a_)
/cern/99/lib/libpacklib.a(hnbfwr.o)
                              /cern/99/lib/libpacklib.a(hrout.o) (hnbfwr_)
/cern/99/lib/libpacklib.a(hnbuff.o)
                              /cern/99/lib/libpacklib.a(hnbfwr.o) (hnbuff_)
/cern/99/lib/libpacklib.a(hnmset.o)
                              /cern/99/lib/libpacklib.a(hntrset.o) (hnmset_)
/cern/99/lib/libpacklib.a(hntdel.o)
                              /cern/99/lib/libpacklib.a(hrendc.o) (hntdel_)
/cern/99/lib/libpacklib.a(hntmpf.o)
                              /cern/99/lib/libpacklib.a(hnbuff.o) (hntmpf_)
/cern/99/lib/libpacklib.a(fzidia.o)
                              /cern/99/lib/libpacklib.a(fzin.o) (fzidia_)
/cern/99/lib/libpacklib.a(fziffn.o)
                              /cern/99/lib/libpacklib.a(fzin.o) (fziffn_)
/cern/99/lib/libpacklib.a(fziffx.o)
                              /cern/99/lib/libpacklib.a(fzin.o) (fziffx_)
/cern/99/lib/libpacklib.a(fzilin.o)
                              /cern/99/lib/libpacklib.a(fzirel.o) (fzilin_)
/cern/99/lib/libpacklib.a(fzimtb.o)
                              /cern/99/lib/libpacklib.a(fzin.o) (fzimtb_)
/cern/99/lib/libpacklib.a(fzirec.o)
                              /cern/99/lib/libpacklib.a(fziffx.o) (fzirec_)
/cern/99/lib/libpacklib.a(fzitrn.o)
                              /cern/99/lib/libpacklib.a(fziffx.o) (fzitrn_)
/cern/99/lib/libpacklib.a(fzout.o)
                              /cern/99/lib/libpacklib.a(hrzout.o) (fzout_)
/cern/99/lib/libpacklib.a(fzitrx.o)
                              /cern/99/lib/libpacklib.a(fziffx.o) (fzitrx_)
/cern/99/lib/libpacklib.a(mzcopy.o)
                              /cern/99/lib/libpacklib.a(hcopy.o) (mzcopy_)
/cern/99/lib/libpacklib.a(mzpudx.o)
                              /cern/99/lib/libpacklib.a(mzpush.o) (mzpudx_)
/cern/99/lib/libpacklib.a(mzfgap.o)
                              /cern/99/lib/libpacklib.a(fzimtb.o) (mzfgap_)
/cern/99/lib/libpacklib.a(mzgarb.o)
                              /cern/99/lib/libpacklib.a(fzimtb.o) (mzgarb_)
/cern/99/lib/libpacklib.a(mztabc.o)
                              /cern/99/lib/libpacklib.a(mztabr.o) (mztabc_)
/cern/99/lib/libpacklib.a(mztabh.o)
                              /cern/99/lib/libpacklib.a(mztabc.o) (mztabh_)
/cern/99/lib/libpacklib.a(mzdvac.o)
                              /cern/99/lib/libpacklib.a(mzgarb.o) (mzdvac_)
/cern/99/lib/libpacklib.a(mziocf.o)
                              /cern/99/lib/libpacklib.a(mzioch.o) (mziocf_)
/cern/99/lib/libpacklib.a(mziocr.o)
                              /cern/99/lib/libpacklib.a(fziffx.o) (mziocr_)
/cern/99/lib/libpacklib.a(mzixco.o)
                              /cern/99/lib/libpacklib.a(fzimtb.o) (mzixco_)
/cern/99/lib/libpacklib.a(zabend.o)
                              /cern/99/lib/libpacklib.a(zfatal.o) (zabend_)
/cern/99/lib/libpacklib.a(zend.o)
                              /cern/99/lib/libpacklib.a(ztell.o) (zend_)
/cern/99/lib/libpacklib.a(zphase.o)
                              /cern/99/lib/libpacklib.a(zend.o) (zphase_)
/cern/99/lib/libpacklib.a(zpostm.o)
                              /cern/99/lib/libpacklib.a(zabend.o) (zpostm_)
/cern/99/lib/libpacklib.a(zhtoi.o)
                              /cern/99/lib/libpacklib.a(rzfdir.o) (zhtoi_)
/cern/99/lib/libpacklib.a(rzclos.o)
                              /cern/99/lib/libpacklib.a(hrendc.o) (rzclos_)
/cern/99/lib/libpacklib.a(rzend.o)
                              /cern/99/lib/libpacklib.a(hropen.o) (rzend_)
/cern/99/lib/libpacklib.a(rzfree.o)
                              /cern/99/lib/libpacklib.a(rzend.o) (rzfree_)
/cern/99/lib/libpacklib.a(rzmdir.o)
                              /cern/99/lib/libpacklib.a(hmdir.o) (rzmdir_)
/cern/99/lib/libpacklib.a(rzmods.o)
                              /cern/99/lib/libpacklib.a(rzmdir.o) (rzmods_)
/cern/99/lib/libpacklib.a(rzopen.o)
                              /cern/99/lib/libpacklib.a(hropen.o) (rzopen_)
/cern/99/lib/libpacklib.a(rzout.o)
                              /cern/99/lib/libpacklib.a(hrzout.o) (rzout_)
/cern/99/lib/libpacklib.a(rzstrip.o)
                              /cern/99/lib/libpacklib.a(rzstrir.o) (rzstrip_)
/cern/99/lib/libpacklib.a(rzused.o)
                              /cern/99/lib/libpacklib.a(rzmdir.o) (rzused_)
/cern/99/lib/libpacklib.a(close.o)
                              /cern/99/lib/libpacklib.a(cfclos.o) (rfio_close)
/cern/99/lib/libpacklib.a(error.o)
                              /cern/99/lib/libpacklib.a(cfget.o) (rfio_errno)
/cern/99/lib/libpacklib.a(lseek.o)
                              /cern/99/lib/libpacklib.a(cfseek.o) (rfio_lseek)
/cern/99/lib/libpacklib.a(open.o)
                              /cern/99/lib/libpacklib.a(close.o) (rfio_cleanup)
/cern/99/lib/libpacklib.a(parse.o)
                              /cern/99/lib/libpacklib.a(open.o) (rfio_parse)
/cern/99/lib/libpacklib.a(read.o)
                              /cern/99/lib/libpacklib.a(cfget.o) (rfio_read)
/cern/99/lib/libpacklib.a(serror.o)
                              /cern/99/lib/libpacklib.a(error.o) (sstrerror)
/cern/99/lib/libpacklib.a(setopt.o)
                              /cern/99/lib/libpacklib.a(open.o) (rfiosetopt)
/cern/99/lib/libpacklib.a(socket.o)
                              /cern/99/lib/libpacklib.a(close.o) (recvfunc)
/cern/99/lib/libpacklib.a(stream.o)
                              /cern/99/lib/libpacklib.a(open.o) (rfio_open_v3)
/cern/99/lib/libpacklib.a(trace.o)
                              /cern/99/lib/libpacklib.a(close.o) (print_trace)
/cern/99/lib/libpacklib.a(write.o)
                              /cern/99/lib/libpacklib.a(cfput.o) (rfio_write)
/cern/99/lib/libpacklib.a(cfopei.o)
                              /cern/99/lib/libpacklib.a(cfopen.o) (cfopei_)
/cern/99/lib/libpacklib.a(cfstat.o)
                              /cern/99/lib/libpacklib.a(rzopen.o) (cfstat_)
/cern/99/lib/libpacklib.a(fchtak.o)
                              /cern/99/lib/libpacklib.a(cfopei.o) (fchtak)
/cern/99/lib/libpacklib.a(gshowf.o)
                              /cern/99/lib/libpacklib.a(kerngt.o) (gshowf_)
/cern/99/lib/libpacklib.a(icluns.o)
                              /cern/99/lib/libpacklib.a(rzmdir.o) (icluns_)
/cern/99/lib/libpacklib.a(traceq.o)
                              /cern/99/lib/libpacklib.a(zpostm.o) (traceq_)
/cern/99/lib/libpacklib.a(xinbf.o)
                              /cern/99/lib/libpacklib.a(fziffn.o) (xinbf_)
/cern/99/lib/libpacklib.a(xinbs.o)
                              /cern/99/lib/libpacklib.a(fziffn.o) (xinbs_)
/cern/99/lib/libpacklib.a(halloc.o)
                              /cern/99/lib/libpacklib.a(hrendc.o) (hbfree_)
/cern/99/lib/libpacklib.a(hrfile.o)
                              /cern/99/lib/libpacklib.a(hropen.o) (hrfile_)
/cern/99/lib/libpacklib.a(hfc1.o)
                              /cern/99/lib/libpacklib.a(hoper1a.o) (hfc1_)
/cern/99/lib/libpacklib.a(hlccmp.o)
                              /cern/99/lib/libpacklib.a(hfc1.o) (hlccmp_)
/cern/99/lib/libpacklib.a(hlgnxt.o)
                              /cern/99/lib/libpacklib.a(hoper1a.o) (hlgnxt_)
/cern/99/lib/libpacklib.a(hlhcmp.o)
                              /cern/99/lib/libpacklib.a(hlccmp.o) (hlhcmp_)
/cern/99/lib/libpacklib.a(hlpos.o)
                              /cern/99/lib/libpacklib.a(hoper1a.o) (hlpos_)
/cern/99/lib/libpacklib.a(dzsnap.o)
                              /cern/99/lib/libpacklib.a(zpostm.o) (dzsnap_)
/cern/99/lib/libpacklib.a(dztext.o)
                              /cern/99/lib/libpacklib.a(dzsnap.o) (dztext_)
/cern/99/lib/libpacklib.a(zpage.o)
                              /cern/99/lib/libpacklib.a(dztext.o) (zpage_)
/cern/99/lib/libpacklib.a(fzipha.o)
                              /cern/99/lib/libpacklib.a(fzirec.o) (fzipha_)
/cern/99/lib/libpacklib.a(fziphd.o)
                              /cern/99/lib/libpacklib.a(fzirec.o) (fziphd_)
/cern/99/lib/libpacklib.a(fziphm.o)
                              /cern/99/lib/libpacklib.a(fzirec.o) (fziphm_)
/cern/99/lib/libpacklib.a(fziphr.o)
                              /cern/99/lib/libpacklib.a(fzirec.o) (fziphr_)
/cern/99/lib/libpacklib.a(fziprl.o)
                              /cern/99/lib/libpacklib.a(fziphm.o) (fziprl_)
/cern/99/lib/libpacklib.a(fzoffn.o)
                              /cern/99/lib/libpacklib.a(fzout.o) (fzoffn_)
/cern/99/lib/libpacklib.a(fzoffx.o)
                              /cern/99/lib/libpacklib.a(fzout.o) (fzoffx_)
/cern/99/lib/libpacklib.a(fzon1.o)
                              /cern/99/lib/libpacklib.a(fzoffn.o) (fzon1_)
/cern/99/lib/libpacklib.a(fzon2.o)
                              /cern/99/lib/libpacklib.a(fzoffn.o) (fzon2_)
/cern/99/lib/libpacklib.a(fzon3.o)
                              /cern/99/lib/libpacklib.a(fzoffn.o) (fzon3_)
/cern/99/lib/libpacklib.a(fzon4.o)
                              /cern/99/lib/libpacklib.a(fzoffn.o) (fzon4_)
/cern/99/lib/libpacklib.a(fzon5.o)
                              /cern/99/lib/libpacklib.a(fzoffn.o) (fzon5_)
/cern/99/lib/libpacklib.a(fzon6.o)
                              /cern/99/lib/libpacklib.a(fzoffn.o) (fzon6_)
/cern/99/lib/libpacklib.a(fzorec.o)
                              /cern/99/lib/libpacklib.a(fzoffx.o) (fzorec_)
/cern/99/lib/libpacklib.a(fzotab.o)
                              /cern/99/lib/libpacklib.a(fzout.o) (fzotab_)
/cern/99/lib/libpacklib.a(fzotrn.o)
                              /cern/99/lib/libpacklib.a(fzoffx.o) (fzotrn_)
/cern/99/lib/libpacklib.a(fzotxt.o)
                              /cern/99/lib/libpacklib.a(fzout.o) (fzotxt_)
/cern/99/lib/libpacklib.a(fzicv.o)
                              /cern/99/lib/libpacklib.a(fzitrx.o) (fzicv_)
/cern/99/lib/libpacklib.a(fzotrx.o)
                              /cern/99/lib/libpacklib.a(fzoffx.o) (fzotrx_)
/cern/99/lib/libpacklib.a(mzend.o)
                              /cern/99/lib/libpacklib.a(zend.o) (mzend_)
/cern/99/lib/libpacklib.a(mzmaps.o)
                              /cern/99/lib/libpacklib.a(zpostm.o) (mzmaps_)
/cern/99/lib/libpacklib.a(mzmark.o)
                              /cern/99/lib/libpacklib.a(fzotab.o) (mzmark_)
/cern/99/lib/libpacklib.a(mzwork.o)
                              /cern/99/lib/libpacklib.a(zphase.o) (mzwork_)
/cern/99/lib/libpacklib.a(zitoh.o)
                              /cern/99/lib/libpacklib.a(rzclos.o) (zitoh_)
/cern/99/lib/libpacklib.a(rzallo.o)
                              /cern/99/lib/libpacklib.a(rzmdir.o) (rzallo_)
/cern/99/lib/libpacklib.a(rzdelk.o)
                              /cern/99/lib/libpacklib.a(rzout.o) (rzdelk_)
/cern/99/lib/libpacklib.a(rzexpd.o)
                              /cern/99/lib/libpacklib.a(rzmdir.o) (rzexpd_)
/cern/99/lib/libpacklib.a(rzfile.o)
                              /cern/99/lib/libpacklib.a(hrfile.o) (rzfile_)
/cern/99/lib/libpacklib.a(rzllok.o)
                              /cern/99/lib/libpacklib.a(rzfile.o) (rzllok_)
/cern/99/lib/libpacklib.a(rzlock.o)
                              /cern/99/lib/libpacklib.a(rzfile.o) (rzlock_)
/cern/99/lib/libpacklib.a(rzmake.o)
                              /cern/99/lib/libpacklib.a(hrfile.o) (rzmake_)
/cern/99/lib/libpacklib.a(rzobkn.o)
                              /cern/99/lib/libpacklib.a(rzout.o) (rzobkn_)
/cern/99/lib/libpacklib.a(rzpurf.o)
                              /cern/99/lib/libpacklib.a(rzdelk.o) (rzpurf_)
/cern/99/lib/libpacklib.a(rzveri.o)
                              /cern/99/lib/libpacklib.a(rzfile.o) (rzveri_)
/cern/99/lib/libpacklib.a(rzwrt.o)
                              /cern/99/lib/libpacklib.a(rzobkn.o) (rzwrt_)
/cern/99/lib/libpacklib.a(connect.o)
                              /cern/99/lib/libpacklib.a(error.o) (rfio_connect)
/cern/99/lib/libpacklib.a(getacct.o)
                              /cern/99/lib/libpacklib.a(open.o) (getacct)
/cern/99/lib/libpacklib.a(getacctent.o)
                              /cern/99/lib/libpacklib.a(getacct.o) (getacctent)
/cern/99/lib/libpacklib.a(getconfent.o)
                              /cern/99/lib/libpacklib.a(open.o) (getconfent)
/cern/99/lib/libpacklib.a(getifnam.o)
                              /cern/99/lib/libpacklib.a(read.o) (getifnam)
/cern/99/lib/libpacklib.a(log.o)
                              /cern/99/lib/libpacklib.a(socket.o) (logfunc)
/cern/99/lib/libpacklib.a(remote.o)
                              /cern/99/lib/libpacklib.a(stream.o) (isremote)
/cern/99/lib/libpacklib.a(setnetio.o)
                              /cern/99/lib/libpacklib.a(stream.o) (setnetio)
/cern/99/lib/libpacklib.a(vxinvc.o)
                              /cern/99/lib/libpacklib.a(fziphm.o) (vxinvc_)
/cern/99/lib/libpacklib.a(cfstati.o)
                              /cern/99/lib/libpacklib.a(cfstat.o) (cfstati_)
/cern/99/lib/libpacklib.a(dzare1.o)
                              /cern/99/lib/libpacklib.a(dzsnap.o) (dzare1_)
/cern/99/lib/libpacklib.a(dzbkup.o)
                              /cern/99/lib/libpacklib.a(dzsnap.o) (dzbkup_)
/cern/99/lib/libpacklib.a(dzbkxr.o)
                              /cern/99/lib/libpacklib.a(dzsnap.o) (dzbkxr_)
/cern/99/lib/libpacklib.a(dzdata.o)
                              /cern/99/lib/libpacklib.a(dzsnap.o) (dzdata_)
/cern/99/lib/libpacklib.a(dzmap.o)
                              /cern/99/lib/libpacklib.a(dzsnap.o) (dzmap_)
/cern/99/lib/libpacklib.a(dzopt.o)
                              /cern/99/lib/libpacklib.a(dzsnap.o) (dzopt_)
/cern/99/lib/libpacklib.a(dzshpr.o)
                              /cern/99/lib/libpacklib.a(dzmap.o) (dzshpr_)
/cern/99/lib/libpacklib.a(dztyp.o)
                              /cern/99/lib/libpacklib.a(dzdata.o) (dztyp_)
/cern/99/lib/libpacklib.a(fziasc.o)
                              /cern/99/lib/libpacklib.a(fzipha.o) (fziasc_)
/cern/99/lib/libpacklib.a(fzichh.o)
                              /cern/99/lib/libpacklib.a(fzipha.o) (fzichh_)
/cern/99/lib/libpacklib.a(fzidum.o)
                              /cern/99/lib/libpacklib.a(fzipha.o) (fzidum_)
/cern/99/lib/libpacklib.a(fzophr.o)
                              /cern/99/lib/libpacklib.a(fzorec.o) (fzophr_)
/cern/99/lib/libpacklib.a(fzocv.o)
                              /cern/99/lib/libpacklib.a(fzotrx.o) (fzocv_)
/cern/99/lib/libpacklib.a(izbcd.o)
                              /cern/99/lib/libpacklib.a(dztyp.o) (izbcd_)
/cern/99/lib/libpacklib.a(rzdlok.o)
                              /cern/99/lib/libpacklib.a(rzfile.o) (rzdlok_)
/cern/99/lib/libpacklib.a(rzver1.o)
                              /cern/99/lib/libpacklib.a(rzveri.o) (rzver1_)
/cern/99/lib/libpacklib.a(rzver2.o)
                              /cern/99/lib/libpacklib.a(rzver1.o) (rzver2_)
/cern/99/lib/libpacklib.a(stat.o)
                              /cern/99/lib/libpacklib.a(cfstati.o) (rfio_stat)
/cern/99/lib/libpacklib.a(cfweof.o)
                              /cern/99/lib/libpacklib.a(fzophr.o) (cfweof_)
/cern/99/lib/libpacklib.a(iumode.o)
                              /cern/99/lib/libpacklib.a(dztyp.o) (iumode_)
/cern/99/lib/libpacklib.a(iufind.o)
                              /cern/99/lib/libpacklib.a(rzver1.o) (iufind_)
/cern/99/lib/libpacklib.a(iusame.o)
                              /cern/99/lib/libpacklib.a(dzdata.o) (iusame_)
/cern/99/lib/libpacklib.a(jrsbyt.o)
                              /cern/99/lib/libpacklib.a(dzmap.o) (jrsbyt_)
/cern/99/lib/libpacklib.a(ucopiv.o)
                              /cern/99/lib/libpacklib.a(dzshpr.o) (ucopiv_)
/cern/99/lib/libpacklib.a(dzbkdv.o)
                              /cern/99/lib/libpacklib.a(dzbkup.o) (dzbkdv_)
/cern/99/lib/libpacklib.a(dzbkhd.o)
                              /cern/99/lib/libpacklib.a(dzmap.o) (dzbkhd_)
/cern/99/lib/libpacklib.a(dziopr.o)
                              /cern/99/lib/libpacklib.a(dzshpr.o) (dziopr_)
/cern/99/lib/libpacklib.a(fzialn.o)
                              /cern/99/lib/libpacklib.a(fziasc.o) (fzialn_)
/cern/99/lib/libpacklib.a(fzoasc.o)
                              /cern/99/lib/libpacklib.a(fzophr.o) (fzoasc_)
/cern/99/lib/libpacklib.a(izchav.o)
                              /cern/99/lib/libpacklib.a(fzialn.o) (izchav_)
/cern/99/lib/libpacklib.a(rzprnk.o)
                              /cern/99/lib/libpacklib.a(rzver1.o) (rzprnk_)
/cern/99/lib/libpacklib.a(mstat.o)
                              /cern/99/lib/libpacklib.a(stat.o) (rfio_smstat)
/cern/99/lib/libpacklib.a(dziopd.o)
                              /cern/99/lib/libpacklib.a(dziopr.o) (dziopd_)
/cern/99/lib/libpacklib.a(dzioph.o)
                              /cern/99/lib/libpacklib.a(dziopr.o) (dzioph_)
/cern/99/lib/libpacklib.a(fzoaln.o)
                              /cern/99/lib/libpacklib.a(fzoasc.o) (fzoaln_)
/cern/99/lib/libpacklib.a(fzoapk.o)
                              /cern/99/lib/libpacklib.a(fzoasc.o) (fzoapk_)
/cern/99/lib/libpacklib.a(uh1toc.o)
                              /cern/99/lib/libpacklib.a(fzoaln.o) (uh1toc_)
/cern/99/lib/libmathlib.a(dsyev.o)
                              /home/pcl2483/pedro/jadesoft/util/mcgen/Plib/libpx114.a(pxjsp3.o) (dsyev_)
/cern/99/lib/libmathlib.a(dsytrd.o)
                              /cern/99/lib/libmathlib.a(dsyev.o) (dsytrd_)
/cern/99/lib/libmathlib.a(ilaenv.o)
                              /cern/99/lib/libmathlib.a(dsytrd.o) (ilaenv_)
/cern/99/lib/libmathlib.a(lsame.o)
                              /cern/99/lib/libmathlib.a(dsyev.o) (lsame_)
/cern/99/lib/libmathlib.a(xerbla.o)
                              /cern/99/lib/libmathlib.a(dsyev.o) (xerbla_)
/cern/99/lib/libmathlib.a(dscal.o)
                              /cern/99/lib/libmathlib.a(dsyev.o) (dscal_)
/cern/99/lib/libmathlib.a(dsyr2k.o)
                              /cern/99/lib/libmathlib.a(dsytrd.o) (dsyr2k_)
/cern/99/lib/libmathlib.a(dlamch.o)
                              /cern/99/lib/libmathlib.a(dsyev.o) (dlamch_)
/cern/99/lib/libmathlib.a(dlansy.o)
                              /cern/99/lib/libmathlib.a(dsyev.o) (dlansy_)
/cern/99/lib/libmathlib.a(dlascl.o)
                              /cern/99/lib/libmathlib.a(dsyev.o) (dlascl_)
/cern/99/lib/libmathlib.a(dlassq.o)
                              /cern/99/lib/libmathlib.a(dlansy.o) (dlassq_)
/cern/99/lib/libmathlib.a(dlatrd.o)
                              /cern/99/lib/libmathlib.a(dsytrd.o) (dlatrd_)
/cern/99/lib/libmathlib.a(dorgtr.o)
                              /cern/99/lib/libmathlib.a(dsyev.o) (dorgtr_)
/cern/99/lib/libmathlib.a(dsteqr.o)
                              /cern/99/lib/libmathlib.a(dsyev.o) (dsteqr_)
/cern/99/lib/libmathlib.a(dsterf.o)
                              /cern/99/lib/libmathlib.a(dsyev.o) (dsterf_)
/cern/99/lib/libmathlib.a(dsytd2.o)
                              /cern/99/lib/libmathlib.a(dsytrd.o) (dsytd2_)
/cern/99/lib/libmathlib.a(daxpy.o)
                              /cern/99/lib/libmathlib.a(dlatrd.o) (daxpy_)
/cern/99/lib/libmathlib.a(ddot.o)
                              /cern/99/lib/libmathlib.a(dlatrd.o) (ddot_)
/cern/99/lib/libmathlib.a(dgemv.o)
                              /cern/99/lib/libmathlib.a(dlatrd.o) (dgemv_)
/cern/99/lib/libmathlib.a(dswap.o)
                              /cern/99/lib/libmathlib.a(dsteqr.o) (dswap_)
/cern/99/lib/libmathlib.a(dsymv.o)
                              /cern/99/lib/libmathlib.a(dlatrd.o) (dsymv_)
/cern/99/lib/libmathlib.a(dsyr2.o)
                              /cern/99/lib/libmathlib.a(dsytd2.o) (dsyr2_)
/cern/99/lib/libmathlib.a(dlae2.o)
                              /cern/99/lib/libmathlib.a(dsteqr.o) (dlae2_)
/cern/99/lib/libmathlib.a(dlaev2.o)
                              /cern/99/lib/libmathlib.a(dsteqr.o) (dlaev2_)
/cern/99/lib/libmathlib.a(dlanst.o)
                              /cern/99/lib/libmathlib.a(dsteqr.o) (dlanst_)
/cern/99/lib/libmathlib.a(dlapy2.o)
                              /cern/99/lib/libmathlib.a(dsteqr.o) (dlapy2_)
/cern/99/lib/libmathlib.a(dlarfg.o)
                              /cern/99/lib/libmathlib.a(dlatrd.o) (dlarfg_)
/cern/99/lib/libmathlib.a(dlartg.o)
                              /cern/99/lib/libmathlib.a(dsteqr.o) (dlartg_)
/cern/99/lib/libmathlib.a(dlaset.o)
                              /cern/99/lib/libmathlib.a(dsteqr.o) (dlaset_)
/cern/99/lib/libmathlib.a(dlasr.o)
                              /cern/99/lib/libmathlib.a(dsteqr.o) (dlasr_)
/cern/99/lib/libmathlib.a(dlasrt.o)
                              /cern/99/lib/libmathlib.a(dsteqr.o) (dlasrt_)
/cern/99/lib/libmathlib.a(dorgql.o)
                              /cern/99/lib/libmathlib.a(dorgtr.o) (dorgql_)
/cern/99/lib/libmathlib.a(dorgqr.o)
                              /cern/99/lib/libmathlib.a(dorgtr.o) (dorgqr_)
/cern/99/lib/libmathlib.a(dnrm2.o)
                              /cern/99/lib/libmathlib.a(dlarfg.o) (dnrm2_)
/cern/99/lib/libmathlib.a(dlarfb.o)
                              /cern/99/lib/libmathlib.a(dorgql.o) (dlarfb_)
/cern/99/lib/libmathlib.a(dlarft.o)
                              /cern/99/lib/libmathlib.a(dorgql.o) (dlarft_)
/cern/99/lib/libmathlib.a(dorg2l.o)
                              /cern/99/lib/libmathlib.a(dorgql.o) (dorg2l_)
/cern/99/lib/libmathlib.a(dorg2r.o)
                              /cern/99/lib/libmathlib.a(dorgqr.o) (dorg2r_)
/cern/99/lib/libmathlib.a(dcopy.o)
                              /cern/99/lib/libmathlib.a(dlarfb.o) (dcopy_)
/cern/99/lib/libmathlib.a(dgemm.o)
                              /cern/99/lib/libmathlib.a(dlarfb.o) (dgemm_)
/cern/99/lib/libmathlib.a(dtrmm.o)
                              /cern/99/lib/libmathlib.a(dlarfb.o) (dtrmm_)
/cern/99/lib/libmathlib.a(dtrmv.o)
                              /cern/99/lib/libmathlib.a(dlarft.o) (dtrmv_)
/cern/99/lib/libmathlib.a(dlarf.o)
                              /cern/99/lib/libmathlib.a(dorg2l.o) (dlarf_)
/cern/99/lib/libmathlib.a(dger.o)
                              /cern/99/lib/libmathlib.a(dlarf.o) (dger_)
/usr/lib/libc_nonshared.a(atexit.oS)
                              /lib/libnsl.so.1 (atexit)
/usr/lib/gcc-lib/i686-pc-linux-gnu/2.95.3/libg2c.a(close.o)
                              mcar48p_105j.o (f_clos)
/usr/lib/gcc-lib/i686-pc-linux-gnu/2.95.3/libg2c.a(dolio.o)
                              mcar48p_105j.o (do_lio)
/usr/lib/gcc-lib/i686-pc-linux-gnu/2.95.3/libg2c.a(due.o)
                              /cern/99/lib/libpacklib.a(rziodo.o) (s_rdue)
/usr/lib/gcc-lib/i686-pc-linux-gnu/2.95.3/libg2c.a(endfile.o)
                              /cern/99/lib/libpacklib.a(fzoffn.o) (f_end)
/usr/lib/gcc-lib/i686-pc-linux-gnu/2.95.3/libg2c.a(err.o)
                              /usr/lib/gcc-lib/i686-pc-linux-gnu/2.95.3/libg2c.a(close.o) (f__fatal)
/usr/lib/gcc-lib/i686-pc-linux-gnu/2.95.3/libg2c.a(fmt.o)
                              mcar48p_105j.o (do_fio)
/usr/lib/gcc-lib/i686-pc-linux-gnu/2.95.3/libg2c.a(iio.o)
                              /home/pcl2483/pedro/jadesoft/util/mcgen/Plib/libjt74opal.a(lugive.o) (s_rsfi)
/usr/lib/gcc-lib/i686-pc-linux-gnu/2.95.3/libg2c.a(inquire.o)
                              /cern/99/lib/libpacklib.a(rzopen.o) (f_inqu)
/usr/lib/gcc-lib/i686-pc-linux-gnu/2.95.3/libg2c.a(lread.o)
                              /cern/99/lib/libpacklib.a(rzstrip.o) (e_rsle)
/usr/lib/gcc-lib/i686-pc-linux-gnu/2.95.3/libg2c.a(open.o)
                              /usr/lib/gcc-lib/i686-pc-linux-gnu/2.95.3/libg2c.a(endfile.o) (f__r_mode)
/usr/lib/gcc-lib/i686-pc-linux-gnu/2.95.3/libg2c.a(rdfmt.o)
                              /usr/lib/gcc-lib/i686-pc-linux-gnu/2.95.3/libg2c.a(iio.o) (rd_ed)
/usr/lib/gcc-lib/i686-pc-linux-gnu/2.95.3/libg2c.a(rewind.o)
                              /home/pcl2483/pedro/jadesoft/util/mcgen/Plib/libmc105j.a(mcrnst.o) (f_rew)
/usr/lib/gcc-lib/i686-pc-linux-gnu/2.95.3/libg2c.a(rsfe.o)
                              /usr/lib/gcc-lib/i686-pc-linux-gnu/2.95.3/libg2c.a(lread.o) (xrd_SL)
/usr/lib/gcc-lib/i686-pc-linux-gnu/2.95.3/libg2c.a(sfe.o)
                              /home/pcl2483/pedro/jadesoft/util/mcgen/Plib/libmc105j.a(mcrnst.o) (e_rsfe)
/usr/lib/gcc-lib/i686-pc-linux-gnu/2.95.3/libg2c.a(sue.o)
                              /cern/99/lib/libpacklib.a(xinbf.o) (s_rsue)
/usr/lib/gcc-lib/i686-pc-linux-gnu/2.95.3/libg2c.a(uio.o)
                              /usr/lib/gcc-lib/i686-pc-linux-gnu/2.95.3/libg2c.a(sue.o) (f__reclen)
/usr/lib/gcc-lib/i686-pc-linux-gnu/2.95.3/libg2c.a(util.o)
                              /usr/lib/gcc-lib/i686-pc-linux-gnu/2.95.3/libg2c.a(inquire.o) (g_char)
/usr/lib/gcc-lib/i686-pc-linux-gnu/2.95.3/libg2c.a(wrtfmt.o)
                              /usr/lib/gcc-lib/i686-pc-linux-gnu/2.95.3/libg2c.a(iio.o) (w_ed)
/usr/lib/gcc-lib/i686-pc-linux-gnu/2.95.3/libg2c.a(wsfe.o)
                              mcar48p_105j.o (s_wsfe)
/usr/lib/gcc-lib/i686-pc-linux-gnu/2.95.3/libg2c.a(wsle.o)
                              mcar48p_105j.o (s_wsle)
/usr/lib/gcc-lib/i686-pc-linux-gnu/2.95.3/libg2c.a(main.o)
                              /usr/lib/crt1.o (main)
/usr/lib/gcc-lib/i686-pc-linux-gnu/2.95.3/libg2c.a(s_stop.o)
                              mcar48p_105j.o (s_stop)
/usr/lib/gcc-lib/i686-pc-linux-gnu/2.95.3/libg2c.a(sig_die.o)
                              /usr/lib/gcc-lib/i686-pc-linux-gnu/2.95.3/libg2c.a(err.o) (sig_die)
/usr/lib/gcc-lib/i686-pc-linux-gnu/2.95.3/libg2c.a(setarg.o)
                              /usr/lib/gcc-lib/i686-pc-linux-gnu/2.95.3/libg2c.a(main.o) (f_setarg)
/usr/lib/gcc-lib/i686-pc-linux-gnu/2.95.3/libg2c.a(setsig.o)
                              /usr/lib/gcc-lib/i686-pc-linux-gnu/2.95.3/libg2c.a(main.o) (f_setsig)
/usr/lib/gcc-lib/i686-pc-linux-gnu/2.95.3/libg2c.a(pow_dd.o)
                              mcar48p_105j.o (pow_dd)
/usr/lib/gcc-lib/i686-pc-linux-gnu/2.95.3/libg2c.a(c_abs.o)
                              /home/pcl2483/pedro/jadesoft/util/mcgen/Plib/libpythia5722.a(pyresd.o) (c_abs)
/usr/lib/gcc-lib/i686-pc-linux-gnu/2.95.3/libg2c.a(c_log.o)
                              /home/pcl2483/pedro/jadesoft/util/mcgen/Plib/libpythia5722.a(pysigh.o) (c_log)
/usr/lib/gcc-lib/i686-pc-linux-gnu/2.95.3/libg2c.a(r_lg10.o)
                              mcar48p_105j.o (r_lg10)
/usr/lib/gcc-lib/i686-pc-linux-gnu/2.95.3/libg2c.a(r_mod.o)
                              /cern/99/lib/libpacklib.a(hf1aut.o) (r_mod)
/usr/lib/gcc-lib/i686-pc-linux-gnu/2.95.3/libg2c.a(d_mod.o)
                              /home/pcl2483/pedro/jadesoft/util/mcgen/Plib/libpythia5722.a(rkrand.o) (d_mod)
/usr/lib/gcc-lib/i686-pc-linux-gnu/2.95.3/libg2c.a(i_indx.o)
                              mcar48p_105j.o (i_indx)
/usr/lib/gcc-lib/i686-pc-linux-gnu/2.95.3/libg2c.a(l_gt.o)
                              /cern/99/lib/libpacklib.a(fffind.o) (l_gt)
/usr/lib/gcc-lib/i686-pc-linux-gnu/2.95.3/libg2c.a(l_lt.o)
                              /cern/99/lib/libpacklib.a(fffind.o) (l_lt)
/usr/lib/gcc-lib/i686-pc-linux-gnu/2.95.3/libg2c.a(s_cat.o)
                              mcar48p_105j.o (s_cat)
/usr/lib/gcc-lib/i686-pc-linux-gnu/2.95.3/libg2c.a(s_cmp.o)
                              /home/pcl2483/pedro/jadesoft/util/mcgen/Plib/libpythia5722.a(pyinbm.o) (s_cmp)
/usr/lib/gcc-lib/i686-pc-linux-gnu/2.95.3/libg2c.a(s_copy.o)
                              mcar48p_105j.o (s_copy)
/usr/lib/gcc-lib/i686-pc-linux-gnu/2.95.3/libg2c.a(lnblnk_.o)
                              /cern/99/lib/libpacklib.a(cfopen.o) (G77_lnblnk_0)
/usr/lib/gcc-lib/i686-pc-linux-gnu/2.95.3/libg2c.a(fmtlib.o)
                              /usr/lib/gcc-lib/i686-pc-linux-gnu/2.95.3/libg2c.a(wrtfmt.o) (f__icvt)
/usr/lib/gcc-lib/i686-pc-linux-gnu/2.95.3/libg2c.a(lwrite.o)
                              /usr/lib/gcc-lib/i686-pc-linux-gnu/2.95.3/libg2c.a(wsle.o) (L_len)
/usr/lib/gcc-lib/i686-pc-linux-gnu/2.95.3/libg2c.a(wref.o)
                              /usr/lib/gcc-lib/i686-pc-linux-gnu/2.95.3/libg2c.a(wrtfmt.o) (wrt_E)
/usr/lib/gcc-lib/i686-pc-linux-gnu/2.95.3/libg2c.a(F77_aloc.o)
                              /usr/lib/gcc-lib/i686-pc-linux-gnu/2.95.3/libg2c.a(s_cat.o) (F77_aloc)
/usr/lib/gcc-lib/i686-pc-linux-gnu/2.95.3/libg2c.a(cabs.o)
                              /usr/lib/gcc-lib/i686-pc-linux-gnu/2.95.3/libg2c.a(c_abs.o) (f__cabs)
/usr/lib/gcc-lib/i686-pc-linux-gnu/2.95.3/libg2c.a(exit_.o)
                              /usr/lib/gcc-lib/i686-pc-linux-gnu/2.95.3/libg2c.a(F77_aloc.o) (G77_exit_0)

Allocating common symbols
Common symbol       size              file

taubra_             0xf4              /home/pcl2483/pedro/jadesoft/util/mcgen/Plib/libjt74opal.a(initdk.o)
ffchar_             0x84              /cern/99/lib/libpacklib.a(ffgo.o)
hcpia1_             0x440             /cern/99/lib/libpacklib.a(hcdir.o)
w50512_             0x10              /home/pcl2483/pedro/jadesoft/util/mcgen/Plib/libpythia5722.a(pyinit.o)
zceta_              0x800             /cern/99/lib/libpacklib.a(mzebra.o)
hcset_              0x4               /cern/99/lib/libpacklib.a(hmachi.o)
hcform_             0x34              /cern/99/lib/libpacklib.a(hbook1.o)
pawc_               0xc3500           mcar48p_105j.o
mzca_               0x1c8             /cern/99/lib/libpacklib.a(fzin.o)
f__ltype            0x4               /usr/lib/gcc-lib/i686-pc-linux-gnu/2.95.3/libg2c.a(lread.o)
zbcdch_             0x60              /cern/99/lib/libpacklib.a(mzebra.o)
idfc_               0x4               /home/pcl2483/pedro/jadesoft/util/mcgen/Plib/libjt74opal.a(dexay.o)
ztellc_             0x8               /cern/99/lib/libpacklib.a(ztell.o)
czsock_             0xe10             /cern/99/lib/libpacklib.a(czgeta.o)
f__recloc           0x4               /usr/lib/gcc-lib/i686-pc-linux-gnu/2.95.3/libg2c.a(sue.o)
rzcount_            0x8               /cern/99/lib/libpacklib.a(mzebra.o)
jaki_               0x14              /home/pcl2483/pedro/jadesoft/util/mcgen/Plib/libjt74opal.a(dexay.o)
hcmail_             0x80              /cern/99/lib/libpacklib.a(hbug.o)
f__icnum            0x4               /usr/lib/gcc-lib/i686-pc-linux-gnu/2.95.3/libg2c.a(iio.o)
f(short, void, int, char)
                    0x4               /usr/lib/gcc-lib/i686-pc-linux-gnu/2.95.3/libg2c.a(err.o)
f__hiwater          0x4               /usr/lib/gcc-lib/i686-pc-linux-gnu/2.95.3/libg2c.a(err.o)
cfread_             0x87c             /cern/99/lib/libpacklib.a(ffgo.o)
f(long double,  *)  0x4               /usr/lib/gcc-lib/i686-pc-linux-gnu/2.95.3/libg2c.a(fmt.o)
f__nonl             0x4               /usr/lib/gcc-lib/i686-pc-linux-gnu/2.95.3/libg2c.a(fmt.o)
mzioc_              0x350             /cern/99/lib/libpacklib.a(fziffx.o)
hcqcom_             0x2ff8            /cern/99/lib/libpacklib.a(hqputf.o)
goxtra_             0x194             /home/pcl2483/pedro/jadesoft/util/mcgen/Plib/libjt74opal.a(lutaud.o)
zkrakc_             0x508             /cern/99/lib/libpacklib.a(mzform.o)
xdummy_             0x8               /home/pcl2483/pedro/jadesoft/util/mcgen/Plib/libariadne408.a(archki.o)
f__putn             0x4               /usr/lib/gcc-lib/i686-pc-linux-gnu/2.95.3/libg2c.a(err.o)
gujets_             0x3a984           mcar48p_105j.o
zheadp_             0x6c              /cern/99/lib/libpacklib.a(mzebra.o)
zvfaut_             0x48              /cern/99/lib/libpacklib.a(fzin.o)
f__fmtlen           0x4               /usr/lib/gcc-lib/i686-pc-linux-gnu/2.95.3/libg2c.a(err.o)
arlist_             0x17d4            /home/pcl2483/pedro/jadesoft/util/mcgen/Plib/libariadne408.a(arremn.o)
rzcl_               0x2c              /cern/99/lib/libpacklib.a(rzcdir.o)
mzct_               0xd4              /cern/99/lib/libpacklib.a(fzin.o)
pyint9_             0x648             /home/pcl2483/pedro/jadesoft/util/mcgen/Plib/libpythia5722.a(pyinit.o)
dzc1ch_             0x55d             /cern/99/lib/libpacklib.a(dzsnap.o)
hpevt_              0x260             /home/pcl2483/pedro/jadesoft/util/mcgen/Plib/libjt74opal.a(ludecy.o)
hcpiaf_             0x150             /cern/99/lib/libpacklib.a(hcdir.o)
taurad_             0xc               /home/pcl2483/pedro/jadesoft/util/mcgen/Plib/libjt74opal.a(initdk.o)
f__elist            0x4               /usr/lib/gcc-lib/i686-pc-linux-gnu/2.95.3/libg2c.a(err.o)
hcverc_             0xa               /cern/99/lib/libpacklib.a(hmachi.o)
hcvers_             0x84              /cern/99/lib/libpacklib.a(hmachi.o)
rzckey_             0x3f4             /cern/99/lib/libpacklib.a(rzopen.o)
rzcycle_            0x28              /cern/99/lib/libpacklib.a(rzfdir.o)
parmas_             0x40              /home/pcl2483/pedro/jadesoft/util/mcgen/Plib/libjt74opal.a(initdk.o)
mzcc_               0x694             /cern/99/lib/libpacklib.a(fzin.o)
f__sequential       0x4               /usr/lib/gcc-lib/i686-pc-linux-gnu/2.95.3/libg2c.a(err.o)
l_getc              0x4               /usr/lib/gcc-lib/i686-pc-linux-gnu/2.95.3/libg2c.a(lread.o)
rzbuff_             0x8800            /cern/99/lib/libpacklib.a(rziodo.o)
fzhci_              0x28              /cern/99/lib/libpacklib.a(fzipha.o)
chcprd_             0x3200            /home/pcl2483/pedro/jadesoft/util/mcgen/Plib/libmc105j.a(evwrtj.o)
serrno              0x4               /cern/99/lib/libpacklib.a(serror.o)
decpar_             0x18              /home/pcl2483/pedro/jadesoft/util/mcgen/Plib/libjt74opal.a(initdk.o)
pyint8_             0x104             /home/pcl2483/pedro/jadesoft/util/mcgen/Plib/libpythia5722.a(pystfu.o)
f__fmtbuf           0x4               /usr/lib/gcc-lib/i686-pc-linux-gnu/2.95.3/libg2c.a(err.o)
hcnt_               0x10              /cern/99/lib/libpacklib.a(hmachi.o)
hcqcod_             0xfa0             /cern/99/lib/libpacklib.a(hqputf.o)
hcfile_             0xfa0             /cern/99/lib/libpacklib.a(hcdir.o)
rzdirc_             0x12c0            /cern/99/lib/libpacklib.a(rzcdir.o)
arint1_             0x160             /home/pcl2483/pedro/jadesoft/util/mcgen/Plib/libariadne408.a(argqcd.o)
f__Aquote           0x4               /usr/lib/gcc-lib/i686-pc-linux-gnu/2.95.3/libg2c.a(lwrite.o)
jzuc_               0x40              /cern/99/lib/libpacklib.a(mzebra.o)
rzcstri_            0x604             /cern/99/lib/libpacklib.a(mzebra.o)
znatur_             0x10              /cern/99/lib/libpacklib.a(mzebra.o)
fzcx_               0x11c             /cern/99/lib/libpacklib.a(fzloc.o)
zstate_             0x40              /cern/99/lib/libpacklib.a(fzloc.o)
taukle_             0x10              /home/pcl2483/pedro/jadesoft/util/mcgen/Plib/libjt74opal.a(dwluks.o)
arpart_             0x9c44            /home/pcl2483/pedro/jadesoft/util/mcgen/Plib/libariadne408.a(arexec.o)
decmp2_             0x429             /home/pcl2483/pedro/jadesoft/util/mcgen/Plib/libjt74opal.a(dexay.o)
f__lioproc          0x4               /usr/lib/gcc-lib/i686-pc-linux-gnu/2.95.3/libg2c.a(lread.o)
fzcocc_             0xa4              /cern/99/lib/libpacklib.a(fzin.o)
f__parenlvl         0x4               /usr/lib/gcc-lib/i686-pc-linux-gnu/2.95.3/libg2c.a(fmt.o)
ckcom_              0x10b3c           /home/pcl2483/pedro/jadesoft/util/mcgen/Plib/libckern105.a(ckern.o)
l_ungetc            0x4               /usr/lib/gcc-lib/i686-pc-linux-gnu/2.95.3/libg2c.a(lread.o)
f__getn             0x4               /usr/lib/gcc-lib/i686-pc-linux-gnu/2.95.3/libg2c.a(err.o)
gswprm_             0x30              /home/pcl2483/pedro/jadesoft/util/mcgen/Plib/libjt74opal.a(initdk.o)
leptou_             0x164             /home/pcl2483/pedro/jadesoft/util/mcgen/Plib/libariadne408.a(arexec.o)
l_eof               0x4               /usr/lib/gcc-lib/i686-pc-linux-gnu/2.95.3/libg2c.a(lread.o)
yint_               0x4e2c            /home/pcl2483/pedro/jadesoft/util/mcgen/Plib/libpx114.a(ykern.o)
hcrecv_             0x4               /cern/99/lib/libpacklib.a(hmachi.o)
rkzfco_             0x3600            /home/pcl2483/pedro/jadesoft/util/mcgen/Plib/libpythia5722.a(rkbbv.o)
zunitz_             0x10              /cern/99/lib/libpacklib.a(fzin.o)
f__curunit          0x4               /usr/lib/gcc-lib/i686-pc-linux-gnu/2.95.3/libg2c.a(err.o)
L_len               0x4               /usr/lib/gcc-lib/i686-pc-linux-gnu/2.95.3/libg2c.a(lwrite.o)
f__doned            0x4               /usr/lib/gcc-lib/i686-pc-linux-gnu/2.95.3/libg2c.a(err.o)
hcbook_             0xcc              /cern/99/lib/libpacklib.a(hbook1.o)
cprod_              0x7560            /home/pcl2483/pedro/jadesoft/util/mcgen/Plib/libmc105j.a(evwrtj.o)
f(char, float)      0x4               /usr/lib/gcc-lib/i686-pc-linux-gnu/2.95.3/libg2c.a(err.o)
f__external         0x4               /usr/lib/gcc-lib/i686-pc-linux-gnu/2.95.3/libg2c.a(err.o)
arint2_             0x20              /home/pcl2483/pedro/jadesoft/util/mcgen/Plib/libariadne408.a(argqcg.o)
w50513_             0x20              /home/pcl2483/pedro/jadesoft/util/mcgen/Plib/libpythia5722.a(pystfu.o)
arint4_             0x3c              /home/pcl2483/pedro/jadesoft/util/mcgen/Plib/libariadne408.a(arlept.o)
f__icend            0x4               /usr/lib/gcc-lib/i686-pc-linux-gnu/2.95.3/libg2c.a(iio.o)
f__workdone         0x4               /usr/lib/gcc-lib/i686-pc-linux-gnu/2.95.3/libg2c.a(fmt.o)
f__reading          0x4               /usr/lib/gcc-lib/i686-pc-linux-gnu/2.95.3/libg2c.a(err.o)
f__icptr            0x4               /usr/lib/gcc-lib/i686-pc-linux-gnu/2.95.3/libg2c.a(err.o)
f__donewrec         0x4               /usr/lib/gcc-lib/i686-pc-linux-gnu/2.95.3/libg2c.a(err.o)
f__init             0x4               /usr/lib/gcc-lib/i686-pc-linux-gnu/2.95.3/libg2c.a(err.o)
rzclun_             0x2c              /cern/99/lib/libpacklib.a(mzebra.o)
czbufc_             0x200             /cern/99/lib/libpacklib.a(hlogpf.o)
fzci_               0x138             /cern/99/lib/libpacklib.a(fzin.o)
hcprin_             0x1a0             /cern/99/lib/libpacklib.a(hbook1.o)
f__doed             0x4               /usr/lib/gcc-lib/i686-pc-linux-gnu/2.95.3/libg2c.a(err.o)
hcdirc_             0x1900            /cern/99/lib/libpacklib.a(hcdir.o)
hcfitn_             0x118             /cern/99/lib/libpacklib.a(hsupis.o)
rfilefdt            0x400             /cern/99/lib/libpacklib.a(open.o)
f__revloc           0x4               /usr/lib/gcc-lib/i686-pc-linux-gnu/2.95.3/libg2c.a(fmt.o)
arbit_              0x8               /home/pcl2483/pedro/jadesoft/util/mcgen/Plib/libjt74opal.a(curr.o)
f__ret              0x28              /usr/lib/gcc-lib/i686-pc-linux-gnu/2.95.3/libg2c.a(fmt.o)
f(char, long *, short __restrict)
                    0x4               /usr/lib/gcc-lib/i686-pc-linux-gnu/2.95.3/libg2c.a(err.o)
arint3_             0x28              /home/pcl2483/pedro/jadesoft/util/mcgen/Plib/libariadne408.a(archem.o)
nml_read            0x4               /usr/lib/gcc-lib/i686-pc-linux-gnu/2.95.3/libg2c.a(lread.o)
mzcwk_              0x5000            /cern/99/lib/libpacklib.a(mzflag.o)
arstrf_             0x80              /home/pcl2483/pedro/jadesoft/util/mcgen/Plib/libariadne408.a(arremn.o)
mzcl_               0x70              /cern/99/lib/libpacklib.a(mzbook.o)
quest_              0x190             /cern/99/lib/libpacklib.a(hcdir.o)
hcflag_             0x2c              /cern/99/lib/libpacklib.a(hbook1.o)
f__doend            0x4               /usr/lib/gcc-lib/i686-pc-linux-gnu/2.95.3/libg2c.a(err.o)
hcbits_             0x94              /cern/99/lib/libpacklib.a(hfill.o)
lujets_             0xdac4            /home/pcl2483/pedro/jadesoft/util/mcgen/Plib/libmc105j.a(mcgeth.o)
ffcomm_             0x194             /cern/99/lib/libpacklib.a(ffgo.o)
rzcout_             0x18              /cern/99/lib/libpacklib.a(rzout.o)
fzcf_               0x90              /cern/99/lib/libpacklib.a(fzloc.o)
zbcd_               0x32c             /cern/99/lib/libpacklib.a(fzin.o)
zebq_               0x1a0             /cern/99/lib/libpacklib.a(fzin.o)
f__cblank           0x4               /usr/lib/gcc-lib/i686-pc-linux-gnu/2.95.3/libg2c.a(err.o)
rzcstrc_            0x4a80            /cern/99/lib/libpacklib.a(mzebra.o)
slate_              0xa0              /cern/99/lib/libpacklib.a(hmachi.o)
f__cnt              0x28              /usr/lib/gcc-lib/i686-pc-linux-gnu/2.95.3/libg2c.a(fmt.o)
f__scale            0x4               /usr/lib/gcc-lib/i686-pc-linux-gnu/2.95.3/libg2c.a(err.o)
hcunit_             0xc               /cern/99/lib/libpacklib.a(hbug.o)
f__lchar            0x4               /usr/lib/gcc-lib/i686-pc-linux-gnu/2.95.3/libg2c.a(lread.o)
fzcseg_             0xfc              /cern/99/lib/libpacklib.a(fzin.o)
rfio_buf            0x2000            /cern/99/lib/libpacklib.a(open.o)
arstak_             0x22c88           /home/pcl2483/pedro/jadesoft/util/mcgen/Plib/libariadne408.a(argetr.o)
rzbmap_             0x24              /cern/99/lib/libpacklib.a(rzveri.o)
rzover_             0x194             /cern/99/lib/libpacklib.a(rzveri.o)
rkzsco_             0x6c0             /home/pcl2483/pedro/jadesoft/util/mcgen/Plib/libpythia5722.a(rkbbv.o)
f(char *)           0x4               /usr/lib/gcc-lib/i686-pc-linux-gnu/2.95.3/libg2c.a(fmt.o)
zlimit_             0x8               /cern/99/lib/libpacklib.a(mzflag.o)
hcopt_              0x28              /cern/99/lib/libpacklib.a(hbook1.o)
hcminpu_            0xfa0             /cern/99/lib/libpacklib.a(hmachi.o)
hntcur_             0x4               /cern/99/lib/libpacklib.a(hntrset.o)
mcuffr_             0x74              mcar48p_105j.o
inout_              0x8               /home/pcl2483/pedro/jadesoft/util/mcgen/Plib/libjt74opal.a(dexay.o)
mzcb_               0x70              /cern/99/lib/libpacklib.a(fzin.o)
f__recpos           0x4               /usr/lib/gcc-lib/i686-pc-linux-gnu/2.95.3/libg2c.a(err.o)
hcfitr_             0x14              /cern/99/lib/libpacklib.a(hmachi.o)
f__dorevert         0x4               /usr/lib/gcc-lib/i686-pc-linux-gnu/2.95.3/libg2c.a(err.o)
arstrs_             0x4cc             /home/pcl2483/pedro/jadesoft/util/mcgen/Plib/libariadne408.a(arlept.o)
pyint4_             0x1a90            /home/pcl2483/pedro/jadesoft/util/mcgen/Plib/libpythia5722.a(pydata.o)
czcbuf_             0x4               /cern/99/lib/libpacklib.a(hmachi.o)
hcache_             0x194             /cern/99/lib/libpacklib.a(hdelet.o)
pyuppr_             0x444             /home/pcl2483/pedro/jadesoft/util/mcgen/Plib/libpythia5722.a(pyevnt.o)
rzch_               0x1fe             /cern/99/lib/libpacklib.a(rzcdir.o)
pyint5_             0x12d8            /home/pcl2483/pedro/jadesoft/util/mcgen/Plib/libpythia5722.a(pydata.o)
rkbbvc_             0x1c              /home/pcl2483/pedro/jadesoft/util/mcgen/Plib/libpythia5722.a(pysigh.o)
testa1_             0x4               /home/pcl2483/pedro/jadesoft/util/mcgen/Plib/libjt74opal.a(dampog.o)
zmach_              0x24              /cern/99/lib/libpacklib.a(fzin.o)
pyint3_             0x4108            /home/pcl2483/pedro/jadesoft/util/mcgen/Plib/libpythia5722.a(pydata.o)
hcminp1_            0x8               /cern/99/lib/libpacklib.a(hmachi.o)
f__lquit            0x4               /usr/lib/gcc-lib/i686-pc-linux-gnu/2.95.3/libg2c.a(lread.o)
rzdirn_             0xc               /cern/99/lib/libpacklib.a(rzcdir.o)
f__formatted        0x4               /usr/lib/gcc-lib/i686-pc-linux-gnu/2.95.3/libg2c.a(err.o)
mcffr_              0x1c4             mcar48p_105j.o
ycl_                0x4e70            /home/pcl2483/pedro/jadesoft/util/mcgen/Plib/libpx114.a(ykern.o)
taubmc_             0x168             /home/pcl2483/pedro/jadesoft/util/mcgen/Plib/libjt74opal.a(dexay.o)
f__xargv            0x4               /usr/lib/gcc-lib/i686-pc-linux-gnu/2.95.3/libg2c.a(setarg.o)
f(char,  *)         0x4               /usr/lib/gcc-lib/i686-pc-linux-gnu/2.95.3/libg2c.a(fmt.o)
hcfits_             0x1b4             /cern/99/lib/libpacklib.a(hsupis.o)
mzcn_               0x24              /cern/99/lib/libpacklib.a(fzin.o)
hcdirn_             0x26c             /cern/99/lib/libpacklib.a(hcdir.o)
f__xargc            0x4               /usr/lib/gcc-lib/i686-pc-linux-gnu/2.95.3/libg2c.a(setarg.o)
f__ly               0x8               /usr/lib/gcc-lib/i686-pc-linux-gnu/2.95.3/libg2c.a(lread.o)
f__units            0x12c0            /usr/lib/gcc-lib/i686-pc-linux-gnu/2.95.3/libg2c.a(err.o)
f__cursor           0x4               /usr/lib/gcc-lib/i686-pc-linux-gnu/2.95.3/libg2c.a(err.o)
ludat1_             0x1e0             /home/pcl2483/pedro/jadesoft/util/mcgen/Plib/libmc105j.a(jtconv.o)
qedprm_             0x18              /home/pcl2483/pedro/jadesoft/util/mcgen/Plib/libjt74opal.a(initdk.o)
phoqed_             0x28              /home/pcl2483/pedro/jadesoft/util/mcgen/Plib/libjt74opal.a(filhep.o)
f(long, long long)  0x8               /usr/lib/gcc-lib/i686-pc-linux-gnu/2.95.3/libg2c.a(lread.o)
f__reclen           0x4               /usr/lib/gcc-lib/i686-pc-linux-gnu/2.95.3/libg2c.a(uio.o)
ardips_             0x7534            /home/pcl2483/pedro/jadesoft/util/mcgen/Plib/libariadne408.a(arlept.o)
dzc1_               0xa0              /cern/99/lib/libpacklib.a(dzsnap.o)
zunit_              0x1c              /cern/99/lib/libpacklib.a(fzin.o)
f__lcount           0x4               /usr/lib/gcc-lib/i686-pc-linux-gnu/2.95.3/libg2c.a(lread.o)
hcpar0_             0x24              /cern/99/lib/libpacklib.a(hmachi.o)
hcpiac_             0x150             /cern/99/lib/libpacklib.a(hcdir.o)

Memory Configuration

Name             Origin             Length             Attributes
*default*        0x00000000         0xffffffff

Linker script and memory map

LOAD /usr/lib/crt1.o
LOAD /usr/lib/crti.o
LOAD /usr/lib/gcc-lib/i686-pc-linux-gnu/2.95.3/crtbegin.o
LOAD mcar48p_105j.o
LOAD /home/pcl2483/pedro/jadesoft/util/mcgen/Plib/libmc105j.a
LOAD /home/pcl2483/pedro/jadesoft/util/mcgen/Plib/libpythia5722.a
LOAD /home/pcl2483/pedro/jadesoft/util/mcgen/Plib/libariadne408.a
LOAD /home/pcl2483/pedro/jadesoft/util/mcgen/Plib/libjt74opal.a
LOAD /home/pcl2483/pedro/jadesoft/util/mcgen/Plib/libckern105.a
LOAD /home/pcl2483/pedro/jadesoft/util/mcgen/Plib/libpx114.a
LOAD /cern/99/lib/libgraflib.a
LOAD /cern/99/lib/libgrafX11.a
LOAD /cern/99/lib/libpacklib.a
LOAD /cern/99/lib/libmathlib.a
LOAD /cern/99/lib/libkernlib.a
LOAD /lib/libnsl.so.1
LOAD /usr/lib/libc.so
START GROUP
LOAD /lib/libc.so.6
LOAD /usr/lib/libc_nonshared.a
END GROUP
LOAD /usr/lib/gcc-lib/i686-pc-linux-gnu/2.95.3/libg2c.a
LOAD /usr/lib/libm.so
LOAD /usr/lib/gcc-lib/i686-pc-linux-gnu/2.95.3/libgcc.a
LOAD /usr/lib/libc.so
START GROUP
LOAD /lib/libc.so.6
LOAD /usr/lib/libc_nonshared.a
END GROUP
LOAD /usr/lib/gcc-lib/i686-pc-linux-gnu/2.95.3/libgcc.a
LOAD /usr/lib/gcc-lib/i686-pc-linux-gnu/2.95.3/crtend.o
LOAD /usr/lib/crtn.o
                0x080480f4                . = (0x8048000 + SIZEOF_HEADERS)

.interp         0x080480f4       0x13
 *(.interp)
 .interp        0x080480f4       0x13 /usr/lib/crt1.o

.note.ABI-tag   0x08048108       0x20
 .note.ABI-tag  0x08048108       0x20 /usr/lib/crt1.o

.hash           0x08048128      0x424
 *(.hash)
 .hash          0x08048128      0x424 /usr/lib/crt1.o

.dynsym         0x0804854c      0x840
 *(.dynsym)
 .dynsym        0x0804854c      0x840 /usr/lib/crt1.o

.dynstr         0x08048d8c      0x41e
 *(.dynstr)
 .dynstr        0x08048d8c      0x41e /usr/lib/crt1.o

.gnu.version    0x080491aa      0x108
 *(.gnu.version)
 .gnu.version   0x080491aa      0x108 /usr/lib/crt1.o

.gnu.version_d
 *(.gnu.version_d)

.gnu.version_r  0x080492b4       0x60
 *(.gnu.version_r)
 .gnu.version_r
                0x080492b4       0x60 /usr/lib/crt1.o

.rel.dyn        0x08049314       0x58
 *(.rel.init)
 *(.rel.text .rel.text.* .rel.gnu.linkonce.t.*)
 *(.rel.fini)
 *(.rel.rodata .rel.rodata.* .rel.gnu.linkonce.r.*)
 *(.rel.data .rel.data.* .rel.gnu.linkonce.d.*)
 *(.rel.tdata .rel.tdata.* .rel.gnu.linkonce.td.*)
 *(.rel.tbss .rel.tbss.* .rel.gnu.linkonce.tb.*)
 *(.rel.ctors)
 *(.rel.dtors)
 *(.rel.got)
 .rel.got       0x08049314       0x10 /usr/lib/crt1.o
 *(.rel.bss .rel.bss.* .rel.gnu.linkonce.b.*)
 .rel.bss       0x08049324       0x48 /usr/lib/crt1.o

.rela.dyn
 *(.rela.init)
 *(.rela.text .rela.text.* .rela.gnu.linkonce.t.*)
 *(.rela.fini)
 *(.rela.rodata .rela.rodata.* .rela.gnu.linkonce.r.*)
 *(.rela.data .rela.data.* .rela.gnu.linkonce.d.*)
 *(.rela.tdata .rela.tdata.* .rela.gnu.linkonce.td.*)
 *(.rela.tbss .rela.tbss.* .rela.gnu.linkonce.tb.*)
 *(.rela.ctors)
 *(.rela.dtors)
 *(.rela.got)
 *(.rela.bss .rela.bss.* .rela.gnu.linkonce.b.*)

.rel.plt        0x0804936c      0x3b0
 *(.rel.plt)
 .rel.plt       0x0804936c      0x3b0 /usr/lib/crt1.o

.rela.plt
 *(.rela.plt)

.init           0x0804971c       0x25
 *(.init)
 .init          0x0804971c       0x18 /usr/lib/crti.o
                0x0804971c                _init
 .init          0x08049734        0x5 /usr/lib/gcc-lib/i686-pc-linux-gnu/2.95.3/crtbegin.o
 .init          0x08049739        0x5 /usr/lib/gcc-lib/i686-pc-linux-gnu/2.95.3/crtend.o
 .init          0x0804973e        0x3 /usr/lib/crtn.o

.plt            0x08049744      0x770
 *(.plt)
 .plt           0x08049744      0x770 /usr/lib/crt1.o
                0x08049754                __umoddi3@@GLIBC_2.0
                0x08049764                readlink@@GLIBC_2.0
                0x08049774                cos@@GLIBC_2.0
                0x08049784                ntohl@@GLIBC_2.0
                0x08049794                inet_netof@@GLIBC_2.0
                0x080497a4                __strtod_internal@@GLIBC_2.0
                0x080497b4                ferror@@GLIBC_2.0
                0x080497c4                vsprintf@@GLIBC_2.0
                0x080497d4                strchr@@GLIBC_2.0
                0x080497e4                feof@@GLIBC_2.0
                0x080497f4                atan@@GLIBC_2.0
                0x08049804                ungetc@@GLIBC_2.0
                0x08049814                getpid@@GLIBC_2.0
                0x08049824                __register_frame_info@@GLIBC_2.0
                0x08049834                write@@GLIBC_2.0
                0x08049844                localtime@@GLIBC_2.0
                0x08049854                fileno@@GLIBC_2.0
                0x08049864                strcmp@@GLIBC_2.0
                0x08049874                close@@GLIBC_2.0
                0x08049884                asin@@GLIBC_2.0
                0x08049894                perror@@GLIBC_2.0
                0x080498a4                fprintf@@GLIBC_2.0
                0x080498b4                tmpfile@@GLIBC_2.1
                0x080498c4                tempnam@@GLIBC_2.0
                0x080498d4                getenv@@GLIBC_2.0
                0x080498e4                umask@@GLIBC_2.0
                0x080498f4                signal@@GLIBC_2.0
                0x08049904                fflush@@GLIBC_2.0
                0x08049914                getservbyname@@GLIBC_2.0
                0x08049924                unlink@@GLIBC_2.0
                0x08049934                freopen@@GLIBC_2.0
                0x08049944                select@@GLIBC_2.0
                0x08049954                htonl@@GLIBC_2.0
                0x08049964                __cxa_atexit@@GLIBC_2.1.3
                0x08049974                getpwuid@@GLIBC_2.0
                0x08049984                __errno_location@@GLIBC_2.0
                0x08049994                pow@@GLIBC_2.0
                0x080499a4                rewind@@GLIBC_2.0
                0x080499b4                ftell@@GLIBC_2.0
                0x080499c4                gethostbyaddr@@GLIBC_2.0
                0x080499d4                chmod@@GLIBC_2.0
                0x080499e4                access@@GLIBC_2.0
                0x080499f4                inet_ntoa@@GLIBC_2.0
                0x08049a04                malloc@@GLIBC_2.0
                0x08049a14                fread@@GLIBC_2.0
                0x08049a24                memmove@@GLIBC_2.0
                0x08049a34                clearerr@@GLIBC_2.0
                0x08049a44                __deregister_frame_info@@GLIBC_2.0
                0x08049a54                syslog@@GLIBC_2.0
                0x08049a64                getsockopt@@GLIBC_2.0
                0x08049a74                abort@@GLIBC_2.0
                0x08049a84                __sigsetjmp@@GLIBC_2.0
                0x08049a94                __xstat@@GLIBC_2.0
                0x08049aa4                setsockopt@@GLIBC_2.0
                0x08049ab4                getpeername@@GLIBC_2.0
                0x08049ac4                vfprintf@@GLIBC_2.0
                0x08049ad4                fseek@@GLIBC_2.0
                0x08049ae4                time@@GLIBC_2.0
                0x08049af4                cosh@@GLIBC_2.0
                0x08049b04                fgets@@GLIBC_2.0
                0x08049b14                ntohs@@GLIBC_2.0
                0x08049b24                __fxstat@@GLIBC_2.0
                0x08049b34                fputs@@GLIBC_2.0
                0x08049b44                strstr@@GLIBC_2.0
                0x08049b54                longjmp@@GLIBC_2.0
                0x08049b64                sleep@@GLIBC_2.0
                0x08049b74                __strtol_internal@@GLIBC_2.0
                0x08049b84                __udivdi3@@GLIBC_2.0
                0x08049b94                strncmp@@GLIBC_2.0
                0x08049ba4                inet_addr@@GLIBC_2.0
                0x08049bb4                floor@@GLIBC_2.0
                0x08049bc4                __libc_start_main@@GLIBC_2.0
                0x08049bd4                exp@@GLIBC_2.0
                0x08049be4                tanh@@GLIBC_2.0
                0x08049bf4                realloc@@GLIBC_2.0
                0x08049c04                tan@@GLIBC_2.0
                0x08049c14                printf@@GLIBC_2.0
                0x08049c24                getuid@@GLIBC_2.0
                0x08049c34                lseek@@GLIBC_2.0
                0x08049c44                memcpy@@GLIBC_2.0
                0x08049c54                sqrt@@GLIBC_2.0
                0x08049c64                fclose@@GLIBC_2.1
                0x08049c74                getsockname@@GLIBC_2.0
                0x08049c84                strrchr@@GLIBC_2.0
                0x08049c94                ctime@@GLIBC_2.0
                0x08049ca4                isdigit@@GLIBC_2.0
                0x08049cb4                gethostname@@GLIBC_2.0
                0x08049cc4                open@@GLIBC_2.0
                0x08049cd4                gethostbyname@@GLIBC_2.0
                0x08049ce4                exit@@GLIBC_2.0
                0x08049cf4                atoi@@GLIBC_2.0
                0x08049d04                getegid@@GLIBC_2.0
                0x08049d14                calloc@@GLIBC_2.0
                0x08049d24                sscanf@@GLIBC_2.0
                0x08049d34                _IO_putc@@GLIBC_2.0
                0x08049d44                free@@GLIBC_2.0
                0x08049d54                send@@GLIBC_2.0
                0x08049d64                ioctl@@GLIBC_2.0
                0x08049d74                htons@@GLIBC_2.0
                0x08049d84                isatty@@GLIBC_2.0
                0x08049d94                acos@@GLIBC_2.0
                0x08049da4                memset@@GLIBC_2.0
                0x08049db4                connect@@GLIBC_2.0
                0x08049dc4                strncpy@@GLIBC_2.0
                0x08049dd4                drem@@GLIBC_2.0
                0x08049de4                fopen@@GLIBC_2.1
                0x08049df4                strtok@@GLIBC_2.0
                0x08049e04                recv@@GLIBC_2.0
                0x08049e14                sprintf@@GLIBC_2.0
                0x08049e24                fwrite@@GLIBC_2.0
                0x08049e34                sin@@GLIBC_2.0
                0x08049e44                socket@@GLIBC_2.0
                0x08049e54                _IO_getc@@GLIBC_2.0
                0x08049e64                log@@GLIBC_2.0
                0x08049e74                read@@GLIBC_2.0
                0x08049e84                geteuid@@GLIBC_2.0
                0x08049e94                sinh@@GLIBC_2.0
                0x08049ea4                strcpy@@GLIBC_2.0

.text           0x08049ec0   0x1adf20
 *(.text .stub .text.* .gnu.linkonce.t.*)
 .text          0x08049ec0       0x24 /usr/lib/crt1.o
                0x08049ec0                _start
 .text          0x08049ee4       0x24 /usr/lib/crti.o
 *fill*         0x08049f08        0x8 90909090
 .text          0x08049f10       0xa0 /usr/lib/gcc-lib/i686-pc-linux-gnu/2.95.3/crtbegin.o
 .text          0x08049fb0     0xc3bc mcar48p_105j.o
                0x0804f068                mcusev_
                0x08055378                meanjet_
                0x0804a43c                mcevbl_
                0x08050cf8                fin3out_
                0x08050844                pripar_
                0x0804a444                mcpobl_
                0x0804a654                mcusin_
                0x08053948                jtfill_
                0x080532d0                mcanal_
                0x08052c0c                qqctrk_
                0x08049fb0                MAIN__
                0x08052b10                qqboos_
                0x08052e34                mcfima_
                0x08054ec8                ytest_
                0x08050e48                mcfill_
                0x0804fdbc                mcusfi_
                0x0804a44c                mcusff_
 *fill*         0x0805636c        0x4 90909090
 .text          0x08056370      0x1e9 /home/pcl2483/pedro/jadesoft/util/mcgen/Plib/libmc105j.a(mcgetf.o)
                0x08056370                mcgetf_
 *fill*         0x08056559        0x7 90909090
 .text          0x08056560      0x6ac /home/pcl2483/pedro/jadesoft/util/mcgen/Plib/libmc105j.a(mcgeth.o)
                0x08056560                mcgeth_
 *fill*         0x08056c0c        0x4 90909090
 .text          0x08056c10      0x69f /home/pcl2483/pedro/jadesoft/util/mcgen/Plib/libmc105j.a(mcgetp.o)
                0x08056c10                mcgetp_
 *fill*         0x080572af        0x1 90909090
 .text          0x080572b0      0x504 /home/pcl2483/pedro/jadesoft/util/mcgen/Plib/libmc105j.a(mcinit.o)
                0x080572b0                mcinit_
 *fill*         0x080577b4        0xc 90909090
 .text          0x080577c0      0x243 /home/pcl2483/pedro/jadesoft/util/mcgen/Plib/libmc105j.a(mcstbl.o)
                0x080577c0                mcstbl_
 *fill*         0x08057a03        0xd 90909090
 .text          0x08057a10      0x8db /home/pcl2483/pedro/jadesoft/util/mcgen/Plib/libmc105j.a(mcwrit.o)
                0x08057a10                mcwrit_
 *fill*         0x080582eb        0x5 90909090
 .text          0x080582f0      0x2e4 /home/pcl2483/pedro/jadesoft/util/mcgen/Plib/libmc105j.a(mytype.o)
                0x080582f0                mytype_
 *fill*         0x080585d4        0xc 90909090
 .text          0x080585e0      0xd64 /home/pcl2483/pedro/jadesoft/util/mcgen/Plib/libmc105j.a(pxeecb.o)
                0x080585e0                pxeecb_
 *fill*         0x08059344        0xc 90909090
 .text          0x08059350      0xe91 /home/pcl2483/pedro/jadesoft/util/mcgen/Plib/libmc105j.a(evwrtj.o)
                0x08059350                evwrtj_
 *fill*         0x0805a1e1        0xf 90909090
 .text          0x0805a1f0      0x166 /home/pcl2483/pedro/jadesoft/util/mcgen/Plib/libmc105j.a(incprd.o)
                0x0805a1f0                incprd_
 *fill*         0x0805a356        0xa 90909090
 .text          0x0805a360      0x16b /home/pcl2483/pedro/jadesoft/util/mcgen/Plib/libmc105j.a(jadeco.o)
                0x0805a360                jadeco_
 *fill*         0x0805a4cb        0x5 90909090
 .text          0x0805a4d0      0xcd0 /home/pcl2483/pedro/jadesoft/util/mcgen/Plib/libmc105j.a(jtconv.o)
                0x0805a4d0                jtconv_
 .text          0x0805b1a0      0x539 /home/pcl2483/pedro/jadesoft/util/mcgen/Plib/libmc105j.a(mcrnst.o)
                0x0805b1a0                mcrnst_
 *fill*         0x0805b6d9        0x7 90909090
 .text          0x0805b6e0        0x9 /home/pcl2483/pedro/jadesoft/util/mcgen/Plib/libmc105j.a(ntcprd.o)
                0x0805b6e0                ntcprd_
 *fill*         0x0805b6e9        0x7 90909090
 .text          0x0805b6f0      0x81b /home/pcl2483/pedro/jadesoft/util/mcgen/Plib/libmc105j.a(prcprd.o)
                0x0805b6f0                prcprd_
 *fill*         0x0805bf0b        0x5 90909090
 .text          0x0805bf10      0x6c4 /home/pcl2483/pedro/jadesoft/util/mcgen/Plib/libmc105j.a(wrcprd.o)
                0x0805bf10                wrcprd_
 .text          0x0805c5d4        0x7 /home/pcl2483/pedro/jadesoft/util/mcgen/Plib/libpythia5722.a(pydata.o)
                0x0805c5d4                pydata_
 *fill*         0x0805c5db        0x5 90909090
 .text          0x0805c5e0     0x11bc /home/pcl2483/pedro/jadesoft/util/mcgen/Plib/libpythia5722.a(pyevnt.o)
                0x0805c5e0                pyevnt_
 *fill*         0x0805d79c        0x4 90909090
 .text          0x0805d7a0      0x264 /home/pcl2483/pedro/jadesoft/util/mcgen/Plib/libpythia5722.a(pyfram.o)
                0x0805d7a0                pyfram_
 *fill*         0x0805da04        0xc 90909090
 .text          0x0805da10      0xd4a /home/pcl2483/pedro/jadesoft/util/mcgen/Plib/libpythia5722.a(pyinit.o)
                0x0805da10                pyinit_
 *fill*         0x0805e75a        0x6 90909090
 .text          0x0805e760      0xde8 /home/pcl2483/pedro/jadesoft/util/mcgen/Plib/libpythia5722.a(pyinki.o)
                0x0805e760                pyinki_
 *fill*         0x0805f548        0x8 90909090
 .text          0x0805f550     0x12af /home/pcl2483/pedro/jadesoft/util/mcgen/Plib/libpythia5722.a(pyinpr.o)
                0x0805f550                pyinpr_
 *fill*         0x080607ff        0x1 90909090
 .text          0x08060800     0x2231 /home/pcl2483/pedro/jadesoft/util/mcgen/Plib/libpythia5722.a(pyinre.o)
                0x08060800                pyinre_
 *fill*         0x08062a31        0xf 90909090
 .text          0x08062a40     0x4642 /home/pcl2483/pedro/jadesoft/util/mcgen/Plib/libpythia5722.a(pymaxi.o)
                0x08062a40                pymaxi_
 *fill*         0x08067082        0xe 90909090
 .text          0x08067090     0x3c51 /home/pcl2483/pedro/jadesoft/util/mcgen/Plib/libpythia5722.a(pymult.o)
                0x08067090                pymult_
 *fill*         0x0806ace1        0xf 90909090
 .text          0x0806acf0     0x43db /home/pcl2483/pedro/jadesoft/util/mcgen/Plib/libpythia5722.a(pyofsh.o)
                0x0806acf0                pyofsh_
 *fill*         0x0806f0cb        0x5 90909090
 .text          0x0806f0d0      0x61c /home/pcl2483/pedro/jadesoft/util/mcgen/Plib/libpythia5722.a(pypile.o)
                0x0806f0d0                pypile_
 *fill*         0x0806f6ec        0x4 90909090
 .text          0x0806f6f0     0x49d0 /home/pcl2483/pedro/jadesoft/util/mcgen/Plib/libpythia5722.a(pyrand.o)
                0x0806f6f0                pyrand_
 .text          0x080740c0     0x5f8b /home/pcl2483/pedro/jadesoft/util/mcgen/Plib/libpythia5722.a(pyremn.o)
                0x080740c0                pyremn_
 *fill*         0x0807a04b        0x5 90909090
 .text          0x0807a050     0x989f /home/pcl2483/pedro/jadesoft/util/mcgen/Plib/libpythia5722.a(pyresd.o)
                0x0807a498                pyresd_
 *fill*         0x080838ef        0x1 90909090
 .text          0x080838f0     0x102d /home/pcl2483/pedro/jadesoft/util/mcgen/Plib/libpythia5722.a(pysave.o)
                0x080838f0                pysave_
 *fill*         0x0808491d        0x3 90909090
 .text          0x08084920     0xe11f /home/pcl2483/pedro/jadesoft/util/mcgen/Plib/libpythia5722.a(pyscat.o)
                0x08084920                pyscat_
 *fill*         0x08092a3f        0x1 90909090
 .text          0x08092a40    0x220ef /home/pcl2483/pedro/jadesoft/util/mcgen/Plib/libpythia5722.a(pysigh.o)
                0x08092a40                pysigh_
 *fill*         0x080b4b2f        0x1 90909090
 .text          0x080b4b30      0xcb9 /home/pcl2483/pedro/jadesoft/util/mcgen/Plib/libpythia5722.a(pyspli.o)
                0x080b4b30                pyspli_
 *fill*         0x080b57e9        0x7 90909090
 .text          0x080b57f0     0x53cc /home/pcl2483/pedro/jadesoft/util/mcgen/Plib/libpythia5722.a(pysspa.o)
                0x080b57f0                pysspa_
 *fill*         0x080babbc        0x4 90909090
 .text          0x080babc0     0x1885 /home/pcl2483/pedro/jadesoft/util/mcgen/Plib/libpythia5722.a(pystfl.o)
                0x080babc0                pystfl_
 *fill*         0x080bc445        0xb 90909090
 .text          0x080bc450     0x2427 /home/pcl2483/pedro/jadesoft/util/mcgen/Plib/libpythia5722.a(pystfu.o)
                0x080bc450                pystfu_
 *fill*         0x080be877        0x9 90909090
 .text          0x080be880      0xe84 /home/pcl2483/pedro/jadesoft/util/mcgen/Plib/libpythia5722.a(pystga.o)
                0x080be880                pystga_
 *fill*         0x080bf704        0xc 90909090
 .text          0x080bf710      0xe49 /home/pcl2483/pedro/jadesoft/util/mcgen/Plib/libpythia5722.a(pystpi.o)
                0x080bf784                pystpi_
 *fill*         0x080c0559        0x7 90909090
 .text          0x080c0560     0x23b1 /home/pcl2483/pedro/jadesoft/util/mcgen/Plib/libpythia5722.a(pystpr.o)
                0x080c05d4                pystpr_
 *fill*         0x080c2911        0xf 90909090
 .text          0x080c2920       0x74 /home/pcl2483/pedro/jadesoft/util/mcgen/Plib/libpythia5722.a(pyupev.o)
                0x080c2920                pyupev_
 *fill*         0x080c2994        0xc 90909090
 .text          0x080c29a0      0x3b1 /home/pcl2483/pedro/jadesoft/util/mcgen/Plib/libpythia5722.a(pywaux.o)
                0x080c2a38                pywaux_
 *fill*         0x080c2d51        0xf 90909090
 .text          0x080c2d60     0xb6b5 /home/pcl2483/pedro/jadesoft/util/mcgen/Plib/libpythia5722.a(pywidt.o)
                0x080c2d60                pywidt_
 *fill*         0x080ce415        0xb 90909090
 .text          0x080ce420     0x223f /home/pcl2483/pedro/jadesoft/util/mcgen/Plib/libpythia5722.a(pyxtot.o)
                0x080ce420                pyxtot_
 *fill*         0x080d065f        0x1 90909090
 .text          0x080d0660     0x8a2d /home/pcl2483/pedro/jadesoft/util/mcgen/Plib/libpythia5722.a(rkbbv.o)
                0x080d0660                rkbbv_
 *fill*         0x080d908d        0x3 90909090
 .text          0x080d9090       0x46 /home/pcl2483/pedro/jadesoft/util/mcgen/Plib/libpythia5722.a(rkdot.o)
                0x080d9090                rkdot_
 *fill*         0x080d90d6        0xa 90909090
 .text          0x080d90e0      0x228 /home/pcl2483/pedro/jadesoft/util/mcgen/Plib/libpythia5722.a(rkhlpk.o)
                0x080d90e0                rkhlpk_
 *fill*         0x080d9308        0x8 90909090
 .text          0x080d9310      0x164 /home/pcl2483/pedro/jadesoft/util/mcgen/Plib/libpythia5722.a(rkrand.o)
                0x080d9310                rkrand_
 *fill*         0x080d9474        0xc 90909090
 .text          0x080d9480      0x8b2 /home/pcl2483/pedro/jadesoft/util/mcgen/Plib/libpythia5722.a(rkzf.o)
                0x080d9480                rkzf_
 *fill*         0x080d9d32        0xe 90909090
 .text          0x080d9d40      0x2a4 /home/pcl2483/pedro/jadesoft/util/mcgen/Plib/libpythia5722.a(rkzpr.o)
                0x080d9d40                rkzpr_
 *fill*         0x080d9fe4        0xc 90909090
 .text          0x080d9ff0      0x3a7 /home/pcl2483/pedro/jadesoft/util/mcgen/Plib/libpythia5722.a(rkzsf.o)
                0x080d9ff0                rkzsf_
 *fill*         0x080da397        0x9 90909090
 .text          0x080da3a0      0x13e /home/pcl2483/pedro/jadesoft/util/mcgen/Plib/libpythia5722.a(structm.o)
                0x080da3a0                structm_
 *fill*         0x080da4de        0x2 90909090
 .text          0x080da4e0       0x94 /home/pcl2483/pedro/jadesoft/util/mcgen/Plib/libpythia5722.a(pdfset.o)
                0x080da4e0                pdfset_
 *fill*         0x080da574        0xc 90909090
 .text          0x080da580     0x58d9 /home/pcl2483/pedro/jadesoft/util/mcgen/Plib/libpythia5722.a(pyctq2.o)
                0x080da580                pyctq2_
 *fill*         0x080dfe59        0x7 90909090
 .text          0x080dfe60     0x2866 /home/pcl2483/pedro/jadesoft/util/mcgen/Plib/libpythia5722.a(pydiff.o)
                0x080dfe60                pydiff_
 *fill*         0x080e26c6        0xa 90909090
 .text          0x080e26d0      0xe93 /home/pcl2483/pedro/jadesoft/util/mcgen/Plib/libpythia5722.a(pydocu.o)
                0x080e26d0                pydocu_
 *fill*         0x080e3563        0xd 90909090
 .text          0x080e3570      0x164 /home/pcl2483/pedro/jadesoft/util/mcgen/Plib/libpythia5722.a(pyevwt.o)
                0x080e3570                pyevwt_
 *fill*         0x080e36d4        0xc 90909090
 .text          0x080e36e0      0x119 /home/pcl2483/pedro/jadesoft/util/mcgen/Plib/libpythia5722.a(pygamm.o)
                0x080e36e0                pygamm_
 *fill*         0x080e37f9        0x7 90909090
 .text          0x080e3800     0x1776 /home/pcl2483/pedro/jadesoft/util/mcgen/Plib/libpythia5722.a(pygano.o)
                0x080e3800                pygano_
 *fill*         0x080e4f76        0xa 90909090
 .text          0x080e4f80      0x75c /home/pcl2483/pedro/jadesoft/util/mcgen/Plib/libpythia5722.a(pyggam.o)
                0x080e4f80                pyggam_
 *fill*         0x080e56dc        0x4 90909090
 .text          0x080e56e0     0x2734 /home/pcl2483/pedro/jadesoft/util/mcgen/Plib/libpythia5722.a(pygvmd.o)
                0x080e56e0                pygvmd_
 *fill*         0x080e7e14        0xc 90909090
 .text          0x080e7e20      0x27a /home/pcl2483/pedro/jadesoft/util/mcgen/Plib/libpythia5722.a(pyhfth.o)
                0x080e7e20                pyhfth_
 *fill*         0x080e809a        0x6 90909090
 .text          0x080e80a0     0x19c5 /home/pcl2483/pedro/jadesoft/util/mcgen/Plib/libpythia5722.a(pyi3au.o)
                0x080e80a0                pyi3au_
 *fill*         0x080e9a65        0xb 90909090
 .text          0x080e9a70     0x1c66 /home/pcl2483/pedro/jadesoft/util/mcgen/Plib/libpythia5722.a(pyinbm.o)
                0x080e9a70                pyinbm_
 *fill*         0x080eb6d6        0xa 90909090
 .text          0x080eb6e0      0x4d6 /home/pcl2483/pedro/jadesoft/util/mcgen/Plib/libpythia5722.a(pykcut.o)
                0x080eb6e0                pykcut_
 *fill*         0x080ebbb6        0xa 90909090
 .text          0x080ebbc0     0x35c7 /home/pcl2483/pedro/jadesoft/util/mcgen/Plib/libpythia5722.a(pyklim.o)
                0x080ebbc0                pyklim_
 *fill*         0x080ef187        0x9 90909090
 .text          0x080ef190     0x2582 /home/pcl2483/pedro/jadesoft/util/mcgen/Plib/libpythia5722.a(pykmap.o)
                0x080ef190                pykmap_
 *fill*         0x080f1712        0xe 90909090
 .text          0x080f1720     0xae18 /home/pcl2483/pedro/jadesoft/util/mcgen/Plib/libpythia5722.a(pyqqbh.o)
                0x080f17d4                pyqqbh_
 *fill*         0x080fc538        0x8 90909090
 .text          0x080fc540      0x69d /home/pcl2483/pedro/jadesoft/util/mcgen/Plib/libpythia5722.a(pyspen.o)
                0x080fc540                pyspen_
 *fill*         0x080fcbdd        0x3 90909090
 .text          0x080fcbe0      0xf4f /home/pcl2483/pedro/jadesoft/util/mcgen/Plib/libpythia5722.a(pystel.o)
                0x080fcbe0                pystel_
 *fill*         0x080fdb2f        0x1 90909090
 .text          0x080fdb30      0x4c8 /home/pcl2483/pedro/jadesoft/util/mcgen/Plib/libpythia5722.a(pygbeh.o)
                0x080fdb30                pygbeh_
 *fill*         0x080fdff8        0x8 90909090
 .text          0x080fe000      0x191 /home/pcl2483/pedro/jadesoft/util/mcgen/Plib/libpythia5722.a(pygdir.o)
                0x080fe000                pygdir_
 *fill*         0x080fe191        0x3 90909090
 .text          0x080fe194        0x7 /home/pcl2483/pedro/jadesoft/util/mcgen/Plib/libariadne408.a(ardata.o)
                0x080fe194                ardata_
 *fill*         0x080fe19b        0x5 90909090
 .text          0x080fe1a0      0x386 /home/pcl2483/pedro/jadesoft/util/mcgen/Plib/libariadne408.a(arexec.o)
                0x080fe1a0                arexec_
 *fill*         0x080fe526        0xa 90909090
 .text          0x080fe530      0x427 /home/pcl2483/pedro/jadesoft/util/mcgen/Plib/libariadne408.a(arinit.o)
                0x080fe530                arinit_
 *fill*         0x080fe957        0x9 90909090
 .text          0x080fe960      0x5f1 /home/pcl2483/pedro/jadesoft/util/mcgen/Plib/libariadne408.a(arlept.o)
                0x080fe960                arlept_
 *fill*         0x080fef51        0xf 90909090
 .text          0x080fef60      0x5cc /home/pcl2483/pedro/jadesoft/util/mcgen/Plib/libariadne408.a(arpars.o)
                0x080fef60                arpars_
 *fill*         0x080ff52c        0x4 90909090
 .text          0x080ff530      0x543 /home/pcl2483/pedro/jadesoft/util/mcgen/Plib/libariadne408.a(arphas.o)
                0x080ff530                arphas_
 *fill*         0x080ffa73        0xd 90909090
 .text          0x080ffa80     0x11a5 /home/pcl2483/pedro/jadesoft/util/mcgen/Plib/libariadne408.a(arptqq.o)
                0x080ffa80                arptqq_
 *fill*         0x08100c25        0xb 90909090
 .text          0x08100c30      0xdf8 /home/pcl2483/pedro/jadesoft/util/mcgen/Plib/libariadne408.a(arpyth.o)
                0x08100d78                arpyth_
 *fill*         0x08101a28        0x8 90909090
 .text          0x08101a30      0x18c /home/pcl2483/pedro/jadesoft/util/mcgen/Plib/libariadne408.a(arpyww.o)
                0x08101a30                arpyww_
 *fill*         0x08101bbc        0x4 90909090
 .text          0x08101bc0     0x3586 /home/pcl2483/pedro/jadesoft/util/mcgen/Plib/libariadne408.a(arremn.o)
                0x08101bc0                arremn_
 *fill*         0x08105146        0xa 90909090
 .text          0x08105150      0xa1c /home/pcl2483/pedro/jadesoft/util/mcgen/Plib/libariadne408.a(arscan.o)
                0x08105150                arscan_
 *fill*         0x08105b6c        0x4 90909090
 .text          0x08105b70      0x2c9 /home/pcl2483/pedro/jadesoft/util/mcgen/Plib/libariadne408.a(arstra.o)
                0x08105b70                arstra_
 *fill*         0x08105e39        0x7 90909090
 .text          0x08105e40     0x1103 /home/pcl2483/pedro/jadesoft/util/mcgen/Plib/libariadne408.a(artune.o)
                0x08105e40                artune_
 *fill*         0x08106f43        0xd 90909090
 .text          0x08106f50       0x25 /home/pcl2483/pedro/jadesoft/util/mcgen/Plib/libariadne408.a(arupom.o)
                0x08106f50                arupom_
 *fill*         0x08106f75        0xb 90909090
 .text          0x08106f80       0x95 /home/pcl2483/pedro/jadesoft/util/mcgen/Plib/libariadne408.a(arzcms.o)
                0x08106f80                arzcms_
 *fill*         0x08107015        0xb 90909090
 .text          0x08107020       0x25 /home/pcl2483/pedro/jadesoft/util/mcgen/Plib/libariadne408.a(lnstrf.o)
                0x08107020                lnstrf_
 *fill*         0x08107045        0xb 90909090
 .text          0x08107050      0x2d2 /home/pcl2483/pedro/jadesoft/util/mcgen/Plib/libariadne408.a(arbole.o)
                0x08107050                arbole_
 *fill*         0x08107322        0xe 90909090
 .text          0x08107330      0xa39 /home/pcl2483/pedro/jadesoft/util/mcgen/Plib/libariadne408.a(arbopy.o)
                0x08107330                arbopy_
 *fill*         0x08107d69        0x7 90909090
 .text          0x08107d70       0x94 /home/pcl2483/pedro/jadesoft/util/mcgen/Plib/libariadne408.a(arcasc.o)
                0x08107d70                arcasc_
 *fill*         0x08107e04        0xc 90909090
 .text          0x08107e10      0x5b9 /home/pcl2483/pedro/jadesoft/util/mcgen/Plib/libariadne408.a(archem.o)
                0x08107e10                archem_
 *fill*         0x081083c9        0x7 90909090
 .text          0x081083d0      0x379 /home/pcl2483/pedro/jadesoft/util/mcgen/Plib/libariadne408.a(arcoli.o)
                0x081083d0                arcoli_
 *fill*         0x08108749        0x7 90909090
 .text          0x08108750       0x67 /home/pcl2483/pedro/jadesoft/util/mcgen/Plib/libariadne408.a(arcont.o)
                0x08108750                arcont_
 *fill*         0x081087b7        0x9 90909090
 .text          0x081087c0      0x2e9 /home/pcl2483/pedro/jadesoft/util/mcgen/Plib/libariadne408.a(arcopa.o)
                0x081087c0                arcopa_
 *fill*         0x08108aa9        0x7 90909090
 .text          0x08108ab0       0xdb /home/pcl2483/pedro/jadesoft/util/mcgen/Plib/libariadne408.a(arcrdi.o)
                0x08108ab0                arcrdi_
 *fill*         0x08108b8b        0x5 90909090
 .text          0x08108b90      0x61d /home/pcl2483/pedro/jadesoft/util/mcgen/Plib/libariadne408.a(ardump.o)
                0x08108bcc                ardump_
 *fill*         0x081091ad        0x3 90909090
 .text          0x081091b0      0xbef /home/pcl2483/pedro/jadesoft/util/mcgen/Plib/libariadne408.a(arerrm.o)
                0x081091b0                arerrm_
 *fill*         0x08109d9f        0x1 90909090
 .text          0x08109da0      0x452 /home/pcl2483/pedro/jadesoft/util/mcgen/Plib/libariadne408.a(arevol.o)
                0x08109da0                arevol_
 *fill*         0x0810a1f2        0xe 90909090
 .text          0x0810a200      0x587 /home/pcl2483/pedro/jadesoft/util/mcgen/Plib/libariadne408.a(arexma.o)
                0x0810a200                arexma_
 *fill*         0x0810a787        0x9 90909090
 .text          0x0810a790      0x303 /home/pcl2483/pedro/jadesoft/util/mcgen/Plib/libariadne408.a(arfidy.o)
                0x0810a790                arfidy_
 *fill*         0x0810aa93        0xd 90909090
 .text          0x0810aaa0      0x408 /home/pcl2483/pedro/jadesoft/util/mcgen/Plib/libariadne408.a(argpt2.o)
                0x0810aaa0                argpt2_
 *fill*         0x0810aea8        0x8 90909090
 .text          0x0810aeb0      0x55b /home/pcl2483/pedro/jadesoft/util/mcgen/Plib/libariadne408.a(argqcd.o)
                0x0810aeb0                argqcd_
 *fill*         0x0810b40b        0x5 90909090
 .text          0x0810b410      0x57f /home/pcl2483/pedro/jadesoft/util/mcgen/Plib/libariadne408.a(argqcg.o)
                0x0810b410                argqcg_
 *fill*         0x0810b98f        0x1 90909090
 .text          0x0810b990      0x637 /home/pcl2483/pedro/jadesoft/util/mcgen/Plib/libariadne408.a(argqcq.o)
                0x0810b990                argqcq_
 *fill*         0x0810bfc7        0x9 90909090
 .text          0x0810bfd0      0x42f /home/pcl2483/pedro/jadesoft/util/mcgen/Plib/libariadne408.a(argqed.o)
                0x0810bfd0                argqed_
 *fill*         0x0810c3ff        0x1 90909090
 .text          0x0810c400       0x86 /home/pcl2483/pedro/jadesoft/util/mcgen/Plib/libariadne408.a(argtyp.o)
                0x0810c400                argtyp_
 *fill*         0x0810c486        0xa 90909090
 .text          0x0810c490      0x24e /home/pcl2483/pedro/jadesoft/util/mcgen/Plib/libariadne408.a(arincr.o)
                0x0810c490                arincr_
 *fill*         0x0810c6de        0x2 90909090
 .text          0x0810c6e0     0x1443 /home/pcl2483/pedro/jadesoft/util/mcgen/Plib/libariadne408.a(arinqq.o)
                0x0810c6e0                arinqq_
 *fill*         0x0810db23        0xd 90909090
 .text          0x0810db30      0x2f2 /home/pcl2483/pedro/jadesoft/util/mcgen/Plib/libariadne408.a(armade.o)
                0x0810db30                armade_
 *fill*         0x0810de22        0xe 90909090
 .text          0x0810de30       0x44 /home/pcl2483/pedro/jadesoft/util/mcgen/Plib/libariadne408.a(armas2.o)
                0x0810de30                armas2_
 *fill*         0x0810de74        0xc 90909090
 .text          0x0810de80      0x1b0 /home/pcl2483/pedro/jadesoft/util/mcgen/Plib/libariadne408.a(armass.o)
                0x0810de80                armass_
 .text          0x0810e030      0x197 /home/pcl2483/pedro/jadesoft/util/mcgen/Plib/libariadne408.a(armcdi.o)
                0x0810e030                armcdi_
 *fill*         0x0810e1c7        0x9 90909090
 .text          0x0810e1d0      0x17e /home/pcl2483/pedro/jadesoft/util/mcgen/Plib/libariadne408.a(armipt.o)
                0x0810e248                armipt_
 *fill*         0x0810e34e        0x2 90909090
 .text          0x0810e350      0x8cf /home/pcl2483/pedro/jadesoft/util/mcgen/Plib/libariadne408.a(armtqq.o)
                0x0810e350                armtqq_
 *fill*         0x0810ec1f        0x1 90909090
 .text          0x0810ec20      0x12a /home/pcl2483/pedro/jadesoft/util/mcgen/Plib/libariadne408.a(arndx1.o)
                0x0810ec20                arndx1_
 *fill*         0x0810ed4a        0x6 90909090
 .text          0x0810ed50      0x125 /home/pcl2483/pedro/jadesoft/util/mcgen/Plib/libariadne408.a(arndx2.o)
                0x0810ed50                arndx2_
 *fill*         0x0810ee75        0xb 90909090
 .text          0x0810ee80       0xc4 /home/pcl2483/pedro/jadesoft/util/mcgen/Plib/libariadne408.a(arndx3.o)
                0x0810ee80                arndx3_
 *fill*         0x0810ef44        0xc 90909090
 .text          0x0810ef50      0x126 /home/pcl2483/pedro/jadesoft/util/mcgen/Plib/libariadne408.a(arndy1.o)
                0x0810ef50                arndy1_
 *fill*         0x0810f076        0xa 90909090
 .text          0x0810f080     0x1597 /home/pcl2483/pedro/jadesoft/util/mcgen/Plib/libariadne408.a(arndy2.o)
                0x0810f080                arndy2_
 *fill*         0x08110617        0x9 90909090
 .text          0x08110620      0x164 /home/pcl2483/pedro/jadesoft/util/mcgen/Plib/libariadne408.a(arndy3.o)
                0x08110620                arndy3_
 *fill*         0x08110784        0xc 90909090
 .text          0x08110790      0xb23 /home/pcl2483/pedro/jadesoft/util/mcgen/Plib/libariadne408.a(arndy4.o)
                0x08110790                arndy4_
 *fill*         0x081112b3        0xd 90909090
 .text          0x081112c0      0xfab /home/pcl2483/pedro/jadesoft/util/mcgen/Plib/libariadne408.a(arniqq.o)
                0x081112c0                arniqq_
 *fill*         0x0811226b        0x5 90909090
 .text          0x08112270       0x7a /home/pcl2483/pedro/jadesoft/util/mcgen/Plib/libariadne408.a(arnofl.o)
                0x08112270                arnofl_
 *fill*         0x081122ea        0x6 90909090
 .text          0x081122f0       0x44 /home/pcl2483/pedro/jadesoft/util/mcgen/Plib/libariadne408.a(arobo1.o)
                0x081122f0                arobo1_
 *fill*         0x08112334        0xc 90909090
 .text          0x08112340       0x4b /home/pcl2483/pedro/jadesoft/util/mcgen/Plib/libariadne408.a(arobo2.o)
                0x08112340                arobo2_
 *fill*         0x0811238b        0x5 90909090
 .text          0x08112390       0x56 /home/pcl2483/pedro/jadesoft/util/mcgen/Plib/libariadne408.a(arobo3.o)
                0x08112390                arobo3_
 *fill*         0x081123e6        0xa 90909090
 .text          0x081123f0       0xd9 /home/pcl2483/pedro/jadesoft/util/mcgen/Plib/libariadne408.a(arpcms.o)
                0x081123f0                arpcms_
 *fill*         0x081124c9        0x7 90909090
 .text          0x081124d0     0x108c /home/pcl2483/pedro/jadesoft/util/mcgen/Plib/libariadne408.a(arpoki.o)
                0x081124d0                arpoki_
 *fill*         0x0811355c        0x4 90909090
 .text          0x08113560     0x1007 /home/pcl2483/pedro/jadesoft/util/mcgen/Plib/libariadne408.a(arposf.o)
                0x08113560                arposf_
 *fill*         0x08114567        0x9 90909090
 .text          0x08114570      0x175 /home/pcl2483/pedro/jadesoft/util/mcgen/Plib/libariadne408.a(arprda.o)
                0x08114570                arprda_
 *fill*         0x081146e5        0xb 90909090
 .text          0x081146f0      0xe0a /home/pcl2483/pedro/jadesoft/util/mcgen/Plib/libariadne408.a(arprdy.o)
                0x081146f0                arprdy_
 *fill*         0x081154fa        0x6 90909090
 .text          0x08115500      0x4f7 /home/pcl2483/pedro/jadesoft/util/mcgen/Plib/libariadne408.a(arprgc.o)
                0x08115500                arprgc_
 *fill*         0x081159f7        0x1 90909090
 .text          0x081159f8       0x61 /home/pcl2483/pedro/jadesoft/util/mcgen/Plib/libariadne408.a(arrobo.o)
                0x081159f8                arrobo_
 *fill*         0x08115a59        0x7 90909090
 .text          0x08115a60      0x215 /home/pcl2483/pedro/jadesoft/util/mcgen/Plib/libariadne408.a(arsume.o)
                0x08115a60                arsume_
 *fill*         0x08115c75        0xb 90909090
 .text          0x08115c80      0x1fc /home/pcl2483/pedro/jadesoft/util/mcgen/Plib/libariadne408.a(arvet1.o)
                0x08115c80                arvet1_
 *fill*         0x08115e7c        0x4 90909090
 .text          0x08115e80      0x19c /home/pcl2483/pedro/jadesoft/util/mcgen/Plib/libariadne408.a(arvet3.o)
                0x08115e80                arvet3_
 *fill*         0x0811601c        0x4 90909090
 .text          0x08116020      0x174 /home/pcl2483/pedro/jadesoft/util/mcgen/Plib/libariadne408.a(arvet4.o)
                0x08116020                arvet4_
 .text          0x08116194       0xdb /home/pcl2483/pedro/jadesoft/util/mcgen/Plib/libariadne408.a(arvet5.o)
                0x08116194                arvet5_
 *fill*         0x0811626f        0x1 90909090
 .text          0x08116270       0xd4 /home/pcl2483/pedro/jadesoft/util/mcgen/Plib/libariadne408.a(arveth.o)
                0x08116270                arveth_
 .text          0x08116344      0x27e /home/pcl2483/pedro/jadesoft/util/mcgen/Plib/libariadne408.a(arbocm.o)
                0x08116344                arbocm_
 *fill*         0x081165c2        0xe 90909090
 .text          0x081165d0     0x13c6 /home/pcl2483/pedro/jadesoft/util/mcgen/Plib/libariadne408.a(archki.o)
                0x081165d0                archki_
 *fill*         0x08117996        0xa 90909090
 .text          0x081179a0      0x5f4 /home/pcl2483/pedro/jadesoft/util/mcgen/Plib/libariadne408.a(ardbrb.o)
                0x081179a0                ardbrb_
 *fill*         0x08117f94        0xc 90909090
 .text          0x08117fa0      0x9aa /home/pcl2483/pedro/jadesoft/util/mcgen/Plib/libariadne408.a(arearr.o)
                0x08117fa0                arearr_
 *fill*         0x0811894a        0x6 90909090
 .text          0x08118950      0xb18 /home/pcl2483/pedro/jadesoft/util/mcgen/Plib/libariadne408.a(aremit.o)
                0x0811898c                aremit_
 *fill*         0x08119468        0x8 90909090
 .text          0x08119470      0x2fc /home/pcl2483/pedro/jadesoft/util/mcgen/Plib/libariadne408.a(arevst.o)
                0x08119470                arevst_
 *fill*         0x0811976c        0x4 90909090
 .text          0x08119770      0x408 /home/pcl2483/pedro/jadesoft/util/mcgen/Plib/libariadne408.a(argdis.o)
                0x08119770                argdis_
 *fill*         0x08119b78        0x8 90909090
 .text          0x08119b80     0x21d5 /home/pcl2483/pedro/jadesoft/util/mcgen/Plib/libariadne408.a(arging.o)
                0x08119b80                arging_
 *fill*         0x0811bd55        0xb 90909090
 .text          0x0811bd60      0x239 /home/pcl2483/pedro/jadesoft/util/mcgen/Plib/libariadne408.a(aripsf.o)
                0x0811bd60                aripsf_
 *fill*         0x0811bf99        0x3 90909090
 .text          0x0811bf9c       0xe1 /home/pcl2483/pedro/jadesoft/util/mcgen/Plib/libariadne408.a(aript2.o)
                0x0811bf9c                aript2_
 *fill*         0x0811c07d        0x3 90909090
 .text          0x0811c080      0x637 /home/pcl2483/pedro/jadesoft/util/mcgen/Plib/libariadne408.a(arjoqq.o)
                0x0811c080                arjoqq_
 *fill*         0x0811c6b7        0x9 90909090
 .text          0x0811c6c0      0x34f /home/pcl2483/pedro/jadesoft/util/mcgen/Plib/libariadne408.a(arjost.o)
                0x0811c6c0                arjost_
 *fill*         0x0811ca0f        0x1 90909090
 .text          0x0811ca10       0x48 /home/pcl2483/pedro/jadesoft/util/mcgen/Plib/libariadne408.a(armas3.o)
                0x0811ca10                armas3_
 *fill*         0x0811ca58        0x8 90909090
 .text          0x0811ca60       0xd1 /home/pcl2483/pedro/jadesoft/util/mcgen/Plib/libariadne408.a(arpadd.o)
                0x0811ca60                arpadd_
 *fill*         0x0811cb31        0xf 90909090
 .text          0x0811cb40     0x1cbd /home/pcl2483/pedro/jadesoft/util/mcgen/Plib/libariadne408.a(arradg.o)
                0x0811cb7c                arradg_
 *fill*         0x0811e7fd        0x3 90909090
 .text          0x0811e800      0x2f8 /home/pcl2483/pedro/jadesoft/util/mcgen/Plib/libariadne408.a(arradp.o)
                0x0811e878                arradp_
 *fill*         0x0811eaf8        0x8 90909090
 .text          0x0811eb00      0x590 /home/pcl2483/pedro/jadesoft/util/mcgen/Plib/libariadne408.a(arradq.o)
                0x0811eb78                arradq_
 .text          0x0811f090      0x631 /home/pcl2483/pedro/jadesoft/util/mcgen/Plib/libariadne408.a(arreca.o)
                0x0811f090                arreca_
 *fill*         0x0811f6c1        0xf 90909090
 .text          0x0811f6d0      0x5b5 /home/pcl2483/pedro/jadesoft/util/mcgen/Plib/libariadne408.a(arremd.o)
                0x0811f6d0                arremd_
 *fill*         0x0811fc85        0xb 90909090
 .text          0x0811fc90      0x684 /home/pcl2483/pedro/jadesoft/util/mcgen/Plib/libariadne408.a(arremp.o)
                0x0811fc90                arremp_
 *fill*         0x08120314        0xc 90909090
 .text          0x08120320      0x66c /home/pcl2483/pedro/jadesoft/util/mcgen/Plib/libariadne408.a(arsplg.o)
                0x0812035c                arsplg_
 *fill*         0x0812098c        0x4 90909090
 .text          0x08120990      0x651 /home/pcl2483/pedro/jadesoft/util/mcgen/Plib/libariadne408.a(arstor.o)
                0x08120990                arstor_
 *fill*         0x08120fe1        0xf 90909090
 .text          0x08120ff0      0xa17 /home/pcl2483/pedro/jadesoft/util/mcgen/Plib/libariadne408.a(arswap.o)
                0x08120ff0                arswap_
 *fill*         0x08121a07        0x9 90909090
 .text          0x08121a10      0x363 /home/pcl2483/pedro/jadesoft/util/mcgen/Plib/libariadne408.a(artpt2.o)
                0x08121a10                artpt2_
 *fill*         0x08121d73        0xd 90909090
 .text          0x08121d80      0x51c /home/pcl2483/pedro/jadesoft/util/mcgen/Plib/libariadne408.a(araddg.o)
                0x08121df8                araddg_
 *fill*         0x0812229c        0x4 90909090
 .text          0x081222a0      0x434 /home/pcl2483/pedro/jadesoft/util/mcgen/Plib/libariadne408.a(archfl.o)
                0x081222a0                archfl_
 *fill*         0x081226d4        0xc 90909090
 .text          0x081226e0      0x218 /home/pcl2483/pedro/jadesoft/util/mcgen/Plib/libariadne408.a(arduph.o)
                0x081226e0                arduph_
 *fill*         0x081228f8        0x8 90909090
 .text          0x08122900      0xf30 /home/pcl2483/pedro/jadesoft/util/mcgen/Plib/libariadne408.a(ardyre.o)
                0x08122900                ardyre_
 .text          0x08123830      0xc4a /home/pcl2483/pedro/jadesoft/util/mcgen/Plib/libariadne408.a(aremi2.o)
                0x08123830                aremi2_
 *fill*         0x0812447a        0x6 90909090
 .text          0x08124480      0x647 /home/pcl2483/pedro/jadesoft/util/mcgen/Plib/libariadne408.a(aremi3.o)
                0x08124480                aremi3_
 *fill*         0x08124ac7        0x9 90909090
 .text          0x08124ad0      0x2d2 /home/pcl2483/pedro/jadesoft/util/mcgen/Plib/libariadne408.a(argdig.o)
                0x08124ad0                argdig_
 *fill*         0x08124da2        0xe 90909090
 .text          0x08124db0     0x112f /home/pcl2483/pedro/jadesoft/util/mcgen/Plib/libariadne408.a(argetr.o)
                0x08124db0                argetr_
 *fill*         0x08125edf        0x1 90909090
 .text          0x08125ee0     0x21a5 /home/pcl2483/pedro/jadesoft/util/mcgen/Plib/libariadne408.a(argig2.o)
                0x08125ee0                argig2_
 *fill*         0x08128085        0xb 90909090
 .text          0x08128090       0x64 /home/pcl2483/pedro/jadesoft/util/mcgen/Plib/libariadne408.a(arobo4.o)
                0x08128090                arobo4_
 *fill*         0x081280f4        0xc 90909090
 .text          0x08128100       0x6c /home/pcl2483/pedro/jadesoft/util/mcgen/Plib/libariadne408.a(arobo5.o)
                0x08128100                arobo5_
 *fill*         0x0812816c        0x4 90909090
 .text          0x08128170      0x97f /home/pcl2483/pedro/jadesoft/util/mcgen/Plib/libariadne408.a(arorie.o)
                0x081281e8                arorie_
 *fill*         0x08128aef        0x1 90909090
 .text          0x08128af0       0xfd /home/pcl2483/pedro/jadesoft/util/mcgen/Plib/libariadne408.a(arpado.o)
                0x08128af0                arpado_
 *fill*         0x08128bed        0x3 90909090
 .text          0x08128bf0      0x122 /home/pcl2483/pedro/jadesoft/util/mcgen/Plib/libariadne408.a(arpins.o)
                0x08128bf0                arpins_
 *fill*         0x08128d12        0xe 90909090
 .text          0x08128d20      0xe21 /home/pcl2483/pedro/jadesoft/util/mcgen/Plib/libariadne408.a(arputr.o)
                0x08128d20                arputr_
 *fill*         0x08129b41        0xf 90909090
 .text          0x08129b50      0xa19 /home/pcl2483/pedro/jadesoft/util/mcgen/Plib/libariadne408.a(arremg.o)
                0x08129b50                arremg_
 *fill*         0x0812a569        0x7 90909090
 .text          0x0812a570      0x19c /home/pcl2483/pedro/jadesoft/util/mcgen/Plib/libariadne408.a(arrems.o)
                0x0812a570                arrems_
 *fill*         0x0812a70c        0x4 90909090
 .text          0x0812a710      0x174 /home/pcl2483/pedro/jadesoft/util/mcgen/Plib/libariadne408.a(arthrw.o)
                0x0812a710                arthrw_
 *fill*         0x0812a884        0xc 90909090
 .text          0x0812a890       0x16 /home/pcl2483/pedro/jadesoft/util/mcgen/Plib/libariadne408.a(aruthr.o)
                0x0812a890                aruthr_
 *fill*         0x0812a8a6        0xa 90909090
 .text          0x0812a8b0      0x4a8 /home/pcl2483/pedro/jadesoft/util/mcgen/Plib/libariadne408.a(arvet6.o)
                0x0812a8b0                arvet6_
 *fill*         0x0812ad58        0x8 90909090
 .text          0x0812ad60      0x43e /home/pcl2483/pedro/jadesoft/util/mcgen/Plib/libariadne408.a(arvet7.o)
                0x0812ad60                arvet7_
 *fill*         0x0812b19e        0x2 90909090
 .text          0x0812b1a0     0x17bf /home/pcl2483/pedro/jadesoft/util/mcgen/Plib/libariadne408.a(aradig.o)
                0x0812b1a0                aradig_
 *fill*         0x0812c95f        0x1 90909090
 .text          0x0812c960      0x679 /home/pcl2483/pedro/jadesoft/util/mcgen/Plib/libariadne408.a(arcodi.o)
                0x0812c960                arcodi_
 *fill*         0x0812cfd9        0x7 90909090
 .text          0x0812cfe0      0x3de /home/pcl2483/pedro/jadesoft/util/mcgen/Plib/libariadne408.a(arecoi.o)
                0x0812cfe0                arecoi_
 *fill*         0x0812d3be        0x2 90909090
 .text          0x0812d3c0     0x11b0 /home/pcl2483/pedro/jadesoft/util/mcgen/Plib/libariadne408.a(aradg2.o)
                0x0812d3c0                aradg2_
 .text          0x0812e570      0xf3c /home/pcl2483/pedro/jadesoft/util/mcgen/Plib/libjt74opal.a(klu.o)
                0x0812e570                klu_
 *fill*         0x0812f4ac        0x4 90909090
 .text          0x0812f4b0      0x6f9 /home/pcl2483/pedro/jadesoft/util/mcgen/Plib/libjt74opal.a(lu2ent.o)
                0x0812f4b0                lu2ent_
 *fill*         0x0812fba9        0x7 90909090
 .text          0x0812fbb0      0x552 /home/pcl2483/pedro/jadesoft/util/mcgen/Plib/libjt74opal.a(luchge.o)
                0x0812fbb0                luchge_
 *fill*         0x08130102        0xe 90909090
 .text          0x08130110      0x957 /home/pcl2483/pedro/jadesoft/util/mcgen/Plib/libjt74opal.a(lucomp.o)
                0x08130110                lucomp_
 *fill*         0x08130a67        0x1 90909090
 .text          0x08130a68        0x7 /home/pcl2483/pedro/jadesoft/util/mcgen/Plib/libjt74opal.a(ludata.o)
                0x08130a68                ludata_
 *fill*         0x08130a6f        0x1 90909090
 .text          0x08130a70     0x7150 /home/pcl2483/pedro/jadesoft/util/mcgen/Plib/libjt74opal.a(ludecy.o)
                0x08130c28                ludecy_
 .text          0x08137bc0     0x2a61 /home/pcl2483/pedro/jadesoft/util/mcgen/Plib/libjt74opal.a(luedit.o)
                0x08137bc0                luedit_
 *fill*         0x0813a621        0xf 90909090
 .text          0x0813a630      0x2c2 /home/pcl2483/pedro/jadesoft/util/mcgen/Plib/libjt74opal.a(luerrm.o)
                0x0813a630                luerrm_
 *fill*         0x0813a8f2        0xe 90909090
 .text          0x0813a900      0xa45 /home/pcl2483/pedro/jadesoft/util/mcgen/Plib/libjt74opal.a(luexec.o)
                0x0813a900                luexec_
 *fill*         0x0813b345        0xb 90909090
 .text          0x0813b350     0x292f /home/pcl2483/pedro/jadesoft/util/mcgen/Plib/libjt74opal.a(lugive.o)
                0x0813b350                lugive_
 *fill*         0x0813dc7f        0x1 90909090
 .text          0x0813dc80     0x4bef /home/pcl2483/pedro/jadesoft/util/mcgen/Plib/libjt74opal.a(luindf.o)
                0x0813dc80                luindf_
 *fill*         0x0814286f        0x1 90909090
 .text          0x08142870     0x31f6 /home/pcl2483/pedro/jadesoft/util/mcgen/Plib/libjt74opal.a(lukfdi.o)
                0x08142870                lukfdi_
 *fill*         0x08145a66        0xa 90909090
 .text          0x08145a70     0x2766 /home/pcl2483/pedro/jadesoft/util/mcgen/Plib/libjt74opal.a(lulist.o)
                0x08145a70                lulist_
 *fill*         0x081481d6        0xa 90909090
 .text          0x081481e0      0x69a /home/pcl2483/pedro/jadesoft/util/mcgen/Plib/libjt74opal.a(lulogo.o)
                0x081481e0                lulogo_
 *fill*         0x0814887a        0x6 90909090
 .text          0x08148880      0xdd4 /home/pcl2483/pedro/jadesoft/util/mcgen/Plib/libjt74opal.a(luname.o)
                0x08148880                luname_
 *fill*         0x08149654        0xc 90909090
 .text          0x08149660     0x39ef /home/pcl2483/pedro/jadesoft/util/mcgen/Plib/libjt74opal.a(luprep.o)
                0x08149660                luprep_
 *fill*         0x0814d04f        0x1 90909090
 .text          0x0814d050      0x177 /home/pcl2483/pedro/jadesoft/util/mcgen/Plib/libjt74opal.a(luptdi.o)
                0x0814d050                luptdi_
 *fill*         0x0814d1c7        0x9 90909090
 .text          0x0814d1d0      0xc9b /home/pcl2483/pedro/jadesoft/util/mcgen/Plib/libjt74opal.a(lurobo.o)
                0x0814ddf0                lurobo_
                0x0814de2c                ludbrb_
 *fill*         0x0814de6b        0x5 90909090
 .text          0x0814de70     0x9eb1 /home/pcl2483/pedro/jadesoft/util/mcgen/Plib/libjt74opal.a(lushow.o)
                0x0814de70                lushow_
 *fill*         0x08157d21        0xf 90909090
 .text          0x08157d30     0xb76f /home/pcl2483/pedro/jadesoft/util/mcgen/Plib/libjt74opal.a(lustrf.o)
                0x08157e98                lustrf_
 *fill*         0x0816349f        0x1 90909090
 .text          0x081634a0     0x60f3 /home/pcl2483/pedro/jadesoft/util/mcgen/Plib/libjt74opal.a(lutabu.o)
                0x081634a0                lutabu_
 *fill*         0x08169593        0xd 90909090
 .text          0x081695a0     0x123c /home/pcl2483/pedro/jadesoft/util/mcgen/Plib/libjt74opal.a(lutaud.o)
                0x081695a0                lutaud_
 *fill*         0x0816a7dc        0x4 90909090
 .text          0x0816a7e0      0xc5b /home/pcl2483/pedro/jadesoft/util/mcgen/Plib/libjt74opal.a(luzdis.o)
                0x0816a7e0                luzdis_
 *fill*         0x0816b43b        0x5 90909090
 .text          0x0816b440      0xa80 /home/pcl2483/pedro/jadesoft/util/mcgen/Plib/libjt74opal.a(plu.o)
                0x0816b440                plu_
 .text          0x0816bec0      0x597 /home/pcl2483/pedro/jadesoft/util/mcgen/Plib/libjt74opal.a(rlu.o)
                0x0816bec0                rlu_
 *fill*         0x0816c457        0x9 90909090
 .text          0x0816c460      0x205 /home/pcl2483/pedro/jadesoft/util/mcgen/Plib/libjt74opal.a(taupol.o)
                0x0816c460                taupol_
 *fill*         0x0816c665        0xb 90909090
 .text          0x0816c670      0x2c7 /home/pcl2483/pedro/jadesoft/util/mcgen/Plib/libjt74opal.a(ulalem.o)
                0x0816c670                ulalem_
 *fill*         0x0816c937        0x9 90909090
 .text          0x0816c940      0x3a3 /home/pcl2483/pedro/jadesoft/util/mcgen/Plib/libjt74opal.a(ulalps.o)
                0x0816c940                ulalps_
 *fill*         0x0816cce3        0xd 90909090
 .text          0x0816ccf0      0x139 /home/pcl2483/pedro/jadesoft/util/mcgen/Plib/libjt74opal.a(ulangl.o)
                0x0816ccf0                ulangl_
 *fill*         0x0816ce29        0x7 90909090
 .text          0x0816ce30      0x92a /home/pcl2483/pedro/jadesoft/util/mcgen/Plib/libjt74opal.a(ulmass.o)
                0x0816ce30                ulmass_
 *fill*         0x0816d75a        0x6 90909090
 .text          0x0816d760      0x776 /home/pcl2483/pedro/jadesoft/util/mcgen/Plib/libjt74opal.a(dexay.o)
                0x0816d760                dexay_
 *fill*         0x0816ded6        0xa 90909090
 .text          0x0816dee0      0x42c /home/pcl2483/pedro/jadesoft/util/mcgen/Plib/libjt74opal.a(dexay1.o)
                0x0816dee0                dexay1_
 *fill*         0x0816e30c        0x4 90909090
 .text          0x0816e310      0x154 /home/pcl2483/pedro/jadesoft/util/mcgen/Plib/libjt74opal.a(dexel.o)
                0x0816e310                dexel_
 *fill*         0x0816e464        0xc 90909090
 .text          0x0816e470      0x104 /home/pcl2483/pedro/jadesoft/util/mcgen/Plib/libjt74opal.a(dexkk.o)
                0x0816e470                dexkk_
 *fill*         0x0816e574        0xc 90909090
 .text          0x0816e580      0x164 /home/pcl2483/pedro/jadesoft/util/mcgen/Plib/libjt74opal.a(dexks.o)
                0x0816e580                dexks_
 *fill*         0x0816e6e4        0xc 90909090
 .text          0x0816e6f0      0x164 /home/pcl2483/pedro/jadesoft/util/mcgen/Plib/libjt74opal.a(dexmu.o)
                0x0816e6f0                dexmu_
 *fill*         0x0816e854        0xc 90909090
 .text          0x0816e860      0x15c /home/pcl2483/pedro/jadesoft/util/mcgen/Plib/libjt74opal.a(dexnew.o)
                0x0816e860                dexnew_
 *fill*         0x0816e9bc        0x4 90909090
 .text          0x0816e9c0      0x104 /home/pcl2483/pedro/jadesoft/util/mcgen/Plib/libjt74opal.a(dexpi.o)
                0x0816e9c0                dexpi_
 *fill*         0x0816eac4        0xc 90909090
 .text          0x0816ead0      0x15a /home/pcl2483/pedro/jadesoft/util/mcgen/Plib/libjt74opal.a(dexro.o)
                0x0816ead0                dexro_
 *fill*         0x0816ec2a        0x6 90909090
 .text          0x0816ec30      0x1bc /home/pcl2483/pedro/jadesoft/util/mcgen/Plib/libjt74opal.a(dwlnew.o)
                0x0816ec30                dwlnew_
 *fill*         0x0816edec        0x4 90909090
 .text          0x0816edf0      0x268 /home/pcl2483/pedro/jadesoft/util/mcgen/Plib/libjt74opal.a(dwluaa.o)
                0x0816edf0                dwluaa_
 *fill*         0x0816f058        0x8 90909090
 .text          0x0816f060      0x104 /home/pcl2483/pedro/jadesoft/util/mcgen/Plib/libjt74opal.a(dwluel.o)
                0x0816f060                dwluel_
 *fill*         0x0816f164        0xc 90909090
 .text          0x0816f170       0xb5 /home/pcl2483/pedro/jadesoft/util/mcgen/Plib/libjt74opal.a(dwlukk.o)
                0x0816f170                dwlukk_
 *fill*         0x0816f225        0xb 90909090
 .text          0x0816f230      0x244 /home/pcl2483/pedro/jadesoft/util/mcgen/Plib/libjt74opal.a(dwluks.o)
                0x0816f230                dwluks_
 *fill*         0x0816f474        0xc 90909090
 .text          0x0816f480      0x104 /home/pcl2483/pedro/jadesoft/util/mcgen/Plib/libjt74opal.a(dwlumu.o)
                0x0816f480                dwlumu_
 *fill*         0x0816f584        0xc 90909090
 .text          0x0816f590       0xab /home/pcl2483/pedro/jadesoft/util/mcgen/Plib/libjt74opal.a(dwlupi.o)
                0x0816f590                dwlupi_
 *fill*         0x0816f63b        0x5 90909090
 .text          0x0816f640      0x134 /home/pcl2483/pedro/jadesoft/util/mcgen/Plib/libjt74opal.a(dwluro.o)
                0x0816f640                dwluro_
 *fill*         0x0816f774        0xc 90909090
 .text          0x0816f780       0xda /home/pcl2483/pedro/jadesoft/util/mcgen/Plib/libjt74opal.a(dwrph.o)
                0x0816f780                dwrph_
 *fill*         0x0816f85a        0x6 90909090
 .text          0x0816f860      0x391 /home/pcl2483/pedro/jadesoft/util/mcgen/Plib/libjt74opal.a(filhep.o)
                0x0816f860                filhep_
 *fill*         0x0816fbf1        0xf 90909090
 .text          0x0816fc00      0xd35 /home/pcl2483/pedro/jadesoft/util/mcgen/Plib/libjt74opal.a(initdk.o)
                0x0816fc00                initdk_
 *fill*         0x08170935        0xb 90909090
 .text          0x08170940      0x170 /home/pcl2483/pedro/jadesoft/util/mcgen/Plib/libjt74opal.a(jaker.o)
                0x08170940                jaker_
 .text          0x08170ab0     0x1e4f /home/pcl2483/pedro/jadesoft/util/mcgen/Plib/libjt74opal.a(luboei.o)
                0x08170ab0                luboei_
 *fill*         0x081728ff        0x1 90909090
 .text          0x08172900      0x214 /home/pcl2483/pedro/jadesoft/util/mcgen/Plib/libjt74opal.a(lunpik.o)
                0x08172900                lunpik_
 *fill*         0x08172b14        0xc 90909090
 .text          0x08172b20      0x5a8 /home/pcl2483/pedro/jadesoft/util/mcgen/Plib/libjt74opal.a(dadmel.o)
                0x08172b20                dadmel_
 *fill*         0x081730c8        0x8 90909090
 .text          0x081730d0      0x577 /home/pcl2483/pedro/jadesoft/util/mcgen/Plib/libjt74opal.a(dadmkk.o)
                0x081730d0                dadmkk_
 *fill*         0x08173647        0x9 90909090
 .text          0x08173650      0x5b8 /home/pcl2483/pedro/jadesoft/util/mcgen/Plib/libjt74opal.a(dadmks.o)
                0x08173650                dadmks_
 *fill*         0x08173c08        0x8 90909090
 .text          0x08173c10      0x598 /home/pcl2483/pedro/jadesoft/util/mcgen/Plib/libjt74opal.a(dadmmu.o)
                0x08173c10                dadmmu_
 *fill*         0x081741a8        0x8 90909090
 .text          0x081741b0      0x56d /home/pcl2483/pedro/jadesoft/util/mcgen/Plib/libjt74opal.a(dadmpi.o)
                0x081741b0                dadmpi_
 *fill*         0x0817471d        0x3 90909090
 .text          0x08174720      0x558 /home/pcl2483/pedro/jadesoft/util/mcgen/Plib/libjt74opal.a(dadmro.o)
                0x08174720                dadmro_
 *fill*         0x08174c78        0x8 90909090
 .text          0x08174c80      0xace /home/pcl2483/pedro/jadesoft/util/mcgen/Plib/libjt74opal.a(dadnew.o)
                0x08174c80                dadnew_
 *fill*         0x0817574e        0x2 90909090
 .text          0x08175750      0x185 /home/pcl2483/pedro/jadesoft/util/mcgen/Plib/libjt74opal.a(dexaa.o)
                0x08175750                dexaa_
 *fill*         0x081758d5        0xb 90909090
 .text          0x081758e0     0x1f8c /home/pcl2483/pedro/jadesoft/util/mcgen/Plib/libjt74opal.a(dph4pi.o)
                0x08175934                dph4pi_
 *fill*         0x0817786c        0x4 90909090
 .text          0x08177870     0x17fc /home/pcl2483/pedro/jadesoft/util/mcgen/Plib/libjt74opal.a(dph5pi.o)
                0x081779a4                dph5pi_
 *fill*         0x0817906c        0x4 90909090
 .text          0x08179070     0x192f /home/pcl2483/pedro/jadesoft/util/mcgen/Plib/libjt74opal.a(dphnpi.o)
                0x08179130                dphnpi_
 *fill*         0x0817a99f        0x1 90909090
 .text          0x0817a9a0      0x17b /home/pcl2483/pedro/jadesoft/util/mcgen/Plib/libjt74opal.a(dphsel.o)
                0x0817a9a0                dphsel_
 *fill*         0x0817ab1b        0x5 90909090
 .text          0x0817ab20     0x138f /home/pcl2483/pedro/jadesoft/util/mcgen/Plib/libjt74opal.a(dphsks.o)
                0x0817ab20                dphsks_
 *fill*         0x0817beaf        0x1 90909090
 .text          0x0817beb0      0x17b /home/pcl2483/pedro/jadesoft/util/mcgen/Plib/libjt74opal.a(dphsmu.o)
                0x0817beb0                dphsmu_
 *fill*         0x0817c02b        0x5 90909090
 .text          0x0817c030      0x1b9 /home/pcl2483/pedro/jadesoft/util/mcgen/Plib/libjt74opal.a(dphspk.o)
                0x0817c030                dphspk_
 *fill*         0x0817c1e9        0x7 90909090
 .text          0x0817c1f0      0x870 /home/pcl2483/pedro/jadesoft/util/mcgen/Plib/libjt74opal.a(dphsrk.o)
                0x0817c1f0                dphsrk_
 .text          0x0817ca60      0x85f /home/pcl2483/pedro/jadesoft/util/mcgen/Plib/libjt74opal.a(dphsro.o)
                0x0817ca60                dphsro_
 *fill*         0x0817d2bf        0x1 90909090
 .text          0x0817d2c0     0x13cd /home/pcl2483/pedro/jadesoft/util/mcgen/Plib/libjt74opal.a(dphtre.o)
                0x0817d314                dphtre_
 *fill*         0x0817e68d        0x3 90909090
 .text          0x0817e690      0xcee /home/pcl2483/pedro/jadesoft/util/mcgen/Plib/libjt74opal.a(drcmu.o)
                0x0817e690                drcmu_
 *fill*         0x0817f37e        0x2 90909090
 .text          0x0817f380       0x87 /home/pcl2483/pedro/jadesoft/util/mcgen/Plib/libjt74opal.a(dwluph.o)
                0x0817f380                dwluph_
 *fill*         0x0817f407        0x1 90909090
 .text          0x0817f408       0x3d /home/pcl2483/pedro/jadesoft/util/mcgen/Plib/libjt74opal.a(fpirho.o)
                0x0817f408                fpirho_
 *fill*         0x0817f445        0x3 90909090
 .text          0x0817f448       0x44 /home/pcl2483/pedro/jadesoft/util/mcgen/Plib/libjt74opal.a(fpirk.o)
                0x0817f448                fpirk_
 *fill*         0x0817f48c        0x4 90909090
 .text          0x0817f490      0x109 /home/pcl2483/pedro/jadesoft/util/mcgen/Plib/libjt74opal.a(rotor2.o)
                0x0817f490                rotor2_
 *fill*         0x0817f599        0x7 90909090
 .text          0x0817f5a0       0xf9 /home/pcl2483/pedro/jadesoft/util/mcgen/Plib/libjt74opal.a(rotor3.o)
                0x0817f5a0                rotor3_
 *fill*         0x0817f699        0x7 90909090
 .text          0x0817f6a0       0x3a /home/pcl2483/pedro/jadesoft/util/mcgen/Plib/libjt74opal.a(rotpol.o)
                0x0817f6a0                rotpol_
 *fill*         0x0817f6da        0x6 90909090
 .text          0x0817f6e0       0x3a /home/pcl2483/pedro/jadesoft/util/mcgen/Plib/libjt74opal.a(rotpox.o)
                0x0817f6e0                rotpox_
 *fill*         0x0817f71a        0x6 90909090
 .text          0x0817f720      0x67c /home/pcl2483/pedro/jadesoft/util/mcgen/Plib/libjt74opal.a(sigee.o)
                0x0817f720                sigee_
 .text          0x0817fd9c      0x11d /home/pcl2483/pedro/jadesoft/util/mcgen/Plib/libjt74opal.a(sphera.o)
                0x0817fd9c                sphera_
 *fill*         0x0817feb9        0x3 90909090
 .text          0x0817febc      0x115 /home/pcl2483/pedro/jadesoft/util/mcgen/Plib/libjt74opal.a(spherd.o)
                0x0817febc                spherd_
 *fill*         0x0817ffd1        0xf 90909090
 .text          0x0817ffe0       0xff /home/pcl2483/pedro/jadesoft/util/mcgen/Plib/libjt74opal.a(bostd3.o)
                0x0817ffe0                bostd3_
 *fill*         0x081800df        0x1 90909090
 .text          0x081800e0       0xff /home/pcl2483/pedro/jadesoft/util/mcgen/Plib/libjt74opal.a(bostr3.o)
                0x081800e0                bostr3_
 *fill*         0x081801df        0x1 90909090
 .text          0x081801e0      0x267 /home/pcl2483/pedro/jadesoft/util/mcgen/Plib/libjt74opal.a(bwigs.o)
                0x08180284                bwigs_
 *fill*         0x08180447        0x9 90909090
 .text          0x08180450      0x5b8 /home/pcl2483/pedro/jadesoft/util/mcgen/Plib/libjt74opal.a(choice.o)
                0x08180450                choice_
 *fill*         0x08180a08        0x8 90909090
 .text          0x08180a10      0x508 /home/pcl2483/pedro/jadesoft/util/mcgen/Plib/libjt74opal.a(dadmaa.o)
                0x08180a10                dadmaa_
 *fill*         0x08180f18        0x8 90909090
 .text          0x08180f20      0x27e /home/pcl2483/pedro/jadesoft/util/mcgen/Plib/libjt74opal.a(dam4pi.o)
                0x08180f20                dam4pi_
 *fill*         0x0818119e        0x2 90909090
 .text          0x081811a0      0xb17 /home/pcl2483/pedro/jadesoft/util/mcgen/Plib/libjt74opal.a(dampog.o)
                0x081811a0                dampog_
 *fill*         0x08181cb7        0x9 90909090
 .text          0x08181cc0     0x1aaf /home/pcl2483/pedro/jadesoft/util/mcgen/Plib/libjt74opal.a(damppk.o)
                0x08181cc0                damppk_
 *fill*         0x0818376f        0x1 90909090
 .text          0x08183770       0xa8 /home/pcl2483/pedro/jadesoft/util/mcgen/Plib/libjt74opal.a(dampry.o)
                0x08183770                dampry_
 *fill*         0x08183818        0x8 90909090
 .text          0x08183820      0x1da /home/pcl2483/pedro/jadesoft/util/mcgen/Plib/libjt74opal.a(dcdmas.o)
                0x08183820                dcdmas_
 *fill*         0x081839fa        0x6 90909090
 .text          0x08183a00       0xe5 /home/pcl2483/pedro/jadesoft/util/mcgen/Plib/libjt74opal.a(dphsaa.o)
                0x08183a00                dphsaa_
 *fill*         0x08183ae5        0xb 90909090
 .text          0x08183af0      0x6d8 /home/pcl2483/pedro/jadesoft/util/mcgen/Plib/libjt74opal.a(form1.o)
                0x08183bc8                form1_
 *fill*         0x081841c8        0x8 90909090
 .text          0x081841d0      0x7c8 /home/pcl2483/pedro/jadesoft/util/mcgen/Plib/libjt74opal.a(form2.o)
                0x081842a8                form2_
 *fill*         0x08184998        0x8 90909090
 .text          0x081849a0       0x54 /home/pcl2483/pedro/jadesoft/util/mcgen/Plib/libjt74opal.a(form3.o)
                0x081849a0                form3_
 *fill*         0x081849f4        0xc 90909090
 .text          0x08184a00      0x966 /home/pcl2483/pedro/jadesoft/util/mcgen/Plib/libjt74opal.a(form4.o)
                0x08184ad8                form4_
 *fill*         0x08185366        0xa 90909090
 .text          0x08185370      0x69b /home/pcl2483/pedro/jadesoft/util/mcgen/Plib/libjt74opal.a(form5.o)
                0x08185370                form5_
 *fill*         0x08185a0b        0x5 90909090
 .text          0x08185a10      0x371 /home/pcl2483/pedro/jadesoft/util/mcgen/Plib/libjt74opal.a(formom.o)
                0x08185af4                formom_
 *fill*         0x08185d81        0xf 90909090
 .text          0x08185d90      0x153 /home/pcl2483/pedro/jadesoft/util/mcgen/Plib/libjt74opal.a(fpik.o)
                0x08185d90                fpik_
 *fill*         0x08185ee3        0xd 90909090
 .text          0x08185ef0      0x16c /home/pcl2483/pedro/jadesoft/util/mcgen/Plib/libjt74opal.a(fpikm.o)
                0x08185ef0                fpikm_
 *fill*         0x0818605c        0x4 90909090
 .text          0x08186060      0x1ec /home/pcl2483/pedro/jadesoft/util/mcgen/Plib/libjt74opal.a(fpikmd.o)
                0x08186060                fpikmd_
 *fill*         0x0818624c        0x4 90909090
 .text          0x08186250      0x1ba /home/pcl2483/pedro/jadesoft/util/mcgen/Plib/libjt74opal.a(gfun.o)
                0x08186250                gfun_
 *fill*         0x0818640a        0x6 90909090
 .text          0x08186410      0x369 /home/pcl2483/pedro/jadesoft/util/mcgen/Plib/libjt74opal.a(prod5.o)
                0x081864a8                prod5_
 *fill*         0x08186779        0x7 90909090
 .text          0x08186780      0x109 /home/pcl2483/pedro/jadesoft/util/mcgen/Plib/libjt74opal.a(rotod2.o)
                0x08186780                rotod2_
 *fill*         0x08186889        0x7 90909090
 .text          0x08186890      0x109 /home/pcl2483/pedro/jadesoft/util/mcgen/Plib/libjt74opal.a(rotod3.o)
                0x08186890                rotod3_
 *fill*         0x08186999        0x7 90909090
 .text          0x081869a0      0xe1b /home/pcl2483/pedro/jadesoft/util/mcgen/Plib/libjt74opal.a(sqm2.o)
                0x081869a0                sqm2_
 *fill*         0x081877bb        0x5 90909090
 .text          0x081877c0      0xc54 /home/pcl2483/pedro/jadesoft/util/mcgen/Plib/libjt74opal.a(thb.o)
                0x081877c0                thb_
 *fill*         0x08188414        0xc 90909090
 .text          0x08188420       0xe4 /home/pcl2483/pedro/jadesoft/util/mcgen/Plib/libjt74opal.a(wigfor.o)
                0x08188420                wigfor_
 *fill*         0x08188504        0xc 90909090
 .text          0x08188510      0x1ff /home/pcl2483/pedro/jadesoft/util/mcgen/Plib/libjt74opal.a(bwig.o)
                0x08188510                bwig_
 *fill*         0x0818870f        0x1 90909090
 .text          0x08188710      0x250 /home/pcl2483/pedro/jadesoft/util/mcgen/Plib/libjt74opal.a(bwigm.o)
                0x08188710                bwigm_
 .text          0x08188960      0x36b /home/pcl2483/pedro/jadesoft/util/mcgen/Plib/libjt74opal.a(claxi.o)
                0x08188a24                claxi_
 *fill*         0x08188ccb        0x5 90909090
 .text          0x08188cd0       0xc4 /home/pcl2483/pedro/jadesoft/util/mcgen/Plib/libjt74opal.a(clnut.o)
                0x08188cd0                clnut_
 *fill*         0x08188d94        0xc 90909090
 .text          0x08188da0      0x1c0 /home/pcl2483/pedro/jadesoft/util/mcgen/Plib/libjt74opal.a(clvec.o)
                0x08188da0                clvec_
 .text          0x08188f60     0x194f /home/pcl2483/pedro/jadesoft/util/mcgen/Plib/libjt74opal.a(curr.o)
                0x08189038                curr_
 *fill*         0x0818a8af        0x1 90909090
 .text          0x0818a8b0      0x50d /home/pcl2483/pedro/jadesoft/util/mcgen/Plib/libjt74opal.a(dilog.o)
                0x0818a8b0                dilog_
 *fill*         0x0818adbd        0x3 90909090
 .text          0x0818adc0     0x1786 /home/pcl2483/pedro/jadesoft/util/mcgen/Plib/libckern105.a(ckern.o)
                0x0818adc0                ckern_
 *fill*         0x0818c546        0xa 90909090
 .text          0x0818c550      0x42f /home/pcl2483/pedro/jadesoft/util/mcgen/Plib/libckern105.a(cksord.o)
                0x0818c550                cksord_
 *fill*         0x0818c97f        0x1 90909090
 .text          0x0818c980      0x1b5 /home/pcl2483/pedro/jadesoft/util/mcgen/Plib/libckern105.a(cnjet.o)
                0x0818c980                cnjet_
 *fill*         0x0818cb35        0xb 90909090
 .text          0x0818cb40      0x217 /home/pcl2483/pedro/jadesoft/util/mcgen/Plib/libpx114.a(pxang3.o)
                0x0818cb40                pxang3_
 *fill*         0x0818cd57        0x9 90909090
 .text          0x0818cd60      0x17f /home/pcl2483/pedro/jadesoft/util/mcgen/Plib/libpx114.a(pxanxy.o)
                0x0818cd60                pxanxy_
 *fill*         0x0818cedf        0x1 90909090
 .text          0x0818cee0      0xa8f /home/pcl2483/pedro/jadesoft/util/mcgen/Plib/libpx114.a(pxcone.o)
                0x0818cee0                pxcone_
 *fill*         0x0818d96f        0x1 90909090
 .text          0x0818d970       0x6b /home/pcl2483/pedro/jadesoft/util/mcgen/Plib/libpx114.a(pxcopv.o)
                0x0818d970                pxcopv_
 *fill*         0x0818d9db        0x5 90909090
 .text          0x0818d9e0      0x322 /home/pcl2483/pedro/jadesoft/util/mcgen/Plib/libpx114.a(pxjpdg.o)
                0x0818d9e0                pxjpdg_
 *fill*         0x0818dd02        0xe 90909090
 .text          0x0818dd10      0x70f /home/pcl2483/pedro/jadesoft/util/mcgen/Plib/libpx114.a(pxjsp3.o)
                0x0818dd10                pxjsp3_
 *fill*         0x0818e41f        0x1 90909090
 .text          0x0818e420      0x835 /home/pcl2483/pedro/jadesoft/util/mcgen/Plib/libpx114.a(pxlsp3.o)
                0x0818e420                pxlsp3_
 *fill*         0x0818ec55        0xb 90909090
 .text          0x0818ec60      0x3f2 /home/pcl2483/pedro/jadesoft/util/mcgen/Plib/libpx114.a(pxlth4.o)
                0x0818ec60                pxlth4_
 *fill*         0x0818f052        0xe 90909090
 .text          0x0818f060     0x2507 /home/pcl2483/pedro/jadesoft/util/mcgen/Plib/libpx114.a(pxlut3.o)
                0x0818f060                pxlut3_
 *fill*         0x08191567        0x9 90909090
 .text          0x08191570      0x11a /home/pcl2483/pedro/jadesoft/util/mcgen/Plib/libpx114.a(pxlzf5.o)
                0x08191570                pxlzf5_
 *fill*         0x0819168a        0x6 90909090
 .text          0x08191690      0x4b2 /home/pcl2483/pedro/jadesoft/util/mcgen/Plib/libpx114.a(pxmmbb.o)
                0x08191690                pxmmbb_
 *fill*         0x08191b42        0xe 90909090
 .text          0x08191b50      0x131 /home/pcl2483/pedro/jadesoft/util/mcgen/Plib/libpx114.a(pxnorv.o)
                0x08191b50                pxnorv_
 *fill*         0x08191c81        0xf 90909090
 .text          0x08191c90      0x63c /home/pcl2483/pedro/jadesoft/util/mcgen/Plib/libpx114.a(pxolap.o)
                0x08191c90                pxolap_
 *fill*         0x081922cc        0x4 90909090
 .text          0x081922d0      0x361 /home/pcl2483/pedro/jadesoft/util/mcgen/Plib/libpx114.a(pxord.o)
                0x081922d0                pxord_
 *fill*         0x08192631        0xf 90909090
 .text          0x08192640      0x1dd /home/pcl2483/pedro/jadesoft/util/mcgen/Plib/libpx114.a(pxplt3.o)
                0x08192640                pxplt3_
 *fill*         0x0819281d        0x3 90909090
 .text          0x08192820      0x12c /home/pcl2483/pedro/jadesoft/util/mcgen/Plib/libpx114.a(pxplu3.o)
                0x08192820                pxplu3_
 *fill*         0x0819294c        0x4 90909090
 .text          0x08192950      0x301 /home/pcl2483/pedro/jadesoft/util/mcgen/Plib/libpx114.a(pxprcv.o)
                0x08192950                pxprcv_
 *fill*         0x08192c51        0xf 90909090
 .text          0x08192c60      0x2ed /home/pcl2483/pedro/jadesoft/util/mcgen/Plib/libpx114.a(pxprrv.o)
                0x08192c60                pxprrv_
 *fill*         0x08192f4d        0x3 90909090
 .text          0x08192f50      0x1e9 /home/pcl2483/pedro/jadesoft/util/mcgen/Plib/libpx114.a(pxrap4.o)
                0x08192f50                pxrap4_
 *fill*         0x08193139        0x7 90909090
 .text          0x08193140      0x22d /home/pcl2483/pedro/jadesoft/util/mcgen/Plib/libpx114.a(pxrmx3.o)
                0x08193140                pxrmx3_
 *fill*         0x0819336d        0x3 90909090
 .text          0x08193370       0xb5 /home/pcl2483/pedro/jadesoft/util/mcgen/Plib/libpx114.a(pxrob3.o)
                0x08193370                pxrob3_
 *fill*         0x08193425        0xb 90909090
 .text          0x08193430       0xb5 /home/pcl2483/pedro/jadesoft/util/mcgen/Plib/libpx114.a(pxrof3.o)
                0x08193430                pxrof3_
 *fill*         0x081934e5        0xb 90909090
 .text          0x081934f0      0x329 /home/pcl2483/pedro/jadesoft/util/mcgen/Plib/libpx114.a(pxsear.o)
                0x081934f0                pxsear_
 *fill*         0x08193819        0x7 90909090
 .text          0x08193820      0x37f /home/pcl2483/pedro/jadesoft/util/mcgen/Plib/libpx114.a(pxsorv.o)
                0x08193820                pxsorv_
 *fill*         0x08193b9f        0x1 90909090
 .text          0x08193ba0      0x2d2 /home/pcl2483/pedro/jadesoft/util/mcgen/Plib/libpx114.a(pxtry.o)
                0x08193ba0                pxtry_
 *fill*         0x08193e72        0xe 90909090
 .text          0x08193e80      0x1ac /home/pcl2483/pedro/jadesoft/util/mcgen/Plib/libpx114.a(pxuvec.o)
                0x08193e80                pxuvec_
 *fill*         0x0819402c        0x4 90909090
 .text          0x08194030       0x49 /home/pcl2483/pedro/jadesoft/util/mcgen/Plib/libpx114.a(pxzerv.o)
                0x08194030                pxzerv_
 *fill*         0x08194079        0x7 90909090
 .text          0x08194080     0x1dee /home/pcl2483/pedro/jadesoft/util/mcgen/Plib/libpx114.a(ykern.o)
                0x08194688                ykern_
 *fill*         0x08195e6e        0x2 90909090
 .text          0x08195e70      0x134 /home/pcl2483/pedro/jadesoft/util/mcgen/Plib/libpx114.a(ynjet.o)
                0x08195e70                ynjet_
 *fill*         0x08195fa4        0xc 90909090
 .text          0x08195fb0      0x175 /home/pcl2483/pedro/jadesoft/util/mcgen/Plib/libpx114.a(yyjet.o)
                0x08195fb0                yyjet_
 *fill*         0x08196125        0xb 90909090
 .text          0x08196130       0x8b /home/pcl2483/pedro/jadesoft/util/mcgen/Plib/libpx114.a(pxaddv.o)
                0x08196130                pxaddv_
 *fill*         0x081961bb        0x5 90909090
 .text          0x081961c0      0xcdc /home/pcl2483/pedro/jadesoft/util/mcgen/Plib/libpx114.a(pxdiam.o)
                0x081961c0                pxdiam_
 *fill*         0x08196e9c        0x4 90909090
 .text          0x08196ea0      0x3cf /home/pcl2483/pedro/jadesoft/util/mcgen/Plib/libpx114.a(pxmulm.o)
                0x08196ea0                pxmulm_
 *fill*         0x0819726f        0x1 90909090
 .text          0x08197270       0xea /home/pcl2483/pedro/jadesoft/util/mcgen/Plib/libpx114.a(pxnew.o)
                0x08197270                pxnew_
 *fill*         0x0819735a        0x6 90909090
 .text          0x08197360       0x81 /home/pcl2483/pedro/jadesoft/util/mcgen/Plib/libpx114.a(pxsame.o)
                0x08197360                pxsame_
 *fill*         0x081973e1        0xf 90909090
 .text          0x081973f0      0x1ff /home/pcl2483/pedro/jadesoft/util/mcgen/Plib/libpx114.a(pxunim.o)
                0x081973f0                pxunim_
 *fill*         0x081975ef        0x1 90909090
 .text          0x081975f0     0x175a /cern/99/lib/libpacklib.a(ffgo.o)
                0x081975f0                ffgo_
 *fill*         0x08198d4a        0x2 90909090
 .text          0x08198d4c      0x267 /cern/99/lib/libpacklib.a(ffinit.o)
                0x08198d4c                ffinit_
 *fill*         0x08198fb3        0x1 90909090
 .text          0x08198fb4      0x270 /cern/99/lib/libpacklib.a(ffkey.o)
                0x08198fb4                ffkey_
 .text          0x08199224      0x21c /cern/99/lib/libpacklib.a(ffset.o)
                0x08199224                ffset_
 .text          0x08199440       0x54 /cern/99/lib/libpacklib.a(ffskip.o)
                0x08199440                ffskip_
 .text          0x08199494       0x6f /cern/99/lib/libpacklib.a(ffupca.o)
                0x08199494                ffupca_
 *fill*         0x08199503        0x1 90909090
 .text          0x08199504        0x7 /cern/99/lib/libpacklib.a(ffuser.o)
                0x08199504                ffuser_
 *fill*         0x0819950b        0x1 90909090
 .text          0x0819950c       0x15 /cern/99/lib/libpacklib.a(ffuset.o)
                0x0819950c                ffuset_
 *fill*         0x08199521        0x3 90909090
 .text          0x08199524      0x19b /cern/99/lib/libpacklib.a(hrput.o)
                0x08199524                hrput_
 *fill*         0x081996bf        0x1 90909090
 .text          0x081996c0      0x5eb /cern/99/lib/libpacklib.a(hbook1.o)
                0x081996c0                hbook1_
 *fill*         0x08199cab        0x1 90909090
 .text          0x08199cac      0x680 /cern/99/lib/libpacklib.a(hbook2.o)
                0x08199cac                hbook2_
 .text          0x0819a32c      0x5bb /cern/99/lib/libpacklib.a(hbookb.o)
                0x0819a32c                hbookb_
 *fill*         0x0819a8e7        0x1 90909090
 .text          0x0819a8e8       0x5d /cern/99/lib/libpacklib.a(hbtit.o)
                0x0819a8e8                hbtit_
 *fill*         0x0819a945        0x3 90909090
 .text          0x0819a948      0x1cb /cern/99/lib/libpacklib.a(hbug.o)
                0x0819a948                hbug_
 *fill*         0x0819ab13        0x1 90909090
 .text          0x0819ab14      0x634 /cern/99/lib/libpacklib.a(hcdir.o)
                0x0819ab14                hcdir_
 .text          0x0819b148      0x158 /cern/99/lib/libpacklib.a(hchnam.o)
                0x0819b148                hchnam_
 .text          0x0819b2a0      0x30a /cern/99/lib/libpacklib.a(hdelet.o)
                0x0819b2a0                hdelet_
 *fill*         0x0819b5aa        0x2 90909090
 .text          0x0819b5ac      0x1a8 /cern/99/lib/libpacklib.a(hfill.o)
                0x0819b5ac                hfill_
 .text          0x0819b754      0x369 /cern/99/lib/libpacklib.a(hfilpf.o)
                0x0819b754                hfilpf_
 *fill*         0x0819babd        0x3 90909090
 .text          0x0819bac0      0x244 /cern/99/lib/libpacklib.a(hgive.o)
                0x0819bac0                hgive_
 .text          0x0819bd04      0xa55 /cern/99/lib/libpacklib.a(hidopt.o)
                0x0819bd04                hidopt_
 *fill*         0x0819c759        0x3 90909090
 .text          0x0819c75c      0x2e4 /cern/99/lib/libpacklib.a(hlimit.o)
                0x0819c75c                hlimit_
 .text          0x0819ca40       0xff /cern/99/lib/libpacklib.a(hloop.o)
                0x0819ca40                hloop_
 *fill*         0x0819cb3f        0x1 90909090
 .text          0x0819cb40      0x543 /cern/99/lib/libpacklib.a(hmachi.o)
                0x0819cb40                hmachi_
 *fill*         0x0819d083        0x1 90909090
 .text          0x0819d084       0x5e /cern/99/lib/libpacklib.a(hnoent.o)
                0x0819d084                hnoent_
 *fill*         0x0819d0e2        0x2 90909090
 .text          0x0819d0e4      0xfc5 /cern/99/lib/libpacklib.a(hopera.o)
                0x0819d0e4                hopera_
 *fill*         0x0819e0a9        0x3 90909090
 .text          0x0819e0ac      0x1b3 /cern/99/lib/libpacklib.a(hpaff.o)
                0x0819e0ac                hpaff_
 *fill*         0x0819e25f        0x1 90909090
 .text          0x0819e260      0x283 /cern/99/lib/libpacklib.a(hpak.o)
                0x0819e260                hpak_
 *fill*         0x0819e4e3        0x1 90909090
 .text          0x0819e4e4      0x175 /cern/99/lib/libpacklib.a(hpake.o)
                0x0819e4e4                hpake_
 *fill*         0x0819e659        0x3 90909090
 .text          0x0819e65c      0x61e /cern/99/lib/libpacklib.a(hpath.o)
                0x0819e65c                hpath_
 *fill*         0x0819ec7a        0x2 90909090
 .text          0x0819ec7c      0x4ce /cern/99/lib/libpacklib.a(hrebin.o)
                0x0819ec7c                hrebin_
 *fill*         0x0819f14a        0x2 90909090
 .text          0x0819f14c      0x64a /cern/99/lib/libpacklib.a(hreset.o)
                0x0819f14c                hreset_
 *fill*         0x0819f796        0x2 90909090
 .text          0x0819f798       0xca /cern/99/lib/libpacklib.a(hrez0.o)
                0x0819f798                hrez0_
 *fill*         0x0819f862        0x2 90909090
 .text          0x0819f864       0x90 /cern/99/lib/libpacklib.a(hsifla.o)
                0x0819f864                hsifla_
 .text          0x0819f8f4       0x8a /cern/99/lib/libpacklib.a(hspace.o)
                0x0819f8f4                hspace_
 *fill*         0x0819f97e        0x2 90909090
 .text          0x0819f980       0x5f /cern/99/lib/libpacklib.a(hstaf.o)
                0x0819f980                hstaf_
 *fill*         0x0819f9df        0x1 90909090
 .text          0x0819f9e0      0xbf4 /cern/99/lib/libpacklib.a(hsupis.o)
                0x0819f9e0                hsupis_
 .text          0x081a05d4       0x48 /cern/99/lib/libpacklib.a(huoptc.o)
                0x081a05d4                huoptc_
 .text          0x081a061c      0x1d6 /cern/99/lib/libpacklib.a(hlogpf.o)
                0x081a061c                hlogpf_
 *fill*         0x081a07f2        0x2 90909090
 .text          0x081a07f4       0x7f /cern/99/lib/libpacklib.a(hoptpf.o)
                0x081a07f4                hoptpf_
 *fill*         0x081a0873        0x1 90909090
 .text          0x081a0874      0x130 /cern/99/lib/libpacklib.a(hitoc.o)
                0x081a0874                hitoc_
 .text          0x081a09a4       0xdf /cern/99/lib/libpacklib.a(hnbufd.o)
                0x081a09a4                hnbufd_
 *fill*         0x081a0a83        0x1 90909090
 .text          0x081a0a84       0xd1 /cern/99/lib/libpacklib.a(hntmpd.o)
                0x081a0a84                hntmpd_
 *fill*         0x081a0b55        0x3 90909090
 .text          0x081a0b58      0x2ef /cern/99/lib/libpacklib.a(hntrset.o)
                0x081a0b58                hntrset_
 *fill*         0x081a0e47        0x1 90909090
 .text          0x081a0e48      0xa4e /cern/99/lib/libpacklib.a(fzin.o)
                0x081a0e48                fzin_
 *fill*         0x081a1896        0x2 90909090
 .text          0x081a1898      0x2e2 /cern/99/lib/libpacklib.a(fzirel.o)
                0x081a1898                fzirel_
 *fill*         0x081a1b7a        0x2 90909090
 .text          0x081a1b7c      0x5e6 /cern/99/lib/libpacklib.a(fzloc.o)
                0x081a1b7c                fzloc_
 *fill*         0x081a2162        0x2 90909090
 .text          0x081a2164      0x132 /cern/99/lib/libpacklib.a(mzbook.o)
                0x081a2164                mzbook_
 *fill*         0x081a2296        0x2 90909090
 .text          0x081a2298      0x2ea /cern/99/lib/libpacklib.a(mzdrop.o)
                0x081a2298                mzdrop_
 *fill*         0x081a2582        0x2 90909090
 .text          0x081a2584      0x11a /cern/99/lib/libpacklib.a(mzebra.o)
                0x081a2584                mzebra_
 *fill*         0x081a269e        0x2 90909090
 .text          0x081a26a0      0x532 /cern/99/lib/libpacklib.a(mzflag.o)
                0x081a26a0                mzflag_
 *fill*         0x081a2bd2        0x2 90909090
 .text          0x081a2bd4      0x42c /cern/99/lib/libpacklib.a(mzinco.o)
                0x081a2bd4                mzinco_
 .text          0x081a3000      0xd0e /cern/99/lib/libpacklib.a(mzlift.o)
                0x081a3000                mzlift_
 *fill*         0x081a3d0e        0x2 90909090
 .text          0x081a3d10      0x5ef /cern/99/lib/libpacklib.a(mzlink.o)
                0x081a3d10                mzlink_
 *fill*         0x081a42ff        0x1 90909090
 .text          0x081a4300      0x1ea /cern/99/lib/libpacklib.a(mzneed.o)
                0x081a4300                mzneed_
 *fill*         0x081a44ea        0x2 90909090
 .text          0x081a44ec       0xb0 /cern/99/lib/libpacklib.a(mzpaw.o)
                0x081a44ec                mzpaw_
 .text          0x081a459c      0xf06 /cern/99/lib/libpacklib.a(mzpush.o)
                0x081a459c                mzpush_
 *fill*         0x081a54a2        0x2 90909090
 .text          0x081a54a4      0x9fe /cern/99/lib/libpacklib.a(mzstor.o)
                0x081a54a4                mzstor_
 *fill*         0x081a5ea2        0x2 90909090
 .text          0x081a5ea4      0x100 /cern/99/lib/libpacklib.a(mzvers.o)
                0x081a5ea4                mzvers_
 .text          0x081a5fa4      0x503 /cern/99/lib/libpacklib.a(mzgar1.o)
                0x081a5fa4                mzgar1_
 *fill*         0x081a64a7        0x1 90909090
 .text          0x081a64a8       0x71 /cern/99/lib/libpacklib.a(mzgsta.o)
                0x081a64a8                mzgsta_
 *fill*         0x081a6519        0x3 90909090
 .text          0x081a651c      0x33b /cern/99/lib/libpacklib.a(mzmove.o)
                0x081a651c                mzmove_
 *fill*         0x081a6857        0x1 90909090
 .text          0x081a6858      0x673 /cern/99/lib/libpacklib.a(mzrelb.o)
                0x081a6858                mzrelb_
 *fill*         0x081a6ecb        0x1 90909090
 .text          0x081a6ecc      0x4f9 /cern/99/lib/libpacklib.a(mzrell.o)
                0x081a6ecc                mzrell_
 *fill*         0x081a73c5        0x3 90909090
 .text          0x081a73c8       0x8c /cern/99/lib/libpacklib.a(mzrelx.o)
                0x081a73c8                mzrelx_
 .text          0x081a7454      0x3ac /cern/99/lib/libpacklib.a(mztabf.o)
                0x081a7454                mztabf_
 .text          0x081a7800      0x2d0 /cern/99/lib/libpacklib.a(mztabm.o)
                0x081a7800                mztabm_
 .text          0x081a7ad0      0x3e5 /cern/99/lib/libpacklib.a(mztabr.o)
                0x081a7ad0                mztabr_
 *fill*         0x081a7eb5        0x3 90909090
 .text          0x081a7eb8       0x79 /cern/99/lib/libpacklib.a(mztabs.o)
                0x081a7eb8                mztabs_
 *fill*         0x081a7f31        0x3 90909090
 .text          0x081a7f34      0x13d /cern/99/lib/libpacklib.a(mztabx.o)
                0x081a7f34                mztabx_
 *fill*         0x081a8071        0x3 90909090
 .text          0x081a8074      0x29c /cern/99/lib/libpacklib.a(mzchln.o)
                0x081a8074                mzchln_
 .text          0x081a8310      0x1f0 /cern/99/lib/libpacklib.a(mzchls.o)
                0x081a8310                mzchls_
 .text          0x081a8500       0xa4 /cern/99/lib/libpacklib.a(mzchnb.o)
                0x081a8500                mzchnb_
 .text          0x081a85a4      0x12c /cern/99/lib/libpacklib.a(mzfdiv.o)
                0x081a85a4                mzfdiv_
 .text          0x081a86d0      0x35a /cern/99/lib/libpacklib.a(mzform.o)
                0x081a86d0                mzform_
 *fill*         0x081a8a2a        0x2 90909090
 .text          0x081a8a2c     0x1613 /cern/99/lib/libpacklib.a(mzioch.o)
                0x081a8a2c                mzioch_
 *fill*         0x081aa03f        0x1 90909090
 .text          0x081aa040      0x388 /cern/99/lib/libpacklib.a(mzresv.o)
                0x081aa040                mzresv_
 .text          0x081aa3c8      0x295 /cern/99/lib/libpacklib.a(mzsdiv.o)
                0x081aa3c8                mzsdiv_
 *fill*         0x081aa65d        0x3 90909090
 .text          0x081aa660        0x7 /cern/99/lib/libpacklib.a(zvautx.o)
                0x081aa660                zvautx_
 *fill*         0x081aa667        0x1 90909090
 .text          0x081aa668      0x402 /cern/99/lib/libpacklib.a(zfatal.o)
                0x081aa668                zfatal_
 *fill*         0x081aaa6a        0x2 90909090
 .text          0x081aaa6c       0x9c /cern/99/lib/libpacklib.a(zfatam.o)
                0x081aaa6c                zfatam_
 .text          0x081aab08      0x1c0 /cern/99/lib/libpacklib.a(ztell.o)
                0x081aab08                ztell_
 .text          0x081aacc8        0x7 /cern/99/lib/libpacklib.a(ztelus.o)
                0x081aacc8                ztelus_
 *fill*         0x081aaccf        0x1 90909090
 .text          0x081aacd0       0xbd /cern/99/lib/libpacklib.a(izbcdt.o)
                0x081aacd0                izbcdt_
 *fill*         0x081aad8d        0x3 90909090
 .text          0x081aad90       0x48 /cern/99/lib/libpacklib.a(izhnum.o)
                0x081aad90                izhnum_
 .text          0x081aadd8      0x5b5 /cern/99/lib/libpacklib.a(zshunt.o)
                0x081aadd8                zshunt_
 *fill*         0x081ab38d        0x3 90909090
 .text          0x081ab390      0x597 /cern/99/lib/libpacklib.a(rzcdir.o)
                0x081ab390                rzcdir_
 *fill*         0x081ab927        0x1 90909090
 .text          0x081ab928      0x340 /cern/99/lib/libpacklib.a(rzdate.o)
                0x081ab928                rzdate_
 .text          0x081abc68      0x77d /cern/99/lib/libpacklib.a(rzfdir.o)
                0x081abc68                rzfdir_
 *fill*         0x081ac3e5        0x3 90909090
 .text          0x081ac3e8      0x412 /cern/99/lib/libpacklib.a(rziodo.o)
                0x081ac3e8                rziodo_
 *fill*         0x081ac7fa        0x2 90909090
 .text          0x081ac7fc      0x1df /cern/99/lib/libpacklib.a(rzpaff.o)
                0x081ac7fc                rzpaff_
 *fill*         0x081ac9db        0x1 90909090
 .text          0x081ac9dc      0x660 /cern/99/lib/libpacklib.a(rzpath.o)
                0x081ac9dc                rzpath_
 .text          0x081ad03c      0x24b /cern/99/lib/libpacklib.a(rzrtop.o)
                0x081ad03c                rzrtop_
 *fill*         0x081ad287        0x1 90909090
 .text          0x081ad288       0x57 /cern/99/lib/libpacklib.a(rzsame.o)
                0x081ad288                rzsame_
 *fill*         0x081ad2df        0x1 90909090
 .text          0x081ad2e0      0x593 /cern/99/lib/libpacklib.a(rzsave.o)
                0x081ad2e0                rzsave_
 *fill*         0x081ad873        0x1 90909090
 .text          0x081ad874      0x189 /cern/99/lib/libpacklib.a(rzstrir.o)
                0x081ad874                rzstrir_
 *fill*         0x081ad9fd        0x3 90909090
 .text          0x081ada00       0xf0 /cern/99/lib/libpacklib.a(rzvcyc.o)
                0x081ada00                rzvcyc_
 .text          0x081adaf0        0x7 /cern/99/lib/libpacklib.a(abend.o)
                0x081adaf0                abend_
 *fill*         0x081adaf7        0x9 90909090
 .text          0x081adb00       0xfe /cern/99/lib/libpacklib.a(datime.o)
                0x081adb00                datime_
 *fill*         0x081adbfe        0x2 90909090
 .text          0x081adc00      0x2f7 /cern/99/lib/libpacklib.a(datimh.o)
                0x081adc00                datimh_
 *fill*         0x081adef7        0x9 90909090
 .text          0x081adf00      0x1d0 /cern/99/lib/libpacklib.a(jumpxn.o)
                0x081ae010                jumpx7_
                0x081adf30                jumpx1_
                0x081adf00                jumpad_
                0x081ae050                jumpx8_
                0x081adfe0                jumpx6_
                0x081ae090                jumpx9_
                0x081adf10                jumpst_
                0x081adf20                jumpx0_
                0x081adfb0                jumpx5_
                0x081adf60                jumpx3_
                0x081adf40                jumpx2_
                0x081adf80                jumpx4_
 .text          0x081ae0d0        0x8 /cern/99/lib/libpacklib.a(locf.o)
                0x081ae0d0                locf_
 *fill*         0x081ae0d8        0x8 90909090
 .text          0x081ae0e0       0x3f /cern/99/lib/libpacklib.a(qnexte.o)
                0x081ae0e0                qnexte_
 *fill*         0x081ae11f        0x1 90909090
 .text          0x081ae120       0x7d /cern/99/lib/libpacklib.a(lenocc.o)
                0x081ae120                lenocc_
 *fill*         0x081ae19d        0x3 90909090
 .text          0x081ae1a0       0x45 /cern/99/lib/libpacklib.a(vxinvb.o)
                0x081ae1a0                vxinvb_
 *fill*         0x081ae1e5        0xb 90909090
 .text          0x081ae1f0       0x10 /cern/99/lib/libpacklib.a(cfclos.o)
                0x081ae1f0                cfclos_
 .text          0x081ae200       0x8b /cern/99/lib/libpacklib.a(cfget.o)
                0x081ae200                cfget_
 *fill*         0x081ae28b        0x5 90909090
 .text          0x081ae290       0x5f /cern/99/lib/libpacklib.a(cfput.o)
                0x081ae290                cfput_
 *fill*         0x081ae2ef        0x1 90909090
 .text          0x081ae2f0       0x55 /cern/99/lib/libpacklib.a(cfseek.o)
                0x081ae2f0                cfseek_
 *fill*         0x081ae345        0x3 90909090
 .text          0x081ae348      0x150 /cern/99/lib/libpacklib.a(cfopen.o)
                0x081ae348                cfopen_
 .text          0x081ae498       0xfe /cern/99/lib/libpacklib.a(cleft.o)
                0x081ae498                cleft_
 *fill*         0x081ae596        0x2 90909090
 .text          0x081ae598       0x75 /cern/99/lib/libpacklib.a(cltou.o)
                0x081ae598                cltou_
 *fill*         0x081ae60d        0x3 90909090
 .text          0x081ae610       0x75 /cern/99/lib/libpacklib.a(cutol.o)
                0x081ae610                cutol_
 *fill*         0x081ae685        0x3 90909090
 .text          0x081ae688       0x52 /cern/99/lib/libpacklib.a(floarg.o)
                0x081ae688                floarg_
 *fill*         0x081ae6da        0x2 90909090
 .text          0x081ae6dc       0x69 /cern/99/lib/libpacklib.a(intarg.o)
                0x081ae6dc                intarg_
 *fill*         0x081ae745        0x3 90909090
 .text          0x081ae748       0x2a /cern/99/lib/libpacklib.a(kerngt.o)
                0x081ae748                kerngt_
 *fill*         0x081ae772        0x2 90909090
 .text          0x081ae774       0x6e /cern/99/lib/libpacklib.a(uoptc.o)
                0x081ae774                uoptc_
 *fill*         0x081ae7e2        0x2 90909090
 .text          0x081ae7e4      0x2b1 /cern/99/lib/libpacklib.a(utrans.o)
                0x081ae7e4                utrans_
 *fill*         0x081aea95        0xb 90909090
 .text          0x081aeaa0        0xf /cern/99/lib/libpacklib.a(ishftr.o)
                0x081aeaa0                ishftr_
 *fill*         0x081aeaaf        0x1 90909090
 .text          0x081aeab0        0x7 /cern/99/lib/libpacklib.a(qnext.o)
                0x081aeab0                qnext_
 *fill*         0x081aeab7        0x9 90909090
 .text          0x081aeac0       0x3a /cern/99/lib/libpacklib.a(ucopy2c.o)
                0x081aeac0                ucopy2_
 *fill*         0x081aeafa        0x2 90909090
 .text          0x081aeafc       0x50 /cern/99/lib/libpacklib.a(iucomp.o)
                0x081aeafc                iucomp_
 .text          0x081aeb4c        0x7 /cern/99/lib/libpacklib.a(noarg.o)
                0x081aeb4c                noarg_
 *fill*         0x081aeb53        0x1 90909090
 .text          0x081aeb54       0x19 /cern/99/lib/libpacklib.a(sbit0.o)
                0x081aeb54                sbit0_
 *fill*         0x081aeb6d        0x3 90909090
 .text          0x081aeb70       0x1d /cern/99/lib/libpacklib.a(sbit1.o)
                0x081aeb70                sbit1_
 *fill*         0x081aeb8d        0x3 90909090
 .text          0x081aeb90      0x1b3 /cern/99/lib/libpacklib.a(ublow.o)
                0x081aeb90                ublow_
 *fill*         0x081aed43        0x1 90909090
 .text          0x081aed44      0x14b /cern/99/lib/libpacklib.a(ubunch.o)
                0x081aed44                ubunch_
 *fill*         0x081aee8f        0x1 90909090
 .text          0x081aee90       0x4b /cern/99/lib/libpacklib.a(ucopy.o)
                0x081aee90                ucopy_
 *fill*         0x081aeedb        0x1 90909090
 .text          0x081aeedc      0x22b /cern/99/lib/libpacklib.a(uctoh.o)
                0x081aeedc                uctoh_
 *fill*         0x081af107        0x1 90909090
 .text          0x081af108       0x6f /cern/99/lib/libpacklib.a(uctoh1.o)
                0x081af108                uctoh1_
 *fill*         0x081af177        0x1 90909090
 .text          0x081af178      0x20f /cern/99/lib/libpacklib.a(uhtoc.o)
                0x081af178                uhtoc_
 *fill*         0x081af387        0x1 90909090
 .text          0x081af388       0x3d /cern/99/lib/libpacklib.a(vblank.o)
                0x081af388                vblank_
 *fill*         0x081af3c5        0x3 90909090
 .text          0x081af3c8       0x3d /cern/99/lib/libpacklib.a(vfill.o)
                0x081af3c8                vfill_
 *fill*         0x081af405        0x3 90909090
 .text          0x081af408       0x3a /cern/99/lib/libpacklib.a(vzero.o)
                0x081af408                vzero_
 *fill*         0x081af442        0x2 90909090
 .text          0x081af444       0x23 /cern/99/lib/libpacklib.a(jbit.o)
                0x081af444                jbit_
 *fill*         0x081af467        0x1 90909090
 .text          0x081af468       0x45 /cern/99/lib/libpacklib.a(jbyt.o)
                0x081af468                jbyt_
 *fill*         0x081af4ad        0x3 90909090
 .text          0x081af4b0       0x57 /cern/99/lib/libpacklib.a(sbyt.o)
                0x081af4b0                sbyt_
 *fill*         0x081af507        0x1 90909090
 .text          0x081af508       0x8d /cern/99/lib/libpacklib.a(locati.o)
                0x081af508                locati_
 *fill*         0x081af595        0x3 90909090
 .text          0x081af598       0x86 /cern/99/lib/libpacklib.a(czgeta.o)
                0x081af598                czgeta_
 *fill*         0x081af61e        0x2 90909090
 .text          0x081af620       0x86 /cern/99/lib/libpacklib.a(czputa.o)
                0x081af620                czputa_
 *fill*         0x081af6a6        0x2 90909090
 .text          0x081af6a8      0x7cb /cern/99/lib/libpacklib.a(ffcard.o)
                0x081af6a8                ffcard_
 *fill*         0x081afe73        0x1 90909090
 .text          0x081afe74       0xc6 /cern/99/lib/libpacklib.a(fffind.o)
                0x081afe74                fffind_
 *fill*         0x081aff3a        0x2 90909090
 .text          0x081aff3c      0x395 /cern/99/lib/libpacklib.a(hqputf.o)
                0x081aff3c                hqputf_
 *fill*         0x081b02d1        0xf 90909090
 .text          0x081b02e0      0x52c /cern/99/lib/libpacklib.a(hbpqry.o)
                0x081b0570                GetPiafVersion
                0x081b0550                SetVers
                0x081b0630                greppqry_
                0x081b0560                setpiafver_
                0x081b0580                igetpiafver_
                0x081b0590                GrepPqryStr
 .text          0x081b080c      0x1ba /cern/99/lib/libpacklib.a(hrendc.o)
                0x081b09b0                hrend_
                0x081b0998                hrendc_
 *fill*         0x081b09c6        0x2 90909090
 .text          0x081b09c8      0x23a /cern/99/lib/libpacklib.a(hropen.o)
                0x081b09c8                hropen_
 *fill*         0x081b0c02        0x2 90909090
 .text          0x081b0c04      0x7d4 /cern/99/lib/libpacklib.a(hrout.o)
                0x081b0c04                hrout_
 .text          0x081b13d8       0x94 /cern/99/lib/libpacklib.a(hrzcd.o)
                0x081b13d8                hrzcd_
 .text          0x081b146c      0x180 /cern/99/lib/libpacklib.a(hrzout.o)
                0x081b146c                hrzout_
 .text          0x081b15ec      0x1ea /cern/99/lib/libpacklib.a(hbar2.o)
                0x081b15ec                hbar2_
 *fill*         0x081b17d6        0x2 90909090
 .text          0x081b17d8      0x512 /cern/99/lib/libpacklib.a(hbarx.o)
                0x081b17d8                hbarx_
 *fill*         0x081b1cea        0x2 90909090
 .text          0x081b1cec      0x416 /cern/99/lib/libpacklib.a(hbary.o)
                0x081b1cec                hbary_
 *fill*         0x081b2102        0x2 90909090
 .text          0x081b2104      0x3b1 /cern/99/lib/libpacklib.a(hbin.o)
                0x081b2104                hbin_
 *fill*         0x081b24b5        0x3 90909090
 .text          0x081b24b8      0x3c6 /cern/99/lib/libpacklib.a(hcopy.o)
                0x081b24b8                hcopy_
 *fill*         0x081b287e        0x2 90909090
 .text          0x081b2880      0x435 /cern/99/lib/libpacklib.a(hcx.o)
                0x081b2880                hcx_
 *fill*         0x081b2cb5        0x3 90909090
 .text          0x081b2cb8      0x153 /cern/99/lib/libpacklib.a(hcxy.o)
                0x081b2cb8                hcxy_
 *fill*         0x081b2e0b        0x1 90909090
 .text          0x081b2e0c       0x95 /cern/99/lib/libpacklib.a(hdcofl.o)
                0x081b2e0c                hdcofl_
 *fill*         0x081b2ea1        0x3 90909090
 .text          0x081b2ea4      0x46c /cern/99/lib/libpacklib.a(hf1.o)
                0x081b2ea4                hf1_
 .text          0x081b3310      0x710 /cern/99/lib/libpacklib.a(hf1aut.o)
                0x081b3310                hf1aut_
 .text          0x081b3a20      0x39b /cern/99/lib/libpacklib.a(hf2.o)
                0x081b3a20                hf2_
 *fill*         0x081b3dbb        0x1 90909090
 .text          0x081b3dbc      0x2bd /cern/99/lib/libpacklib.a(hfcx.o)
                0x081b3dbc                hfcx_
 *fill*         0x081b4079        0x3 90909090
 .text          0x081b407c      0x191 /cern/99/lib/libpacklib.a(hfcxy.o)
                0x081b407c                hfcxy_
 *fill*         0x081b420d        0x3 90909090
 .text          0x081b4210      0x2ab /cern/99/lib/libpacklib.a(hfidp.o)
                0x081b4210                hfidp_
 *fill*         0x081b44bb        0x1 90909090
 .text          0x081b44bc       0xff /cern/99/lib/libpacklib.a(hfind.o)
                0x081b44bc                hfind_
 *fill*         0x081b45bb        0x1 90909090
 .text          0x081b45bc       0x32 /cern/99/lib/libpacklib.a(hi.o)
                0x081b45bc                hi_
 *fill*         0x081b45ee        0x2 90909090
 .text          0x081b45f0       0x8f /cern/99/lib/libpacklib.a(hie.o)
                0x081b45f0                hie_
 *fill*         0x081b467f        0x1 90909090
 .text          0x081b4680       0x88 /cern/99/lib/libpacklib.a(hix.o)
                0x081b4680                hix_
 .text          0x081b4708      0x1a9 /cern/99/lib/libpacklib.a(hlabeq.o)
                0x081b4708                hlabeq_
 *fill*         0x081b48b1        0x3 90909090
 .text          0x081b48b4      0x3e6 /cern/99/lib/libpacklib.a(hmdir.o)
                0x081b48b4                hmdir_
 *fill*         0x081b4c9a        0x2 90909090
 .text          0x081b4c9c      0x9a3 /cern/99/lib/libpacklib.a(hoper1.o)
                0x081b4c9c                hoper1_
 *fill*         0x081b563f        0x1 90909090
 .text          0x081b5640       0xc4 /cern/99/lib/libpacklib.a(hoper1a.o)
                0x081b5640                hoper1a_
 .text          0x081b5704      0x313 /cern/99/lib/libpacklib.a(hnbfwr.o)
                0x081b5704                hnbfwr_
 *fill*         0x081b5a17        0x1 90909090
 .text          0x081b5a18       0xbc /cern/99/lib/libpacklib.a(hnbuff.o)
                0x081b5a18                hnbuff_
 .text          0x081b5ad4      0x13d /cern/99/lib/libpacklib.a(hnmset.o)
                0x081b5ad4                hnmset_
 *fill*         0x081b5c11        0x3 90909090
 .text          0x081b5c14      0x165 /cern/99/lib/libpacklib.a(hntdel.o)
                0x081b5c14                hntdel_
 *fill*         0x081b5d79        0x3 90909090
 .text          0x081b5d7c       0xc6 /cern/99/lib/libpacklib.a(hntmpf.o)
                0x081b5d7c                hntmpf_
 *fill*         0x081b5e42        0x2 90909090
 .text          0x081b5e44      0x5ea /cern/99/lib/libpacklib.a(fzidia.o)
                0x081b5e44                fzidia_
 *fill*         0x081b642e        0x2 90909090
 .text          0x081b6430      0xf4c /cern/99/lib/libpacklib.a(fziffn.o)
                0x081b6430                fziffn_
 .text          0x081b737c     0x1315 /cern/99/lib/libpacklib.a(fziffx.o)
                0x081b737c                fziffx_
 *fill*         0x081b8691        0x3 90909090
 .text          0x081b8694      0x16b /cern/99/lib/libpacklib.a(fzilin.o)
                0x081b8694                fzilin_
 *fill*         0x081b87ff        0x1 90909090
 .text          0x081b8800      0xb22 /cern/99/lib/libpacklib.a(fzimtb.o)
                0x081b8800                fzimtb_
 *fill*         0x081b9322        0x2 90909090
 .text          0x081b9324      0xa42 /cern/99/lib/libpacklib.a(fzirec.o)
                0x081b9324                fzirec_
 *fill*         0x081b9d66        0x2 90909090
 .text          0x081b9d68      0x13e /cern/99/lib/libpacklib.a(fzitrn.o)
                0x081b9d68                fzitrn_
 *fill*         0x081b9ea6        0x2 90909090
 .text          0x081b9ea8      0xd51 /cern/99/lib/libpacklib.a(fzout.o)
                0x081b9ea8                fzout_
 *fill*         0x081babf9        0x3 90909090
 .text          0x081babfc      0x16e /cern/99/lib/libpacklib.a(fzitrx.o)
                0x081babfc                fzitrx_
 *fill*         0x081bad6a        0x2 90909090
 .text          0x081bad6c      0xa62 /cern/99/lib/libpacklib.a(mzcopy.o)
                0x081bad6c                mzcopy_
 *fill*         0x081bb7ce        0x2 90909090
 .text          0x081bb7d0      0x136 /cern/99/lib/libpacklib.a(mzpudx.o)
                0x081bb7d0                mzpudx_
 *fill*         0x081bb906        0x2 90909090
 .text          0x081bb908      0x4cc /cern/99/lib/libpacklib.a(mzfgap.o)
                0x081bb908                mzfgap_
 .text          0x081bbdd4      0x229 /cern/99/lib/libpacklib.a(mzgarb.o)
                0x081bbdd4                mzgarb_
 *fill*         0x081bbffd        0x3 90909090
 .text          0x081bc000      0x279 /cern/99/lib/libpacklib.a(mztabc.o)
                0x081bc000                mztabc_
 *fill*         0x081bc279        0x3 90909090
 .text          0x081bc27c      0x2d5 /cern/99/lib/libpacklib.a(mztabh.o)
                0x081bc27c                mztabh_
 *fill*         0x081bc551        0x3 90909090
 .text          0x081bc554      0x1fa /cern/99/lib/libpacklib.a(mzdvac.o)
                0x081bc554                mzdvac_
 *fill*         0x081bc74e        0x2 90909090
 .text          0x081bc750       0x9b /cern/99/lib/libpacklib.a(mziocf.o)
                0x081bc750                mziocf_
 *fill*         0x081bc7eb        0x1 90909090
 .text          0x081bc7ec      0x6d2 /cern/99/lib/libpacklib.a(mziocr.o)
                0x081bc7ec                mziocr_
 *fill*         0x081bcebe        0x2 90909090
 .text          0x081bcec0      0x2c0 /cern/99/lib/libpacklib.a(mzixco.o)
                0x081bcec0                mzixco_
 .text          0x081bd180       0x33 /cern/99/lib/libpacklib.a(zabend.o)
                0x081bd180                zabend_
 *fill*         0x081bd1b3        0x1 90909090
 .text          0x081bd1b4       0x2f /cern/99/lib/libpacklib.a(zend.o)
                0x081bd1b4                zend_
 *fill*         0x081bd1e3        0x1 90909090
 .text          0x081bd1e4      0x21d /cern/99/lib/libpacklib.a(zphase.o)
                0x081bd1e4                zphase_
 *fill*         0x081bd401        0x3 90909090
 .text          0x081bd404      0x1e8 /cern/99/lib/libpacklib.a(zpostm.o)
                0x081bd404                zpostm_
 .text          0x081bd5ec       0xc5 /cern/99/lib/libpacklib.a(zhtoi.o)
                0x081bd5ec                zhtoi_
 *fill*         0x081bd6b1        0x3 90909090
 .text          0x081bd6b4      0x2ee /cern/99/lib/libpacklib.a(rzclos.o)
                0x081bd6b4                rzclos_
 *fill*         0x081bd9a2        0x2 90909090
 .text          0x081bd9a4      0x1e7 /cern/99/lib/libpacklib.a(rzend.o)
                0x081bd9a4                rzend_
 *fill*         0x081bdb8b        0x1 90909090
 .text          0x081bdb8c      0x446 /cern/99/lib/libpacklib.a(rzfree.o)
                0x081bdb8c                rzfree_
 *fill*         0x081bdfd2        0x2 90909090
 .text          0x081bdfd4      0x8df /cern/99/lib/libpacklib.a(rzmdir.o)
                0x081bdfd4                rzmdir_
 *fill*         0x081be8b3        0x1 90909090
 .text          0x081be8b4      0x1bc /cern/99/lib/libpacklib.a(rzmods.o)
                0x081be8b4                rzmods_
 .text          0x081bea70      0xc44 /cern/99/lib/libpacklib.a(rzopen.o)
                0x081bea70                rzopen_
 .text          0x081bf6b4     0x12ab /cern/99/lib/libpacklib.a(rzout.o)
                0x081bf6b4                rzout_
 *fill*         0x081c095f        0x1 90909090
 .text          0x081c0960      0x238 /cern/99/lib/libpacklib.a(rzstrip.o)
                0x081c0960                rzstrip_
 .text          0x081c0b98      0x419 /cern/99/lib/libpacklib.a(rzused.o)
                0x081c0b98                rzused_
 *fill*         0x081c0fb1        0x3 90909090
 .text          0x081c0fb4      0x39f /cern/99/lib/libpacklib.a(close.o)
                0x081c0ff4                rfio_close_v2
                0x081c0fb4                rfio_close
 *fill*         0x081c1353        0x1 90909090
 .text          0x081c1354      0x2cd /cern/99/lib/libpacklib.a(error.o)
                0x081c1354                rfio_errmsg
                0x081c15e8                rfio_perror
                0x081c14e4                rfio_serror
 *fill*         0x081c1621        0x3 90909090
 .text          0x081c1624      0xa11 /cern/99/lib/libpacklib.a(lseek.o)
                0x081c1624                rfio_lseek
 *fill*         0x081c2035        0x3 90909090
 .text          0x081c2038      0xc87 /cern/99/lib/libpacklib.a(open.o)
                0x081c242c                rfio_open_ext
                0x081c2404                rfio_open_v2
                0x081c2330                rfio_open
                0x081c2cac                rfio_setup
                0x081c2230                rfio_cleanup
 *fill*         0x081c2cbf        0x1 90909090
 .text          0x081c2cc0      0x381 /cern/99/lib/libpacklib.a(parse.o)
                0x081c2cc0                rfio_parseln
                0x081c302c                rfio_parse
 *fill*         0x081c3041        0x3 90909090
 .text          0x081c3044      0xcb8 /cern/99/lib/libpacklib.a(read.o)
                0x081c3090                rfio_read_v2
                0x081c38f0                rfio_filbuf
                0x081c3044                rfio_read
 .text          0x081c3cfc       0xc7 /cern/99/lib/libpacklib.a(serror.o)
                0x081c3cfc                sstrerror
                0x081c3d50                sperror
 *fill*         0x081c3dc3        0x1 90909090
 .text          0x081c3dc4       0xba /cern/99/lib/libpacklib.a(setopt.o)
                0x081c3e2c                rfioreadopt
                0x081c3dc4                rfiosetopt
 *fill*         0x081c3e7e        0x2 90909090
 .text          0x081c3e80      0x207 /cern/99/lib/libpacklib.a(socket.o)
                0x081c3f84                s_send
                0x081c4014                s_ioctl
                0x081c4060                getiostat
                0x081c4000                s_errmsg
                0x081c4040                setrtimo
                0x081c4028                s_nrecv
                0x081c3f14                s_recv
                0x081c3ff0                s_close
 *fill*         0x081c4087        0x1 90909090
 .text          0x081c4088     0x23a1 /cern/99/lib/libpacklib.a(stream.o)
                0x081c43a8                rfio_open_ext_v3
                0x081c4380                rfio_open_v3
                0x081c4280                rfio_cleanup_v3
                0x081c53f0                rfio_write_v3
                0x081c4cd0                rfio_setup_v3
                0x081c57b0                rfio_close_v3
                0x081c63d4                set_snd_sockparam
                0x081c4ce4                rfio_read_v3
                0x081c637c                set_rcv_sockparam
 *fill*         0x081c6429        0x3 90909090
 .text          0x081c642c       0xfc /cern/99/lib/libpacklib.a(trace.o)
                0x081c64b8                init_trace
                0x081c642c                print_trace
                0x081c6514                end_trace
 .text          0x081c6528      0x58d /cern/99/lib/libpacklib.a(write.o)
                0x081c6528                rfio_write
                0x081c6574                rfio_write_v2
 *fill*         0x081c6ab5        0xb 90909090
 .text          0x081c6ac0      0x147 /cern/99/lib/libpacklib.a(cfopei.o)
                0x081c6ac0                cfopei_
 *fill*         0x081c6c07        0x1 90909090
 .text          0x081c6c08       0x32 /cern/99/lib/libpacklib.a(cfstat.o)
                0x081c6c08                cfstat_
 *fill*         0x081c6c3a        0x6 90909090
 .text          0x081c6c40       0x3c /cern/99/lib/libpacklib.a(fchtak.o)
                0x081c6c40                fchtak
 .text          0x081c6c7c       0x5f /cern/99/lib/libpacklib.a(gshowf.o)
                0x081c6c7c                gshowf_
 *fill*         0x081c6cdb        0x1 90909090
 .text          0x081c6cdc       0x52 /cern/99/lib/libpacklib.a(icluns.o)
                0x081c6cdc                icluns_
 *fill*         0x081c6d2e        0x2 90909090
 .text          0x081c6d30       0x38 /cern/99/lib/libpacklib.a(traceq.o)
                0x081c6d30                traceq_
 .text          0x081c6d68       0x83 /cern/99/lib/libpacklib.a(xinbf.o)
                0x081c6d68                xinbf_
 *fill*         0x081c6deb        0x1 90909090
 .text          0x081c6dec      0x114 /cern/99/lib/libpacklib.a(xinbs.o)
                0x081c6dec                xinbs_
 .text          0x081c6f00      0xa5c /cern/99/lib/libpacklib.a(halloc.o)
                0x081c7410                hbprnt_
                0x081c7390                hbfreec_
                0x081c73d0                hbsmax_
                0x081c73c0                hbvm_
                0x081c7850                hballo1_
                0x081c7560                hbinit1_
                0x081c7310                hbfree_
                0x081c7400                hbgmax_
 .text          0x081c795c      0x4d0 /cern/99/lib/libpacklib.a(hrfile.o)
                0x081c795c                hrfile_
 .text          0x081c7e2c      0x8b5 /cern/99/lib/libpacklib.a(hfc1.o)
                0x081c7e2c                hfc1_
 *fill*         0x081c86e1        0x3 90909090
 .text          0x081c86e4       0x38 /cern/99/lib/libpacklib.a(hlccmp.o)
                0x081c86e4                hlccmp_
 .text          0x081c871c      0x151 /cern/99/lib/libpacklib.a(hlgnxt.o)
                0x081c871c                hlgnxt_
 *fill*         0x081c886d        0x3 90909090
 .text          0x081c8870       0x7e /cern/99/lib/libpacklib.a(hlhcmp.o)
                0x081c8870                hlhcmp_
 *fill*         0x081c88ee        0x2 90909090
 .text          0x081c88f0      0x364 /cern/99/lib/libpacklib.a(hlpos.o)
                0x081c88f0                hlpos_
 .text          0x081c8c54      0xd10 /cern/99/lib/libpacklib.a(dzsnap.o)
                0x081c8c54                dzsnap_
 .text          0x081c9964      0x28b /cern/99/lib/libpacklib.a(dztext.o)
                0x081c9964                dztext_
 *fill*         0x081c9bef        0x1 90909090
 .text          0x081c9bf0       0xe9 /cern/99/lib/libpacklib.a(zpage.o)
                0x081c9bf0                zpage_
 *fill*         0x081c9cd9        0x3 90909090
 .text          0x081c9cdc      0x551 /cern/99/lib/libpacklib.a(fzipha.o)
                0x081c9cdc                fzipha_
 *fill*         0x081ca22d        0x3 90909090
 .text          0x081ca230      0x93f /cern/99/lib/libpacklib.a(fziphd.o)
                0x081ca230                fziphd_
 *fill*         0x081cab6f        0x1 90909090
 .text          0x081cab70      0x425 /cern/99/lib/libpacklib.a(fziphm.o)
                0x081cab70                fziphm_
 *fill*         0x081caf95        0x3 90909090
 .text          0x081caf98      0x8fa /cern/99/lib/libpacklib.a(fziphr.o)
                0x081caf98                fziphr_
 *fill*         0x081cb892        0x2 90909090
 .text          0x081cb894      0x111 /cern/99/lib/libpacklib.a(fziprl.o)
                0x081cb894                fziprl_
 *fill*         0x081cb9a5        0x3 90909090
 .text          0x081cb9a8      0xb9d /cern/99/lib/libpacklib.a(fzoffn.o)
                0x081cb9a8                fzoffn_
 *fill*         0x081cc545        0x3 90909090
 .text          0x081cc548      0x602 /cern/99/lib/libpacklib.a(fzoffx.o)
                0x081cc548                fzoffx_
 *fill*         0x081ccb4a        0x2 90909090
 .text          0x081ccb4c       0x84 /cern/99/lib/libpacklib.a(fzon1.o)
                0x081ccb4c                fzon1_
 .text          0x081ccbd0       0xa8 /cern/99/lib/libpacklib.a(fzon2.o)
                0x081ccbd0                fzon2_
 .text          0x081ccc78       0xd1 /cern/99/lib/libpacklib.a(fzon3.o)
                0x081ccc78                fzon3_
 *fill*         0x081ccd49        0x3 90909090
 .text          0x081ccd4c       0xf5 /cern/99/lib/libpacklib.a(fzon4.o)
                0x081ccd4c                fzon4_
 *fill*         0x081cce41        0x3 90909090
 .text          0x081cce44      0x122 /cern/99/lib/libpacklib.a(fzon5.o)
                0x081cce44                fzon5_
 *fill*         0x081ccf66        0x2 90909090
 .text          0x081ccf68      0x148 /cern/99/lib/libpacklib.a(fzon6.o)
                0x081ccf68                fzon6_
 .text          0x081cd0b0      0x75c /cern/99/lib/libpacklib.a(fzorec.o)
                0x081cd0b0                fzorec_
 .text          0x081cd80c      0xa3e /cern/99/lib/libpacklib.a(fzotab.o)
                0x081cd80c                fzotab_
 *fill*         0x081ce24a        0x2 90909090
 .text          0x081ce24c       0xf6 /cern/99/lib/libpacklib.a(fzotrn.o)
                0x081ce24c                fzotrn_
 *fill*         0x081ce342        0x2 90909090
 .text          0x081ce344       0x98 /cern/99/lib/libpacklib.a(fzotxt.o)
                0x081ce344                fzotxt_
 .text          0x081ce3dc      0x402 /cern/99/lib/libpacklib.a(fzicv.o)
                0x081ce3dc                fzicv_
 *fill*         0x081ce7de        0x2 90909090
 .text          0x081ce7e0      0x13a /cern/99/lib/libpacklib.a(fzotrx.o)
                0x081ce7e0                fzotrx_
 *fill*         0x081ce91a        0x2 90909090
 .text          0x081ce91c       0x8e /cern/99/lib/libpacklib.a(mzend.o)
                0x081ce91c                mzend_
 *fill*         0x081ce9aa        0x2 90909090
 .text          0x081ce9ac      0x379 /cern/99/lib/libpacklib.a(mzmaps.o)
                0x081ce9ac                mzmaps_
 *fill*         0x081ced25        0x3 90909090
 .text          0x081ced28      0x5fe /cern/99/lib/libpacklib.a(mzmark.o)
                0x081ced28                mzmark_
 *fill*         0x081cf326        0x2 90909090
 .text          0x081cf328      0x436 /cern/99/lib/libpacklib.a(mzwork.o)
                0x081cf328                mzwork_
 *fill*         0x081cf75e        0x2 90909090
 .text          0x081cf760       0xb2 /cern/99/lib/libpacklib.a(zitoh.o)
                0x081cf760                zitoh_
 *fill*         0x081cf812        0x2 90909090
 .text          0x081cf814      0x221 /cern/99/lib/libpacklib.a(rzallo.o)
                0x081cf814                rzallo_
 *fill*         0x081cfa35        0x3 90909090
 .text          0x081cfa38     0x19c1 /cern/99/lib/libpacklib.a(rzdelk.o)
                0x081cfa38                rzdelk_
 *fill*         0x081d13f9        0x3 90909090
 .text          0x081d13fc      0x455 /cern/99/lib/libpacklib.a(rzexpd.o)
                0x081d13fc                rzexpd_
 *fill*         0x081d1851        0x3 90909090
 .text          0x081d1854      0xb3a /cern/99/lib/libpacklib.a(rzfile.o)
                0x081d1854                rzfile_
 *fill*         0x081d238e        0x2 90909090
 .text          0x081d2390      0x3fd /cern/99/lib/libpacklib.a(rzllok.o)
                0x081d2390                rzllok_
 *fill*         0x081d278d        0x3 90909090
 .text          0x081d2790      0x9ae /cern/99/lib/libpacklib.a(rzlock.o)
                0x081d2790                rzlock_
 *fill*         0x081d313e        0x2 90909090
 .text          0x081d3140      0xd0b /cern/99/lib/libpacklib.a(rzmake.o)
                0x081d3140                rzmake_
 *fill*         0x081d3e4b        0x1 90909090
 .text          0x081d3e4c      0x318 /cern/99/lib/libpacklib.a(rzobkn.o)
                0x081d3e4c                rzobkn_
 .text          0x081d4164      0x499 /cern/99/lib/libpacklib.a(rzpurf.o)
                0x081d4164                rzpurf_
 *fill*         0x081d45fd        0x3 90909090
 .text          0x081d4600      0x5dd /cern/99/lib/libpacklib.a(rzveri.o)
                0x081d4600                rzveri_
 *fill*         0x081d4bdd        0x3 90909090
 .text          0x081d4be0      0x4eb /cern/99/lib/libpacklib.a(rzwrt.o)
                0x081d4be0                rzwrt_
 *fill*         0x081d50cb        0x1 90909090
 .text          0x081d50cc      0x6da /cern/99/lib/libpacklib.a(connect.o)
                0x081d579c                rfio_lasthost
                0x081d50cc                rfio_connect
 *fill*         0x081d57a6        0x2 90909090
 .text          0x081d57a8       0xa9 /cern/99/lib/libpacklib.a(getacct.o)
                0x081d57a8                getacct
 *fill*         0x081d5851        0x3 90909090
 .text          0x081d5854      0x19b /cern/99/lib/libpacklib.a(getacctent.o)
                0x081d5854                getacctent
 *fill*         0x081d59ef        0x1 90909090
 .text          0x081d59f0      0x129 /cern/99/lib/libpacklib.a(getconfent.o)
                0x081d59f0                getconfent
 *fill*         0x081d5b19        0x3 90909090
 .text          0x081d5b1c      0x22b /cern/99/lib/libpacklib.a(getifnam.o)
                0x081d5b1c                getifnam
 *fill*         0x081d5d47        0x1 90909090
 .text          0x081d5d48      0x256 /cern/99/lib/libpacklib.a(log.o)
                0x081d5df8                logit
                0x081d5d48                initlog
                0x081d5f94                getloglv
 *fill*         0x081d5f9e        0x2 90909090
 .text          0x081d5fa0      0x5ad /cern/99/lib/libpacklib.a(remote.o)
                0x081d5fa0                isremote
 *fill*         0x081d654d        0x3 90909090
 .text          0x081d6550       0x20 /cern/99/lib/libpacklib.a(setnetio.o)
                0x081d6550                setnetio
 .text          0x081d6570       0x4b /cern/99/lib/libpacklib.a(vxinvc.o)
                0x081d6570                vxinvc_
 *fill*         0x081d65bb        0x5 90909090
 .text          0x081d65c0       0xa9 /cern/99/lib/libpacklib.a(cfstati.o)
                0x081d65c0                cfstati_
 *fill*         0x081d6669        0x3 90909090
 .text          0x081d666c      0xb4f /cern/99/lib/libpacklib.a(dzare1.o)
                0x081d666c                dzare1_
 *fill*         0x081d71bb        0x1 90909090
 .text          0x081d71bc      0x5a5 /cern/99/lib/libpacklib.a(dzbkup.o)
                0x081d71bc                dzbkup_
 *fill*         0x081d7761        0x3 90909090
 .text          0x081d7764      0x6e0 /cern/99/lib/libpacklib.a(dzbkxr.o)
                0x081d7764                dzbkxr_
 .text          0x081d7e44      0x9e3 /cern/99/lib/libpacklib.a(dzdata.o)
                0x081d7e44                dzdata_
 *fill*         0x081d8827        0x1 90909090
 .text          0x081d8828      0x5c9 /cern/99/lib/libpacklib.a(dzmap.o)
                0x081d8828                dzmap_
 *fill*         0x081d8df1        0x3 90909090
 .text          0x081d8df4       0xac /cern/99/lib/libpacklib.a(dzopt.o)
                0x081d8df4                dzopt_
 .text          0x081d8ea0      0x546 /cern/99/lib/libpacklib.a(dzshpr.o)
                0x081d8ea0                dzshpr_
 *fill*         0x081d93e6        0x2 90909090
 .text          0x081d93e8      0x33f /cern/99/lib/libpacklib.a(dztyp.o)
                0x081d93e8                dztyp_
 *fill*         0x081d9727        0x1 90909090
 .text          0x081d9728      0x7a6 /cern/99/lib/libpacklib.a(fziasc.o)
                0x081d9728                fziasc_
 *fill*         0x081d9ece        0x2 90909090
 .text          0x081d9ed0      0x262 /cern/99/lib/libpacklib.a(fzichh.o)
                0x081d9ed0                fzichh_
 *fill*         0x081da132        0x2 90909090
 .text          0x081da134      0x101 /cern/99/lib/libpacklib.a(fzidum.o)
                0x081da134                fzidum_
 *fill*         0x081da235        0x3 90909090
 .text          0x081da238      0x615 /cern/99/lib/libpacklib.a(fzophr.o)
                0x081da238                fzophr_
 *fill*         0x081da84d        0x3 90909090
 .text          0x081da850      0x3e6 /cern/99/lib/libpacklib.a(fzocv.o)
                0x081da850                fzocv_
 *fill*         0x081dac36        0x2 90909090
 .text          0x081dac38       0x19 /cern/99/lib/libpacklib.a(izbcd.o)
                0x081dac38                izbcd_
 *fill*         0x081dac51        0x3 90909090
 .text          0x081dac54      0x180 /cern/99/lib/libpacklib.a(rzdlok.o)
                0x081dac54                rzdlok_
 .text          0x081dadd4      0xea5 /cern/99/lib/libpacklib.a(rzver1.o)
                0x081dadd4                rzver1_
 *fill*         0x081dbc79        0x3 90909090
 .text          0x081dbc7c      0x267 /cern/99/lib/libpacklib.a(rzver2.o)
                0x081dbc7c                rzver2_
 *fill*         0x081dbee3        0x1 90909090
 .text          0x081dbee4       0xf8 /cern/99/lib/libpacklib.a(stat.o)
                0x081dbee4                rfio_stat
 .text          0x081dbfdc       0x10 /cern/99/lib/libpacklib.a(cfweof.o)
                0x081dbfdc                cfweof_
 .text          0x081dbfec       0x41 /cern/99/lib/libpacklib.a(iumode.o)
                0x081dbfec                iumode_
 *fill*         0x081dc02d        0x3 90909090
 .text          0x081dc030       0x50 /cern/99/lib/libpacklib.a(iufind.o)
                0x081dc030                iufind_
 .text          0x081dc080       0x98 /cern/99/lib/libpacklib.a(iusame.o)
                0x081dc080                iusame_
 .text          0x081dc118       0x5d /cern/99/lib/libpacklib.a(jrsbyt.o)
                0x081dc118                jrsbyt_
 *fill*         0x081dc175        0x3 90909090
 .text          0x081dc178       0x58 /cern/99/lib/libpacklib.a(ucopiv.o)
                0x081dc178                ucopiv_
 .text          0x081dc1d0      0x149 /cern/99/lib/libpacklib.a(dzbkdv.o)
                0x081dc1d0                dzbkdv_
 *fill*         0x081dc319        0x3 90909090
 .text          0x081dc31c      0x3de /cern/99/lib/libpacklib.a(dzbkhd.o)
                0x081dc31c                dzbkhd_
 *fill*         0x081dc6fa        0x2 90909090
 .text          0x081dc6fc      0x166 /cern/99/lib/libpacklib.a(dziopr.o)
                0x081dc6fc                dziopr_
 *fill*         0x081dc862        0x2 90909090
 .text          0x081dc864      0x247 /cern/99/lib/libpacklib.a(fzialn.o)
                0x081dc864                fzialn_
 *fill*         0x081dcaab        0x1 90909090
 .text          0x081dcaac      0x5a0 /cern/99/lib/libpacklib.a(fzoasc.o)
                0x081dcaac                fzoasc_
 .text          0x081dd04c       0x5f /cern/99/lib/libpacklib.a(izchav.o)
                0x081dd04c                izchav_
 *fill*         0x081dd0ab        0x1 90909090
 .text          0x081dd0ac      0x429 /cern/99/lib/libpacklib.a(rzprnk.o)
                0x081dd0ac                rzprnk_
 *fill*         0x081dd4d5        0x3 90909090
 .text          0x081dd4d8      0x74b /cern/99/lib/libpacklib.a(mstat.o)
                0x081ddb38                rfio_end
                0x081dd4d8                rfio_mstat
                0x081dd694                rfio_smstat
 *fill*         0x081ddc23        0x1 90909090
 .text          0x081ddc24      0x983 /cern/99/lib/libpacklib.a(dziopd.o)
                0x081ddc24                dziopd_
 *fill*         0x081de5a7        0x1 90909090
 .text          0x081de5a8      0x6b8 /cern/99/lib/libpacklib.a(dzioph.o)
                0x081de5a8                dzioph_
 .text          0x081dec60      0x1ca /cern/99/lib/libpacklib.a(fzoaln.o)
                0x081dec60                fzoaln_
 *fill*         0x081dee2a        0x2 90909090
 .text          0x081dee2c      0x3e2 /cern/99/lib/libpacklib.a(fzoapk.o)
                0x081dee2c                fzoapk_
 *fill*         0x081df20e        0x2 90909090
 .text          0x081df210       0x6b /cern/99/lib/libpacklib.a(uh1toc.o)
                0x081df210                uh1toc_
 *fill*         0x081df27b        0x1 90909090
 .text          0x081df27c      0x450 /cern/99/lib/libmathlib.a(dsyev.o)
                0x081df27c                dsyev_
 .text          0x081df6cc      0x5e9 /cern/99/lib/libmathlib.a(dsytrd.o)
                0x081df6cc                dsytrd_
 *fill*         0x081dfcb5        0x3 90909090
 .text          0x081dfcb8      0xb97 /cern/99/lib/libmathlib.a(ilaenv.o)
                0x081dfcb8                ilaenv_
 *fill*         0x081e084f        0x1 90909090
 .text          0x081e0850       0x78 /cern/99/lib/libmathlib.a(lsame.o)
                0x081e0850                lsame_
 .text          0x081e08c8       0x40 /cern/99/lib/libmathlib.a(xerbla.o)
                0x081e08c8                xerbla_
 .text          0x081e0908      0x195 /cern/99/lib/libmathlib.a(dscal.o)
                0x081e0908                dscal_
 *fill*         0x081e0a9d        0x3 90909090
 .text          0x081e0aa0      0xb9f /cern/99/lib/libmathlib.a(dsyr2k.o)
                0x081e0aa0                dsyr2k_
 *fill*         0x081e163f        0x1 90909090
 .text          0x081e1640     0x17fd /cern/99/lib/libmathlib.a(dlamch.o)
                0x081e2868                dlamc3_
                0x081e1fb0                dlamc2_
                0x081e1b10                dlamc1_
                0x081e2b3c                dlamc5_
                0x081e1640                dlamch_
                0x081e2884                dlamc4_
 *fill*         0x081e2e3d        0x3 90909090
 .text          0x081e2e40      0x5c8 /cern/99/lib/libmathlib.a(dlansy.o)
                0x081e2e40                dlansy_
 .text          0x081e3408      0x7ff /cern/99/lib/libmathlib.a(dlascl.o)
                0x081e3408                dlascl_
 *fill*         0x081e3c07        0x1 90909090
 .text          0x081e3c08       0xb4 /cern/99/lib/libmathlib.a(dlassq.o)
                0x081e3c08                dlassq_
 .text          0x081e3cbc      0x8eb /cern/99/lib/libmathlib.a(dlatrd.o)
                0x081e3cbc                dlatrd_
 *fill*         0x081e45a7        0x1 90909090
 .text          0x081e45a8      0x377 /cern/99/lib/libmathlib.a(dorgtr.o)
                0x081e45a8                dorgtr_
 *fill*         0x081e491f        0x1 90909090
 .text          0x081e4920     0x123e /cern/99/lib/libmathlib.a(dsteqr.o)
                0x081e4920                dsteqr_
 *fill*         0x081e5b5e        0x2 90909090
 .text          0x081e5b60      0xd63 /cern/99/lib/libmathlib.a(dsterf.o)
                0x081e5b60                dsterf_
 *fill*         0x081e68c3        0x1 90909090
 .text          0x081e68c4      0x561 /cern/99/lib/libmathlib.a(dsytd2.o)
                0x081e68c4                dsytd2_
 *fill*         0x081e6e25        0x3 90909090
 .text          0x081e6e28      0x1ec /cern/99/lib/libmathlib.a(daxpy.o)
                0x081e6e28                daxpy_
 .text          0x081e7014      0x1eb /cern/99/lib/libmathlib.a(ddot.o)
                0x081e7014                ddot_
 *fill*         0x081e71ff        0x1 90909090
 .text          0x081e7200      0x6ec /cern/99/lib/libmathlib.a(dgemv.o)
                0x081e7200                dgemv_
 .text          0x081e78ec      0x201 /cern/99/lib/libmathlib.a(dswap.o)
                0x081e78ec                dswap_
 *fill*         0x081e7aed        0x3 90909090
 .text          0x081e7af0      0x848 /cern/99/lib/libmathlib.a(dsymv.o)
                0x081e7af0                dsymv_
 .text          0x081e8338      0x658 /cern/99/lib/libmathlib.a(dsyr2.o)
                0x081e8338                dsyr2_
 .text          0x081e8990      0x1a0 /cern/99/lib/libmathlib.a(dlae2.o)
                0x081e8990                dlae2_
 .text          0x081e8b30      0x331 /cern/99/lib/libmathlib.a(dlaev2.o)
                0x081e8b30                dlaev2_
 *fill*         0x081e8e61        0x3 90909090
 .text          0x081e8e64      0x2b4 /cern/99/lib/libmathlib.a(dlanst.o)
                0x081e8e64                dlanst_
 .text          0x081e9118       0xb3 /cern/99/lib/libmathlib.a(dlapy2.o)
                0x081e9118                dlapy2_
 *fill*         0x081e91cb        0x1 90909090
 .text          0x081e91cc      0x237 /cern/99/lib/libmathlib.a(dlarfg.o)
                0x081e91cc                dlarfg_
 *fill*         0x081e9403        0x1 90909090
 .text          0x081e9404      0x3fc /cern/99/lib/libmathlib.a(dlartg.o)
                0x081e9404                dlartg_
 .text          0x081e9800      0x1d8 /cern/99/lib/libmathlib.a(dlaset.o)
                0x081e9800                dlaset_
 .text          0x081e99d8      0xf86 /cern/99/lib/libmathlib.a(dlasr.o)
                0x081e99d8                dlasr_
 *fill*         0x081ea95e        0x2 90909090
 .text          0x081ea960      0x583 /cern/99/lib/libmathlib.a(dlasrt.o)
                0x081ea960                dlasrt_
 *fill*         0x081eaee3        0x1 90909090
 .text          0x081eaee4      0x5eb /cern/99/lib/libmathlib.a(dorgql.o)
                0x081eaee4                dorgql_
 *fill*         0x081eb4cf        0x1 90909090
 .text          0x081eb4d0      0x59e /cern/99/lib/libmathlib.a(dorgqr.o)
                0x081eb4d0                dorgqr_
 *fill*         0x081eba6e        0x2 90909090
 .text          0x081eba70      0x14f /cern/99/lib/libmathlib.a(dnrm2.o)
                0x081eba70                dnrm2_
 *fill*         0x081ebbbf        0x1 90909090
 .text          0x081ebbc0     0x1586 /cern/99/lib/libmathlib.a(dlarfb.o)
                0x081ebbc0                dlarfb_
 *fill*         0x081ed146        0x2 90909090
 .text          0x081ed148      0x5c3 /cern/99/lib/libmathlib.a(dlarft.o)
                0x081ed148                dlarft_
 *fill*         0x081ed70b        0x1 90909090
 .text          0x081ed70c      0x317 /cern/99/lib/libmathlib.a(dorg2l.o)
                0x081ed70c                dorg2l_
 *fill*         0x081eda23        0x1 90909090
 .text          0x081eda24      0x2cb /cern/99/lib/libmathlib.a(dorg2r.o)
                0x081eda24                dorg2r_
 *fill*         0x081edcef        0x1 90909090
 .text          0x081edcf0      0x1eb /cern/99/lib/libmathlib.a(dcopy.o)
                0x081edcf0                dcopy_
 *fill*         0x081ededb        0x1 90909090
 .text          0x081ededc      0x94b /cern/99/lib/libmathlib.a(dgemm.o)
                0x081ededc                dgemm_
 *fill*         0x081ee827        0x1 90909090
 .text          0x081ee828      0xd56 /cern/99/lib/libmathlib.a(dtrmm.o)
                0x081ee828                dtrmm_
 *fill*         0x081ef57e        0x2 90909090
 .text          0x081ef580      0x9e2 /cern/99/lib/libmathlib.a(dtrmv.o)
                0x081ef580                dtrmv_
 *fill*         0x081eff62        0x2 90909090
 .text          0x081eff64      0x101 /cern/99/lib/libmathlib.a(dlarf.o)
                0x081eff64                dlarf_
 *fill*         0x081f0065        0x3 90909090
 .text          0x081f0068      0x2d4 /cern/99/lib/libmathlib.a(dger.o)
                0x081f0068                dger_
 *fill*         0x081f033c        0x4 90909090
 .text          0x081f0340       0x40 /usr/lib/libc_nonshared.a(atexit.oS)
                0x081f0340                atexit
 .text          0x081f0380      0x1a0 /usr/lib/gcc-lib/i686-pc-linux-gnu/2.95.3/libg2c.a(close.o)
                0x081f0470                f_exit
                0x081f04cc                G77_flush_0
                0x081f0380                f_clos
 .text          0x081f0520       0x28 /usr/lib/gcc-lib/i686-pc-linux-gnu/2.95.3/libg2c.a(dolio.o)
                0x081f0520                do_lio
 *fill*         0x081f0548        0x8 90909090
 .text          0x081f0550      0x3f0 /usr/lib/gcc-lib/i686-pc-linux-gnu/2.95.3/libg2c.a(due.o)
                0x081f07ec                s_wdue
                0x081f076c                s_rdue
                0x081f0918                e_wdue
                0x081f0550                c_due
                0x081f086c                e_rdue
 .text          0x081f0940      0x340 /usr/lib/gcc-lib/i686-pc-linux-gnu/2.95.3/libg2c.a(endfile.o)
                0x081f0a88                t_runc
                0x081f0940                f_end
 .text          0x081f0c80      0x4c0 /usr/lib/gcc-lib/i686-pc-linux-gnu/2.95.3/libg2c.a(err.o)
                0x081f102c                f__nowwriting
                0x081f0c80                f__canseek
                0x081f0ebc                f_init
                0x081f0d0c                f__fatal
                0x081f0f70                f__nowreading
                0x081f10f8                err(float, long)
 .text          0x081f1140      0xc50 /usr/lib/gcc-lib/i686-pc-linux-gnu/2.95.3/libg2c.a(fmt.o)
                0x081f1d34                fmt_bg
                0x081f1a1c                do_fio
                0x081f1d10                en_fio
                0x081f1940                pars_f
 .text          0x081f1d90      0x4d0 /usr/lib/gcc-lib/i686-pc-linux-gnu/2.95.3/libg2c.a(iio.o)
                0x081f1fc4                iw_rev
                0x081f206c                z_wnew
                0x081f1e0c                z_putc
                0x081f214c                e_rsfi
                0x081f1ea4                c_si
                0x081f1e44                z_rnew
                0x081f1d90                z_getc
                0x081f2008                s_rsfi
                0x081f216c                e_wsfi
                0x081f20e8                s_wsfi
 .text          0x081f2260      0x3d0 /usr/lib/gcc-lib/i686-pc-linux-gnu/2.95.3/libg2c.a(inquire.o)
                0x081f2260                f_inqu
 .text          0x081f2630     0x1340 /usr/lib/gcc-lib/i686-pc-linux-gnu/2.95.3/libg2c.a(lread.o)
                0x081f2630                t_getc
                0x081f3848                s_rsle
                0x081f34e0                l_read
                0x081f2690                e_rsle
                0x081f3390                c_le
 .text          0x081f3970      0x930 /usr/lib/gcc-lib/i686-pc-linux-gnu/2.95.3/libg2c.a(open.o)
                0x081f3a18                f__putbuf
                0x081f3ae8                x_putc
                0x081f3b88                f_open
                0x081f41c4                fk_open
 .text          0x081f42a0      0xc60 /usr/lib/gcc-lib/i686-pc-linux-gnu/2.95.3/libg2c.a(rdfmt.o)
                0x081f4c54                rd_ed
                0x081f4e2c                rd_ned
 .text          0x081f4f00      0x100 /usr/lib/gcc-lib/i686-pc-linux-gnu/2.95.3/libg2c.a(rewind.o)
                0x081f4f00                f_rew
 .text          0x081f5000      0x300 /usr/lib/gcc-lib/i686-pc-linux-gnu/2.95.3/libg2c.a(rsfe.o)
                0x081f5058                x_getc
                0x081f50ec                x_endp
                0x081f5124                s_rsfe
                0x081f5110                x_rev
                0x081f5000                xrd_SL
 .text          0x081f5300      0x140 /usr/lib/gcc-lib/i686-pc-linux-gnu/2.95.3/libg2c.a(sfe.o)
                0x081f5324                c_sfe
                0x081f5414                e_wsfe
                0x081f5300                e_rsfe
 .text          0x081f5440      0x400 /usr/lib/gcc-lib/i686-pc-linux-gnu/2.95.3/libg2c.a(sue.o)
                0x081f5440                c_sue
                0x081f5804                e_rsue
                0x081f56bc                s_wsue
                0x081f5784                e_wsue
                0x081f557c                s_rsue
 .text          0x081f5840      0x230 /usr/lib/gcc-lib/i686-pc-linux-gnu/2.95.3/libg2c.a(uio.o)
                0x081f5a34                do_uio
                0x081f5840                do_us
                0x081f5924                do_ud
 .text          0x081f5a70       0xc0 /usr/lib/gcc-lib/i686-pc-linux-gnu/2.95.3/libg2c.a(util.o)
                0x081f5a70                g_char
                0x081f5ab4                b_char
                0x081f5af0                f__inode
 .text          0x081f5b30      0xab0 /usr/lib/gcc-lib/i686-pc-linux-gnu/2.95.3/libg2c.a(wrtfmt.o)
                0x081f63b8                w_ed
                0x081f6510                w_ned
                0x081f61a8                wrt_L
 .text          0x081f65e0      0x2a0 /usr/lib/gcc-lib/i686-pc-linux-gnu/2.95.3/libg2c.a(wsfe.o)
                0x081f65e0                x_wSL
                0x081f66c4                s_wsfe
 .text          0x081f6880       0xf0 /usr/lib/gcc-lib/i686-pc-linux-gnu/2.95.3/libg2c.a(wsle.o)
                0x081f693c                e_wsle
                0x081f6880                s_wsle
 .text          0x081f6970       0x40 /usr/lib/gcc-lib/i686-pc-linux-gnu/2.95.3/libg2c.a(main.o)
                0x081f6970                main
 .text          0x081f69b0       0x70 /usr/lib/gcc-lib/i686-pc-linux-gnu/2.95.3/libg2c.a(s_stop.o)
                0x081f69b0                s_stop
 .text          0x081f6a20       0x70 /usr/lib/gcc-lib/i686-pc-linux-gnu/2.95.3/libg2c.a(sig_die.o)
                0x081f6a20                sig_die
 .text          0x081f6a90       0x18 /usr/lib/gcc-lib/i686-pc-linux-gnu/2.95.3/libg2c.a(setarg.o)
                0x081f6a90                f_setarg
 .text          0x081f6aa8      0x140 /usr/lib/gcc-lib/i686-pc-linux-gnu/2.95.3/libg2c.a(setsig.o)
                0x081f6b50                f_setsig
 .text          0x081f6be8       0x28 /usr/lib/gcc-lib/i686-pc-linux-gnu/2.95.3/libg2c.a(pow_dd.o)
                0x081f6be8                pow_dd
 .text          0x081f6c10       0x24 /usr/lib/gcc-lib/i686-pc-linux-gnu/2.95.3/libg2c.a(c_abs.o)
                0x081f6c10                c_abs
 .text          0x081f6c34       0x50 /usr/lib/gcc-lib/i686-pc-linux-gnu/2.95.3/libg2c.a(c_log.o)
                0x081f6c34                c_log
 .text          0x081f6c84       0x24 /usr/lib/gcc-lib/i686-pc-linux-gnu/2.95.3/libg2c.a(r_lg10.o)
                0x081f6c84                r_lg10
 *fill*         0x081f6ca8        0x8 90909090
 .text          0x081f6cb0       0x80 /usr/lib/gcc-lib/i686-pc-linux-gnu/2.95.3/libg2c.a(r_mod.o)
                0x081f6cb0                r_mod
 .text          0x081f6d30       0x80 /usr/lib/gcc-lib/i686-pc-linux-gnu/2.95.3/libg2c.a(d_mod.o)
                0x081f6d30                d_mod
 .text          0x081f6db0       0x60 /usr/lib/gcc-lib/i686-pc-linux-gnu/2.95.3/libg2c.a(i_indx.o)
                0x081f6db0                i_indx
 .text          0x081f6e10       0x2c /usr/lib/gcc-lib/i686-pc-linux-gnu/2.95.3/libg2c.a(l_gt.o)
                0x081f6e10                l_gt
 .text          0x081f6e3c       0x28 /usr/lib/gcc-lib/i686-pc-linux-gnu/2.95.3/libg2c.a(l_lt.o)
                0x081f6e3c                l_lt
 *fill*         0x081f6e64        0xc 90909090
 .text          0x081f6e70       0xf0 /usr/lib/gcc-lib/i686-pc-linux-gnu/2.95.3/libg2c.a(s_cat.o)
                0x081f6e70                s_cat
 .text          0x081f6f60       0x90 /usr/lib/gcc-lib/i686-pc-linux-gnu/2.95.3/libg2c.a(s_cmp.o)
                0x081f6f60                s_cmp
 .text          0x081f6ff0       0xa0 /usr/lib/gcc-lib/i686-pc-linux-gnu/2.95.3/libg2c.a(s_copy.o)
                0x081f6ff0                s_copy
 .text          0x081f7090       0x20 /usr/lib/gcc-lib/i686-pc-linux-gnu/2.95.3/libg2c.a(lnblnk_.o)
                0x081f7090                G77_lnblnk_0
 .text          0x081f70b0       0xc0 /usr/lib/gcc-lib/i686-pc-linux-gnu/2.95.3/libg2c.a(fmtlib.o)
                0x081f70b0                f__icvt
 .text          0x081f7170      0x4f0 /usr/lib/gcc-lib/i686-pc-linux-gnu/2.95.3/libg2c.a(lwrite.o)
                0x081f7580                l_write
 .text          0x081f7660      0x670 /usr/lib/gcc-lib/i686-pc-linux-gnu/2.95.3/libg2c.a(wref.o)
                0x081f7660                wrt_E
                0x081f7ac8                wrt_F
 .text          0x081f7cd0       0x4c /usr/lib/gcc-lib/i686-pc-linux-gnu/2.95.3/libg2c.a(F77_aloc.o)
                0x081f7cd0                F77_aloc
 .text          0x081f7d1c       0x68 /usr/lib/gcc-lib/i686-pc-linux-gnu/2.95.3/libg2c.a(cabs.o)
                0x081f7d1c                f__cabs
 .text          0x081f7d84       0x14 /usr/lib/gcc-lib/i686-pc-linux-gnu/2.95.3/libg2c.a(exit_.o)
                0x081f7d84                G77_exit_0
 *fill*         0x081f7d98        0x8 90909090
 .text          0x081f7da0       0x40 /usr/lib/gcc-lib/i686-pc-linux-gnu/2.95.3/crtend.o
 *(.gnu.warning)

.fini           0x081f7de0       0x1c
 *(.fini)
 .fini          0x081f7de0       0x14 /usr/lib/crti.o
                0x081f7de0                _fini
 .fini          0x081f7df4        0x5 /usr/lib/gcc-lib/i686-pc-linux-gnu/2.95.3/crtbegin.o
 .fini          0x081f7df9        0x3 /usr/lib/crtn.o
                0x081f7dfc                PROVIDE (__etext, .)
                0x081f7dfc                PROVIDE (_etext, .)
                0x081f7dfc                PROVIDE (etext, .)

.rodata         0x081f7e00     0xfbfa
 *(.rodata .rodata.* .gnu.linkonce.r.*)
 .rodata        0x081f7e00        0x8 /usr/lib/crt1.o
                0x081f7e00                _fp_hw
                0x081f7e04                _IO_stdin_used
 *fill*         0x081f7e08       0x18 00
 .rodata        0x081f7e20     0x1478 mcar48p_105j.o
 .rodata        0x081f9298       0x14 /home/pcl2483/pedro/jadesoft/util/mcgen/Plib/libmc105j.a(mcgetf.o)
 .rodata        0x081f92ac       0x2c /home/pcl2483/pedro/jadesoft/util/mcgen/Plib/libmc105j.a(mcgeth.o)
 .rodata        0x081f92d8       0x12 /home/pcl2483/pedro/jadesoft/util/mcgen/Plib/libmc105j.a(mcgetp.o)
 *fill*         0x081f92ea        0x2 00
 .rodata        0x081f92ec      0x110 /home/pcl2483/pedro/jadesoft/util/mcgen/Plib/libmc105j.a(mcinit.o)
 *fill*         0x081f93fc        0x4 00
 .rodata        0x081f9400       0xf8 /home/pcl2483/pedro/jadesoft/util/mcgen/Plib/libmc105j.a(mcstbl.o)
 *fill*         0x081f94f8        0x8 00
 .rodata        0x081f9500      0x20c /home/pcl2483/pedro/jadesoft/util/mcgen/Plib/libmc105j.a(mcwrit.o)
 *fill*         0x081f970c       0x14 00
 .rodata        0x081f9720      0x168 /home/pcl2483/pedro/jadesoft/util/mcgen/Plib/libmc105j.a(pxeecb.o)
 *fill*         0x081f9888       0x18 00
 .rodata        0x081f98a0      0x23c /home/pcl2483/pedro/jadesoft/util/mcgen/Plib/libmc105j.a(evwrtj.o)
 .rodata        0x081f9adc       0x1c /home/pcl2483/pedro/jadesoft/util/mcgen/Plib/libmc105j.a(incprd.o)
 *fill*         0x081f9af8        0x8 00
 .rodata        0x081f9b00      0x24c /home/pcl2483/pedro/jadesoft/util/mcgen/Plib/libmc105j.a(jtconv.o)
 *fill*         0x081f9d4c       0x14 00
 .rodata        0x081f9d60       0x58 /home/pcl2483/pedro/jadesoft/util/mcgen/Plib/libmc105j.a(mcrnst.o)
 *fill*         0x081f9db8        0x8 00
 .rodata        0x081f9dc0      0x1a8 /home/pcl2483/pedro/jadesoft/util/mcgen/Plib/libmc105j.a(prcprd.o)
 *fill*         0x081f9f68       0x18 00
 .rodata        0x081f9f80       0x48 /home/pcl2483/pedro/jadesoft/util/mcgen/Plib/libmc105j.a(wrcprd.o)
 *fill*         0x081f9fc8       0x18 00
 .rodata        0x081f9fe0       0x60 /home/pcl2483/pedro/jadesoft/util/mcgen/Plib/libpythia5722.a(pyevnt.o)
 .rodata        0x081fa040        0x8 /home/pcl2483/pedro/jadesoft/util/mcgen/Plib/libpythia5722.a(pyfram.o)
 .rodata        0x081fa048       0x64 /home/pcl2483/pedro/jadesoft/util/mcgen/Plib/libpythia5722.a(pyinit.o)
 *fill*         0x081fa0ac       0x14 00
 .rodata        0x081fa0c0       0x54 /home/pcl2483/pedro/jadesoft/util/mcgen/Plib/libpythia5722.a(pyinki.o)
 *fill*         0x081fa114        0xc 00
 .rodata        0x081fa120       0x64 /home/pcl2483/pedro/jadesoft/util/mcgen/Plib/libpythia5722.a(pyinpr.o)
 *fill*         0x081fa184        0x4 00
 .rodata        0x081fa188      0x2b0 /home/pcl2483/pedro/jadesoft/util/mcgen/Plib/libpythia5722.a(pyinre.o)
 .rodata        0x081fa438       0x64 /home/pcl2483/pedro/jadesoft/util/mcgen/Plib/libpythia5722.a(pymaxi.o)
 *fill*         0x081fa49c        0x4 00
 .rodata        0x081fa4a0       0x78 /home/pcl2483/pedro/jadesoft/util/mcgen/Plib/libpythia5722.a(pymult.o)
 *fill*         0x081fa518        0x8 00
 .rodata        0x081fa520       0xb8 /home/pcl2483/pedro/jadesoft/util/mcgen/Plib/libpythia5722.a(pyofsh.o)
 .rodata        0x081fa5d8       0x14 /home/pcl2483/pedro/jadesoft/util/mcgen/Plib/libpythia5722.a(pypile.o)
 *fill*         0x081fa5ec       0x14 00
 .rodata        0x081fa600       0x8c /home/pcl2483/pedro/jadesoft/util/mcgen/Plib/libpythia5722.a(pyrand.o)
 *fill*         0x081fa68c        0x4 00
 .rodata        0x081fa690       0x74 /home/pcl2483/pedro/jadesoft/util/mcgen/Plib/libpythia5722.a(pyremn.o)
 *fill*         0x081fa704       0x1c 00
 .rodata        0x081fa720       0xcc /home/pcl2483/pedro/jadesoft/util/mcgen/Plib/libpythia5722.a(pyresd.o)
 .rodata        0x081fa7ec        0x4 /home/pcl2483/pedro/jadesoft/util/mcgen/Plib/libpythia5722.a(pysave.o)
 .rodata        0x081fa7f0       0x34 /home/pcl2483/pedro/jadesoft/util/mcgen/Plib/libpythia5722.a(pyscat.o)
 *fill*         0x081fa824        0x4 00
 .rodata        0x081fa828      0x1b0 /home/pcl2483/pedro/jadesoft/util/mcgen/Plib/libpythia5722.a(pysigh.o)
 .rodata        0x081fa9d8       0x2c /home/pcl2483/pedro/jadesoft/util/mcgen/Plib/libpythia5722.a(pyspli.o)
 *fill*         0x081faa04       0x1c 00
 .rodata        0x081faa20       0xa8 /home/pcl2483/pedro/jadesoft/util/mcgen/Plib/libpythia5722.a(pysspa.o)
 .rodata        0x081faac8       0x4c /home/pcl2483/pedro/jadesoft/util/mcgen/Plib/libpythia5722.a(pystfl.o)
 *fill*         0x081fab14        0x4 00
 .rodata        0x081fab18       0x8c /home/pcl2483/pedro/jadesoft/util/mcgen/Plib/libpythia5722.a(pystfu.o)
 *fill*         0x081faba4        0x4 00
 .rodata        0x081faba8       0x38 /home/pcl2483/pedro/jadesoft/util/mcgen/Plib/libpythia5722.a(pystga.o)
 .rodata        0x081fabe0      0x128 /home/pcl2483/pedro/jadesoft/util/mcgen/Plib/libpythia5722.a(pystpi.o)
 .rodata        0x081fad08      0x22c /home/pcl2483/pedro/jadesoft/util/mcgen/Plib/libpythia5722.a(pystpr.o)
 .rodata        0x081faf34        0x8 /home/pcl2483/pedro/jadesoft/util/mcgen/Plib/libpythia5722.a(pyupev.o)
 .rodata        0x081faf3c        0x4 /home/pcl2483/pedro/jadesoft/util/mcgen/Plib/libpythia5722.a(pywaux.o)
 .rodata        0x081faf40       0x54 /home/pcl2483/pedro/jadesoft/util/mcgen/Plib/libpythia5722.a(pywidt.o)
 *fill*         0x081faf94        0xc 00
 .rodata        0x081fafa0       0x58 /home/pcl2483/pedro/jadesoft/util/mcgen/Plib/libpythia5722.a(pyxtot.o)
 .rodata        0x081faff8       0xc0 /home/pcl2483/pedro/jadesoft/util/mcgen/Plib/libpythia5722.a(rkbbv.o)
 .rodata        0x081fb0b8       0x20 /home/pcl2483/pedro/jadesoft/util/mcgen/Plib/libpythia5722.a(rkrand.o)
 .rodata        0x081fb0d8       0x70 /home/pcl2483/pedro/jadesoft/util/mcgen/Plib/libpythia5722.a(rkzf.o)
 .rodata        0x081fb148       0x28 /home/pcl2483/pedro/jadesoft/util/mcgen/Plib/libpythia5722.a(rkzpr.o)
 .rodata        0x081fb170       0x34 /home/pcl2483/pedro/jadesoft/util/mcgen/Plib/libpythia5722.a(rkzsf.o)
 *fill*         0x081fb1a4        0x4 00
 .rodata        0x081fb1a8       0x40 /home/pcl2483/pedro/jadesoft/util/mcgen/Plib/libpythia5722.a(structm.o)
 .rodata        0x081fb1e8        0x8 /home/pcl2483/pedro/jadesoft/util/mcgen/Plib/libpythia5722.a(pdfset.o)
 .rodata        0x081fb1f0     0x1374 /home/pcl2483/pedro/jadesoft/util/mcgen/Plib/libpythia5722.a(pyctq2.o)
 *fill*         0x081fc564        0x4 00
 .rodata        0x081fc568       0x30 /home/pcl2483/pedro/jadesoft/util/mcgen/Plib/libpythia5722.a(pydiff.o)
 .rodata        0x081fc598       0x18 /home/pcl2483/pedro/jadesoft/util/mcgen/Plib/libpythia5722.a(pydocu.o)
 .rodata        0x081fc5b0        0x8 /home/pcl2483/pedro/jadesoft/util/mcgen/Plib/libpythia5722.a(pyevwt.o)
 .rodata        0x081fc5b8       0x94 /home/pcl2483/pedro/jadesoft/util/mcgen/Plib/libpythia5722.a(pygano.o)
 .rodata        0x081fc64c       0x20 /home/pcl2483/pedro/jadesoft/util/mcgen/Plib/libpythia5722.a(pyggam.o)
 *fill*         0x081fc66c        0x4 00
 .rodata        0x081fc670      0x2d8 /home/pcl2483/pedro/jadesoft/util/mcgen/Plib/libpythia5722.a(pygvmd.o)
 .rodata        0x081fc948       0x14 /home/pcl2483/pedro/jadesoft/util/mcgen/Plib/libpythia5722.a(pyhfth.o)
 .rodata        0x081fc95c       0x24 /home/pcl2483/pedro/jadesoft/util/mcgen/Plib/libpythia5722.a(pyi3au.o)
 .rodata        0x081fc980      0x178 /home/pcl2483/pedro/jadesoft/util/mcgen/Plib/libpythia5722.a(pyinbm.o)
 .rodata        0x081fcaf8       0x14 /home/pcl2483/pedro/jadesoft/util/mcgen/Plib/libpythia5722.a(pykcut.o)
 *fill*         0x081fcb0c        0x4 00
 .rodata        0x081fcb10       0x4c /home/pcl2483/pedro/jadesoft/util/mcgen/Plib/libpythia5722.a(pyklim.o)
 *fill*         0x081fcb5c        0x4 00
 .rodata        0x081fcb60       0x44 /home/pcl2483/pedro/jadesoft/util/mcgen/Plib/libpythia5722.a(pykmap.o)
 .rodata        0x081fcba4       0x50 /home/pcl2483/pedro/jadesoft/util/mcgen/Plib/libpythia5722.a(pyqqbh.o)
 .rodata        0x081fcbf4       0x18 /home/pcl2483/pedro/jadesoft/util/mcgen/Plib/libpythia5722.a(pyspen.o)
 *fill*         0x081fcc0c        0x4 00
 .rodata        0x081fcc10       0x90 /home/pcl2483/pedro/jadesoft/util/mcgen/Plib/libpythia5722.a(pystel.o)
 .rodata        0x081fcca0       0x2c /home/pcl2483/pedro/jadesoft/util/mcgen/Plib/libpythia5722.a(pygbeh.o)
 .rodata        0x081fcccc       0x10 /home/pcl2483/pedro/jadesoft/util/mcgen/Plib/libpythia5722.a(pygdir.o)
 *fill*         0x081fccdc        0x4 00
 .rodata        0x081fcce0       0x34 /home/pcl2483/pedro/jadesoft/util/mcgen/Plib/libariadne408.a(arexec.o)
 .rodata        0x081fcd14       0x38 /home/pcl2483/pedro/jadesoft/util/mcgen/Plib/libariadne408.a(arinit.o)
 *fill*         0x081fcd4c        0x4 00
 .rodata        0x081fcd50       0x38 /home/pcl2483/pedro/jadesoft/util/mcgen/Plib/libariadne408.a(arlept.o)
 .rodata        0x081fcd88       0x20 /home/pcl2483/pedro/jadesoft/util/mcgen/Plib/libariadne408.a(arpars.o)
 .rodata        0x081fcda8       0x2c /home/pcl2483/pedro/jadesoft/util/mcgen/Plib/libariadne408.a(arphas.o)
 .rodata        0x081fcdd4       0x38 /home/pcl2483/pedro/jadesoft/util/mcgen/Plib/libariadne408.a(arptqq.o)
 *fill*         0x081fce0c        0x4 00
 .rodata        0x081fce10       0x34 /home/pcl2483/pedro/jadesoft/util/mcgen/Plib/libariadne408.a(arpyth.o)
 .rodata        0x081fce44        0x4 /home/pcl2483/pedro/jadesoft/util/mcgen/Plib/libariadne408.a(arpyww.o)
 .rodata        0x081fce48       0x44 /home/pcl2483/pedro/jadesoft/util/mcgen/Plib/libariadne408.a(arremn.o)
 .rodata        0x081fce8c       0x1c /home/pcl2483/pedro/jadesoft/util/mcgen/Plib/libariadne408.a(arscan.o)
 .rodata        0x081fcea8        0x4 /home/pcl2483/pedro/jadesoft/util/mcgen/Plib/libariadne408.a(arstra.o)
 .rodata        0x081fceac      0x154 /home/pcl2483/pedro/jadesoft/util/mcgen/Plib/libariadne408.a(artune.o)
 .rodata        0x081fd000       0x10 /home/pcl2483/pedro/jadesoft/util/mcgen/Plib/libariadne408.a(arupom.o)
 .rodata        0x081fd010        0x8 /home/pcl2483/pedro/jadesoft/util/mcgen/Plib/libariadne408.a(arzcms.o)
 .rodata        0x081fd018       0x10 /home/pcl2483/pedro/jadesoft/util/mcgen/Plib/libariadne408.a(lnstrf.o)
 .rodata        0x081fd028       0x10 /home/pcl2483/pedro/jadesoft/util/mcgen/Plib/libariadne408.a(arbole.o)
 .rodata        0x081fd038       0x18 /home/pcl2483/pedro/jadesoft/util/mcgen/Plib/libariadne408.a(arbopy.o)
 .rodata        0x081fd050        0xc /home/pcl2483/pedro/jadesoft/util/mcgen/Plib/libariadne408.a(arcasc.o)
 .rodata        0x081fd05c       0x14 /home/pcl2483/pedro/jadesoft/util/mcgen/Plib/libariadne408.a(archem.o)
 .rodata        0x081fd070        0x8 /home/pcl2483/pedro/jadesoft/util/mcgen/Plib/libariadne408.a(arcoli.o)
 .rodata        0x081fd078        0x8 /home/pcl2483/pedro/jadesoft/util/mcgen/Plib/libariadne408.a(arcont.o)
 .rodata        0x081fd080       0x14 /home/pcl2483/pedro/jadesoft/util/mcgen/Plib/libariadne408.a(arerrm.o)
 .rodata        0x081fd094        0x4 /home/pcl2483/pedro/jadesoft/util/mcgen/Plib/libariadne408.a(arevol.o)
 .rodata        0x081fd098       0x18 /home/pcl2483/pedro/jadesoft/util/mcgen/Plib/libariadne408.a(arexma.o)
 .rodata        0x081fd0b0        0xc /home/pcl2483/pedro/jadesoft/util/mcgen/Plib/libariadne408.a(arfidy.o)
 .rodata        0x081fd0bc        0x8 /home/pcl2483/pedro/jadesoft/util/mcgen/Plib/libariadne408.a(argpt2.o)
 .rodata        0x081fd0c4       0x14 /home/pcl2483/pedro/jadesoft/util/mcgen/Plib/libariadne408.a(argqcd.o)
 .rodata        0x081fd0d8       0x24 /home/pcl2483/pedro/jadesoft/util/mcgen/Plib/libariadne408.a(argqcg.o)
 .rodata        0x081fd0fc       0x10 /home/pcl2483/pedro/jadesoft/util/mcgen/Plib/libariadne408.a(argqcq.o)
 .rodata        0x081fd10c        0xc /home/pcl2483/pedro/jadesoft/util/mcgen/Plib/libariadne408.a(argqed.o)
 .rodata        0x081fd118        0xc /home/pcl2483/pedro/jadesoft/util/mcgen/Plib/libariadne408.a(arincr.o)
 *fill*         0x081fd124        0x4 00
 .rodata        0x081fd128       0x30 /home/pcl2483/pedro/jadesoft/util/mcgen/Plib/libariadne408.a(arinqq.o)
 .rodata        0x081fd158       0x14 /home/pcl2483/pedro/jadesoft/util/mcgen/Plib/libariadne408.a(armade.o)
 .rodata        0x081fd16c        0x4 /home/pcl2483/pedro/jadesoft/util/mcgen/Plib/libariadne408.a(armas2.o)
 .rodata        0x081fd170        0xc /home/pcl2483/pedro/jadesoft/util/mcgen/Plib/libariadne408.a(armcdi.o)
 .rodata        0x081fd17c       0x30 /home/pcl2483/pedro/jadesoft/util/mcgen/Plib/libariadne408.a(armtqq.o)
 *fill*         0x081fd1ac        0x4 00
 .rodata        0x081fd1b0       0x24 /home/pcl2483/pedro/jadesoft/util/mcgen/Plib/libariadne408.a(arndy2.o)
 *fill*         0x081fd1d4        0x4 00
 .rodata        0x081fd1d8       0x20 /home/pcl2483/pedro/jadesoft/util/mcgen/Plib/libariadne408.a(arndy4.o)
 .rodata        0x081fd1f8       0x10 /home/pcl2483/pedro/jadesoft/util/mcgen/Plib/libariadne408.a(arniqq.o)
 .rodata        0x081fd208        0x4 /home/pcl2483/pedro/jadesoft/util/mcgen/Plib/libariadne408.a(arobo1.o)
 .rodata        0x081fd20c        0x4 /home/pcl2483/pedro/jadesoft/util/mcgen/Plib/libariadne408.a(arobo2.o)
 .rodata        0x081fd210        0x4 /home/pcl2483/pedro/jadesoft/util/mcgen/Plib/libariadne408.a(arobo3.o)
 .rodata        0x081fd214        0x8 /home/pcl2483/pedro/jadesoft/util/mcgen/Plib/libariadne408.a(arpcms.o)
 *fill*         0x081fd21c        0x4 00
 .rodata        0x081fd220       0x24 /home/pcl2483/pedro/jadesoft/util/mcgen/Plib/libariadne408.a(arpoki.o)
 .rodata        0x081fd244       0x38 /home/pcl2483/pedro/jadesoft/util/mcgen/Plib/libariadne408.a(arposf.o)
 .rodata        0x081fd27c        0x4 /home/pcl2483/pedro/jadesoft/util/mcgen/Plib/libariadne408.a(arprda.o)
 .rodata        0x081fd280       0x24 /home/pcl2483/pedro/jadesoft/util/mcgen/Plib/libariadne408.a(arprdy.o)
 *fill*         0x081fd2a4        0x4 00
 .rodata        0x081fd2a8        0x8 /home/pcl2483/pedro/jadesoft/util/mcgen/Plib/libariadne408.a(arvet1.o)
 .rodata        0x081fd2b0        0x8 /home/pcl2483/pedro/jadesoft/util/mcgen/Plib/libariadne408.a(arvet3.o)
 .rodata        0x081fd2b8        0x8 /home/pcl2483/pedro/jadesoft/util/mcgen/Plib/libariadne408.a(arvet4.o)
 .rodata        0x081fd2c0        0x4 /home/pcl2483/pedro/jadesoft/util/mcgen/Plib/libariadne408.a(arbocm.o)
 *fill*         0x081fd2c4        0x4 00
 .rodata        0x081fd2c8       0x1c /home/pcl2483/pedro/jadesoft/util/mcgen/Plib/libariadne408.a(archki.o)
 *fill*         0x081fd2e4        0x4 00
 .rodata        0x081fd2e8       0x18 /home/pcl2483/pedro/jadesoft/util/mcgen/Plib/libariadne408.a(ardbrb.o)
 .rodata        0x081fd300       0x14 /home/pcl2483/pedro/jadesoft/util/mcgen/Plib/libariadne408.a(arearr.o)
 .rodata        0x081fd314        0x8 /home/pcl2483/pedro/jadesoft/util/mcgen/Plib/libariadne408.a(aremit.o)
 .rodata        0x081fd31c       0x10 /home/pcl2483/pedro/jadesoft/util/mcgen/Plib/libariadne408.a(argdis.o)
 .rodata        0x081fd32c       0x44 /home/pcl2483/pedro/jadesoft/util/mcgen/Plib/libariadne408.a(arging.o)
 .rodata        0x081fd370        0x4 /home/pcl2483/pedro/jadesoft/util/mcgen/Plib/libariadne408.a(aripsf.o)
 .rodata        0x081fd374       0x10 /home/pcl2483/pedro/jadesoft/util/mcgen/Plib/libariadne408.a(arjost.o)
 .rodata        0x081fd384        0x4 /home/pcl2483/pedro/jadesoft/util/mcgen/Plib/libariadne408.a(armas3.o)
 .rodata        0x081fd388       0x40 /home/pcl2483/pedro/jadesoft/util/mcgen/Plib/libariadne408.a(arradg.o)
 .rodata        0x081fd3c8       0x14 /home/pcl2483/pedro/jadesoft/util/mcgen/Plib/libariadne408.a(arradp.o)
 .rodata        0x081fd3dc       0x14 /home/pcl2483/pedro/jadesoft/util/mcgen/Plib/libariadne408.a(arradq.o)
 .rodata        0x081fd3f0       0x18 /home/pcl2483/pedro/jadesoft/util/mcgen/Plib/libariadne408.a(arsplg.o)
 .rodata        0x081fd408       0x14 /home/pcl2483/pedro/jadesoft/util/mcgen/Plib/libariadne408.a(arswap.o)
 *fill*         0x081fd41c        0x4 00
 .rodata        0x081fd420       0x1c /home/pcl2483/pedro/jadesoft/util/mcgen/Plib/libariadne408.a(artpt2.o)
 .rodata        0x081fd43c       0x14 /home/pcl2483/pedro/jadesoft/util/mcgen/Plib/libariadne408.a(araddg.o)
 .rodata        0x081fd450       0x10 /home/pcl2483/pedro/jadesoft/util/mcgen/Plib/libariadne408.a(archfl.o)
 .rodata        0x081fd460       0x28 /home/pcl2483/pedro/jadesoft/util/mcgen/Plib/libariadne408.a(ardyre.o)
 .rodata        0x081fd488        0x8 /home/pcl2483/pedro/jadesoft/util/mcgen/Plib/libariadne408.a(aremi2.o)
 .rodata        0x081fd490       0x10 /home/pcl2483/pedro/jadesoft/util/mcgen/Plib/libariadne408.a(aremi3.o)
 .rodata        0x081fd4a0       0x1c /home/pcl2483/pedro/jadesoft/util/mcgen/Plib/libariadne408.a(argdig.o)
 .rodata        0x081fd4bc       0x10 /home/pcl2483/pedro/jadesoft/util/mcgen/Plib/libariadne408.a(argetr.o)
 *fill*         0x081fd4cc        0x4 00
 .rodata        0x081fd4d0       0x4c /home/pcl2483/pedro/jadesoft/util/mcgen/Plib/libariadne408.a(argig2.o)
 .rodata        0x081fd51c        0x4 /home/pcl2483/pedro/jadesoft/util/mcgen/Plib/libariadne408.a(arobo4.o)
 .rodata        0x081fd520        0x4 /home/pcl2483/pedro/jadesoft/util/mcgen/Plib/libariadne408.a(arobo5.o)
 *fill*         0x081fd524        0x4 00
 .rodata        0x081fd528       0x20 /home/pcl2483/pedro/jadesoft/util/mcgen/Plib/libariadne408.a(arorie.o)
 .rodata        0x081fd548       0x10 /home/pcl2483/pedro/jadesoft/util/mcgen/Plib/libariadne408.a(arputr.o)
 .rodata        0x081fd558        0x4 /home/pcl2483/pedro/jadesoft/util/mcgen/Plib/libariadne408.a(arthrw.o)
 *fill*         0x081fd55c        0x4 00
 .rodata        0x081fd560       0x1c /home/pcl2483/pedro/jadesoft/util/mcgen/Plib/libariadne408.a(arvet6.o)
 *fill*         0x081fd57c        0x4 00
 .rodata        0x081fd580       0x1c /home/pcl2483/pedro/jadesoft/util/mcgen/Plib/libariadne408.a(arvet7.o)
 *fill*         0x081fd59c        0x4 00
 .rodata        0x081fd5a0       0x20 /home/pcl2483/pedro/jadesoft/util/mcgen/Plib/libariadne408.a(aradig.o)
 .rodata        0x081fd5c0       0x20 /home/pcl2483/pedro/jadesoft/util/mcgen/Plib/libariadne408.a(aradg2.o)
 .rodata        0x081fd5e0       0xe0 /home/pcl2483/pedro/jadesoft/util/mcgen/Plib/libjt74opal.a(lu2ent.o)
 .rodata        0x081fd6c0       0xf8 /home/pcl2483/pedro/jadesoft/util/mcgen/Plib/libjt74opal.a(ludecy.o)
 *fill*         0x081fd7b8        0x8 00
 .rodata        0x081fd7c0       0x44 /home/pcl2483/pedro/jadesoft/util/mcgen/Plib/libjt74opal.a(luedit.o)
 .rodata        0x081fd804        0x8 /home/pcl2483/pedro/jadesoft/util/mcgen/Plib/libjt74opal.a(luerrm.o)
 *fill*         0x081fd80c       0x14 00
 .rodata        0x081fd820       0xbc /home/pcl2483/pedro/jadesoft/util/mcgen/Plib/libjt74opal.a(luexec.o)
 *fill*         0x081fd8dc        0x4 00
 .rodata        0x081fd8e0      0x174 /home/pcl2483/pedro/jadesoft/util/mcgen/Plib/libjt74opal.a(lugive.o)
 *fill*         0x081fda54        0xc 00
 .rodata        0x081fda60      0x130 /home/pcl2483/pedro/jadesoft/util/mcgen/Plib/libjt74opal.a(luindf.o)
 *fill*         0x081fdb90       0x10 00
 .rodata        0x081fdba0       0x90 /home/pcl2483/pedro/jadesoft/util/mcgen/Plib/libjt74opal.a(lukfdi.o)
 .rodata        0x081fdc30       0x30 /home/pcl2483/pedro/jadesoft/util/mcgen/Plib/libjt74opal.a(lulist.o)
 .rodata        0x081fdc60      0x1dc /home/pcl2483/pedro/jadesoft/util/mcgen/Plib/libjt74opal.a(lulogo.o)
 .rodata        0x081fde3c       0xc0 /home/pcl2483/pedro/jadesoft/util/mcgen/Plib/libjt74opal.a(luname.o)
 *fill*         0x081fdefc        0x4 00
 .rodata        0x081fdf00      0x1a8 /home/pcl2483/pedro/jadesoft/util/mcgen/Plib/libjt74opal.a(luprep.o)
 .rodata        0x081fe0a8        0x8 /home/pcl2483/pedro/jadesoft/util/mcgen/Plib/libjt74opal.a(luptdi.o)
 *fill*         0x081fe0b0       0x10 00
 .rodata        0x081fe0c0       0x7c /home/pcl2483/pedro/jadesoft/util/mcgen/Plib/libjt74opal.a(lurobo.o)
 *fill*         0x081fe13c        0x4 00
 .rodata        0x081fe140      0x11c /home/pcl2483/pedro/jadesoft/util/mcgen/Plib/libjt74opal.a(lushow.o)
 *fill*         0x081fe25c        0x4 00
 .rodata        0x081fe260      0x160 /home/pcl2483/pedro/jadesoft/util/mcgen/Plib/libjt74opal.a(lustrf.o)
 .rodata        0x081fe3c0       0x74 /home/pcl2483/pedro/jadesoft/util/mcgen/Plib/libjt74opal.a(lutabu.o)
 *fill*         0x081fe434        0x4 00
 .rodata        0x081fe438       0x1c /home/pcl2483/pedro/jadesoft/util/mcgen/Plib/libjt74opal.a(lutaud.o)
 *fill*         0x081fe454        0x4 00
 .rodata        0x081fe458       0x3c /home/pcl2483/pedro/jadesoft/util/mcgen/Plib/libjt74opal.a(luzdis.o)
 .rodata        0x081fe494       0x14 /home/pcl2483/pedro/jadesoft/util/mcgen/Plib/libjt74opal.a(plu.o)
 .rodata        0x081fe4a8       0x10 /home/pcl2483/pedro/jadesoft/util/mcgen/Plib/libjt74opal.a(rlu.o)
 .rodata        0x081fe4b8       0x28 /home/pcl2483/pedro/jadesoft/util/mcgen/Plib/libjt74opal.a(taupol.o)
 .rodata        0x081fe4e0       0x3c /home/pcl2483/pedro/jadesoft/util/mcgen/Plib/libjt74opal.a(ulalem.o)
 .rodata        0x081fe51c       0x18 /home/pcl2483/pedro/jadesoft/util/mcgen/Plib/libjt74opal.a(ulalps.o)
 .rodata        0x081fe534        0x8 /home/pcl2483/pedro/jadesoft/util/mcgen/Plib/libjt74opal.a(ulangl.o)
 .rodata        0x081fe53c       0x14 /home/pcl2483/pedro/jadesoft/util/mcgen/Plib/libjt74opal.a(ulmass.o)
 .rodata        0x081fe550        0x8 /home/pcl2483/pedro/jadesoft/util/mcgen/Plib/libjt74opal.a(dexay.o)
 .rodata        0x081fe558        0x4 /home/pcl2483/pedro/jadesoft/util/mcgen/Plib/libjt74opal.a(dexay1.o)
 .rodata        0x081fe55c       0x10 /home/pcl2483/pedro/jadesoft/util/mcgen/Plib/libjt74opal.a(dexel.o)
 .rodata        0x081fe56c       0x10 /home/pcl2483/pedro/jadesoft/util/mcgen/Plib/libjt74opal.a(dexkk.o)
 .rodata        0x081fe57c       0x10 /home/pcl2483/pedro/jadesoft/util/mcgen/Plib/libjt74opal.a(dexks.o)
 .rodata        0x081fe58c       0x10 /home/pcl2483/pedro/jadesoft/util/mcgen/Plib/libjt74opal.a(dexmu.o)
 .rodata        0x081fe59c       0x10 /home/pcl2483/pedro/jadesoft/util/mcgen/Plib/libjt74opal.a(dexnew.o)
 .rodata        0x081fe5ac       0x10 /home/pcl2483/pedro/jadesoft/util/mcgen/Plib/libjt74opal.a(dexpi.o)
 .rodata        0x081fe5bc       0x10 /home/pcl2483/pedro/jadesoft/util/mcgen/Plib/libjt74opal.a(dexro.o)
 .rodata        0x081fe5cc        0x8 /home/pcl2483/pedro/jadesoft/util/mcgen/Plib/libjt74opal.a(dwlnew.o)
 .rodata        0x081fe5d4       0x18 /home/pcl2483/pedro/jadesoft/util/mcgen/Plib/libjt74opal.a(dwluaa.o)
 .rodata        0x081fe5ec        0x8 /home/pcl2483/pedro/jadesoft/util/mcgen/Plib/libjt74opal.a(dwluel.o)
 .rodata        0x081fe5f4        0x8 /home/pcl2483/pedro/jadesoft/util/mcgen/Plib/libjt74opal.a(dwlukk.o)
 .rodata        0x081fe5fc       0x14 /home/pcl2483/pedro/jadesoft/util/mcgen/Plib/libjt74opal.a(dwluks.o)
 .rodata        0x081fe610        0x8 /home/pcl2483/pedro/jadesoft/util/mcgen/Plib/libjt74opal.a(dwlumu.o)
 .rodata        0x081fe618        0x8 /home/pcl2483/pedro/jadesoft/util/mcgen/Plib/libjt74opal.a(dwlupi.o)
 .rodata        0x081fe620       0x18 /home/pcl2483/pedro/jadesoft/util/mcgen/Plib/libjt74opal.a(dwluro.o)
 .rodata        0x081fe638        0x4 /home/pcl2483/pedro/jadesoft/util/mcgen/Plib/libjt74opal.a(dwrph.o)
 *fill*         0x081fe63c        0x4 00
 .rodata        0x081fe640      0x2d0 /home/pcl2483/pedro/jadesoft/util/mcgen/Plib/libjt74opal.a(initdk.o)
 *fill*         0x081fe910       0x10 00
 .rodata        0x081fe920       0x68 /home/pcl2483/pedro/jadesoft/util/mcgen/Plib/libjt74opal.a(luboei.o)
 .rodata        0x081fe988       0x28 /home/pcl2483/pedro/jadesoft/util/mcgen/Plib/libjt74opal.a(lunpik.o)
 .rodata        0x081fe9b0       0x10 /home/pcl2483/pedro/jadesoft/util/mcgen/Plib/libjt74opal.a(dadmel.o)
 .rodata        0x081fe9c0       0x10 /home/pcl2483/pedro/jadesoft/util/mcgen/Plib/libjt74opal.a(dadmkk.o)
 .rodata        0x081fe9d0       0x10 /home/pcl2483/pedro/jadesoft/util/mcgen/Plib/libjt74opal.a(dadmks.o)
 .rodata        0x081fe9e0       0x10 /home/pcl2483/pedro/jadesoft/util/mcgen/Plib/libjt74opal.a(dadmmu.o)
 .rodata        0x081fe9f0       0x10 /home/pcl2483/pedro/jadesoft/util/mcgen/Plib/libjt74opal.a(dadmpi.o)
 .rodata        0x081fea00       0x10 /home/pcl2483/pedro/jadesoft/util/mcgen/Plib/libjt74opal.a(dadmro.o)
 .rodata        0x081fea10        0xc /home/pcl2483/pedro/jadesoft/util/mcgen/Plib/libjt74opal.a(dadnew.o)
 .rodata        0x081fea1c       0x10 /home/pcl2483/pedro/jadesoft/util/mcgen/Plib/libjt74opal.a(dexaa.o)
 *fill*         0x081fea2c        0x4 00
 .rodata        0x081fea30       0x44 /home/pcl2483/pedro/jadesoft/util/mcgen/Plib/libjt74opal.a(dph4pi.o)
 *fill*         0x081fea74        0x4 00
 .rodata        0x081fea78       0x24 /home/pcl2483/pedro/jadesoft/util/mcgen/Plib/libjt74opal.a(dph5pi.o)
 .rodata        0x081fea9c       0x10 /home/pcl2483/pedro/jadesoft/util/mcgen/Plib/libjt74opal.a(dphnpi.o)
 .rodata        0x081feaac        0x8 /home/pcl2483/pedro/jadesoft/util/mcgen/Plib/libjt74opal.a(dphsks.o)
 .rodata        0x081feab4        0x8 /home/pcl2483/pedro/jadesoft/util/mcgen/Plib/libjt74opal.a(dphsrk.o)
 .rodata        0x081feabc        0x8 /home/pcl2483/pedro/jadesoft/util/mcgen/Plib/libjt74opal.a(dphsro.o)
 .rodata        0x081feac4       0x14 /home/pcl2483/pedro/jadesoft/util/mcgen/Plib/libjt74opal.a(dphtre.o)
 .rodata        0x081fead8       0x60 /home/pcl2483/pedro/jadesoft/util/mcgen/Plib/libjt74opal.a(drcmu.o)
 .rodata        0x081feb38       0x10 /home/pcl2483/pedro/jadesoft/util/mcgen/Plib/libjt74opal.a(dwluph.o)
 .rodata        0x081feb48       0x1c /home/pcl2483/pedro/jadesoft/util/mcgen/Plib/libjt74opal.a(sigee.o)
 .rodata        0x081feb64        0x4 /home/pcl2483/pedro/jadesoft/util/mcgen/Plib/libjt74opal.a(sphera.o)
 .rodata        0x081feb68        0x4 /home/pcl2483/pedro/jadesoft/util/mcgen/Plib/libjt74opal.a(spherd.o)
 *fill*         0x081feb6c        0x4 00
 .rodata        0x081feb70        0x8 /home/pcl2483/pedro/jadesoft/util/mcgen/Plib/libjt74opal.a(bostd3.o)
 .rodata        0x081feb78        0x4 /home/pcl2483/pedro/jadesoft/util/mcgen/Plib/libjt74opal.a(bostr3.o)
 .rodata        0x081feb7c       0x14 /home/pcl2483/pedro/jadesoft/util/mcgen/Plib/libjt74opal.a(bwigs.o)
 .rodata        0x081feb90       0x3c /home/pcl2483/pedro/jadesoft/util/mcgen/Plib/libjt74opal.a(choice.o)
 .rodata        0x081febcc       0x10 /home/pcl2483/pedro/jadesoft/util/mcgen/Plib/libjt74opal.a(dadmaa.o)
 .rodata        0x081febdc        0x4 /home/pcl2483/pedro/jadesoft/util/mcgen/Plib/libjt74opal.a(dam4pi.o)
 .rodata        0x081febe0        0xc /home/pcl2483/pedro/jadesoft/util/mcgen/Plib/libjt74opal.a(dampog.o)
 *fill*         0x081febec       0x14 00
 .rodata        0x081fec00       0xa4 /home/pcl2483/pedro/jadesoft/util/mcgen/Plib/libjt74opal.a(damppk.o)
 *fill*         0x081feca4        0x4 00
 .rodata        0x081feca8        0x8 /home/pcl2483/pedro/jadesoft/util/mcgen/Plib/libjt74opal.a(dampry.o)
 .rodata        0x081fecb0       0x30 /home/pcl2483/pedro/jadesoft/util/mcgen/Plib/libjt74opal.a(dcdmas.o)
 .rodata        0x081fece0       0x18 /home/pcl2483/pedro/jadesoft/util/mcgen/Plib/libjt74opal.a(form1.o)
 .rodata        0x081fecf8       0x18 /home/pcl2483/pedro/jadesoft/util/mcgen/Plib/libjt74opal.a(form2.o)
 .rodata        0x081fed10        0x8 /home/pcl2483/pedro/jadesoft/util/mcgen/Plib/libjt74opal.a(form3.o)
 .rodata        0x081fed18       0x24 /home/pcl2483/pedro/jadesoft/util/mcgen/Plib/libjt74opal.a(form4.o)
 .rodata        0x081fed3c       0x14 /home/pcl2483/pedro/jadesoft/util/mcgen/Plib/libjt74opal.a(form5.o)
 .rodata        0x081fed50       0x38 /home/pcl2483/pedro/jadesoft/util/mcgen/Plib/libjt74opal.a(formom.o)
 .rodata        0x081fed88       0x1c /home/pcl2483/pedro/jadesoft/util/mcgen/Plib/libjt74opal.a(fpik.o)
 .rodata        0x081feda4       0x1c /home/pcl2483/pedro/jadesoft/util/mcgen/Plib/libjt74opal.a(fpikm.o)
 .rodata        0x081fedc0       0x28 /home/pcl2483/pedro/jadesoft/util/mcgen/Plib/libjt74opal.a(fpikmd.o)
 .rodata        0x081fede8       0x20 /home/pcl2483/pedro/jadesoft/util/mcgen/Plib/libjt74opal.a(gfun.o)
 .rodata        0x081fee08       0x20 /home/pcl2483/pedro/jadesoft/util/mcgen/Plib/libjt74opal.a(prod5.o)
 .rodata        0x081fee28       0x10 /home/pcl2483/pedro/jadesoft/util/mcgen/Plib/libjt74opal.a(sqm2.o)
 .rodata        0x081fee38       0x54 /home/pcl2483/pedro/jadesoft/util/mcgen/Plib/libjt74opal.a(thb.o)
 .rodata        0x081fee8c       0x10 /home/pcl2483/pedro/jadesoft/util/mcgen/Plib/libjt74opal.a(bwig.o)
 .rodata        0x081fee9c        0x4 /home/pcl2483/pedro/jadesoft/util/mcgen/Plib/libjt74opal.a(bwigm.o)
 .rodata        0x081feea0       0x20 /home/pcl2483/pedro/jadesoft/util/mcgen/Plib/libjt74opal.a(claxi.o)
 .rodata        0x081feec0        0x4 /home/pcl2483/pedro/jadesoft/util/mcgen/Plib/libjt74opal.a(clvec.o)
 *fill*         0x081feec4        0x4 00
 .rodata        0x081feec8       0x40 /home/pcl2483/pedro/jadesoft/util/mcgen/Plib/libjt74opal.a(curr.o)
 .rodata        0x081fef08      0x120 /home/pcl2483/pedro/jadesoft/util/mcgen/Plib/libjt74opal.a(dilog.o)
 *fill*         0x081ff028       0x18 00
 .rodata        0x081ff040      0x168 /home/pcl2483/pedro/jadesoft/util/mcgen/Plib/libckern105.a(ckern.o)
 *fill*         0x081ff1a8       0x18 00
 .rodata        0x081ff1c0       0x5c /home/pcl2483/pedro/jadesoft/util/mcgen/Plib/libckern105.a(cksord.o)
 *fill*         0x081ff21c        0x4 00
 .rodata        0x081ff220       0xb8 /home/pcl2483/pedro/jadesoft/util/mcgen/Plib/libckern105.a(cnjet.o)
 .rodata        0x081ff2d8       0x24 /home/pcl2483/pedro/jadesoft/util/mcgen/Plib/libpx114.a(pxang3.o)
 *fill*         0x081ff2fc        0x4 00
 .rodata        0x081ff300       0x20 /home/pcl2483/pedro/jadesoft/util/mcgen/Plib/libpx114.a(pxanxy.o)
 .rodata        0x081ff320      0x178 /home/pcl2483/pedro/jadesoft/util/mcgen/Plib/libpx114.a(pxcone.o)
 *fill*         0x081ff498        0x8 00
 .rodata        0x081ff4a0       0x3c /home/pcl2483/pedro/jadesoft/util/mcgen/Plib/libpx114.a(pxjpdg.o)
 *fill*         0x081ff4dc        0x4 00
 .rodata        0x081ff4e0       0x98 /home/pcl2483/pedro/jadesoft/util/mcgen/Plib/libpx114.a(pxjsp3.o)
 *fill*         0x081ff578        0x8 00
 .rodata        0x081ff580       0x88 /home/pcl2483/pedro/jadesoft/util/mcgen/Plib/libpx114.a(pxlsp3.o)
 *fill*         0x081ff608       0x18 00
 .rodata        0x081ff620       0xec /home/pcl2483/pedro/jadesoft/util/mcgen/Plib/libpx114.a(pxlth4.o)
 *fill*         0x081ff70c       0x14 00
 .rodata        0x081ff720       0x68 /home/pcl2483/pedro/jadesoft/util/mcgen/Plib/libpx114.a(pxlut3.o)
 .rodata        0x081ff788       0x2c /home/pcl2483/pedro/jadesoft/util/mcgen/Plib/libpx114.a(pxmmbb.o)
 .rodata        0x081ff7b4        0x4 /home/pcl2483/pedro/jadesoft/util/mcgen/Plib/libpx114.a(pxolap.o)
 .rodata        0x081ff7b8        0x1 /home/pcl2483/pedro/jadesoft/util/mcgen/Plib/libpx114.a(pxord.o)
 *fill*         0x081ff7b9        0x3 00
 .rodata        0x081ff7bc       0x38 /home/pcl2483/pedro/jadesoft/util/mcgen/Plib/libpx114.a(pxprcv.o)
 .rodata        0x081ff7f4       0x2c /home/pcl2483/pedro/jadesoft/util/mcgen/Plib/libpx114.a(pxprrv.o)
 .rodata        0x081ff820       0x10 /home/pcl2483/pedro/jadesoft/util/mcgen/Plib/libpx114.a(pxrap4.o)
 *fill*         0x081ff830       0x10 00
 .rodata        0x081ff840       0x34 /home/pcl2483/pedro/jadesoft/util/mcgen/Plib/libpx114.a(pxsear.o)
 *fill*         0x081ff874        0xc 00
 .rodata        0x081ff880       0x5c /home/pcl2483/pedro/jadesoft/util/mcgen/Plib/libpx114.a(pxsorv.o)
 *fill*         0x081ff8dc        0x4 00
 .rodata        0x081ff8e0       0x34 /home/pcl2483/pedro/jadesoft/util/mcgen/Plib/libpx114.a(pxuvec.o)
 .rodata        0x081ff914       0x40 /home/pcl2483/pedro/jadesoft/util/mcgen/Plib/libpx114.a(ykern.o)
 .rodata        0x081ff954        0x4 /home/pcl2483/pedro/jadesoft/util/mcgen/Plib/libpx114.a(ynjet.o)
 .rodata        0x081ff958        0x8 /home/pcl2483/pedro/jadesoft/util/mcgen/Plib/libpx114.a(yyjet.o)
 .rodata        0x081ff960      0x288 /home/pcl2483/pedro/jadesoft/util/mcgen/Plib/libpx114.a(pxdiam.o)
 *fill*         0x081ffbe8       0x18 00
 .rodata        0x081ffc00      0x2d0 /cern/99/lib/libpacklib.a(ffgo.o)
 .rodata        0x081ffed0       0x3c /cern/99/lib/libpacklib.a(ffinit.o)
 .rodata        0x081fff0c        0xc /cern/99/lib/libpacklib.a(ffkey.o)
 .rodata        0x081fff18       0x14 /cern/99/lib/libpacklib.a(ffset.o)
 .rodata        0x081fff2c        0x1 /cern/99/lib/libpacklib.a(ffskip.o)
 *fill*         0x081fff2d        0x3 00
 .rodata        0x081fff30       0x18 /cern/99/lib/libpacklib.a(hrput.o)
 *fill*         0x081fff48       0x18 00
 .rodata        0x081fff60       0xa4 /cern/99/lib/libpacklib.a(hbook1.o)
 *fill*         0x08200004       0x1c 00
 .rodata        0x08200020       0xb0 /cern/99/lib/libpacklib.a(hbook2.o)
 *fill*         0x082000d0       0x10 00
 .rodata        0x082000e0       0xb0 /cern/99/lib/libpacklib.a(hbookb.o)
 .rodata        0x08200190        0x1 /cern/99/lib/libpacklib.a(hbtit.o)
 *fill*         0x08200191        0x3 00
 .rodata        0x08200194       0x34 /cern/99/lib/libpacklib.a(hbug.o)
 *fill*         0x082001c8       0x18 00
 .rodata        0x082001e0       0xb8 /cern/99/lib/libpacklib.a(hcdir.o)
 .rodata        0x08200298       0x10 /cern/99/lib/libpacklib.a(hchnam.o)
 .rodata        0x082002a8       0x24 /cern/99/lib/libpacklib.a(hdelet.o)
 .rodata        0x082002cc       0x14 /cern/99/lib/libpacklib.a(hfill.o)
 .rodata        0x082002e0        0xc /cern/99/lib/libpacklib.a(hfilpf.o)
 .rodata        0x082002ec        0xc /cern/99/lib/libpacklib.a(hgive.o)
 .rodata        0x082002f8      0x100 /cern/99/lib/libpacklib.a(hidopt.o)
 *fill*         0x082003f8        0x8 00
 .rodata        0x08200400      0x138 /cern/99/lib/libpacklib.a(hlimit.o)
 .rodata        0x08200538       0x11 /cern/99/lib/libpacklib.a(hloop.o)
 *fill*         0x08200549        0x3 00
 .rodata        0x0820054c       0x60 /cern/99/lib/libpacklib.a(hmachi.o)
 .rodata        0x082005ac        0xc /cern/99/lib/libpacklib.a(hnoent.o)
 *fill*         0x082005b8        0x8 00
 .rodata        0x082005c0       0x58 /cern/99/lib/libpacklib.a(hopera.o)
 .rodata        0x08200618       0x14 /cern/99/lib/libpacklib.a(hpaff.o)
 .rodata        0x0820062c       0x14 /cern/99/lib/libpacklib.a(hpak.o)
 .rodata        0x08200640        0xc /cern/99/lib/libpacklib.a(hpake.o)
 .rodata        0x0820064c        0x8 /cern/99/lib/libpacklib.a(hpath.o)
 *fill*         0x08200654        0x4 00
 .rodata        0x08200658       0x10 /cern/99/lib/libpacklib.a(hrebin.o)
 *fill*         0x08200668       0x18 00
 .rodata        0x08200680       0x88 /cern/99/lib/libpacklib.a(hreset.o)
 .rodata        0x08200708        0x4 /cern/99/lib/libpacklib.a(hsifla.o)
 .rodata        0x0820070c       0x1c /cern/99/lib/libpacklib.a(hspace.o)
 .rodata        0x08200728        0x3 /cern/99/lib/libpacklib.a(hstaf.o)
 *fill*         0x0820072b        0x1 00
 .rodata        0x0820072c       0x64 /cern/99/lib/libpacklib.a(hsupis.o)
 .rodata        0x08200790       0x1c /cern/99/lib/libpacklib.a(hlogpf.o)
 .rodata        0x082007ac       0x14 /cern/99/lib/libpacklib.a(hoptpf.o)
 .rodata        0x082007c0        0xc /cern/99/lib/libpacklib.a(hitoc.o)
 .rodata        0x082007cc        0x2 /cern/99/lib/libpacklib.a(hnbufd.o)
 .rodata        0x082007ce        0x2 /cern/99/lib/libpacklib.a(hntmpd.o)
 *fill*         0x082007d0       0x10 00
 .rodata        0x082007e0       0x9c /cern/99/lib/libpacklib.a(hntrset.o)
 .rodata        0x0820087c       0x20 /cern/99/lib/libpacklib.a(fzin.o)
 .rodata        0x0820089c        0x8 /cern/99/lib/libpacklib.a(fzloc.o)
 .rodata        0x082008a4        0x8 /cern/99/lib/libpacklib.a(mzbook.o)
 .rodata        0x082008ac       0x14 /cern/99/lib/libpacklib.a(mzdrop.o)
 .rodata        0x082008c0       0x34 /cern/99/lib/libpacklib.a(mzebra.o)
 .rodata        0x082008f4        0x8 /cern/99/lib/libpacklib.a(mzflag.o)
 *fill*         0x082008fc        0x4 00
 .rodata        0x08200900       0xc8 /cern/99/lib/libpacklib.a(mzinco.o)
 .rodata        0x082009c8       0x10 /cern/99/lib/libpacklib.a(mzlift.o)
 .rodata        0x082009d8       0x1c /cern/99/lib/libpacklib.a(mzlink.o)
 .rodata        0x082009f4        0xc /cern/99/lib/libpacklib.a(mzneed.o)
 .rodata        0x08200a00        0xc /cern/99/lib/libpacklib.a(mzpaw.o)
 .rodata        0x08200a0c       0x18 /cern/99/lib/libpacklib.a(mzpush.o)
 .rodata        0x08200a24       0x2c /cern/99/lib/libpacklib.a(mzstor.o)
 .rodata        0x08200a50        0x8 /cern/99/lib/libpacklib.a(mzvers.o)
 .rodata        0x08200a58        0x8 /cern/99/lib/libpacklib.a(mzgar1.o)
 .rodata        0x08200a60        0x4 /cern/99/lib/libpacklib.a(mzrelb.o)
 .rodata        0x08200a64        0x4 /cern/99/lib/libpacklib.a(mzrell.o)
 .rodata        0x08200a68        0x4 /cern/99/lib/libpacklib.a(mzchln.o)
 .rodata        0x08200a6c        0x4 /cern/99/lib/libpacklib.a(mzchls.o)
 .rodata        0x08200a70        0x4 /cern/99/lib/libpacklib.a(mzfdiv.o)
 .rodata        0x08200a74       0x24 /cern/99/lib/libpacklib.a(mzform.o)
 .rodata        0x08200a98       0x10 /cern/99/lib/libpacklib.a(mzioch.o)
 .rodata        0x08200aa8        0xc /cern/99/lib/libpacklib.a(zfatal.o)
 .rodata        0x08200ab4        0x4 /cern/99/lib/libpacklib.a(zfatam.o)
 .rodata        0x08200ab8       0x18 /cern/99/lib/libpacklib.a(ztell.o)
 .rodata        0x08200ad0        0x8 /cern/99/lib/libpacklib.a(zshunt.o)
 .rodata        0x08200ad8       0x14 /cern/99/lib/libpacklib.a(rzcdir.o)
 .rodata        0x08200aec        0x8 /cern/99/lib/libpacklib.a(rzdate.o)
 *fill*         0x08200af4        0xc 00
 .rodata        0x08200b00      0x144 /cern/99/lib/libpacklib.a(rzfdir.o)
 .rodata        0x08200c44        0x8 /cern/99/lib/libpacklib.a(rziodo.o)
 .rodata        0x08200c4c       0x14 /cern/99/lib/libpacklib.a(rzpaff.o)
 .rodata        0x08200c60        0x4 /cern/99/lib/libpacklib.a(rzpath.o)
 .rodata        0x08200c64       0x10 /cern/99/lib/libpacklib.a(rzrtop.o)
 .rodata        0x08200c74        0x4 /cern/99/lib/libpacklib.a(rzsave.o)
 .rodata        0x08200c78       0x1c /cern/99/lib/libpacklib.a(rzstrir.o)
 .rodata        0x08200c94       0x10 /cern/99/lib/libpacklib.a(cfget.o)
 .rodata        0x08200ca4       0x10 /cern/99/lib/libpacklib.a(cfput.o)
 .rodata        0x08200cb4       0x11 /cern/99/lib/libpacklib.a(cfseek.o)
 *fill*         0x08200cc5        0x3 00
 .rodata        0x08200cc8        0xc /cern/99/lib/libpacklib.a(cfopen.o)
 .rodata        0x08200cd4        0x1 /cern/99/lib/libpacklib.a(cleft.o)
 *fill*         0x08200cd5        0xb 00
 .rodata        0x08200ce0       0x30 /cern/99/lib/libpacklib.a(kerngt.o)
 .rodata        0x08200d10       0x10 /cern/99/lib/libpacklib.a(ublow.o)
 .rodata        0x08200d20        0x4 /cern/99/lib/libpacklib.a(ubunch.o)
 .rodata        0x08200d24        0x4 /cern/99/lib/libpacklib.a(uctoh.o)
 .rodata        0x08200d28        0x4 /cern/99/lib/libpacklib.a(uctoh1.o)
 .rodata        0x08200d2c        0x4 /cern/99/lib/libpacklib.a(sbyt.o)
 .rodata        0x08200d30        0x8 /cern/99/lib/libpacklib.a(czgeta.o)
 .rodata        0x08200d38        0x8 /cern/99/lib/libpacklib.a(czputa.o)
 .rodata        0x08200d40       0xcc /cern/99/lib/libpacklib.a(ffcard.o)
 .rodata        0x08200e0c        0x4 /cern/99/lib/libpacklib.a(fffind.o)
 *fill*         0x08200e10       0x10 00
 .rodata        0x08200e20       0x4c /cern/99/lib/libpacklib.a(hqputf.o)
 .rodata        0x08200e6c       0x1b /cern/99/lib/libpacklib.a(hbpqry.o)
 .rodata        0x08200e87        0x7 /cern/99/lib/libpacklib.a(hrendc.o)
 *fill*         0x08200e8e        0x2 00
 .rodata        0x08200e90       0x34 /cern/99/lib/libpacklib.a(hropen.o)
 *fill*         0x08200ec4       0x1c 00
 .rodata        0x08200ee0      0x108 /cern/99/lib/libpacklib.a(hrout.o)
 *fill*         0x08200fe8       0x18 00
 .rodata        0x08201000       0x5c /cern/99/lib/libpacklib.a(hrzout.o)
 .rodata        0x0820105c       0x1c /cern/99/lib/libpacklib.a(hbar2.o)
 .rodata        0x08201078       0x2c /cern/99/lib/libpacklib.a(hbarx.o)
 .rodata        0x082010a4       0x28 /cern/99/lib/libpacklib.a(hbary.o)
 .rodata        0x082010cc       0x20 /cern/99/lib/libpacklib.a(hbin.o)
 *fill*         0x082010ec       0x14 00
 .rodata        0x08201100       0x64 /cern/99/lib/libpacklib.a(hcopy.o)
 *fill*         0x08201164        0x4 00
 .rodata        0x08201168       0x30 /cern/99/lib/libpacklib.a(hcx.o)
 .rodata        0x08201198        0x4 /cern/99/lib/libpacklib.a(hdcofl.o)
 .rodata        0x0820119c       0x14 /cern/99/lib/libpacklib.a(hf1.o)
 .rodata        0x082011b0       0x20 /cern/99/lib/libpacklib.a(hf1aut.o)
 .rodata        0x082011d0        0x4 /cern/99/lib/libpacklib.a(hf2.o)
 .rodata        0x082011d4       0x18 /cern/99/lib/libpacklib.a(hfcx.o)
 .rodata        0x082011ec        0xc /cern/99/lib/libpacklib.a(hfcxy.o)
 .rodata        0x082011f8       0x18 /cern/99/lib/libpacklib.a(hfind.o)
 .rodata        0x08201210        0xc /cern/99/lib/libpacklib.a(hi.o)
 .rodata        0x0820121c       0x14 /cern/99/lib/libpacklib.a(hie.o)
 .rodata        0x08201230        0x6 /cern/99/lib/libpacklib.a(hix.o)
 *fill*         0x08201236        0xa 00
 .rodata        0x08201240       0x73 /cern/99/lib/libpacklib.a(hlabeq.o)
 *fill*         0x082012b3        0xd 00
 .rodata        0x082012c0       0x98 /cern/99/lib/libpacklib.a(hmdir.o)
 .rodata        0x08201358       0x18 /cern/99/lib/libpacklib.a(hoper1.o)
 .rodata        0x08201370        0x1 /cern/99/lib/libpacklib.a(hoper1a.o)
 *fill*         0x08201371        0xf 00
 .rodata        0x08201380       0xb0 /cern/99/lib/libpacklib.a(hnbfwr.o)
 *fill*         0x08201430       0x10 00
 .rodata        0x08201440       0x5c /cern/99/lib/libpacklib.a(hnbuff.o)
 .rodata        0x0820149c       0x15 /cern/99/lib/libpacklib.a(hnmset.o)
 *fill*         0x082014b1        0xf 00
 .rodata        0x082014c0       0x84 /cern/99/lib/libpacklib.a(hntdel.o)
 .rodata        0x08201544       0x3c /cern/99/lib/libpacklib.a(hntmpf.o)
 .rodata        0x08201580       0xec /cern/99/lib/libpacklib.a(fzidia.o)
 .rodata        0x0820166c       0x18 /cern/99/lib/libpacklib.a(fziffn.o)
 .rodata        0x08201684       0x18 /cern/99/lib/libpacklib.a(fziffx.o)
 .rodata        0x0820169c        0x4 /cern/99/lib/libpacklib.a(fzilin.o)
 .rodata        0x082016a0       0x1c /cern/99/lib/libpacklib.a(fzimtb.o)
 .rodata        0x082016bc        0xc /cern/99/lib/libpacklib.a(fzirec.o)
 *fill*         0x082016c8       0x18 00
 .rodata        0x082016e0       0xd0 /cern/99/lib/libpacklib.a(fzout.o)
 .rodata        0x082017b0        0x8 /cern/99/lib/libpacklib.a(fzitrx.o)
 .rodata        0x082017b8       0x2c /cern/99/lib/libpacklib.a(mzcopy.o)
 .rodata        0x082017e4        0x4 /cern/99/lib/libpacklib.a(mzpudx.o)
 .rodata        0x082017e8        0x4 /cern/99/lib/libpacklib.a(mzfgap.o)
 .rodata        0x082017ec        0x4 /cern/99/lib/libpacklib.a(mzgarb.o)
 .rodata        0x082017f0        0x4 /cern/99/lib/libpacklib.a(mztabc.o)
 .rodata        0x082017f4        0x8 /cern/99/lib/libpacklib.a(mzdvac.o)
 .rodata        0x082017fc       0x1c /cern/99/lib/libpacklib.a(mziocr.o)
 .rodata        0x08201818        0x4 /cern/99/lib/libpacklib.a(mzixco.o)
 .rodata        0x0820181c        0x5 /cern/99/lib/libpacklib.a(zabend.o)
 *fill*         0x08201821        0x3 00
 .rodata        0x08201824        0x4 /cern/99/lib/libpacklib.a(zend.o)
 .rodata        0x08201828       0x18 /cern/99/lib/libpacklib.a(zphase.o)
 .rodata        0x08201840       0x20 /cern/99/lib/libpacklib.a(zpostm.o)
 .rodata        0x08201860       0x3c /cern/99/lib/libpacklib.a(rzclos.o)
 .rodata        0x0820189c       0x10 /cern/99/lib/libpacklib.a(rzend.o)
 .rodata        0x082018ac       0x1c /cern/99/lib/libpacklib.a(rzfree.o)
 .rodata        0x082018c8       0x3c /cern/99/lib/libpacklib.a(rzmdir.o)
 .rodata        0x08201904       0x10 /cern/99/lib/libpacklib.a(rzmods.o)
 *fill*         0x08201914        0xc 00
 .rodata        0x08201920       0xc8 /cern/99/lib/libpacklib.a(rzopen.o)
 .rodata        0x082019e8       0x40 /cern/99/lib/libpacklib.a(rzout.o)
 .rodata        0x08201a28       0x1c /cern/99/lib/libpacklib.a(rzstrip.o)
 .rodata        0x08201a44        0xc /cern/99/lib/libpacklib.a(rzused.o)
 .rodata        0x08201a50      0x188 /cern/99/lib/libpacklib.a(close.o)
 .rodata        0x08201bd8      0x165 /cern/99/lib/libpacklib.a(error.o)
 .rodata        0x08201d3d      0x2ac /cern/99/lib/libpacklib.a(lseek.o)
 .rodata        0x08201fe9      0x452 /cern/99/lib/libpacklib.a(open.o)
 .rodata        0x0820243b       0x5d /cern/99/lib/libpacklib.a(parse.o)
 .rodata        0x08202498      0x3ac /cern/99/lib/libpacklib.a(read.o)
 .rodata        0x08202844      0x31e /cern/99/lib/libpacklib.a(serror.o)
 .rodata        0x08202b62       0x17 /cern/99/lib/libpacklib.a(socket.o)
 .rodata        0x08202b79     0x122f /cern/99/lib/libpacklib.a(stream.o)
 .rodata        0x08203da8       0x29 /cern/99/lib/libpacklib.a(trace.o)
 .rodata        0x08203dd1      0x215 /cern/99/lib/libpacklib.a(write.o)
 .rodata        0x08203fe6       0x11 /cern/99/lib/libpacklib.a(cfopei.o)
 *fill*         0x08203ff7        0x9 00
 .rodata        0x08204000       0x3c /cern/99/lib/libpacklib.a(gshowf.o)
 .rodata        0x0820403c        0x4 /cern/99/lib/libpacklib.a(xinbs.o)
 .rodata        0x08204040      0x1f0 /cern/99/lib/libpacklib.a(halloc.o)
 .rodata        0x08204230       0x68 /cern/99/lib/libpacklib.a(hrfile.o)
 .rodata        0x08204298       0x80 /cern/99/lib/libpacklib.a(hfc1.o)
 .rodata        0x08204318        0x4 /cern/99/lib/libpacklib.a(hlccmp.o)
 .rodata        0x0820431c       0x24 /cern/99/lib/libpacklib.a(hlgnxt.o)
 .rodata        0x08204340        0x4 /cern/99/lib/libpacklib.a(hlhcmp.o)
 .rodata        0x08204344       0x48 /cern/99/lib/libpacklib.a(hlpos.o)
 *fill*         0x0820438c       0x14 00
 .rodata        0x082043a0      0x39c /cern/99/lib/libpacklib.a(dzsnap.o)
 .rodata        0x0820473c       0x28 /cern/99/lib/libpacklib.a(dztext.o)
 *fill*         0x08204764       0x1c 00
 .rodata        0x08204780       0x34 /cern/99/lib/libpacklib.a(zpage.o)
 .rodata        0x082047b4        0x8 /cern/99/lib/libpacklib.a(fzipha.o)
 .rodata        0x082047bc        0xc /cern/99/lib/libpacklib.a(fziphd.o)
 .rodata        0x082047c8        0x8 /cern/99/lib/libpacklib.a(fziphm.o)
 .rodata        0x082047d0        0x8 /cern/99/lib/libpacklib.a(fziphr.o)
 .rodata        0x082047d8        0x4 /cern/99/lib/libpacklib.a(fziprl.o)
 .rodata        0x082047dc       0x44 /cern/99/lib/libpacklib.a(fzoffn.o)
 .rodata        0x08204820        0x4 /cern/99/lib/libpacklib.a(fzoffx.o)
 .rodata        0x08204824        0x4 /cern/99/lib/libpacklib.a(fzon1.o)
 .rodata        0x08204828        0x4 /cern/99/lib/libpacklib.a(fzon2.o)
 .rodata        0x0820482c        0x4 /cern/99/lib/libpacklib.a(fzon3.o)
 .rodata        0x08204830        0x4 /cern/99/lib/libpacklib.a(fzon4.o)
 .rodata        0x08204834        0x4 /cern/99/lib/libpacklib.a(fzon5.o)
 .rodata        0x08204838        0x4 /cern/99/lib/libpacklib.a(fzon6.o)
 .rodata        0x0820483c       0x20 /cern/99/lib/libpacklib.a(fzotab.o)
 .rodata        0x0820485c       0x1c /cern/99/lib/libpacklib.a(fzicv.o)
 .rodata        0x08204878        0x8 /cern/99/lib/libpacklib.a(fzotrx.o)
 .rodata        0x08204880        0x8 /cern/99/lib/libpacklib.a(mzend.o)
 .rodata        0x08204888        0x4 /cern/99/lib/libpacklib.a(mzmaps.o)
 .rodata        0x0820488c        0x8 /cern/99/lib/libpacklib.a(mzmark.o)
 .rodata        0x08204894        0x8 /cern/99/lib/libpacklib.a(mzwork.o)
 .rodata        0x0820489c        0x4 /cern/99/lib/libpacklib.a(rzallo.o)
 .rodata        0x082048a0       0x1c /cern/99/lib/libpacklib.a(rzdelk.o)
 .rodata        0x082048bc       0x10 /cern/99/lib/libpacklib.a(rzexpd.o)
 .rodata        0x082048cc       0x70 /cern/99/lib/libpacklib.a(rzfile.o)
 .rodata        0x0820493c       0x24 /cern/99/lib/libpacklib.a(rzllok.o)
 .rodata        0x08204960       0x24 /cern/99/lib/libpacklib.a(rzlock.o)
 .rodata        0x08204984       0x5c /cern/99/lib/libpacklib.a(rzmake.o)
 .rodata        0x082049e0       0x18 /cern/99/lib/libpacklib.a(rzobkn.o)
 .rodata        0x082049f8       0x1c /cern/99/lib/libpacklib.a(rzpurf.o)
 *fill*         0x08204a14        0xc 00
 .rodata        0x08204a20       0xa0 /cern/99/lib/libpacklib.a(rzveri.o)
 .rodata        0x08204ac0       0x10 /cern/99/lib/libpacklib.a(rzwrt.o)
 .rodata        0x08204ad0      0x4ab /cern/99/lib/libpacklib.a(connect.o)
 .rodata        0x08204f7b        0xb /cern/99/lib/libpacklib.a(getacct.o)
 .rodata        0x08204f86       0x11 /cern/99/lib/libpacklib.a(getacctent.o)
 .rodata        0x08204f97       0x29 /cern/99/lib/libpacklib.a(getconfent.o)
 .rodata        0x08204fc0       0xd0 /cern/99/lib/libpacklib.a(getifnam.o)
 .rodata        0x08205090       0x2d /cern/99/lib/libpacklib.a(log.o)
 .rodata        0x082050bd      0x2d6 /cern/99/lib/libpacklib.a(remote.o)
 *fill*         0x08205393        0xd 00
 .rodata        0x082053a0      0x288 /cern/99/lib/libpacklib.a(dzare1.o)
 .rodata        0x08205628       0xa0 /cern/99/lib/libpacklib.a(dzbkup.o)
 .rodata        0x082056c8       0x34 /cern/99/lib/libpacklib.a(dzbkxr.o)
 *fill*         0x082056fc        0x4 00
 .rodata        0x08205700       0xfc /cern/99/lib/libpacklib.a(dzdata.o)
 *fill*         0x082057fc        0x4 00
 .rodata        0x08205800      0x130 /cern/99/lib/libpacklib.a(dzmap.o)
 *fill*         0x08205930       0x10 00
 .rodata        0x08205940       0x34 /cern/99/lib/libpacklib.a(dzopt.o)
 *fill*         0x08205974        0xc 00
 .rodata        0x08205980      0x148 /cern/99/lib/libpacklib.a(dzshpr.o)
 .rodata        0x08205ac8       0x10 /cern/99/lib/libpacklib.a(dztyp.o)
 .rodata        0x08205ad8       0x30 /cern/99/lib/libpacklib.a(fziasc.o)
 .rodata        0x08205b08        0xc /cern/99/lib/libpacklib.a(fzichh.o)
 .rodata        0x08205b14        0x4 /cern/99/lib/libpacklib.a(fzidum.o)
 .rodata        0x08205b18        0xc /cern/99/lib/libpacklib.a(fzophr.o)
 .rodata        0x08205b24       0x1c /cern/99/lib/libpacklib.a(fzocv.o)
 .rodata        0x08205b40       0x18 /cern/99/lib/libpacklib.a(rzdlok.o)
 *fill*         0x08205b58        0x8 00
 .rodata        0x08205b60       0xb0 /cern/99/lib/libpacklib.a(rzver1.o)
 .rodata        0x08205c10        0x8 /cern/99/lib/libpacklib.a(rzver2.o)
 .rodata        0x08205c18       0x47 /cern/99/lib/libpacklib.a(stat.o)
 *fill*         0x08205c5f        0x1 00
 .rodata        0x08205c60       0x18 /cern/99/lib/libpacklib.a(dzbkdv.o)
 *fill*         0x08205c78        0x8 00
 .rodata        0x08205c80       0xb4 /cern/99/lib/libpacklib.a(dzbkhd.o)
 .rodata        0x08205d34       0x2c /cern/99/lib/libpacklib.a(dziopr.o)
 .rodata        0x08205d60        0x8 /cern/99/lib/libpacklib.a(fzialn.o)
 *fill*         0x08205d68       0x18 00
 .rodata        0x08205d80       0x6c /cern/99/lib/libpacklib.a(rzprnk.o)
 .rodata        0x08205dec      0x15a /cern/99/lib/libpacklib.a(mstat.o)
 *fill*         0x08205f46       0x1a 00
 .rodata        0x08205f60      0x1f0 /cern/99/lib/libpacklib.a(dziopd.o)
 *fill*         0x08206150       0x10 00
 .rodata        0x08206160      0x130 /cern/99/lib/libpacklib.a(dzioph.o)
 .rodata        0x08206290        0xc /cern/99/lib/libpacklib.a(fzoaln.o)
 *fill*         0x0820629c        0x4 00
 .rodata        0x082062a0       0x30 /cern/99/lib/libmathlib.a(dsyev.o)
 .rodata        0x082062d0       0x38 /cern/99/lib/libmathlib.a(dsytrd.o)
 .rodata        0x08206308       0x6c /cern/99/lib/libmathlib.a(ilaenv.o)
 .rodata        0x08206374        0x4 /cern/99/lib/libmathlib.a(xerbla.o)
 .rodata        0x08206378        0xb /cern/99/lib/libmathlib.a(dsyr2k.o)
 *fill*         0x08206383        0x5 00
 .rodata        0x08206388       0x50 /cern/99/lib/libmathlib.a(dlamch.o)
 .rodata        0x082063d8        0xc /cern/99/lib/libmathlib.a(dlansy.o)
 .rodata        0x082063e4        0xe /cern/99/lib/libmathlib.a(dlascl.o)
 *fill*         0x082063f2        0x6 00
 .rodata        0x082063f8       0x48 /cern/99/lib/libmathlib.a(dlatrd.o)
 .rodata        0x08206440        0x8 /cern/99/lib/libmathlib.a(dorgtr.o)
 .rodata        0x08206448       0x3c /cern/99/lib/libmathlib.a(dsteqr.o)
 *fill*         0x08206484        0x4 00
 .rodata        0x08206488       0x30 /cern/99/lib/libmathlib.a(dsterf.o)
 .rodata        0x082064b8       0x28 /cern/99/lib/libmathlib.a(dsytd2.o)
 .rodata        0x082064e0        0x9 /cern/99/lib/libmathlib.a(dgemv.o)
 .rodata        0x082064e9        0x8 /cern/99/lib/libmathlib.a(dsymv.o)
 .rodata        0x082064f1        0x8 /cern/99/lib/libmathlib.a(dsyr2.o)
 *fill*         0x082064f9        0x7 00
 .rodata        0x08206500       0x10 /cern/99/lib/libmathlib.a(dlae2.o)
 .rodata        0x08206510       0x10 /cern/99/lib/libmathlib.a(dlaev2.o)
 .rodata        0x08206520        0xc /cern/99/lib/libmathlib.a(dlanst.o)
 .rodata        0x0820652c        0x2 /cern/99/lib/libmathlib.a(dlarfg.o)
 *fill*         0x0820652e        0x2 00
 .rodata        0x08206530       0x10 /cern/99/lib/libmathlib.a(dlartg.o)
 .rodata        0x08206540        0x2 /cern/99/lib/libmathlib.a(dlaset.o)
 .rodata        0x08206542        0xc /cern/99/lib/libmathlib.a(dlasr.o)
 .rodata        0x0820654e        0x8 /cern/99/lib/libmathlib.a(dlasrt.o)
 *fill*         0x08206556        0x2 00
 .rodata        0x08206558       0x3c /cern/99/lib/libmathlib.a(dorgql.o)
 .rodata        0x08206594       0x38 /cern/99/lib/libmathlib.a(dorgqr.o)
 *fill*         0x082065cc        0x4 00
 .rodata        0x082065d0       0x50 /cern/99/lib/libmathlib.a(dlarfb.o)
 .rodata        0x08206620       0x38 /cern/99/lib/libmathlib.a(dlarft.o)
 .rodata        0x08206658       0x18 /cern/99/lib/libmathlib.a(dorg2l.o)
 .rodata        0x08206670       0x18 /cern/99/lib/libmathlib.a(dorg2r.o)
 .rodata        0x08206688        0x9 /cern/99/lib/libmathlib.a(dgemm.o)
 .rodata        0x08206691        0xc /cern/99/lib/libmathlib.a(dtrmm.o)
 .rodata        0x0820669d        0xb /cern/99/lib/libmathlib.a(dtrmv.o)
 .rodata        0x082066a8       0x30 /cern/99/lib/libmathlib.a(dlarf.o)
 .rodata        0x082066d8        0x6 /cern/99/lib/libmathlib.a(dger.o)
 .rodata        0x082066de        0xe /usr/lib/gcc-lib/i686-pc-linux-gnu/2.95.3/libg2c.a(close.o)
 .rodata        0x082066ec       0x2f /usr/lib/gcc-lib/i686-pc-linux-gnu/2.95.3/libg2c.a(due.o)
 .rodata        0x0820671b       0x1f /usr/lib/gcc-lib/i686-pc-linux-gnu/2.95.3/libg2c.a(endfile.o)
 *fill*         0x0820673a        0x6 00
 .rodata        0x08206740      0x440 /usr/lib/gcc-lib/i686-pc-linux-gnu/2.95.3/libg2c.a(err.o)
 .rodata        0x08206b80      0x500 /usr/lib/gcc-lib/i686-pc-linux-gnu/2.95.3/libg2c.a(fmt.o)
 .rodata        0x08207080       0x2e /usr/lib/gcc-lib/i686-pc-linux-gnu/2.95.3/libg2c.a(iio.o)
 .rodata        0x082070ae       0x4f /usr/lib/gcc-lib/i686-pc-linux-gnu/2.95.3/libg2c.a(inquire.o)
 *fill*         0x082070fd        0x3 00
 .rodata        0x08207100      0x39c /usr/lib/gcc-lib/i686-pc-linux-gnu/2.95.3/libg2c.a(lread.o)
 .rodata        0x0820749c       0xd0 /usr/lib/gcc-lib/i686-pc-linux-gnu/2.95.3/libg2c.a(open.o)
 .rodata        0x0820756c      0x1ec /usr/lib/gcc-lib/i686-pc-linux-gnu/2.95.3/libg2c.a(rdfmt.o)
 .rodata        0x08207758       0x15 /usr/lib/gcc-lib/i686-pc-linux-gnu/2.95.3/libg2c.a(rewind.o)
 .rodata        0x0820776d       0x13 /usr/lib/gcc-lib/i686-pc-linux-gnu/2.95.3/libg2c.a(rsfe.o)
 .rodata        0x08207780        0xc /usr/lib/gcc-lib/i686-pc-linux-gnu/2.95.3/libg2c.a(sfe.o)
 .rodata        0x0820778c       0x29 /usr/lib/gcc-lib/i686-pc-linux-gnu/2.95.3/libg2c.a(sue.o)
 .rodata        0x082077b5        0xc /usr/lib/gcc-lib/i686-pc-linux-gnu/2.95.3/libg2c.a(uio.o)
 *fill*         0x082077c1        0x7 00
 .rodata        0x082077c8      0x100 /usr/lib/gcc-lib/i686-pc-linux-gnu/2.95.3/libg2c.a(wrtfmt.o)
 .rodata        0x082078c8       0x14 /usr/lib/gcc-lib/i686-pc-linux-gnu/2.95.3/libg2c.a(wsfe.o)
 .rodata        0x082078dc       0x12 /usr/lib/gcc-lib/i686-pc-linux-gnu/2.95.3/libg2c.a(wsle.o)
 .rodata        0x082078ee       0x1b /usr/lib/gcc-lib/i686-pc-linux-gnu/2.95.3/libg2c.a(s_stop.o)
 .rodata        0x08207909        0x4 /usr/lib/gcc-lib/i686-pc-linux-gnu/2.95.3/libg2c.a(sig_die.o)
 .rodata        0x0820790d       0x44 /usr/lib/gcc-lib/i686-pc-linux-gnu/2.95.3/libg2c.a(setsig.o)
 *fill*         0x08207951        0x7 00
 .rodata        0x08207958        0x8 /usr/lib/gcc-lib/i686-pc-linux-gnu/2.95.3/libg2c.a(r_lg10.o)
 .rodata        0x08207960        0x6 /usr/lib/gcc-lib/i686-pc-linux-gnu/2.95.3/libg2c.a(s_cat.o)
 *fill*         0x08207966        0x2 00
 .rodata        0x08207968       0x50 /usr/lib/gcc-lib/i686-pc-linux-gnu/2.95.3/libg2c.a(lwrite.o)
 .rodata        0x082079b8       0x28 /usr/lib/gcc-lib/i686-pc-linux-gnu/2.95.3/libg2c.a(wref.o)
 .rodata        0x082079e0       0x1a /usr/lib/gcc-lib/i686-pc-linux-gnu/2.95.3/libg2c.a(F77_aloc.o)

.rodata1
 *(.rodata1)

.eh_frame_hdr
 *(.eh_frame_hdr)
                0x082089fa                . = (0x1000 DATA_SEGMENT_ALIGN 0x1000)
                0x082089fc                . = ALIGN (0x4)
                0x082089fc                PROVIDE (__preinit_array_start, .)

.preinit_array
 *(.preinit_array)
                0x082089fc                PROVIDE (__preinit_array_end, .)
                0x082089fc                PROVIDE (__init_array_start, .)

.init_array
 *(.init_array)
                0x082089fc                PROVIDE (__init_array_end, .)
                0x082089fc                PROVIDE (__fini_array_start, .)

.fini_array
 *(.fini_array)
                0x082089fc                PROVIDE (__fini_array_end, .)

.data           0x08208a00   0x283dc0
 *(.data .data.* .gnu.linkonce.d.*)
 .data          0x08208a00        0x4 /usr/lib/crt1.o
                0x08208a00                data_start
                0x08208a00                __data_start
 .data          0x08208a04        0x8 /usr/lib/gcc-lib/i686-pc-linux-gnu/2.95.3/crtbegin.o
 *fill*         0x08208a0c       0x14 00
 .data          0x08208a20    0x204b4 mcar48p_105j.o
                0x08208fc0                npower_
                0x08208ac0                mcevsh_
 .data          0x08228ed4        0x4 /home/pcl2483/pedro/jadesoft/util/mcgen/Plib/libmc105j.a(mcgetf.o)
 .data          0x08228ed8       0x2c /home/pcl2483/pedro/jadesoft/util/mcgen/Plib/libmc105j.a(mcgeth.o)
 .data          0x08228f04       0x10 /home/pcl2483/pedro/jadesoft/util/mcgen/Plib/libmc105j.a(mcgetp.o)
 *fill*         0x08228f14        0xc 00
 .data          0x08228f20       0x80 /home/pcl2483/pedro/jadesoft/util/mcgen/Plib/libmc105j.a(mcinit.o)
 .data          0x08228fa0      0x318 /home/pcl2483/pedro/jadesoft/util/mcgen/Plib/libmc105j.a(mcstbl.o)
 *fill*         0x082292b8        0x8 00
 .data          0x082292c0    0x272e4 /home/pcl2483/pedro/jadesoft/util/mcgen/Plib/libmc105j.a(mcwrit.o)
 .data          0x082505a4       0x20 /home/pcl2483/pedro/jadesoft/util/mcgen/Plib/libmc105j.a(mytype.o)
 *fill*         0x082505c4       0x1c 00
 .data          0x082505e0    0x4e624 /home/pcl2483/pedro/jadesoft/util/mcgen/Plib/libmc105j.a(pxeecb.o)
 *fill*         0x0829ec04       0x1c 00
 .data          0x0829ec20      0x144 /home/pcl2483/pedro/jadesoft/util/mcgen/Plib/libmc105j.a(evwrtj.o)
 .data          0x0829ed64        0x8 /home/pcl2483/pedro/jadesoft/util/mcgen/Plib/libmc105j.a(jadeco.o)
 .data          0x0829ed6c       0xb4 /home/pcl2483/pedro/jadesoft/util/mcgen/Plib/libmc105j.a(jtconv.o)
 .data          0x0829ee20      0x3aa /home/pcl2483/pedro/jadesoft/util/mcgen/Plib/libmc105j.a(mcrnst.o)
 *fill*         0x0829f1ca        0x2 00
 .data          0x0829f1cc       0xd0 /home/pcl2483/pedro/jadesoft/util/mcgen/Plib/libmc105j.a(prcprd.o)
 .data          0x0829f29c       0x44 /home/pcl2483/pedro/jadesoft/util/mcgen/Plib/libmc105j.a(wrcprd.o)
 .data          0x0829f2e0     0x894c /home/pcl2483/pedro/jadesoft/util/mcgen/Plib/libpythia5722.a(pydata.o)
                0x082a66e0                pypars_
                0x082a5a60                pyint1_
                0x0829f2e0                pyint7_
                0x082a7360                pysubs_
                0x0829f780                pyint6_
                0x082a0d80                pyint2_
 .data          0x082a7c2c       0x54 /home/pcl2483/pedro/jadesoft/util/mcgen/Plib/libpythia5722.a(pyevnt.o)
 .data          0x082a7c80       0x9e /home/pcl2483/pedro/jadesoft/util/mcgen/Plib/libpythia5722.a(pyfram.o)
 *fill*         0x082a7d1e        0x2 00
 .data          0x082a7d20      0x5ff /home/pcl2483/pedro/jadesoft/util/mcgen/Plib/libpythia5722.a(pyinit.o)
 *fill*         0x082a831f        0x1 00
 .data          0x082a8320       0x1c /home/pcl2483/pedro/jadesoft/util/mcgen/Plib/libpythia5722.a(pyinki.o)
 .data          0x082a833c       0x28 /home/pcl2483/pedro/jadesoft/util/mcgen/Plib/libpythia5722.a(pyinpr.o)
 *fill*         0x082a8364       0x1c 00
 .data          0x082a8380      0xafb /home/pcl2483/pedro/jadesoft/util/mcgen/Plib/libpythia5722.a(pyinre.o)
 *fill*         0x082a8e7b        0x5 00
 .data          0x082a8e80    0x11b27 /home/pcl2483/pedro/jadesoft/util/mcgen/Plib/libpythia5722.a(pymaxi.o)
 *fill*         0x082ba9a7       0x19 00
 .data          0x082ba9c0     0x13ed /home/pcl2483/pedro/jadesoft/util/mcgen/Plib/libpythia5722.a(pymult.o)
 *fill*         0x082bbdad       0x13 00
 .data          0x082bbdc0      0xfc8 /home/pcl2483/pedro/jadesoft/util/mcgen/Plib/libpythia5722.a(pyofsh.o)
 *fill*         0x082bcd88       0x18 00
 .data          0x082bcda0      0x3bc /home/pcl2483/pedro/jadesoft/util/mcgen/Plib/libpythia5722.a(pypile.o)
 *fill*         0x082bd15c        0x4 00
 .data          0x082bd160      0x64b /home/pcl2483/pedro/jadesoft/util/mcgen/Plib/libpythia5722.a(pyrand.o)
 *fill*         0x082bd7ab       0x15 00
 .data          0x082bd7c0      0x260 /home/pcl2483/pedro/jadesoft/util/mcgen/Plib/libpythia5722.a(pyremn.o)
 .data          0x082bda20      0xdc4 /home/pcl2483/pedro/jadesoft/util/mcgen/Plib/libpythia5722.a(pyresd.o)
 *fill*         0x082be7e4       0x1c 00
 .data          0x082be800     0x65a4 /home/pcl2483/pedro/jadesoft/util/mcgen/Plib/libpythia5722.a(pysave.o)
 *fill*         0x082c4da4       0x1c 00
 .data          0x082c4dc0      0x6f0 /home/pcl2483/pedro/jadesoft/util/mcgen/Plib/libpythia5722.a(pyscat.o)
 *fill*         0x082c54b0       0x10 00
 .data          0x082c54c0     0x11a8 /home/pcl2483/pedro/jadesoft/util/mcgen/Plib/libpythia5722.a(pysigh.o)
 .data          0x082c6668       0x38 /home/pcl2483/pedro/jadesoft/util/mcgen/Plib/libpythia5722.a(pyspli.o)
 .data          0x082c66a0      0x978 /home/pcl2483/pedro/jadesoft/util/mcgen/Plib/libpythia5722.a(pysspa.o)
 *fill*         0x082c7018        0x8 00
 .data          0x082c7020      0x2b8 /home/pcl2483/pedro/jadesoft/util/mcgen/Plib/libpythia5722.a(pystfl.o)
 *fill*         0x082c72d8        0x8 00
 .data          0x082c72e0      0x5be /home/pcl2483/pedro/jadesoft/util/mcgen/Plib/libpythia5722.a(pystfu.o)
 *fill*         0x082c789e        0x2 00
 .data          0x082c78a0      0x374 /home/pcl2483/pedro/jadesoft/util/mcgen/Plib/libpythia5722.a(pystga.o)
 *fill*         0x082c7c14        0xc 00
 .data          0x082c7c20      0x25c /home/pcl2483/pedro/jadesoft/util/mcgen/Plib/libpythia5722.a(pystpi.o)
 *fill*         0x082c7e7c        0x4 00
 .data          0x082c7e80     0x1608 /home/pcl2483/pedro/jadesoft/util/mcgen/Plib/libpythia5722.a(pystpr.o)
 *fill*         0x082c9488       0x18 00
 .data          0x082c94a0       0xae /home/pcl2483/pedro/jadesoft/util/mcgen/Plib/libpythia5722.a(pyupev.o)
 *fill*         0x082c954e        0x2 00
 .data          0x082c9550        0x4 /home/pcl2483/pedro/jadesoft/util/mcgen/Plib/libpythia5722.a(pywaux.o)
 .data          0x082c9554      0x1a4 /home/pcl2483/pedro/jadesoft/util/mcgen/Plib/libpythia5722.a(pywidt.o)
 *fill*         0x082c96f8        0x8 00
 .data          0x082c9700      0x7e0 /home/pcl2483/pedro/jadesoft/util/mcgen/Plib/libpythia5722.a(pyxtot.o)
 .data          0x082c9ee0      0x528 /home/pcl2483/pedro/jadesoft/util/mcgen/Plib/libpythia5722.a(rkbbv.o)
 *fill*         0x082ca408       0x18 00
 .data          0x082ca420      0x31c /home/pcl2483/pedro/jadesoft/util/mcgen/Plib/libpythia5722.a(rkhlpk.o)
 *fill*         0x082ca73c        0x4 00
 .data          0x082ca740       0x20 /home/pcl2483/pedro/jadesoft/util/mcgen/Plib/libpythia5722.a(rkrand.o)
 .data          0x082ca760       0x8c /home/pcl2483/pedro/jadesoft/util/mcgen/Plib/libpythia5722.a(rkzf.o)
 *fill*         0x082ca7ec        0x4 00
 .data          0x082ca7f0       0x24 /home/pcl2483/pedro/jadesoft/util/mcgen/Plib/libpythia5722.a(rkzpr.o)
 .data          0x082ca814       0x1c /home/pcl2483/pedro/jadesoft/util/mcgen/Plib/libpythia5722.a(rkzsf.o)
 *fill*         0x082ca830       0x10 00
 .data          0x082ca840       0xa6 /home/pcl2483/pedro/jadesoft/util/mcgen/Plib/libpythia5722.a(structm.o)
 *fill*         0x082ca8e6       0x1a 00
 .data          0x082ca900       0xa5 /home/pcl2483/pedro/jadesoft/util/mcgen/Plib/libpythia5722.a(pdfset.o)
 *fill*         0x082ca9a5        0x3 00
 .data          0x082ca9a8       0x60 /home/pcl2483/pedro/jadesoft/util/mcgen/Plib/libpythia5722.a(pyctq2.o)
 .data          0x082caa08       0x90 /home/pcl2483/pedro/jadesoft/util/mcgen/Plib/libpythia5722.a(pydiff.o)
 .data          0x082caa98       0x28 /home/pcl2483/pedro/jadesoft/util/mcgen/Plib/libpythia5722.a(pydocu.o)
 .data          0x082caac0       0xee /home/pcl2483/pedro/jadesoft/util/mcgen/Plib/libpythia5722.a(pyevwt.o)
 *fill*         0x082cabae       0x12 00
 .data          0x082cabc0       0x34 /home/pcl2483/pedro/jadesoft/util/mcgen/Plib/libpythia5722.a(pygamm.o)
 .data          0x082cabf4       0x84 /home/pcl2483/pedro/jadesoft/util/mcgen/Plib/libpythia5722.a(pygano.o)
 *fill*         0x082cac78        0x8 00
 .data          0x082cac80       0x84 /home/pcl2483/pedro/jadesoft/util/mcgen/Plib/libpythia5722.a(pyggam.o)
 .data          0x082cad04       0x74 /home/pcl2483/pedro/jadesoft/util/mcgen/Plib/libpythia5722.a(pygvmd.o)
 .data          0x082cad78       0x1c /home/pcl2483/pedro/jadesoft/util/mcgen/Plib/libpythia5722.a(pyhfth.o)
 .data          0x082cad94       0x30 /home/pcl2483/pedro/jadesoft/util/mcgen/Plib/libpythia5722.a(pyi3au.o)
 *fill*         0x082cadc4       0x1c 00
 .data          0x082cade0      0x7df /home/pcl2483/pedro/jadesoft/util/mcgen/Plib/libpythia5722.a(pyinbm.o)
 *fill*         0x082cb5bf        0x1 00
 .data          0x082cb5c0      0x10e /home/pcl2483/pedro/jadesoft/util/mcgen/Plib/libpythia5722.a(pykcut.o)
 *fill*         0x082cb6ce        0x2 00
 .data          0x082cb6d0      0x230 /home/pcl2483/pedro/jadesoft/util/mcgen/Plib/libpythia5722.a(pyklim.o)
 .data          0x082cb900      0x15c /home/pcl2483/pedro/jadesoft/util/mcgen/Plib/libpythia5722.a(pykmap.o)
 *fill*         0x082cba5c        0x4 00
 .data          0x082cba60      0x55c /home/pcl2483/pedro/jadesoft/util/mcgen/Plib/libpythia5722.a(pyqqbh.o)
 *fill*         0x082cbfbc        0x4 00
 .data          0x082cbfc0       0x8c /home/pcl2483/pedro/jadesoft/util/mcgen/Plib/libpythia5722.a(pyspen.o)
 *fill*         0x082cc04c       0x14 00
 .data          0x082cc060      0x350 /home/pcl2483/pedro/jadesoft/util/mcgen/Plib/libpythia5722.a(pystel.o)
 .data          0x082cc3b0       0x30 /home/pcl2483/pedro/jadesoft/util/mcgen/Plib/libpythia5722.a(pygbeh.o)
 .data          0x082cc3e0       0x1c /home/pcl2483/pedro/jadesoft/util/mcgen/Plib/libpythia5722.a(pygdir.o)
 *fill*         0x082cc3fc        0x4 00
 .data          0x082cc400      0xf20 /home/pcl2483/pedro/jadesoft/util/mcgen/Plib/libariadne408.a(ardata.o)
                0x082cc400                arpopa_
                0x082cc480                arhide_
                0x082cd1e0                ardat1_
                0x082cd1a0                ardat2_
                0x082cd100                ardat3_
 .data          0x082cd320       0x28 /home/pcl2483/pedro/jadesoft/util/mcgen/Plib/libariadne408.a(arexec.o)
 *fill*         0x082cd348       0x18 00
 .data          0x082cd360      0x22b /home/pcl2483/pedro/jadesoft/util/mcgen/Plib/libariadne408.a(arinit.o)
 *fill*         0x082cd58b        0x5 00
 .data          0x082cd590       0x58 /home/pcl2483/pedro/jadesoft/util/mcgen/Plib/libariadne408.a(arlept.o)
 .data          0x082cd5e8        0xc /home/pcl2483/pedro/jadesoft/util/mcgen/Plib/libariadne408.a(arpars.o)
 *fill*         0x082cd5f4        0x4 00
 .data          0x082cd5f8       0x58 /home/pcl2483/pedro/jadesoft/util/mcgen/Plib/libariadne408.a(arphas.o)
 .data          0x082cd650       0x84 /home/pcl2483/pedro/jadesoft/util/mcgen/Plib/libariadne408.a(arptqq.o)
 *fill*         0x082cd6d4        0x4 00
 .data          0x082cd6d8       0x98 /home/pcl2483/pedro/jadesoft/util/mcgen/Plib/libariadne408.a(arpyth.o)
 .data          0x082cd770        0x8 /home/pcl2483/pedro/jadesoft/util/mcgen/Plib/libariadne408.a(arpyww.o)
 *fill*         0x082cd778        0x8 00
 .data          0x082cd780      0x200 /home/pcl2483/pedro/jadesoft/util/mcgen/Plib/libariadne408.a(arremn.o)
 .data          0x082cd980       0x14 /home/pcl2483/pedro/jadesoft/util/mcgen/Plib/libariadne408.a(arscan.o)
 *fill*         0x082cd994        0xc 00
 .data          0x082cd9a0      0x110 /home/pcl2483/pedro/jadesoft/util/mcgen/Plib/libariadne408.a(arstra.o)
 *fill*         0x082cdab0       0x10 00
 .data          0x082cdac0      0x17d /home/pcl2483/pedro/jadesoft/util/mcgen/Plib/libariadne408.a(artune.o)
 *fill*         0x082cdc3d        0x3 00
 .data          0x082cdc40        0x4 /home/pcl2483/pedro/jadesoft/util/mcgen/Plib/libariadne408.a(arzcms.o)
 *fill*         0x082cdc44        0x4 00
 .data          0x082cdc48        0xc /home/pcl2483/pedro/jadesoft/util/mcgen/Plib/libariadne408.a(arbole.o)
 *fill*         0x082cdc54        0xc 00
 .data          0x082cdc60       0x40 /home/pcl2483/pedro/jadesoft/util/mcgen/Plib/libariadne408.a(arbopy.o)
 .data          0x082cdca0       0x38 /home/pcl2483/pedro/jadesoft/util/mcgen/Plib/libariadne408.a(archem.o)
 .data          0x082cdcd8       0x10 /home/pcl2483/pedro/jadesoft/util/mcgen/Plib/libariadne408.a(arcoli.o)
 .data          0x082cdce8        0x8 /home/pcl2483/pedro/jadesoft/util/mcgen/Plib/libariadne408.a(arcopa.o)
 .data          0x082cdcf0       0x1c /home/pcl2483/pedro/jadesoft/util/mcgen/Plib/libariadne408.a(ardump.o)
 *fill*         0x082cdd0c       0x14 00
 .data          0x082cdd20      0xdbb /home/pcl2483/pedro/jadesoft/util/mcgen/Plib/libariadne408.a(arerrm.o)
 *fill*         0x082ceadb        0x1 00
 .data          0x082ceadc       0x1c /home/pcl2483/pedro/jadesoft/util/mcgen/Plib/libariadne408.a(arevol.o)
 .data          0x082ceaf8       0x80 /home/pcl2483/pedro/jadesoft/util/mcgen/Plib/libariadne408.a(arexma.o)
 .data          0x082ceb78       0x24 /home/pcl2483/pedro/jadesoft/util/mcgen/Plib/libariadne408.a(arfidy.o)
 .data          0x082ceb9c        0x8 /home/pcl2483/pedro/jadesoft/util/mcgen/Plib/libariadne408.a(argpt2.o)
 .data          0x082ceba4        0x8 /home/pcl2483/pedro/jadesoft/util/mcgen/Plib/libariadne408.a(argqcd.o)
 .data          0x082cebac        0x4 /home/pcl2483/pedro/jadesoft/util/mcgen/Plib/libariadne408.a(argqcg.o)
 .data          0x082cebb0       0x14 /home/pcl2483/pedro/jadesoft/util/mcgen/Plib/libariadne408.a(argqcq.o)
 .data          0x082cebc4        0xc /home/pcl2483/pedro/jadesoft/util/mcgen/Plib/libariadne408.a(argqed.o)
 .data          0x082cebd0       0x40 /home/pcl2483/pedro/jadesoft/util/mcgen/Plib/libariadne408.a(arincr.o)
 *fill*         0x082cec10       0x10 00
 .data          0x082cec20     0x10fc /home/pcl2483/pedro/jadesoft/util/mcgen/Plib/libariadne408.a(arinqq.o)
 .data          0x082cfd1c        0x8 /home/pcl2483/pedro/jadesoft/util/mcgen/Plib/libariadne408.a(armas2.o)
 *fill*         0x082cfd24       0x1c 00
 .data          0x082cfd40       0x30 /home/pcl2483/pedro/jadesoft/util/mcgen/Plib/libariadne408.a(armass.o)
 .data          0x082cfd70        0x8 /home/pcl2483/pedro/jadesoft/util/mcgen/Plib/libariadne408.a(armcdi.o)
 .data          0x082cfd78        0x8 /home/pcl2483/pedro/jadesoft/util/mcgen/Plib/libariadne408.a(armipt.o)
 .data          0x082cfd80       0x5c /home/pcl2483/pedro/jadesoft/util/mcgen/Plib/libariadne408.a(armtqq.o)
 .data          0x082cfddc        0x8 /home/pcl2483/pedro/jadesoft/util/mcgen/Plib/libariadne408.a(arndx1.o)
 .data          0x082cfde4        0x8 /home/pcl2483/pedro/jadesoft/util/mcgen/Plib/libariadne408.a(arndx2.o)
 .data          0x082cfdec        0x8 /home/pcl2483/pedro/jadesoft/util/mcgen/Plib/libariadne408.a(arndx3.o)
 .data          0x082cfdf4        0x8 /home/pcl2483/pedro/jadesoft/util/mcgen/Plib/libariadne408.a(arndy1.o)
 *fill*         0x082cfdfc        0x4 00
 .data          0x082cfe00       0x9c /home/pcl2483/pedro/jadesoft/util/mcgen/Plib/libariadne408.a(arndy2.o)
 .data          0x082cfe9c        0xc /home/pcl2483/pedro/jadesoft/util/mcgen/Plib/libariadne408.a(arndy3.o)
 .data          0x082cfea8       0x50 /home/pcl2483/pedro/jadesoft/util/mcgen/Plib/libariadne408.a(arndy4.o)
 *fill*         0x082cfef8        0x8 00
 .data          0x082cff00     0x18f8 /home/pcl2483/pedro/jadesoft/util/mcgen/Plib/libariadne408.a(arniqq.o)
 .data          0x082d17f8        0x4 /home/pcl2483/pedro/jadesoft/util/mcgen/Plib/libariadne408.a(arnofl.o)
 .data          0x082d17fc        0x4 /home/pcl2483/pedro/jadesoft/util/mcgen/Plib/libariadne408.a(arobo1.o)
 .data          0x082d1800        0x8 /home/pcl2483/pedro/jadesoft/util/mcgen/Plib/libariadne408.a(arobo2.o)
 .data          0x082d1808        0xc /home/pcl2483/pedro/jadesoft/util/mcgen/Plib/libariadne408.a(arobo3.o)
 .data          0x082d1814        0x8 /home/pcl2483/pedro/jadesoft/util/mcgen/Plib/libariadne408.a(arpcms.o)
 *fill*         0x082d181c        0x4 00
 .data          0x082d1820       0xc0 /home/pcl2483/pedro/jadesoft/util/mcgen/Plib/libariadne408.a(arpoki.o)
 .data          0x082d18e0       0x4c /home/pcl2483/pedro/jadesoft/util/mcgen/Plib/libariadne408.a(arposf.o)
 *fill*         0x082d192c       0x14 00
 .data          0x082d1940       0xe1 /home/pcl2483/pedro/jadesoft/util/mcgen/Plib/libariadne408.a(arprda.o)
 *fill*         0x082d1a21        0x7 00
 .data          0x082d1a28       0x40 /home/pcl2483/pedro/jadesoft/util/mcgen/Plib/libariadne408.a(arprdy.o)
 .data          0x082d1a68       0x14 /home/pcl2483/pedro/jadesoft/util/mcgen/Plib/libariadne408.a(arprgc.o)
 *fill*         0x082d1a7c        0x4 00
 .data          0x082d1a80       0x10 /home/pcl2483/pedro/jadesoft/util/mcgen/Plib/libariadne408.a(arsume.o)
 .data          0x082d1a90       0x18 /home/pcl2483/pedro/jadesoft/util/mcgen/Plib/libariadne408.a(arveth.o)
 .data          0x082d1aa8       0x5c /home/pcl2483/pedro/jadesoft/util/mcgen/Plib/libariadne408.a(arbocm.o)
 *fill*         0x082d1b04        0x4 00
 .data          0x082d1b08       0x6c /home/pcl2483/pedro/jadesoft/util/mcgen/Plib/libariadne408.a(archki.o)
 *fill*         0x082d1b74        0xc 00
 .data          0x082d1b80       0xc8 /home/pcl2483/pedro/jadesoft/util/mcgen/Plib/libariadne408.a(ardbrb.o)
 .data          0x082d1c48       0x88 /home/pcl2483/pedro/jadesoft/util/mcgen/Plib/libariadne408.a(arearr.o)
 .data          0x082d1cd0       0x40 /home/pcl2483/pedro/jadesoft/util/mcgen/Plib/libariadne408.a(aremit.o)
 .data          0x082d1d10       0x1c /home/pcl2483/pedro/jadesoft/util/mcgen/Plib/libariadne408.a(arevst.o)
 .data          0x082d1d2c        0x4 /home/pcl2483/pedro/jadesoft/util/mcgen/Plib/libariadne408.a(argdis.o)
 .data          0x082d1d30      0x220 /home/pcl2483/pedro/jadesoft/util/mcgen/Plib/libariadne408.a(arging.o)
 .data          0x082d1f50       0x10 /home/pcl2483/pedro/jadesoft/util/mcgen/Plib/libariadne408.a(aripsf.o)
 .data          0x082d1f60        0xc /home/pcl2483/pedro/jadesoft/util/mcgen/Plib/libariadne408.a(arjoqq.o)
 .data          0x082d1f6c       0x14 /home/pcl2483/pedro/jadesoft/util/mcgen/Plib/libariadne408.a(arjost.o)
 .data          0x082d1f80        0xc /home/pcl2483/pedro/jadesoft/util/mcgen/Plib/libariadne408.a(armas3.o)
 .data          0x082d1f8c        0x4 /home/pcl2483/pedro/jadesoft/util/mcgen/Plib/libariadne408.a(arpadd.o)
 .data          0x082d1f90       0xd0 /home/pcl2483/pedro/jadesoft/util/mcgen/Plib/libariadne408.a(arradg.o)
 .data          0x082d2060       0x18 /home/pcl2483/pedro/jadesoft/util/mcgen/Plib/libariadne408.a(arradp.o)
 .data          0x082d2078       0x24 /home/pcl2483/pedro/jadesoft/util/mcgen/Plib/libariadne408.a(arradq.o)
 .data          0x082d209c        0xc /home/pcl2483/pedro/jadesoft/util/mcgen/Plib/libariadne408.a(arreca.o)
 .data          0x082d20a8       0x18 /home/pcl2483/pedro/jadesoft/util/mcgen/Plib/libariadne408.a(arremd.o)
 .data          0x082d20c0       0x14 /home/pcl2483/pedro/jadesoft/util/mcgen/Plib/libariadne408.a(arremp.o)
 .data          0x082d20d4       0x18 /home/pcl2483/pedro/jadesoft/util/mcgen/Plib/libariadne408.a(arsplg.o)
 .data          0x082d20ec        0xc /home/pcl2483/pedro/jadesoft/util/mcgen/Plib/libariadne408.a(arstor.o)
 .data          0x082d20f8       0x20 /home/pcl2483/pedro/jadesoft/util/mcgen/Plib/libariadne408.a(arswap.o)
 .data          0x082d2118       0x48 /home/pcl2483/pedro/jadesoft/util/mcgen/Plib/libariadne408.a(artpt2.o)
 .data          0x082d2160        0xc /home/pcl2483/pedro/jadesoft/util/mcgen/Plib/libariadne408.a(araddg.o)
 *fill*         0x082d216c       0x14 00
 .data          0x082d2180      0xfc4 /home/pcl2483/pedro/jadesoft/util/mcgen/Plib/libariadne408.a(archfl.o)
 .data          0x082d3144        0x4 /home/pcl2483/pedro/jadesoft/util/mcgen/Plib/libariadne408.a(arduph.o)
 .data          0x082d3148       0xec /home/pcl2483/pedro/jadesoft/util/mcgen/Plib/libariadne408.a(ardyre.o)
 *fill*         0x082d3234        0xc 00
 .data          0x082d3240     0x1fc4 /home/pcl2483/pedro/jadesoft/util/mcgen/Plib/libariadne408.a(aremi2.o)
 .data          0x082d5204       0x3c /home/pcl2483/pedro/jadesoft/util/mcgen/Plib/libariadne408.a(aremi3.o)
 .data          0x082d5240       0x2c /home/pcl2483/pedro/jadesoft/util/mcgen/Plib/libariadne408.a(argetr.o)
 *fill*         0x082d526c        0x4 00
 .data          0x082d5270      0x174 /home/pcl2483/pedro/jadesoft/util/mcgen/Plib/libariadne408.a(argig2.o)
 .data          0x082d53e4       0x10 /home/pcl2483/pedro/jadesoft/util/mcgen/Plib/libariadne408.a(arobo4.o)
 .data          0x082d53f4       0x14 /home/pcl2483/pedro/jadesoft/util/mcgen/Plib/libariadne408.a(arobo5.o)
 .data          0x082d5408       0xb0 /home/pcl2483/pedro/jadesoft/util/mcgen/Plib/libariadne408.a(arorie.o)
 .data          0x082d54b8        0x4 /home/pcl2483/pedro/jadesoft/util/mcgen/Plib/libariadne408.a(arpado.o)
 .data          0x082d54bc        0x4 /home/pcl2483/pedro/jadesoft/util/mcgen/Plib/libariadne408.a(arpins.o)
 .data          0x082d54c0       0x2c /home/pcl2483/pedro/jadesoft/util/mcgen/Plib/libariadne408.a(arputr.o)
 .data          0x082d54ec       0x28 /home/pcl2483/pedro/jadesoft/util/mcgen/Plib/libariadne408.a(arremg.o)
 .data          0x082d5514        0xc /home/pcl2483/pedro/jadesoft/util/mcgen/Plib/libariadne408.a(arrems.o)
 .data          0x082d5520       0x10 /home/pcl2483/pedro/jadesoft/util/mcgen/Plib/libariadne408.a(arthrw.o)
 .data          0x082d5530       0x60 /home/pcl2483/pedro/jadesoft/util/mcgen/Plib/libariadne408.a(arvet6.o)
 .data          0x082d5590       0x60 /home/pcl2483/pedro/jadesoft/util/mcgen/Plib/libariadne408.a(arvet7.o)
 .data          0x082d55f0      0x204 /home/pcl2483/pedro/jadesoft/util/mcgen/Plib/libariadne408.a(aradig.o)
 .data          0x082d57f4        0xc /home/pcl2483/pedro/jadesoft/util/mcgen/Plib/libariadne408.a(arcodi.o)
 .data          0x082d5800       0x94 /home/pcl2483/pedro/jadesoft/util/mcgen/Plib/libariadne408.a(arecoi.o)
 *fill*         0x082d5894        0x4 00
 .data          0x082d5898      0x104 /home/pcl2483/pedro/jadesoft/util/mcgen/Plib/libariadne408.a(aradg2.o)
 .data          0x082d599c       0x2c /home/pcl2483/pedro/jadesoft/util/mcgen/Plib/libjt74opal.a(klu.o)
 .data          0x082d59c8       0x28 /home/pcl2483/pedro/jadesoft/util/mcgen/Plib/libjt74opal.a(lu2ent.o)
 .data          0x082d59f0        0x8 /home/pcl2483/pedro/jadesoft/util/mcgen/Plib/libjt74opal.a(luchge.o)
 *fill*         0x082d59f8        0x8 00
 .data          0x082d5a00      0x100 /home/pcl2483/pedro/jadesoft/util/mcgen/Plib/libjt74opal.a(lucomp.o)
 .data          0x082d5b00    0x185a0 /home/pcl2483/pedro/jadesoft/util/mcgen/Plib/libjt74opal.a(ludata.o)
                0x082ed420                gudat1_
                0x082d6c60                gudat3_
                0x082d5b00                gudatr_
                0x082e7de0                gudat2_
                0x082d5cc0                gudat4_
 .data          0x082ee0a0      0x3c8 /home/pcl2483/pedro/jadesoft/util/mcgen/Plib/libjt74opal.a(ludecy.o)
 .data          0x082ee468       0x54 /home/pcl2483/pedro/jadesoft/util/mcgen/Plib/libjt74opal.a(luedit.o)
 *fill*         0x082ee4bc        0x4 00
 .data          0x082ee4c0      0x1f2 /home/pcl2483/pedro/jadesoft/util/mcgen/Plib/libjt74opal.a(luerrm.o)
 *fill*         0x082ee6b2        0xe 00
 .data          0x082ee6c0       0x64 /home/pcl2483/pedro/jadesoft/util/mcgen/Plib/libjt74opal.a(luexec.o)
 *fill*         0x082ee724       0x1c 00
 .data          0x082ee740      0x9ac /home/pcl2483/pedro/jadesoft/util/mcgen/Plib/libjt74opal.a(lugive.o)
 *fill*         0x082ef0ec       0x14 00
 .data          0x082ef100      0x170 /home/pcl2483/pedro/jadesoft/util/mcgen/Plib/libjt74opal.a(luindf.o)
 .data          0x082ef270       0xd4 /home/pcl2483/pedro/jadesoft/util/mcgen/Plib/libjt74opal.a(lukfdi.o)
 *fill*         0x082ef344       0x1c 00
 .data          0x082ef360      0xa8e /home/pcl2483/pedro/jadesoft/util/mcgen/Plib/libjt74opal.a(lulist.o)
 *fill*         0x082efdee       0x12 00
 .data          0x082efe00      0xad4 /home/pcl2483/pedro/jadesoft/util/mcgen/Plib/libjt74opal.a(lulogo.o)
 .data          0x082f08d4       0x28 /home/pcl2483/pedro/jadesoft/util/mcgen/Plib/libjt74opal.a(luname.o)
 *fill*         0x082f08fc        0x4 00
 .data          0x082f0900      0x134 /home/pcl2483/pedro/jadesoft/util/mcgen/Plib/libjt74opal.a(luprep.o)
 .data          0x082f0a34        0xc /home/pcl2483/pedro/jadesoft/util/mcgen/Plib/libjt74opal.a(luptdi.o)
 .data          0x082f0a40      0x108 /home/pcl2483/pedro/jadesoft/util/mcgen/Plib/libjt74opal.a(lurobo.o)
 *fill*         0x082f0b48       0x18 00
 .data          0x082f0b60      0x868 /home/pcl2483/pedro/jadesoft/util/mcgen/Plib/libjt74opal.a(lushow.o)
 *fill*         0x082f13c8       0x18 00
 .data          0x082f13e0      0x4f0 /home/pcl2483/pedro/jadesoft/util/mcgen/Plib/libjt74opal.a(lustrf.o)
 *fill*         0x082f18d0       0x10 00
 .data          0x082f18e0     0x646f /home/pcl2483/pedro/jadesoft/util/mcgen/Plib/libjt74opal.a(lutabu.o)
 *fill*         0x082f7d4f        0x1 00
 .data          0x082f7d50       0x80 /home/pcl2483/pedro/jadesoft/util/mcgen/Plib/libjt74opal.a(lutaud.o)
 .data          0x082f7dd0       0x50 /home/pcl2483/pedro/jadesoft/util/mcgen/Plib/libjt74opal.a(luzdis.o)
 .data          0x082f7e20       0x20 /home/pcl2483/pedro/jadesoft/util/mcgen/Plib/libjt74opal.a(plu.o)
 .data          0x082f7e40       0x38 /home/pcl2483/pedro/jadesoft/util/mcgen/Plib/libjt74opal.a(rlu.o)
 .data          0x082f7e78       0x18 /home/pcl2483/pedro/jadesoft/util/mcgen/Plib/libjt74opal.a(taupol.o)
 .data          0x082f7e90        0x8 /home/pcl2483/pedro/jadesoft/util/mcgen/Plib/libjt74opal.a(ulalem.o)
 .data          0x082f7e98       0x1c /home/pcl2483/pedro/jadesoft/util/mcgen/Plib/libjt74opal.a(ulalps.o)
 .data          0x082f7eb4        0x4 /home/pcl2483/pedro/jadesoft/util/mcgen/Plib/libjt74opal.a(ulangl.o)
 .data          0x082f7eb8       0x3c /home/pcl2483/pedro/jadesoft/util/mcgen/Plib/libjt74opal.a(ulmass.o)
 *fill*         0x082f7ef4        0xc 00
 .data          0x082f7f00      0xb05 /home/pcl2483/pedro/jadesoft/util/mcgen/Plib/libjt74opal.a(dexay.o)
 *fill*         0x082f8a05       0x1b 00
 .data          0x082f8a20      0x1c0 /home/pcl2483/pedro/jadesoft/util/mcgen/Plib/libjt74opal.a(dexay1.o)
 .data          0x082f8be0       0x68 /home/pcl2483/pedro/jadesoft/util/mcgen/Plib/libjt74opal.a(dexel.o)
 .data          0x082f8c48       0x1c /home/pcl2483/pedro/jadesoft/util/mcgen/Plib/libjt74opal.a(dexkk.o)
 *fill*         0x082f8c64       0x1c 00
 .data          0x082f8c80       0x68 /home/pcl2483/pedro/jadesoft/util/mcgen/Plib/libjt74opal.a(dexks.o)
 *fill*         0x082f8ce8       0x18 00
 .data          0x082f8d00       0x68 /home/pcl2483/pedro/jadesoft/util/mcgen/Plib/libjt74opal.a(dexmu.o)
 *fill*         0x082f8d68       0x18 00
 .data          0x082f8d80       0x69 /home/pcl2483/pedro/jadesoft/util/mcgen/Plib/libjt74opal.a(dexnew.o)
 *fill*         0x082f8de9        0x3 00
 .data          0x082f8dec       0x1c /home/pcl2483/pedro/jadesoft/util/mcgen/Plib/libjt74opal.a(dexpi.o)
 *fill*         0x082f8e08       0x18 00
 .data          0x082f8e20       0x68 /home/pcl2483/pedro/jadesoft/util/mcgen/Plib/libjt74opal.a(dexro.o)
 .data          0x082f8e88       0x2c /home/pcl2483/pedro/jadesoft/util/mcgen/Plib/libjt74opal.a(dwlnew.o)
 .data          0x082f8eb4        0x8 /home/pcl2483/pedro/jadesoft/util/mcgen/Plib/libjt74opal.a(dwluaa.o)
 .data          0x082f8ebc        0x8 /home/pcl2483/pedro/jadesoft/util/mcgen/Plib/libjt74opal.a(dwluel.o)
 .data          0x082f8ec4        0x8 /home/pcl2483/pedro/jadesoft/util/mcgen/Plib/libjt74opal.a(dwlukk.o)
 .data          0x082f8ecc       0x18 /home/pcl2483/pedro/jadesoft/util/mcgen/Plib/libjt74opal.a(dwluks.o)
 .data          0x082f8ee4        0x8 /home/pcl2483/pedro/jadesoft/util/mcgen/Plib/libjt74opal.a(dwlumu.o)
 .data          0x082f8eec        0x8 /home/pcl2483/pedro/jadesoft/util/mcgen/Plib/libjt74opal.a(dwlupi.o)
 .data          0x082f8ef4        0x8 /home/pcl2483/pedro/jadesoft/util/mcgen/Plib/libjt74opal.a(dwluro.o)
 .data          0x082f8efc       0x18 /home/pcl2483/pedro/jadesoft/util/mcgen/Plib/libjt74opal.a(dwrph.o)
 .data          0x082f8f14        0xc /home/pcl2483/pedro/jadesoft/util/mcgen/Plib/libjt74opal.a(filhep.o)
 .data          0x082f8f20      0x258 /home/pcl2483/pedro/jadesoft/util/mcgen/Plib/libjt74opal.a(initdk.o)
 *fill*         0x082f9178        0x8 00
 .data          0x082f9180       0xbd /home/pcl2483/pedro/jadesoft/util/mcgen/Plib/libjt74opal.a(jaker.o)
 *fill*         0x082f923d        0x3 00
 .data          0x082f9240      0x2ac /home/pcl2483/pedro/jadesoft/util/mcgen/Plib/libjt74opal.a(luboei.o)
 .data          0x082f94ec       0x24 /home/pcl2483/pedro/jadesoft/util/mcgen/Plib/libjt74opal.a(lunpik.o)
 *fill*         0x082f9510       0x10 00
 .data          0x082f9520      0x389 /home/pcl2483/pedro/jadesoft/util/mcgen/Plib/libjt74opal.a(dadmel.o)
 *fill*         0x082f98a9       0x17 00
 .data          0x082f98c0      0x1c7 /home/pcl2483/pedro/jadesoft/util/mcgen/Plib/libjt74opal.a(dadmkk.o)
 *fill*         0x082f9a87       0x19 00
 .data          0x082f9aa0      0x3c9 /home/pcl2483/pedro/jadesoft/util/mcgen/Plib/libjt74opal.a(dadmks.o)
 *fill*         0x082f9e69       0x17 00
 .data          0x082f9e80      0x389 /home/pcl2483/pedro/jadesoft/util/mcgen/Plib/libjt74opal.a(dadmmu.o)
 *fill*         0x082fa209       0x17 00
 .data          0x082fa220      0x1c7 /home/pcl2483/pedro/jadesoft/util/mcgen/Plib/libjt74opal.a(dadmpi.o)
 *fill*         0x082fa3e7       0x19 00
 .data          0x082fa400      0x3a9 /home/pcl2483/pedro/jadesoft/util/mcgen/Plib/libjt74opal.a(dadmro.o)
 *fill*         0x082fa7a9       0x17 00
 .data          0x082fa7c0      0x681 /home/pcl2483/pedro/jadesoft/util/mcgen/Plib/libjt74opal.a(dadnew.o)
 *fill*         0x082fae41       0x1f 00
 .data          0x082fae60       0x68 /home/pcl2483/pedro/jadesoft/util/mcgen/Plib/libjt74opal.a(dexaa.o)
 *fill*         0x082faec8       0x18 00
 .data          0x082faee0      0x1a4 /home/pcl2483/pedro/jadesoft/util/mcgen/Plib/libjt74opal.a(dph4pi.o)
 *fill*         0x082fb084       0x1c 00
 .data          0x082fb0a0      0x1f4 /home/pcl2483/pedro/jadesoft/util/mcgen/Plib/libjt74opal.a(dph5pi.o)
 *fill*         0x082fb294        0xc 00
 .data          0x082fb2a0      0x458 /home/pcl2483/pedro/jadesoft/util/mcgen/Plib/libjt74opal.a(dphnpi.o)
 *fill*         0x082fb6f8        0x8 00
 .data          0x082fb700       0xd0 /home/pcl2483/pedro/jadesoft/util/mcgen/Plib/libjt74opal.a(dphsel.o)
 .data          0x082fb7d0       0x84 /home/pcl2483/pedro/jadesoft/util/mcgen/Plib/libjt74opal.a(dphsks.o)
 *fill*         0x082fb854        0xc 00
 .data          0x082fb860       0xd0 /home/pcl2483/pedro/jadesoft/util/mcgen/Plib/libjt74opal.a(dphsmu.o)
 .data          0x082fb930       0x48 /home/pcl2483/pedro/jadesoft/util/mcgen/Plib/libjt74opal.a(dphspk.o)
 .data          0x082fb978       0x9c /home/pcl2483/pedro/jadesoft/util/mcgen/Plib/libjt74opal.a(dphsrk.o)
 .data          0x082fba14       0x7c /home/pcl2483/pedro/jadesoft/util/mcgen/Plib/libjt74opal.a(dphsro.o)
 .data          0x082fba90      0x118 /home/pcl2483/pedro/jadesoft/util/mcgen/Plib/libjt74opal.a(dphtre.o)
 *fill*         0x082fbba8       0x18 00
 .data          0x082fbbc0      0x194 /home/pcl2483/pedro/jadesoft/util/mcgen/Plib/libjt74opal.a(drcmu.o)
 .data          0x082fbd54        0x8 /home/pcl2483/pedro/jadesoft/util/mcgen/Plib/libjt74opal.a(dwluph.o)
 .data          0x082fbd5c       0x20 /home/pcl2483/pedro/jadesoft/util/mcgen/Plib/libjt74opal.a(rotor2.o)
 .data          0x082fbd7c       0x1c /home/pcl2483/pedro/jadesoft/util/mcgen/Plib/libjt74opal.a(rotor3.o)
 *fill*         0x082fbd98        0x8 00
 .data          0x082fbda0      0x21a /home/pcl2483/pedro/jadesoft/util/mcgen/Plib/libjt74opal.a(sigee.o)
 *fill*         0x082fbfba        0x2 00
 .data          0x082fbfbc       0x18 /home/pcl2483/pedro/jadesoft/util/mcgen/Plib/libjt74opal.a(sphera.o)
 *fill*         0x082fbfd4        0x4 00
 .data          0x082fbfd8       0x24 /home/pcl2483/pedro/jadesoft/util/mcgen/Plib/libjt74opal.a(spherd.o)
 *fill*         0x082fbffc        0x4 00
 .data          0x082fc000       0x48 /home/pcl2483/pedro/jadesoft/util/mcgen/Plib/libjt74opal.a(bostd3.o)
 .data          0x082fc048       0x24 /home/pcl2483/pedro/jadesoft/util/mcgen/Plib/libjt74opal.a(bostr3.o)
 .data          0x082fc06c       0x2c /home/pcl2483/pedro/jadesoft/util/mcgen/Plib/libjt74opal.a(bwigs.o)
 .data          0x082fc098       0x1c /home/pcl2483/pedro/jadesoft/util/mcgen/Plib/libjt74opal.a(choice.o)
 *fill*         0x082fc0b4        0xc 00
 .data          0x082fc0c0      0x3c9 /home/pcl2483/pedro/jadesoft/util/mcgen/Plib/libjt74opal.a(dadmaa.o)
 *fill*         0x082fc489       0x17 00
 .data          0x082fc4a0       0x74 /home/pcl2483/pedro/jadesoft/util/mcgen/Plib/libjt74opal.a(dam4pi.o)
 *fill*         0x082fc514        0xc 00
 .data          0x082fc520       0xdc /home/pcl2483/pedro/jadesoft/util/mcgen/Plib/libjt74opal.a(dampog.o)
 *fill*         0x082fc5fc        0x4 00
 .data          0x082fc600      0x224 /home/pcl2483/pedro/jadesoft/util/mcgen/Plib/libjt74opal.a(damppk.o)
 *fill*         0x082fc824        0x4 00
 .data          0x082fc828        0x8 /home/pcl2483/pedro/jadesoft/util/mcgen/Plib/libjt74opal.a(dampry.o)
 .data          0x082fc830       0x18 /home/pcl2483/pedro/jadesoft/util/mcgen/Plib/libjt74opal.a(dcdmas.o)
 .data          0x082fc848       0x1c /home/pcl2483/pedro/jadesoft/util/mcgen/Plib/libjt74opal.a(dphsaa.o)
 .data          0x082fc864       0x18 /home/pcl2483/pedro/jadesoft/util/mcgen/Plib/libjt74opal.a(form1.o)
 .data          0x082fc87c       0x18 /home/pcl2483/pedro/jadesoft/util/mcgen/Plib/libjt74opal.a(form2.o)
 .data          0x082fc894       0x48 /home/pcl2483/pedro/jadesoft/util/mcgen/Plib/libjt74opal.a(form4.o)
 .data          0x082fc8dc       0x10 /home/pcl2483/pedro/jadesoft/util/mcgen/Plib/libjt74opal.a(form5.o)
 .data          0x082fc8ec       0x34 /home/pcl2483/pedro/jadesoft/util/mcgen/Plib/libjt74opal.a(formom.o)
 .data          0x082fc920       0x24 /home/pcl2483/pedro/jadesoft/util/mcgen/Plib/libjt74opal.a(fpik.o)
 .data          0x082fc944       0x28 /home/pcl2483/pedro/jadesoft/util/mcgen/Plib/libjt74opal.a(fpikm.o)
 .data          0x082fc96c       0x34 /home/pcl2483/pedro/jadesoft/util/mcgen/Plib/libjt74opal.a(fpikmd.o)
 .data          0x082fc9a0       0x20 /home/pcl2483/pedro/jadesoft/util/mcgen/Plib/libjt74opal.a(prod5.o)
 .data          0x082fc9c0       0x3c /home/pcl2483/pedro/jadesoft/util/mcgen/Plib/libjt74opal.a(rotod2.o)
 *fill*         0x082fc9fc        0x4 00
 .data          0x082fca00       0x3c /home/pcl2483/pedro/jadesoft/util/mcgen/Plib/libjt74opal.a(rotod3.o)
 *fill*         0x082fca3c        0x4 00
 .data          0x082fca40      0x130 /home/pcl2483/pedro/jadesoft/util/mcgen/Plib/libjt74opal.a(sqm2.o)
 *fill*         0x082fcb70       0x10 00
 .data          0x082fcb80      0x1dc /home/pcl2483/pedro/jadesoft/util/mcgen/Plib/libjt74opal.a(thb.o)
 .data          0x082fcd5c        0x8 /home/pcl2483/pedro/jadesoft/util/mcgen/Plib/libjt74opal.a(wigfor.o)
 .data          0x082fcd64       0x1c /home/pcl2483/pedro/jadesoft/util/mcgen/Plib/libjt74opal.a(bwig.o)
 .data          0x082fcd80       0x18 /home/pcl2483/pedro/jadesoft/util/mcgen/Plib/libjt74opal.a(bwigm.o)
 *fill*         0x082fcd98        0x8 00
 .data          0x082fcda0       0x40 /home/pcl2483/pedro/jadesoft/util/mcgen/Plib/libjt74opal.a(claxi.o)
 .data          0x082fcde0       0x10 /home/pcl2483/pedro/jadesoft/util/mcgen/Plib/libjt74opal.a(clnut.o)
 .data          0x082fcdf0       0x10 /home/pcl2483/pedro/jadesoft/util/mcgen/Plib/libjt74opal.a(clvec.o)
 .data          0x082fce00      0x174 /home/pcl2483/pedro/jadesoft/util/mcgen/Plib/libjt74opal.a(curr.o)
 *fill*         0x082fcf74        0x4 00
 .data          0x082fcf78       0x30 /home/pcl2483/pedro/jadesoft/util/mcgen/Plib/libjt74opal.a(dilog.o)
 *fill*         0x082fcfa8       0x18 00
 .data          0x082fcfc0    0x5cf90 /home/pcl2483/pedro/jadesoft/util/mcgen/Plib/libckern105.a(ckern.o)
 *fill*         0x08359f50       0x10 00
 .data          0x08359f60     0x1f94 /home/pcl2483/pedro/jadesoft/util/mcgen/Plib/libckern105.a(cksord.o)
 .data          0x0835bef4       0x5c /home/pcl2483/pedro/jadesoft/util/mcgen/Plib/libckern105.a(cnjet.o)
 .data          0x0835bf50       0x38 /home/pcl2483/pedro/jadesoft/util/mcgen/Plib/libpx114.a(pxang3.o)
 .data          0x0835bf88       0x20 /home/pcl2483/pedro/jadesoft/util/mcgen/Plib/libpx114.a(pxanxy.o)
 *fill*         0x0835bfa8       0x18 00
 .data          0x0835bfc0    0x155e0 /home/pcl2483/pedro/jadesoft/util/mcgen/Plib/libpx114.a(pxcone.o)
 .data          0x083715a0        0x4 /home/pcl2483/pedro/jadesoft/util/mcgen/Plib/libpx114.a(pxcopv.o)
 *fill*         0x083715a4       0x1c 00
 .data          0x083715c0      0x408 /home/pcl2483/pedro/jadesoft/util/mcgen/Plib/libpx114.a(pxjpdg.o)
 *fill*         0x083719c8       0x18 00
 .data          0x083719e0      0x6d4 /home/pcl2483/pedro/jadesoft/util/mcgen/Plib/libpx114.a(pxjsp3.o)
 *fill*         0x083720b4        0xc 00
 .data          0x083720c0      0x24c /home/pcl2483/pedro/jadesoft/util/mcgen/Plib/libpx114.a(pxlsp3.o)
 *fill*         0x0837230c       0x14 00
 .data          0x08372320     0x4e88 /home/pcl2483/pedro/jadesoft/util/mcgen/Plib/libpx114.a(pxlth4.o)
 *fill*         0x083771a8       0x18 00
 .data          0x083771c0       0xe0 /home/pcl2483/pedro/jadesoft/util/mcgen/Plib/libpx114.a(pxlut3.o)
 .data          0x083772a0       0x10 /home/pcl2483/pedro/jadesoft/util/mcgen/Plib/libpx114.a(pxlzf5.o)
 *fill*         0x083772b0       0x10 00
 .data          0x083772c0       0x70 /home/pcl2483/pedro/jadesoft/util/mcgen/Plib/libpx114.a(pxmmbb.o)
 .data          0x08377330       0x18 /home/pcl2483/pedro/jadesoft/util/mcgen/Plib/libpx114.a(pxnorv.o)
 *fill*         0x08377348       0x18 00
 .data          0x08377360      0x1d8 /home/pcl2483/pedro/jadesoft/util/mcgen/Plib/libpx114.a(pxolap.o)
 *fill*         0x08377538        0x8 00
 .data          0x08377540    0x14220 /home/pcl2483/pedro/jadesoft/util/mcgen/Plib/libpx114.a(pxord.o)
 .data          0x0838b760       0x40 /home/pcl2483/pedro/jadesoft/util/mcgen/Plib/libpx114.a(pxplt3.o)
 .data          0x0838b7a0        0x4 /home/pcl2483/pedro/jadesoft/util/mcgen/Plib/libpx114.a(pxplu3.o)
 *fill*         0x0838b7a4       0x1c 00
 .data          0x0838b7c0       0x88 /home/pcl2483/pedro/jadesoft/util/mcgen/Plib/libpx114.a(pxprcv.o)
 .data          0x0838b848       0x64 /home/pcl2483/pedro/jadesoft/util/mcgen/Plib/libpx114.a(pxprrv.o)
 *fill*         0x0838b8ac        0x4 00
 .data          0x0838b8b0       0x38 /home/pcl2483/pedro/jadesoft/util/mcgen/Plib/libpx114.a(pxrap4.o)
 .data          0x0838b8e8       0x34 /home/pcl2483/pedro/jadesoft/util/mcgen/Plib/libpx114.a(pxrmx3.o)
 *fill*         0x0838b91c        0x4 00
 .data          0x0838b920       0x18 /home/pcl2483/pedro/jadesoft/util/mcgen/Plib/libpx114.a(pxrob3.o)
 .data          0x0838b938       0x18 /home/pcl2483/pedro/jadesoft/util/mcgen/Plib/libpx114.a(pxrof3.o)
 *fill*         0x0838b950       0x10 00
 .data          0x0838b960      0x69c /home/pcl2483/pedro/jadesoft/util/mcgen/Plib/libpx114.a(pxsear.o)
 *fill*         0x0838bffc        0x4 00
 .data          0x0838c000     0x17c4 /home/pcl2483/pedro/jadesoft/util/mcgen/Plib/libpx114.a(pxsorv.o)
 .data          0x0838d7c4       0x14 /home/pcl2483/pedro/jadesoft/util/mcgen/Plib/libpx114.a(pxtry.o)
 .data          0x0838d7d8       0x20 /home/pcl2483/pedro/jadesoft/util/mcgen/Plib/libpx114.a(pxuvec.o)
 .data          0x0838d7f8        0x4 /home/pcl2483/pedro/jadesoft/util/mcgen/Plib/libpx114.a(pxzerv.o)
 *fill*         0x0838d7fc        0x4 00
 .data          0x0838d800    0xf7c99 /home/pcl2483/pedro/jadesoft/util/mcgen/Plib/libpx114.a(ykern.o)
 *fill*         0x08485499        0x7 00
 .data          0x084854a0       0xb2 /home/pcl2483/pedro/jadesoft/util/mcgen/Plib/libpx114.a(ynjet.o)
 *fill*         0x08485552        0xe 00
 .data          0x08485560      0x128 /home/pcl2483/pedro/jadesoft/util/mcgen/Plib/libpx114.a(yyjet.o)
 .data          0x08485688       0x10 /home/pcl2483/pedro/jadesoft/util/mcgen/Plib/libpx114.a(pxaddv.o)
 .data          0x08485698       0xb0 /home/pcl2483/pedro/jadesoft/util/mcgen/Plib/libpx114.a(pxdiam.o)
 .data          0x08485748        0xc /home/pcl2483/pedro/jadesoft/util/mcgen/Plib/libpx114.a(pxmulm.o)
 .data          0x08485754        0xc /home/pcl2483/pedro/jadesoft/util/mcgen/Plib/libpx114.a(pxnew.o)
 .data          0x08485760        0x4 /home/pcl2483/pedro/jadesoft/util/mcgen/Plib/libpx114.a(pxsame.o)
 .data          0x08485764        0x8 /home/pcl2483/pedro/jadesoft/util/mcgen/Plib/libpx114.a(pxunim.o)
 *fill*         0x0848576c       0x14 00
 .data          0x08485780      0x661 /cern/99/lib/libpacklib.a(ffgo.o)
 *fill*         0x08485de1       0x1f 00
 .data          0x08485e00       0x5f /cern/99/lib/libpacklib.a(ffinit.o)
 *fill*         0x08485e5f        0x1 00
 .data          0x08485e60       0xf9 /cern/99/lib/libpacklib.a(ffkey.o)
 *fill*         0x08485f59        0x7 00
 .data          0x08485f60      0x1d8 /cern/99/lib/libpacklib.a(ffset.o)
 .data          0x08486138        0xc /cern/99/lib/libpacklib.a(hrput.o)
 .data          0x08486144       0x2f /cern/99/lib/libpacklib.a(hbug.o)
 *fill*         0x08486173        0xd 00
 .data          0x08486180      0x100 /cern/99/lib/libpacklib.a(hcdir.o)
 .data          0x08486280      0x102 /cern/99/lib/libpacklib.a(hidopt.o)
 *fill*         0x08486382        0x2 00
 *fill*         0x08486384       0x1c 00
 .data          0x084863a0       0xac /cern/99/lib/libpacklib.a(hmachi.o)
 *fill*         0x0848644c       0x14 00
 .data          0x08486460       0x41 /cern/99/lib/libpacklib.a(hpath.o)
 *fill*         0x084864a1        0x3 00
 .data          0x084864a4       0x2c /cern/99/lib/libpacklib.a(hlogpf.o)
 .data          0x084864d0       0x18 /cern/99/lib/libpacklib.a(hoptpf.o)
 .data          0x084864e8       0x18 /cern/99/lib/libpacklib.a(hitoc.o)
 .data          0x08486500      0x19b /cern/99/lib/libpacklib.a(fzin.o)
 *fill*         0x0848669b        0x1 00
 .data          0x0848669c       0x20 /cern/99/lib/libpacklib.a(fzirel.o)
 .data          0x084866bc        0xc /cern/99/lib/libpacklib.a(fzloc.o)
 .data          0x084866c8        0x8 /cern/99/lib/libpacklib.a(mzbook.o)
 *fill*         0x084866d0       0x10 00
 .data          0x084866e0       0x52 /cern/99/lib/libpacklib.a(mzdrop.o)
 *fill*         0x08486732        0x2 00
 .data          0x08486734       0x10 /cern/99/lib/libpacklib.a(mzebra.o)
 .data          0x08486744        0x8 /cern/99/lib/libpacklib.a(mzflag.o)
 *fill*         0x0848674c       0x14 00
 .data          0x08486760       0x6e /cern/99/lib/libpacklib.a(mzlift.o)
 *fill*         0x084867ce       0x12 00
 .data          0x084867e0       0x6c /cern/99/lib/libpacklib.a(mzlink.o)
 *fill*         0x0848684c       0x14 00
 .data          0x08486860       0x59 /cern/99/lib/libpacklib.a(mzneed.o)
 *fill*         0x084868b9        0x3 00
 *fill*         0x084868bc        0x4 00
 .data          0x084868c0       0xc2 /cern/99/lib/libpacklib.a(mzpush.o)
 *fill*         0x08486982       0x1e 00
 .data          0x084869a0      0x201 /cern/99/lib/libpacklib.a(mzstor.o)
 *fill*         0x08486ba1       0x1f 00
 .data          0x08486bc0      0x107 /cern/99/lib/libpacklib.a(mzvers.o)
 *fill*         0x08486cc7       0x19 00
 .data          0x08486ce0      0x101 /cern/99/lib/libpacklib.a(mzgar1.o)
 *fill*         0x08486de1        0x3 00
 .data          0x08486de4        0x8 /cern/99/lib/libpacklib.a(mzmove.o)
 .data          0x08486dec        0x8 /cern/99/lib/libpacklib.a(mzrelb.o)
 .data          0x08486df4        0x8 /cern/99/lib/libpacklib.a(mzrell.o)
 .data          0x08486dfc        0x8 /cern/99/lib/libpacklib.a(mzrelx.o)
 .data          0x08486e04        0x8 /cern/99/lib/libpacklib.a(mztabf.o)
 .data          0x08486e0c        0x8 /cern/99/lib/libpacklib.a(mztabm.o)
 *fill*         0x08486e14        0xc 00
 .data          0x08486e20       0x6a /cern/99/lib/libpacklib.a(mztabr.o)
 *fill*         0x08486e8a        0x2 00
 .data          0x08486e8c        0x8 /cern/99/lib/libpacklib.a(mzchnb.o)
 .data          0x08486e94       0x44 /cern/99/lib/libpacklib.a(mzform.o)
 *fill*         0x08486ed8        0x8 00
 .data          0x08486ee0      0x1d0 /cern/99/lib/libpacklib.a(mzioch.o)
 .data          0x084870b0        0x8 /cern/99/lib/libpacklib.a(mzsdiv.o)
 *fill*         0x084870b8        0x8 00
 .data          0x084870c0      0x36c /cern/99/lib/libpacklib.a(zfatal.o)
 *fill*         0x0848742c       0x14 00
 .data          0x08487440       0x70 /cern/99/lib/libpacklib.a(zfatam.o)
 *fill*         0x084874b0       0x10 00
 .data          0x084874c0       0x72 /cern/99/lib/libpacklib.a(ztell.o)
 *fill*         0x08487532        0x2 00
 *fill*         0x08487534        0xc 00
 .data          0x08487540       0x6b /cern/99/lib/libpacklib.a(zshunt.o)
 *fill*         0x084875ab       0x15 00
 .data          0x084875c0       0x43 /cern/99/lib/libpacklib.a(rzcdir.o)
 *fill*         0x08487603        0x1 00
 *fill*         0x08487604       0x1c 00
 .data          0x08487620       0x83 /cern/99/lib/libpacklib.a(rzfdir.o)
 *fill*         0x084876a3       0x1d 00
 .data          0x084876c0       0x7c /cern/99/lib/libpacklib.a(rziodo.o)
 *fill*         0x0848773c        0x4 00
 .data          0x08487740       0x44 /cern/99/lib/libpacklib.a(rzstrir.o)
 .data          0x08487784        0x4 /cern/99/lib/libpacklib.a(qnexte.o)
 .data          0x08487788        0x4 /cern/99/lib/libpacklib.a(lenocc.o)
 .data          0x0848778c        0x8 /cern/99/lib/libpacklib.a(ublow.o)
 .data          0x08487794        0x8 /cern/99/lib/libpacklib.a(ubunch.o)
 .data          0x0848779c        0x4 /cern/99/lib/libpacklib.a(vblank.o)
 .data          0x084877a0       0x14 /cern/99/lib/libpacklib.a(ffcard.o)
 .data          0x084877b4        0x4 /cern/99/lib/libpacklib.a(hbpqry.o)
 .data          0x084877b8        0xc /cern/99/lib/libpacklib.a(hropen.o)
 .data          0x084877c4       0x2d /cern/99/lib/libpacklib.a(hrzout.o)
 *fill*         0x084877f1        0x3 00
 *fill*         0x084877f4        0xc 00
 .data          0x08487800      0x301 /cern/99/lib/libpacklib.a(fzidia.o)
 *fill*         0x08487b01       0x1f 00
 .data          0x08487b20      0x30a /cern/99/lib/libpacklib.a(fziffn.o)
 *fill*         0x08487e2a       0x16 00
 .data          0x08487e40      0x2cc /cern/99/lib/libpacklib.a(fziffx.o)
 *fill*         0x0848810c       0x14 00
 .data          0x08488120      0x15f /cern/99/lib/libpacklib.a(fzimtb.o)
 *fill*         0x0848827f        0x1 00
 .data          0x08488280      0x22d /cern/99/lib/libpacklib.a(fzirec.o)
 *fill*         0x084884ad        0x3 00
 .data          0x084884b0        0x8 /cern/99/lib/libpacklib.a(fzitrn.o)
 *fill*         0x084884b8        0x8 00
 .data          0x084884c0      0x324 /cern/99/lib/libpacklib.a(fzout.o)
 *fill*         0x084887e4       0x1c 00
 .data          0x08488800       0x58 /cern/99/lib/libpacklib.a(fzitrx.o)
 *fill*         0x08488858        0x8 00
 .data          0x08488860       0x71 /cern/99/lib/libpacklib.a(mzcopy.o)
 *fill*         0x084888d1        0x3 00
 *fill*         0x084888d4        0xc 00
 .data          0x084888e0       0x5e /cern/99/lib/libpacklib.a(mzgarb.o)
 *fill*         0x0848893e        0x2 00
 .data          0x08488940        0x8 /cern/99/lib/libpacklib.a(mztabc.o)
 .data          0x08488948        0x8 /cern/99/lib/libpacklib.a(mztabh.o)
 .data          0x08488950        0x8 /cern/99/lib/libpacklib.a(mzdvac.o)
 .data          0x08488958       0x3c /cern/99/lib/libpacklib.a(mziocr.o)
 .data          0x08488994        0x8 /cern/99/lib/libpacklib.a(mzixco.o)
 *fill*         0x0848899c        0x4 00
 .data          0x084889a0      0x146 /cern/99/lib/libpacklib.a(zphase.o)
 *fill*         0x08488ae6       0x1a 00
 .data          0x08488b00      0x1e8 /cern/99/lib/libpacklib.a(zpostm.o)
 .data          0x08488ce8       0x34 /cern/99/lib/libpacklib.a(rzclos.o)
 *fill*         0x08488d1c        0x4 00
 .data          0x08488d20       0x80 /cern/99/lib/libpacklib.a(rzend.o)
 .data          0x08488da0       0x47 /cern/99/lib/libpacklib.a(rzfree.o)
 *fill*         0x08488de7       0x19 00
 .data          0x08488e00       0x8a /cern/99/lib/libpacklib.a(rzmdir.o)
 *fill*         0x08488e8a       0x16 00
 .data          0x08488ea0       0x76 /cern/99/lib/libpacklib.a(rzmods.o)
 *fill*         0x08488f16        0xa 00
 .data          0x08488f20      0x4b1 /cern/99/lib/libpacklib.a(rzopen.o)
 *fill*         0x084893d1        0xf 00
 .data          0x084893e0      0x354 /cern/99/lib/libpacklib.a(rzout.o)
 *fill*         0x08489734        0xc 00
 .data          0x08489740       0x6c /cern/99/lib/libpacklib.a(rzstrip.o)
 .data          0x084897ac       0x3c /cern/99/lib/libpacklib.a(close.o)
 .data          0x084897e8       0x3c /cern/99/lib/libpacklib.a(error.o)
                0x08489820                rfio_errno
 .data          0x08489824       0x3d /cern/99/lib/libpacklib.a(lseek.o)
 *fill*         0x08489861        0x3 00
 .data          0x08489864       0x3c /cern/99/lib/libpacklib.a(open.o)
 .data          0x084898a0       0x38 /cern/99/lib/libpacklib.a(parse.o)
 .data          0x084898d8       0x40 /cern/99/lib/libpacklib.a(read.o)
 .data          0x08489918       0xbc /cern/99/lib/libpacklib.a(serror.o)
                0x08489950                sys_serrlist
 .data          0x084899d4       0x48 /cern/99/lib/libpacklib.a(setopt.o)
 .data          0x08489a1c       0x64 /cern/99/lib/libpacklib.a(socket.o)
                0x08489a7c                errfunc
                0x08489a6c                recvfunc
                0x08489a78                ioctlfunc
                0x08489a70                sendfunc
                0x08489a74                closefunc
                0x08489a5c                iostats
 .data          0x08489a80       0x3e /cern/99/lib/libpacklib.a(stream.o)
 *fill*         0x08489abe        0x2 00
 .data          0x08489ac0       0x44 /cern/99/lib/libpacklib.a(trace.o)
 .data          0x08489b04       0x3d /cern/99/lib/libpacklib.a(write.o)
 *fill*         0x08489b41        0x3 00
 .data          0x08489b44        0x4 /cern/99/lib/libpacklib.a(cfopei.o)
                0x08489b44                cfopen_perm
 *fill*         0x08489b48       0x18 00
 .data          0x08489b60       0x79 /cern/99/lib/libpacklib.a(gshowf.o)
 *fill*         0x08489bd9        0x3 00
 *fill*         0x08489bdc        0x4 00
 .data          0x08489be0       0x57 /cern/99/lib/libpacklib.a(traceq.o)
 *fill*         0x08489c37        0x1 00
 .data          0x08489c38       0x14 /cern/99/lib/libpacklib.a(xinbf.o)
 .data          0x08489c4c       0x14 /cern/99/lib/libpacklib.a(xinbs.o)
 .data          0x08489c60       0x18 /cern/99/lib/libpacklib.a(halloc.o)
 .data          0x08489c78      0x120 /cern/99/lib/libpacklib.a(dzsnap.o)
 *fill*         0x08489d98        0x8 00
 .data          0x08489da0      0xae8 /cern/99/lib/libpacklib.a(dztext.o)
 .data          0x0848a888       0x14 /cern/99/lib/libpacklib.a(zpage.o)
 *fill*         0x0848a89c        0x4 00
 .data          0x0848a8a0       0x5f /cern/99/lib/libpacklib.a(fzipha.o)
 *fill*         0x0848a8ff        0x1 00
 .data          0x0848a900       0x7c /cern/99/lib/libpacklib.a(fziphd.o)
 *fill*         0x0848a97c        0x4 00
 .data          0x0848a980       0x66 /cern/99/lib/libpacklib.a(fziphm.o)
 *fill*         0x0848a9e6       0x1a 00
 .data          0x0848aa00       0x66 /cern/99/lib/libpacklib.a(fziphr.o)
 *fill*         0x0848aa66       0x1a 00
 .data          0x0848aa80       0x55 /cern/99/lib/libpacklib.a(fziprl.o)
 *fill*         0x0848aad5        0xb 00
 .data          0x0848aae0       0x6f /cern/99/lib/libpacklib.a(fzoffn.o)
 *fill*         0x0848ab4f        0x1 00
 .data          0x0848ab50        0x8 /cern/99/lib/libpacklib.a(fzoffx.o)
 .data          0x0848ab58       0x14 /cern/99/lib/libpacklib.a(fzon1.o)
 .data          0x0848ab6c       0x14 /cern/99/lib/libpacklib.a(fzon2.o)
 .data          0x0848ab80       0x14 /cern/99/lib/libpacklib.a(fzon3.o)
 .data          0x0848ab94       0x14 /cern/99/lib/libpacklib.a(fzon4.o)
 .data          0x0848aba8       0x14 /cern/99/lib/libpacklib.a(fzon5.o)
 .data          0x0848abbc       0x14 /cern/99/lib/libpacklib.a(fzon6.o)
 .data          0x0848abd0        0x8 /cern/99/lib/libpacklib.a(fzorec.o)
 .data          0x0848abd8        0x8 /cern/99/lib/libpacklib.a(fzotab.o)
 .data          0x0848abe0        0x8 /cern/99/lib/libpacklib.a(fzotrn.o)
 *fill*         0x0848abe8       0x18 00
 .data          0x0848ac00       0x58 /cern/99/lib/libpacklib.a(fzotrx.o)
 *fill*         0x0848ac58        0x8 00
 .data          0x0848ac60       0x5d /cern/99/lib/libpacklib.a(mzend.o)
 *fill*         0x0848acbd        0x3 00
 .data          0x0848acc0      0x12e /cern/99/lib/libpacklib.a(mzmaps.o)
 *fill*         0x0848adee        0x2 00
 .data          0x0848adf0        0x8 /cern/99/lib/libpacklib.a(mzmark.o)
 *fill*         0x0848adf8        0x8 00
 .data          0x0848ae00       0x58 /cern/99/lib/libpacklib.a(mzwork.o)
 *fill*         0x0848ae58        0x8 00
 .data          0x0848ae60       0x93 /cern/99/lib/libpacklib.a(rzallo.o)
 *fill*         0x0848aef3        0xd 00
 .data          0x0848af00       0xcb /cern/99/lib/libpacklib.a(rzdelk.o)
 *fill*         0x0848afcb        0x1 00
 *fill*         0x0848afcc       0x14 00
 .data          0x0848afe0       0xe3 /cern/99/lib/libpacklib.a(rzfile.o)
 *fill*         0x0848b0c3       0x1d 00
 .data          0x0848b0e0       0x99 /cern/99/lib/libpacklib.a(rzllok.o)
 *fill*         0x0848b179        0x7 00
 .data          0x0848b180      0x1c8 /cern/99/lib/libpacklib.a(rzlock.o)
 *fill*         0x0848b348       0x18 00
 .data          0x0848b360      0x33c /cern/99/lib/libpacklib.a(rzmake.o)
 .data          0x0848b69c       0x3c /cern/99/lib/libpacklib.a(rzveri.o)
 *fill*         0x0848b6d8        0x8 00
 .data          0x0848b6e0       0x74 /cern/99/lib/libpacklib.a(rzwrt.o)
 .data          0x0848b754       0x37 /cern/99/lib/libpacklib.a(connect.o)
 *fill*         0x0848b78b        0x1 00
 .data          0x0848b78c       0x35 /cern/99/lib/libpacklib.a(getacct.o)
 *fill*         0x0848b7c1        0x3 00
 .data          0x0848b7c4       0x37 /cern/99/lib/libpacklib.a(getacctent.o)
 *fill*         0x0848b7fb        0x1 00
 .data          0x0848b7fc       0x38 /cern/99/lib/libpacklib.a(getconfent.o)
 .data          0x0848b834       0x3e /cern/99/lib/libpacklib.a(getifnam.o)
 *fill*         0x0848b872        0x2 00
 .data          0x0848b874       0x80 /cern/99/lib/libpacklib.a(log.o)
                0x0848b8f0                logfunc
 .data          0x0848b8f4       0x37 /cern/99/lib/libpacklib.a(remote.o)
 *fill*         0x0848b92b        0x1 00
 .data          0x0848b92c       0x3b /cern/99/lib/libpacklib.a(setnetio.o)
 *fill*         0x0848b967        0x1 00
 .data          0x0848b968      0x104 /cern/99/lib/libpacklib.a(dzare1.o)
 .data          0x0848ba6c       0x78 /cern/99/lib/libpacklib.a(dzbkup.o)
 .data          0x0848bae4       0x48 /cern/99/lib/libpacklib.a(dzbkxr.o)
 .data          0x0848bb2c      0x10c /cern/99/lib/libpacklib.a(dzdata.o)
 .data          0x0848bc38       0x48 /cern/99/lib/libpacklib.a(dzmap.o)
 .data          0x0848bc80       0x30 /cern/99/lib/libpacklib.a(dzshpr.o)
 .data          0x0848bcb0       0x14 /cern/99/lib/libpacklib.a(dztyp.o)
 .data          0x0848bcc4       0x20 /cern/99/lib/libpacklib.a(fziasc.o)
 *fill*         0x0848bce4       0x1c 00
 .data          0x0848bd00       0xad /cern/99/lib/libpacklib.a(fzichh.o)
 *fill*         0x0848bdad       0x13 00
 .data          0x0848bdc0       0x78 /cern/99/lib/libpacklib.a(fzidum.o)
 *fill*         0x0848be38        0x8 00
 .data          0x0848be40       0x8f /cern/99/lib/libpacklib.a(fzophr.o)
 *fill*         0x0848becf        0x1 00
 *fill*         0x0848bed0       0x10 00
 .data          0x0848bee0      0x18c /cern/99/lib/libpacklib.a(rzver1.o)
 .data          0x0848c06c       0x37 /cern/99/lib/libpacklib.a(stat.o)
 *fill*         0x0848c0a3        0x1 00
 .data          0x0848c0a4       0x30 /cern/99/lib/libpacklib.a(dzbkhd.o)
 .data          0x0848c0d4       0x18 /cern/99/lib/libpacklib.a(dziopr.o)
 .data          0x0848c0ec       0x2c /cern/99/lib/libpacklib.a(fzialn.o)
 .data          0x0848c118       0x24 /cern/99/lib/libpacklib.a(fzoasc.o)
 *fill*         0x0848c13c        0x4 00
 .data          0x0848c140       0xc4 /cern/99/lib/libpacklib.a(rzprnk.o)
 .data          0x0848c204       0x40 /cern/99/lib/libpacklib.a(mstat.o)
 .data          0x0848c244       0xe4 /cern/99/lib/libpacklib.a(dziopd.o)
 .data          0x0848c328      0x12c /cern/99/lib/libpacklib.a(dzioph.o)
 .data          0x0848c454       0x14 /cern/99/lib/libpacklib.a(fzoaln.o)
 *fill*         0x0848c468       0x18 00
 .data          0x0848c480       0x6a /cern/99/lib/libmathlib.a(xerbla.o)
 *fill*         0x0848c4ea        0x2 00
 *fill*         0x0848c4ec       0x14 00
 .data          0x0848c500      0x13f /cern/99/lib/libmathlib.a(dlamch.o)
 *fill*         0x0848c63f        0x1 00
 .data          0x0848c640        0x4 /cern/99/lib/libmathlib.a(dlartg.o)
 .data          0x0848c644       0x88 /usr/lib/gcc-lib/i686-pc-linux-gnu/2.95.3/libg2c.a(err.o)
                0x0848c644                F_err
 *fill*         0x0848c6cc       0x14 00
 .data          0x0848c6e0       0xa0 /usr/lib/gcc-lib/i686-pc-linux-gnu/2.95.3/libg2c.a(lread.o)
                0x0848c6e0                f__ltab
 .data          0x0848c780       0x20 /usr/lib/gcc-lib/i686-pc-linux-gnu/2.95.3/libg2c.a(open.o)
                0x0848c79c                f__buflen
                0x0848c788                f__w_mode
                0x0848c780                f__r_mode
 .data          0x0848c7a0        0x4 /usr/lib/gcc-lib/i686-pc-linux-gnu/2.95.3/libg2c.a(rdfmt.o)
 .data          0x0848c7a4       0x18 /usr/lib/gcc-lib/i686-pc-linux-gnu/2.95.3/libg2c.a(wrtfmt.o)
 .data          0x0848c7bc        0x4 /usr/lib/gcc-lib/i686-pc-linux-gnu/2.95.3/libg2c.a(F77_aloc.o)

.data1
 *(.data1)

.tdata
 *(.tdata .tdata.* .gnu.linkonce.td.*)

.tbss
 *(.tbss .tbss.* .gnu.linkonce.tb.*)
 *(.tcommon)

.eh_frame       0x0848c7c0        0x4
 *(.eh_frame)
 .eh_frame      0x0848c7c0        0x4 /usr/lib/gcc-lib/i686-pc-linux-gnu/2.95.3/crtend.o

.gcc_except_table
 *(.gcc_except_table)

.dynamic        0x0848c7c4       0xd8
 *(.dynamic)
 .dynamic       0x0848c7c4       0xd8 /usr/lib/crt1.o
                0x0848c7c4                _DYNAMIC

.ctors          0x0848c89c        0x8
 *crtbegin.o(.ctors)
 *(EXCLUDE_FILE(*crtend.o) .ctors)
 .ctors         0x0848c89c        0x4 /usr/lib/gcc-lib/i686-pc-linux-gnu/2.95.3/crtbegin.o
 *(SORT(.ctors.*))
 *(.ctors)
 .ctors         0x0848c8a0        0x4 /usr/lib/gcc-lib/i686-pc-linux-gnu/2.95.3/crtend.o

.dtors          0x0848c8a4        0x8
 *crtbegin.o(.dtors)
 *(EXCLUDE_FILE(*crtend.o) .dtors)
 .dtors         0x0848c8a4        0x4 /usr/lib/gcc-lib/i686-pc-linux-gnu/2.95.3/crtbegin.o
 *(SORT(.dtors.*))
 *(.dtors)
 .dtors         0x0848c8a8        0x4 /usr/lib/gcc-lib/i686-pc-linux-gnu/2.95.3/crtend.o

.jcr
 *(.jcr)

.got            0x0848c8ac      0x1ec
 *(.got.plt)
 .got.plt       0x0848c8ac      0x1e4 /usr/lib/crt1.o
                0x0848c8ac                _GLOBAL_OFFSET_TABLE_
 *(.got)
 .got           0x0848ca90        0x8 /usr/lib/crt1.o
                0x0848ca98                _edata = .
                0x0848ca98                PROVIDE (edata, .)
                0x0848ca98                __bss_start = .

.bss            0x0848caa0   0x1aa3a4
 *(.dynbss)
 .dynbss        0x0848caa0      0x2ac /usr/lib/crt1.o
                0x0848caa0                _IO_stderr_@@GLIBC_2.0
                0x0848caf0                _IO_stdout_@@GLIBC_2.0
                0x0848cb40                _errno@@GLIBC_2.0
                0x0848cb44                stdout@@GLIBC_2.0
                0x0848cb48                stderr@@GLIBC_2.0
                0x0848cb4c                sys_nerr@@GLIBC_2.1
                0x0848cb40                errno@@GLIBC_2.0
                0x0848cb50                sys_errlist@@GLIBC_2.1
                0x0848cd44                __ctype_b@@GLIBC_2.0
                0x0848cd48                stdin@@GLIBC_2.0
 *(.bss .bss.* .gnu.linkonce.b.*)
 .bss           0x0848cd4c       0x18 /usr/lib/gcc-lib/i686-pc-linux-gnu/2.95.3/crtbegin.o
 *fill*         0x0848cd64       0x1c 00
 .bss           0x0848cd80      0x4b0 /cern/99/lib/libpacklib.a(ffgo.o)
 *fill*         0x0848d230       0x10 00
 .bss           0x0848d240       0x30 /cern/99/lib/libpacklib.a(ffkey.o)
 .bss           0x0848d270        0x8 /cern/99/lib/libpacklib.a(ffset.o)
 .bss           0x0848d278        0x4 /cern/99/lib/libpacklib.a(ffskip.o)
 .bss           0x0848d27c        0x8 /cern/99/lib/libpacklib.a(ffupca.o)
 *fill*         0x0848d284       0x1c 00
 .bss           0x0848d2a0      0x120 /cern/99/lib/libpacklib.a(hrput.o)
 .bss           0x0848d3c0       0x44 /cern/99/lib/libpacklib.a(hbook1.o)
 .bss           0x0848d404       0x4c /cern/99/lib/libpacklib.a(hbook2.o)
 .bss           0x0848d450       0x38 /cern/99/lib/libpacklib.a(hbookb.o)
 .bss           0x0848d488        0x8 /cern/99/lib/libpacklib.a(hbug.o)
 *fill*         0x0848d490       0x10 00
 .bss           0x0848d4a0       0xa8 /cern/99/lib/libpacklib.a(hcdir.o)
 .bss           0x0848d548       0x14 /cern/99/lib/libpacklib.a(hchnam.o)
 .bss           0x0848d55c       0x10 /cern/99/lib/libpacklib.a(hdelet.o)
 .bss           0x0848d56c        0x4 /cern/99/lib/libpacklib.a(hfill.o)
 .bss           0x0848d570       0x28 /cern/99/lib/libpacklib.a(hfilpf.o)
 .bss           0x0848d598       0x14 /cern/99/lib/libpacklib.a(hgive.o)
 *fill*         0x0848d5ac       0x14 00
 .bss           0x0848d5c0       0x88 /cern/99/lib/libpacklib.a(hidopt.o)
 .bss           0x0848d648        0x4 /cern/99/lib/libpacklib.a(hlimit.o)
 .bss           0x0848d64c        0x4 /cern/99/lib/libpacklib.a(hloop.o)
 .bss           0x0848d650       0x20 /cern/99/lib/libpacklib.a(hmachi.o)
 .bss           0x0848d670        0x4 /cern/99/lib/libpacklib.a(hnoent.o)
 .bss           0x0848d674       0x94 /cern/99/lib/libpacklib.a(hopera.o)
 .bss           0x0848d708       0x20 /cern/99/lib/libpacklib.a(hpaff.o)
 .bss           0x0848d728       0x18 /cern/99/lib/libpacklib.a(hpak.o)
 .bss           0x0848d740        0xc /cern/99/lib/libpacklib.a(hpake.o)
 .bss           0x0848d74c       0x14 /cern/99/lib/libpacklib.a(hpath.o)
 .bss           0x0848d760       0x78 /cern/99/lib/libpacklib.a(hrebin.o)
 *fill*         0x0848d7d8        0x8 00
 .bss           0x0848d7e0       0x84 /cern/99/lib/libpacklib.a(hreset.o)
 .bss           0x0848d864        0x8 /cern/99/lib/libpacklib.a(hrez0.o)
 .bss           0x0848d86c        0x4 /cern/99/lib/libpacklib.a(hstaf.o)
 .bss           0x0848d870       0x68 /cern/99/lib/libpacklib.a(hsupis.o)
 .bss           0x0848d8d8        0xc /cern/99/lib/libpacklib.a(huoptc.o)
 *fill*         0x0848d8e4       0x1c 00
 .bss           0x0848d900      0x208 /cern/99/lib/libpacklib.a(hlogpf.o)
 .bss           0x0848db08        0x8 /cern/99/lib/libpacklib.a(hoptpf.o)
 *fill*         0x0848db10       0x10 00
 .bss           0x0848db20       0x2c /cern/99/lib/libpacklib.a(hitoc.o)
 *fill*         0x0848db4c       0x14 00
 .bss           0x0848db60       0x6c /cern/99/lib/libpacklib.a(hntrset.o)
 .bss           0x0848dbcc       0x34 /cern/99/lib/libpacklib.a(fzin.o)
 .bss           0x0848dc00       0x24 /cern/99/lib/libpacklib.a(fzirel.o)
 .bss           0x0848dc24       0x1c /cern/99/lib/libpacklib.a(fzloc.o)
 .bss           0x0848dc40       0x14 /cern/99/lib/libpacklib.a(mzbook.o)
 .bss           0x0848dc54       0x20 /cern/99/lib/libpacklib.a(mzdrop.o)
 .bss           0x0848dc74       0x3c /cern/99/lib/libpacklib.a(mzflag.o)
 .bss           0x0848dcb0       0x20 /cern/99/lib/libpacklib.a(mzinco.o)
 .bss           0x0848dcd0       0x60 /cern/99/lib/libpacklib.a(mzlift.o)
 .bss           0x0848dd30       0x74 /cern/99/lib/libpacklib.a(mzlink.o)
 .bss           0x0848dda4       0x14 /cern/99/lib/libpacklib.a(mzneed.o)
 .bss           0x0848ddb8        0x4 /cern/99/lib/libpacklib.a(mzpaw.o)
 .bss           0x0848ddbc       0x78 /cern/99/lib/libpacklib.a(mzpush.o)
 .bss           0x0848de34       0x6c /cern/99/lib/libpacklib.a(mzstor.o)
 .bss           0x0848dea0       0x1c /cern/99/lib/libpacklib.a(mzgar1.o)
 .bss           0x0848debc        0xc /cern/99/lib/libpacklib.a(mzgsta.o)
 .bss           0x0848dec8       0x44 /cern/99/lib/libpacklib.a(mzmove.o)
 .bss           0x0848df0c       0x68 /cern/99/lib/libpacklib.a(mzrelb.o)
 .bss           0x0848df74       0x60 /cern/99/lib/libpacklib.a(mzrell.o)
 .bss           0x0848dfd4        0x4 /cern/99/lib/libpacklib.a(mzrelx.o)
 .bss           0x0848dfd8       0x50 /cern/99/lib/libpacklib.a(mztabf.o)
 .bss           0x0848e028       0x14 /cern/99/lib/libpacklib.a(mztabm.o)
 .bss           0x0848e03c       0x14 /cern/99/lib/libpacklib.a(mztabr.o)
 .bss           0x0848e050       0x10 /cern/99/lib/libpacklib.a(mztabs.o)
 .bss           0x0848e060       0x20 /cern/99/lib/libpacklib.a(mztabx.o)
 .bss           0x0848e080       0x1c /cern/99/lib/libpacklib.a(mzchln.o)
 .bss           0x0848e09c       0x14 /cern/99/lib/libpacklib.a(mzchls.o)
 .bss           0x0848e0b0        0x4 /cern/99/lib/libpacklib.a(mzchnb.o)
 .bss           0x0848e0b4       0x18 /cern/99/lib/libpacklib.a(mzfdiv.o)
 .bss           0x0848e0cc       0x40 /cern/99/lib/libpacklib.a(mzform.o)
 .bss           0x0848e10c       0x70 /cern/99/lib/libpacklib.a(mzioch.o)
 .bss           0x0848e17c       0x10 /cern/99/lib/libpacklib.a(mzresv.o)
 .bss           0x0848e18c       0x24 /cern/99/lib/libpacklib.a(mzsdiv.o)
 .bss           0x0848e1b0       0x18 /cern/99/lib/libpacklib.a(zfatal.o)
 .bss           0x0848e1c8        0xc /cern/99/lib/libpacklib.a(ztell.o)
 .bss           0x0848e1d4       0x20 /cern/99/lib/libpacklib.a(izbcdt.o)
 .bss           0x0848e1f4        0xc /cern/99/lib/libpacklib.a(izhnum.o)
 .bss           0x0848e200       0x3c /cern/99/lib/libpacklib.a(zshunt.o)
 .bss           0x0848e23c       0x50 /cern/99/lib/libpacklib.a(rzcdir.o)
 .bss           0x0848e28c       0x38 /cern/99/lib/libpacklib.a(rzdate.o)
 .bss           0x0848e2c4       0x64 /cern/99/lib/libpacklib.a(rzfdir.o)
 .bss           0x0848e328       0x24 /cern/99/lib/libpacklib.a(rziodo.o)
 *fill*         0x0848e34c       0x14 00
 .bss           0x0848e360      0x120 /cern/99/lib/libpacklib.a(rzpaff.o)
 .bss           0x0848e480       0x18 /cern/99/lib/libpacklib.a(rzpath.o)
 .bss           0x0848e498       0x38 /cern/99/lib/libpacklib.a(rzrtop.o)
 .bss           0x0848e4d0        0x4 /cern/99/lib/libpacklib.a(rzsame.o)
 .bss           0x0848e4d4       0x5c /cern/99/lib/libpacklib.a(rzsave.o)
 .bss           0x0848e530       0x1c /cern/99/lib/libpacklib.a(rzstrir.o)
 .bss           0x0848e54c        0x4 /cern/99/lib/libpacklib.a(jumpxn.o)
 *fill*         0x0848e550       0x10 00
 .bss           0x0848e560       0x9c /cern/99/lib/libpacklib.a(qnexte.o)
 .bss           0x0848e5fc       0x18 /cern/99/lib/libpacklib.a(cfopen.o)
 .bss           0x0848e614       0x10 /cern/99/lib/libpacklib.a(cleft.o)
 .bss           0x0848e624        0x8 /cern/99/lib/libpacklib.a(cltou.o)
 .bss           0x0848e62c        0x8 /cern/99/lib/libpacklib.a(cutol.o)
 .bss           0x0848e634       0x14 /cern/99/lib/libpacklib.a(floarg.o)
 .bss           0x0848e648       0x14 /cern/99/lib/libpacklib.a(intarg.o)
 .bss           0x0848e65c        0x8 /cern/99/lib/libpacklib.a(uoptc.o)
 .bss           0x0848e664       0x1c /cern/99/lib/libpacklib.a(utrans.o)
 .bss           0x0848e680        0x4 /cern/99/lib/libpacklib.a(iucomp.o)
 .bss           0x0848e684        0x8 /cern/99/lib/libpacklib.a(sbit0.o)
 .bss           0x0848e68c        0x8 /cern/99/lib/libpacklib.a(sbit1.o)
 .bss           0x0848e694       0x18 /cern/99/lib/libpacklib.a(ublow.o)
 .bss           0x0848e6ac       0x18 /cern/99/lib/libpacklib.a(ubunch.o)
 .bss           0x0848e6c4        0x4 /cern/99/lib/libpacklib.a(ucopy.o)
 .bss           0x0848e6c8       0x14 /cern/99/lib/libpacklib.a(uctoh.o)
 .bss           0x0848e6dc        0x8 /cern/99/lib/libpacklib.a(uctoh1.o)
 .bss           0x0848e6e4       0x14 /cern/99/lib/libpacklib.a(uhtoc.o)
 .bss           0x0848e6f8        0x4 /cern/99/lib/libpacklib.a(vblank.o)
 .bss           0x0848e6fc        0x4 /cern/99/lib/libpacklib.a(vfill.o)
 .bss           0x0848e700        0x4 /cern/99/lib/libpacklib.a(vzero.o)
 .bss           0x0848e704        0x8 /cern/99/lib/libpacklib.a(jbit.o)
 .bss           0x0848e70c        0x4 /cern/99/lib/libpacklib.a(jbyt.o)
 .bss           0x0848e710        0x8 /cern/99/lib/libpacklib.a(sbyt.o)
 .bss           0x0848e718        0xc /cern/99/lib/libpacklib.a(locati.o)
 *fill*         0x0848e724       0x1c 00
 .bss           0x0848e740       0xac /cern/99/lib/libpacklib.a(czgeta.o)
 *fill*         0x0848e7ec       0x14 00
 .bss           0x0848e800       0xac /cern/99/lib/libpacklib.a(czputa.o)
 .bss           0x0848e8ac       0x44 /cern/99/lib/libpacklib.a(ffcard.o)
 *fill*         0x0848e8f0       0x10 00
 .bss           0x0848e900       0x44 /cern/99/lib/libpacklib.a(fffind.o)
 *fill*         0x0848e944        0x4 00
 .bss           0x0848e948       0x30 /cern/99/lib/libpacklib.a(hqputf.o)
 .bss           0x0848e978        0xc /cern/99/lib/libpacklib.a(hrendc.o)
 .bss           0x0848e984       0x18 /cern/99/lib/libpacklib.a(hropen.o)
 *fill*         0x0848e99c        0x4 00
 .bss           0x0848e9a0      0x228 /cern/99/lib/libpacklib.a(hrout.o)
 *fill*         0x0848ebc8       0x18 00
 .bss           0x0848ebe0      0x198 /cern/99/lib/libpacklib.a(hrzout.o)
 .bss           0x0848ed78       0x24 /cern/99/lib/libpacklib.a(hbar2.o)
 .bss           0x0848ed9c       0x1c /cern/99/lib/libpacklib.a(hbarx.o)
 .bss           0x0848edb8       0x1c /cern/99/lib/libpacklib.a(hbary.o)
 .bss           0x0848edd4       0x28 /cern/99/lib/libpacklib.a(hbin.o)
 .bss           0x0848edfc       0x24 /cern/99/lib/libpacklib.a(hcopy.o)
 .bss           0x0848ee20       0x40 /cern/99/lib/libpacklib.a(hcx.o)
 .bss           0x0848ee60       0x18 /cern/99/lib/libpacklib.a(hcxy.o)
 .bss           0x0848ee78        0x4 /cern/99/lib/libpacklib.a(hdcofl.o)
 *fill*         0x0848ee7c        0x4 00
 .bss           0x0848ee80       0x34 /cern/99/lib/libpacklib.a(hf1.o)
 .bss           0x0848eeb4       0x4c /cern/99/lib/libpacklib.a(hf1aut.o)
 .bss           0x0848ef00       0x2c /cern/99/lib/libpacklib.a(hf2.o)
 *fill*         0x0848ef2c        0x4 00
 .bss           0x0848ef30       0x2c /cern/99/lib/libpacklib.a(hfcx.o)
 .bss           0x0848ef5c       0x14 /cern/99/lib/libpacklib.a(hfcxy.o)
 .bss           0x0848ef70        0x8 /cern/99/lib/libpacklib.a(hfidp.o)
 .bss           0x0848ef78        0x4 /cern/99/lib/libpacklib.a(hfind.o)
 .bss           0x0848ef7c        0x4 /cern/99/lib/libpacklib.a(hie.o)
 .bss           0x0848ef80        0x8 /cern/99/lib/libpacklib.a(hix.o)
 .bss           0x0848ef88       0x28 /cern/99/lib/libpacklib.a(hlabeq.o)
 *fill*         0x0848efb0       0x10 00
 .bss           0x0848efc0       0x84 /cern/99/lib/libpacklib.a(hmdir.o)
 *fill*         0x0848f044       0x1c 00
 .bss           0x0848f060       0x98 /cern/99/lib/libpacklib.a(hoper1.o)
 .bss           0x0848f0f8       0x1c /cern/99/lib/libpacklib.a(hoper1a.o)
 *fill*         0x0848f114        0xc 00
 .bss           0x0848f120      0x1a4 /cern/99/lib/libpacklib.a(hnbfwr.o)
 .bss           0x0848f2c4       0x10 /cern/99/lib/libpacklib.a(hnmset.o)
 *fill*         0x0848f2d4        0xc 00
 .bss           0x0848f2e0       0x90 /cern/99/lib/libpacklib.a(hntdel.o)
 .bss           0x0848f370       0x2c /cern/99/lib/libpacklib.a(fzidia.o)
 .bss           0x0848f39c       0x50 /cern/99/lib/libpacklib.a(fziffn.o)
 .bss           0x0848f3ec       0x4c /cern/99/lib/libpacklib.a(fziffx.o)
 .bss           0x0848f438       0x18 /cern/99/lib/libpacklib.a(fzilin.o)
 *fill*         0x0848f450       0x10 00
 .bss           0x0848f460      0x180 /cern/99/lib/libpacklib.a(fzimtb.o)
 .bss           0x0848f5e0       0x38 /cern/99/lib/libpacklib.a(fzirec.o)
 .bss           0x0848f618       0x14 /cern/99/lib/libpacklib.a(fzitrn.o)
 .bss           0x0848f62c       0x4c /cern/99/lib/libpacklib.a(fzout.o)
 .bss           0x0848f678        0x4 /cern/99/lib/libpacklib.a(fzitrx.o)
 .bss           0x0848f67c       0x70 /cern/99/lib/libpacklib.a(mzcopy.o)
 .bss           0x0848f6ec       0x24 /cern/99/lib/libpacklib.a(mzpudx.o)
 .bss           0x0848f710       0x48 /cern/99/lib/libpacklib.a(mzfgap.o)
 .bss           0x0848f758       0x10 /cern/99/lib/libpacklib.a(mzgarb.o)
 .bss           0x0848f768       0x18 /cern/99/lib/libpacklib.a(mztabc.o)
 .bss           0x0848f780       0x10 /cern/99/lib/libpacklib.a(mztabh.o)
 .bss           0x0848f790       0x24 /cern/99/lib/libpacklib.a(mzdvac.o)
 .bss           0x0848f7b4        0xc /cern/99/lib/libpacklib.a(mziocf.o)
 .bss           0x0848f7c0       0x40 /cern/99/lib/libpacklib.a(mziocr.o)
 .bss           0x0848f800       0x28 /cern/99/lib/libpacklib.a(mzixco.o)
 .bss           0x0848f828       0x10 /cern/99/lib/libpacklib.a(zphase.o)
 .bss           0x0848f838        0x8 /cern/99/lib/libpacklib.a(zpostm.o)
 .bss           0x0848f840       0x1c /cern/99/lib/libpacklib.a(zhtoi.o)
 .bss           0x0848f85c       0x54 /cern/99/lib/libpacklib.a(rzclos.o)
 .bss           0x0848f8b0       0x28 /cern/99/lib/libpacklib.a(rzend.o)
 .bss           0x0848f8d8       0x38 /cern/99/lib/libpacklib.a(rzfree.o)
 .bss           0x0848f910       0x7c /cern/99/lib/libpacklib.a(rzmdir.o)
 *fill*         0x0848f98c       0x14 00
 .bss           0x0848f9a0      0x110 /cern/99/lib/libpacklib.a(rzmods.o)
 *fill*         0x0848fab0       0x10 00
 .bss           0x0848fac0      0x254 /cern/99/lib/libpacklib.a(rzopen.o)
 *fill*         0x0848fd14        0xc 00
 .bss           0x0848fd20       0xb8 /cern/99/lib/libpacklib.a(rzout.o)
 *fill*         0x0848fdd8        0x8 00
 .bss           0x0848fde0       0x9c /cern/99/lib/libpacklib.a(rzstrip.o)
 .bss           0x0848fe7c       0x28 /cern/99/lib/libpacklib.a(rzused.o)
 .bss           0x0848fea4      0x200 /cern/99/lib/libpacklib.a(error.o)
 .bss           0x084900a4      0x800 /cern/99/lib/libpacklib.a(parse.o)
 .bss           0x084908a4       0x50 /cern/99/lib/libpacklib.a(serror.o)
 .bss           0x084908f4       0xa0 /cern/99/lib/libpacklib.a(socket.o)
 .bss           0x08490994      0x100 /cern/99/lib/libpacklib.a(stream.o)
 .bss           0x08490a94        0x4 /cern/99/lib/libpacklib.a(cfstat.o)
 .bss           0x08490a98        0x4 /cern/99/lib/libpacklib.a(gshowf.o)
 .bss           0x08490a9c        0x8 /cern/99/lib/libpacklib.a(icluns.o)
 .bss           0x08490aa4        0x4 /cern/99/lib/libpacklib.a(traceq.o)
 .bss           0x08490aa8        0x4 /cern/99/lib/libpacklib.a(xinbf.o)
 .bss           0x08490aac        0xc /cern/99/lib/libpacklib.a(xinbs.o)
 .bss           0x08490ab8       0x40 /cern/99/lib/libpacklib.a(hrfile.o)
 .bss           0x08490af8       0x70 /cern/99/lib/libpacklib.a(hfc1.o)
 *fill*         0x08490b68       0x18 00
 .bss           0x08490b80       0x40 /cern/99/lib/libpacklib.a(hlccmp.o)
 .bss           0x08490bc0       0x28 /cern/99/lib/libpacklib.a(hlgnxt.o)
 *fill*         0x08490be8       0x18 00
 .bss           0x08490c00       0x80 /cern/99/lib/libpacklib.a(hlhcmp.o)
 .bss           0x08490c80       0x48 /cern/99/lib/libpacklib.a(hlpos.o)
 .bss           0x08490cc8       0x28 /cern/99/lib/libpacklib.a(dzsnap.o)
 .bss           0x08490cf0        0x8 /cern/99/lib/libpacklib.a(dztext.o)
 .bss           0x08490cf8        0x4 /cern/99/lib/libpacklib.a(zpage.o)
 .bss           0x08490cfc       0x14 /cern/99/lib/libpacklib.a(fzipha.o)
 .bss           0x08490d10       0x3c /cern/99/lib/libpacklib.a(fziphd.o)
 .bss           0x08490d4c       0x24 /cern/99/lib/libpacklib.a(fziphm.o)
 .bss           0x08490d70       0x44 /cern/99/lib/libpacklib.a(fziphr.o)
 .bss           0x08490db4        0x8 /cern/99/lib/libpacklib.a(fziprl.o)
 .bss           0x08490dbc       0x90 /cern/99/lib/libpacklib.a(fzoffn.o)
 .bss           0x08490e4c       0x30 /cern/99/lib/libpacklib.a(fzoffx.o)
 .bss           0x08490e7c       0x40 /cern/99/lib/libpacklib.a(fzorec.o)
 .bss           0x08490ebc       0x3c /cern/99/lib/libpacklib.a(fzotab.o)
 .bss           0x08490ef8       0x10 /cern/99/lib/libpacklib.a(fzotrn.o)
 .bss           0x08490f08        0xc /cern/99/lib/libpacklib.a(fzotxt.o)
 .bss           0x08490f14       0x3c /cern/99/lib/libpacklib.a(fzicv.o)
 .bss           0x08490f50       0x14 /cern/99/lib/libpacklib.a(mzend.o)
 .bss           0x08490f64       0x4c /cern/99/lib/libpacklib.a(mzmaps.o)
 .bss           0x08490fb0       0x48 /cern/99/lib/libpacklib.a(mzmark.o)
 .bss           0x08490ff8       0x28 /cern/99/lib/libpacklib.a(mzwork.o)
 .bss           0x08491020       0x1c /cern/99/lib/libpacklib.a(zitoh.o)
 .bss           0x0849103c       0x20 /cern/99/lib/libpacklib.a(rzallo.o)
 .bss           0x0849105c       0xd8 /cern/99/lib/libpacklib.a(rzdelk.o)
 .bss           0x08491134       0x50 /cern/99/lib/libpacklib.a(rzexpd.o)
 *fill*         0x08491184       0x1c 00
 .bss           0x084911a0       0x90 /cern/99/lib/libpacklib.a(rzfile.o)
 *fill*         0x08491230       0x10 00
 .bss           0x08491240      0x108 /cern/99/lib/libpacklib.a(rzllok.o)
 .bss           0x08491348       0x88 /cern/99/lib/libpacklib.a(rzlock.o)
 .bss           0x084913d0       0x9c /cern/99/lib/libpacklib.a(rzmake.o)
 .bss           0x0849146c       0x20 /cern/99/lib/libpacklib.a(rzobkn.o)
 .bss           0x0849148c       0x24 /cern/99/lib/libpacklib.a(rzpurf.o)
 *fill*         0x084914b0       0x10 00
 .bss           0x084914c0      0x3b8 /cern/99/lib/libpacklib.a(rzveri.o)
 .bss           0x08491878       0x14 /cern/99/lib/libpacklib.a(rzwrt.o)
 .bss           0x0849188c      0x100 /cern/99/lib/libpacklib.a(connect.o)
 .bss           0x0849198c     0x2000 /cern/99/lib/libpacklib.a(getacct.o)
 .bss           0x0849398c     0x4000 /cern/99/lib/libpacklib.a(getacctent.o)
 .bss           0x0849798c     0x4001 /cern/99/lib/libpacklib.a(getconfent.o)
 *fill*         0x0849b98d        0x3 00
 .bss           0x0849b990       0x10 /cern/99/lib/libpacklib.a(getifnam.o)
 .bss           0x0849b9a0       0x48 /cern/99/lib/libpacklib.a(log.o)
 .bss           0x0849b9e8       0x68 /cern/99/lib/libpacklib.a(dzare1.o)
 *fill*         0x0849ba50       0x10 00
 .bss           0x0849ba60      0x36c /cern/99/lib/libpacklib.a(dzbkup.o)
 .bss           0x0849bdcc       0x38 /cern/99/lib/libpacklib.a(dzbkxr.o)
 .bss           0x0849be04       0x54 /cern/99/lib/libpacklib.a(dzdata.o)
 .bss           0x0849be58       0x30 /cern/99/lib/libpacklib.a(dzmap.o)
 .bss           0x0849be88        0x8 /cern/99/lib/libpacklib.a(dzopt.o)
 .bss           0x0849be90       0x30 /cern/99/lib/libpacklib.a(dzshpr.o)
 .bss           0x0849bec0       0x20 /cern/99/lib/libpacklib.a(dztyp.o)
 .bss           0x0849bee0       0x84 /cern/99/lib/libpacklib.a(fziasc.o)
 .bss           0x0849bf64       0x18 /cern/99/lib/libpacklib.a(fzichh.o)
 .bss           0x0849bf7c       0x10 /cern/99/lib/libpacklib.a(fzidum.o)
 .bss           0x0849bf8c       0x38 /cern/99/lib/libpacklib.a(fzophr.o)
 .bss           0x0849bfc4       0x30 /cern/99/lib/libpacklib.a(fzocv.o)
 .bss           0x0849bff4        0xc /cern/99/lib/libpacklib.a(izbcd.o)
 .bss           0x0849c000        0x4 /cern/99/lib/libpacklib.a(rzdlok.o)
 *fill*         0x0849c004       0x1c 00
 .bss           0x0849c020      0x324 /cern/99/lib/libpacklib.a(rzver1.o)
 .bss           0x0849c344       0x2c /cern/99/lib/libpacklib.a(rzver2.o)
 .bss           0x0849c370       0x10 /cern/99/lib/libpacklib.a(iumode.o)
 .bss           0x0849c380        0x4 /cern/99/lib/libpacklib.a(iufind.o)
 .bss           0x0849c384        0xc /cern/99/lib/libpacklib.a(iusame.o)
 .bss           0x0849c390        0xc /cern/99/lib/libpacklib.a(jrsbyt.o)
 .bss           0x0849c39c        0x8 /cern/99/lib/libpacklib.a(ucopiv.o)
 .bss           0x0849c3a4        0x6 /cern/99/lib/libpacklib.a(dzbkdv.o)
 *fill*         0x0849c3aa        0x2 00
 .bss           0x0849c3ac       0x20 /cern/99/lib/libpacklib.a(dzbkhd.o)
 .bss           0x0849c3cc        0x6 /cern/99/lib/libpacklib.a(dziopr.o)
 *fill*         0x0849c3d2        0x2 00
 .bss           0x0849c3d4       0x18 /cern/99/lib/libpacklib.a(fzialn.o)
 .bss           0x0849c3ec       0x6c /cern/99/lib/libpacklib.a(fzoasc.o)
 .bss           0x0849c458        0xc /cern/99/lib/libpacklib.a(izchav.o)
 *fill*         0x0849c464       0x1c 00
 .bss           0x0849c480      0x234 /cern/99/lib/libpacklib.a(rzprnk.o)
 .bss           0x0849c6b4      0x3ec /cern/99/lib/libpacklib.a(mstat.o)
 .bss           0x0849caa0       0x58 /cern/99/lib/libpacklib.a(dziopd.o)
 .bss           0x0849caf8       0x40 /cern/99/lib/libpacklib.a(dzioph.o)
 .bss           0x0849cb38        0xc /cern/99/lib/libpacklib.a(fzoaln.o)
 .bss           0x0849cb44       0x34 /cern/99/lib/libpacklib.a(fzoapk.o)
 .bss           0x0849cb78        0x8 /cern/99/lib/libpacklib.a(uh1toc.o)
 .bss           0x0849cb80       0x68 /cern/99/lib/libmathlib.a(dsyev.o)
 .bss           0x0849cbe8       0x28 /cern/99/lib/libmathlib.a(dsytrd.o)
 .bss           0x0849cc10       0x30 /cern/99/lib/libmathlib.a(ilaenv.o)
 .bss           0x0849cc40        0xc /cern/99/lib/libmathlib.a(lsame.o)
 .bss           0x0849cc4c       0x10 /cern/99/lib/libmathlib.a(dscal.o)
 *fill*         0x0849cc5c        0x4 00
 .bss           0x0849cc60       0x28 /cern/99/lib/libmathlib.a(dsyr2k.o)
 .bss           0x0849cc88      0x208 /cern/99/lib/libmathlib.a(dlamch.o)
 .bss           0x0849ce90       0x28 /cern/99/lib/libmathlib.a(dlansy.o)
 .bss           0x0849ceb8       0x58 /cern/99/lib/libmathlib.a(dlascl.o)
 .bss           0x0849cf10       0x10 /cern/99/lib/libmathlib.a(dlassq.o)
 .bss           0x0849cf20       0x10 /cern/99/lib/libmathlib.a(dlatrd.o)
 .bss           0x0849cf30       0x10 /cern/99/lib/libmathlib.a(dorgtr.o)
 .bss           0x0849cf40       0xd8 /cern/99/lib/libmathlib.a(dsteqr.o)
 .bss           0x0849d018       0xe8 /cern/99/lib/libmathlib.a(dsterf.o)
 .bss           0x0849d100       0x18 /cern/99/lib/libmathlib.a(dsytd2.o)
 .bss           0x0849d118       0x14 /cern/99/lib/libmathlib.a(daxpy.o)
 *fill*         0x0849d12c        0x4 00
 .bss           0x0849d130       0x1c /cern/99/lib/libmathlib.a(ddot.o)
 *fill*         0x0849d14c        0x4 00
 .bss           0x0849d150       0x34 /cern/99/lib/libmathlib.a(dgemv.o)
 *fill*         0x0849d184        0x4 00
 .bss           0x0849d188       0x1c /cern/99/lib/libmathlib.a(dswap.o)
 *fill*         0x0849d1a4        0x4 00
 .bss           0x0849d1a8       0x34 /cern/99/lib/libmathlib.a(dsymv.o)
 *fill*         0x0849d1dc        0x4 00
 .bss           0x0849d1e0       0x34 /cern/99/lib/libmathlib.a(dsyr2.o)
 *fill*         0x0849d214        0x4 00
 .bss           0x0849d218       0x40 /cern/99/lib/libmathlib.a(dlae2.o)
 .bss           0x0849d258       0x68 /cern/99/lib/libmathlib.a(dlaev2.o)
 .bss           0x0849d2c0       0x20 /cern/99/lib/libmathlib.a(dlanst.o)
 .bss           0x0849d2e0       0x20 /cern/99/lib/libmathlib.a(dlapy2.o)
 .bss           0x0849d300       0x28 /cern/99/lib/libmathlib.a(dlarfg.o)
 .bss           0x0849d328       0x40 /cern/99/lib/libmathlib.a(dlartg.o)
 .bss           0x0849d368        0x8 /cern/99/lib/libmathlib.a(dlaset.o)
 .bss           0x0849d370       0x28 /cern/99/lib/libmathlib.a(dlasr.o)
 *fill*         0x0849d398        0x8 00
 .bss           0x0849d3a0      0x140 /cern/99/lib/libmathlib.a(dlasrt.o)
 .bss           0x0849d4e0       0x2c /cern/99/lib/libmathlib.a(dorgql.o)
 .bss           0x0849d50c       0x30 /cern/99/lib/libmathlib.a(dorgqr.o)
 *fill*         0x0849d53c        0x4 00
 .bss           0x0849d540       0x28 /cern/99/lib/libmathlib.a(dnrm2.o)
 .bss           0x0849d568        0xc /cern/99/lib/libmathlib.a(dlarfb.o)
 *fill*         0x0849d574        0x4 00
 .bss           0x0849d578       0x10 /cern/99/lib/libmathlib.a(dlarft.o)
 .bss           0x0849d588       0x10 /cern/99/lib/libmathlib.a(dorg2l.o)
 .bss           0x0849d598        0xc /cern/99/lib/libmathlib.a(dorg2r.o)
 .bss           0x0849d5a4       0x14 /cern/99/lib/libmathlib.a(dcopy.o)
 .bss           0x0849d5b8       0x30 /cern/99/lib/libmathlib.a(dgemm.o)
 .bss           0x0849d5e8       0x28 /cern/99/lib/libmathlib.a(dtrmm.o)
 .bss           0x0849d610       0x24 /cern/99/lib/libmathlib.a(dtrmv.o)
 *fill*         0x0849d634        0x4 00
 .bss           0x0849d638       0x20 /cern/99/lib/libmathlib.a(dger.o)
 .bss           0x0849d658        0xc /usr/lib/gcc-lib/i686-pc-linux-gnu/2.95.3/libg2c.a(close.o)
 *fill*         0x0849d664       0x1c 00
 .bss           0x0849d680     0x12c0 /usr/lib/gcc-lib/i686-pc-linux-gnu/2.95.3/libg2c.a(fmt.o)
 .bss           0x0849e940        0xc /usr/lib/gcc-lib/i686-pc-linux-gnu/2.95.3/libg2c.a(lread.o)
 *fill*         0x0849e94c       0x14 00
 .bss           0x0849e960      0x1a0 /usr/lib/gcc-lib/i686-pc-linux-gnu/2.95.3/libg2c.a(open.o)
 .bss           0x0849eb00      0x100 /usr/lib/gcc-lib/i686-pc-linux-gnu/2.95.3/libg2c.a(rdfmt.o)
 .bss           0x0849ec00       0x18 /usr/lib/gcc-lib/i686-pc-linux-gnu/2.95.3/libg2c.a(fmtlib.o)
 *(COMMON)
 *fill*         0x0849ec18        0x8 00
 COMMON         0x0849ec20    0xfe0e4 mcar48p_105j.o
                                  0x0 (size before relaxing)
                0x0849ec20                pawc_
                0x08562120                gujets_
                0x0859cac0                mcuffr_
                0x0859cb40                mcffr_
 *fill*         0x0859cd04       0x1c 00
 COMMON         0x0859cd20     0xdac4 /home/pcl2483/pedro/jadesoft/util/mcgen/Plib/libmc105j.a(mcgeth.o)
                                  0x0 (size before relaxing)
                0x0859cd20                lujets_
 *fill*         0x085aa7e4       0x1c 00
 COMMON         0x085aa800     0xa760 /home/pcl2483/pedro/jadesoft/util/mcgen/Plib/libmc105j.a(evwrtj.o)
                                  0x0 (size before relaxing)
                0x085aa800                chcprd_
                0x085ada00                cprod_
 COMMON         0x085b4f60      0x1e0 /home/pcl2483/pedro/jadesoft/util/mcgen/Plib/libmc105j.a(jtconv.o)
                                  0x0 (size before relaxing)
                0x085b4f60                ludat1_
 COMMON         0x085b5140     0x6e88 /home/pcl2483/pedro/jadesoft/util/mcgen/Plib/libpythia5722.a(pydata.o)
                                  0x0 (size before relaxing)
                0x085b5140                pyint4_
                0x085b6be0                pyint5_
                0x085b7ec0                pyint3_
 *fill*         0x085bbfc8       0x18 00
 COMMON         0x085bbfe0      0x444 /home/pcl2483/pedro/jadesoft/util/mcgen/Plib/libpythia5722.a(pyevnt.o)
                                  0x0 (size before relaxing)
                0x085bbfe0                pyuppr_
 *fill*         0x085bc424       0x1c 00
 COMMON         0x085bc440      0x668 /home/pcl2483/pedro/jadesoft/util/mcgen/Plib/libpythia5722.a(pyinit.o)
                                  0x0 (size before relaxing)
                0x085bc440                w50512_
                0x085bc460                pyint9_
 COMMON         0x085bcaa8       0x1c /home/pcl2483/pedro/jadesoft/util/mcgen/Plib/libpythia5722.a(pysigh.o)
                                  0x0 (size before relaxing)
                0x085bcaa8                rkbbvc_
 *fill*         0x085bcac4       0x1c 00
 COMMON         0x085bcae0      0x140 /home/pcl2483/pedro/jadesoft/util/mcgen/Plib/libpythia5722.a(pystfu.o)
                                  0x0 (size before relaxing)
                0x085bcae0                pyint8_
                0x085bcc00                w50513_
 COMMON         0x085bcc20     0x3cc0 /home/pcl2483/pedro/jadesoft/util/mcgen/Plib/libpythia5722.a(rkbbv.o)
                                  0x0 (size before relaxing)
                0x085bcc20                rkzfco_
                0x085c0220                rkzsco_
 COMMON         0x085c08e0     0x9dc4 /home/pcl2483/pedro/jadesoft/util/mcgen/Plib/libariadne408.a(arexec.o)
                                  0x0 (size before relaxing)
                0x085c08e0                arpart_
                0x085ca540                leptou_
 *fill*         0x085ca6a4       0x1c 00
 COMMON         0x085ca6c0     0x7a54 /home/pcl2483/pedro/jadesoft/util/mcgen/Plib/libariadne408.a(arlept.o)
                                  0x0 (size before relaxing)
                0x085ca6c0                arint4_
                0x085ca700                arstrs_
                0x085cabe0                ardips_
 *fill*         0x085d2114        0xc 00
 COMMON         0x085d2120     0x1860 /home/pcl2483/pedro/jadesoft/util/mcgen/Plib/libariadne408.a(arremn.o)
                                  0x0 (size before relaxing)
                0x085d2120                arlist_
                0x085d3900                arstrf_
 COMMON         0x085d3980       0x28 /home/pcl2483/pedro/jadesoft/util/mcgen/Plib/libariadne408.a(archem.o)
                                  0x0 (size before relaxing)
                0x085d3980                arint3_
 *fill*         0x085d39a8       0x18 00
 COMMON         0x085d39c0      0x160 /home/pcl2483/pedro/jadesoft/util/mcgen/Plib/libariadne408.a(argqcd.o)
                                  0x0 (size before relaxing)
                0x085d39c0                arint1_
 COMMON         0x085d3b20       0x20 /home/pcl2483/pedro/jadesoft/util/mcgen/Plib/libariadne408.a(argqcg.o)
                                  0x0 (size before relaxing)
                0x085d3b20                arint2_
 COMMON         0x085d3b40        0x8 /home/pcl2483/pedro/jadesoft/util/mcgen/Plib/libariadne408.a(archki.o)
                                  0x0 (size before relaxing)
                0x085d3b40                xdummy_
 *fill*         0x085d3b48       0x18 00
 COMMON         0x085d3b60    0x22c88 /home/pcl2483/pedro/jadesoft/util/mcgen/Plib/libariadne408.a(argetr.o)
                                  0x0 (size before relaxing)
                0x085d3b60                arstak_
 *fill*         0x085f67e8       0x18 00
 COMMON         0x085f6800      0x260 /home/pcl2483/pedro/jadesoft/util/mcgen/Plib/libjt74opal.a(ludecy.o)
                                  0x0 (size before relaxing)
                0x085f6800                hpevt_
 COMMON         0x085f6a60      0x194 /home/pcl2483/pedro/jadesoft/util/mcgen/Plib/libjt74opal.a(lutaud.o)
                                  0x0 (size before relaxing)
                0x085f6a60                goxtra_
 *fill*         0x085f6bf4        0xc 00
 COMMON         0x085f6c00      0x5c8 /home/pcl2483/pedro/jadesoft/util/mcgen/Plib/libjt74opal.a(dexay.o)
                                  0x0 (size before relaxing)
                0x085f6c00                idfc_
                0x085f6c04                jaki_
                0x085f6c20                decmp2_
                0x085f704c                inout_
                0x085f7060                taubmc_
 COMMON         0x085f71c8       0x10 /home/pcl2483/pedro/jadesoft/util/mcgen/Plib/libjt74opal.a(dwluks.o)
                                  0x0 (size before relaxing)
                0x085f71c8                taukle_
 *fill*         0x085f71d8        0x8 00
 COMMON         0x085f71e0       0x28 /home/pcl2483/pedro/jadesoft/util/mcgen/Plib/libjt74opal.a(filhep.o)
                                  0x0 (size before relaxing)
                0x085f71e0                phoqed_
 *fill*         0x085f7208       0x18 00
 COMMON         0x085f7220      0x1a8 /home/pcl2483/pedro/jadesoft/util/mcgen/Plib/libjt74opal.a(initdk.o)
                                  0x0 (size before relaxing)
                0x085f7220                taubra_
                0x085f7314                taurad_
                0x085f7320                parmas_
                0x085f7360                decpar_
                0x085f7380                gswprm_
                0x085f73b0                qedprm_
 COMMON         0x085f73c8        0x4 /home/pcl2483/pedro/jadesoft/util/mcgen/Plib/libjt74opal.a(dampog.o)
                                  0x0 (size before relaxing)
                0x085f73c8                testa1_
 COMMON         0x085f73cc        0x8 /home/pcl2483/pedro/jadesoft/util/mcgen/Plib/libjt74opal.a(curr.o)
                                  0x0 (size before relaxing)
                0x085f73cc                arbit_
 *fill*         0x085f73d4        0xc 00
 COMMON         0x085f73e0    0x10b3c /home/pcl2483/pedro/jadesoft/util/mcgen/Plib/libckern105.a(ckern.o)
                                  0x0 (size before relaxing)
                0x085f73e0                ckcom_
 *fill*         0x08607f1c        0x4 00
 COMMON         0x08607f20     0x9cb0 /home/pcl2483/pedro/jadesoft/util/mcgen/Plib/libpx114.a(ykern.o)
                                  0x0 (size before relaxing)
                0x08607f20                yint_
                0x0860cd60                ycl_
 *fill*         0x08611bd0       0x10 00
 COMMON         0x08611be0      0xab4 /cern/99/lib/libpacklib.a(ffgo.o)
                                  0x0 (size before relaxing)
                0x08611be0                ffchar_
                0x08611c80                cfread_
                0x08612500                ffcomm_
 *fill*         0x08612694        0xc 00
 COMMON         0x086126a0      0x328 /cern/99/lib/libpacklib.a(hbook1.o)
                                  0x0 (size before relaxing)
                0x086126a0                hcform_
                0x086126e0                hcbook_
                0x086127c0                hcprin_
                0x08612960                hcflag_
                0x086129a0                hcopt_
 *fill*         0x086129c8       0x18 00
 COMMON         0x086129e0       0x8c /cern/99/lib/libpacklib.a(hbug.o)
                                  0x0 (size before relaxing)
                0x086129e0                hcmail_
                0x08612a60                hcunit_
 *fill*         0x08612a6c       0x14 00
 COMMON         0x08612a80     0x33b0 /cern/99/lib/libpacklib.a(hcdir.o)
                                  0x0 (size before relaxing)
                0x08612a80                hcpia1_
                0x08612ec0                hcpiaf_
                0x08613020                hcfile_
                0x08613fc0                hcdirc_
                0x086158c0                quest_
                0x08615a60                hcdirn_
                0x08615ce0                hcpiac_
 *fill*         0x08615e30       0x10 00
 COMMON         0x08615e40      0x194 /cern/99/lib/libpacklib.a(hdelet.o)
                                  0x0 (size before relaxing)
                0x08615e40                hcache_
 *fill*         0x08615fd4        0xc 00
 COMMON         0x08615fe0       0x94 /cern/99/lib/libpacklib.a(hfill.o)
                                  0x0 (size before relaxing)
                0x08615fe0                hcbits_
 *fill*         0x08616074        0xc 00
 COMMON         0x08616080     0x1144 /cern/99/lib/libpacklib.a(hmachi.o)
                                  0x0 (size before relaxing)
                0x08616080                hcset_
                0x08616084                hcverc_
                0x086160a0                hcvers_
                0x08616124                hcnt_
                0x08616134                hcrecv_
                0x08616140                slate_
                0x086161e0                hcminpu_
                0x08617180                hcfitr_
                0x08617194                czcbuf_
                0x08617198                hcminp1_
                0x086171a0                hcpar0_
 *fill*         0x086171c4       0x1c 00
 COMMON         0x086171e0      0x2d4 /cern/99/lib/libpacklib.a(hsupis.o)
                                  0x0 (size before relaxing)
                0x086171e0                hcfitn_
                0x08617300                hcfits_
 *fill*         0x086174b4        0xc 00
 COMMON         0x086174c0      0x200 /cern/99/lib/libpacklib.a(hlogpf.o)
                                  0x0 (size before relaxing)
                0x086174c0                czbufc_
 COMMON         0x086176c0        0x4 /cern/99/lib/libpacklib.a(hntrset.o)
                                  0x0 (size before relaxing)
                0x086176c0                hntcur_
 *fill*         0x086176c4       0x1c 00
 COMMON         0x086176e0     0x12a0 /cern/99/lib/libpacklib.a(fzin.o)
                                  0x0 (size before relaxing)
                0x086176e0                mzca_
                0x086178c0                zvfaut_
                0x08617920                mzct_
                0x08617a00                mzcc_
                0x086180a0                fzcocc_
                0x08618144                zunitz_
                0x08618160                fzci_
                0x086182a0                zbcd_
                0x086185e0                zebq_
                0x08618780                fzcseg_
                0x08618880                mzcb_
                0x08618900                zmach_
                0x08618940                mzcn_
                0x08618964                zunit_
 COMMON         0x08618980      0x1f0 /cern/99/lib/libpacklib.a(fzloc.o)
                                  0x0 (size before relaxing)
                0x08618980                fzcx_
                0x08618aa0                zstate_
                0x08618ae0                fzcf_
 *fill*         0x08618b70       0x10 00
 COMMON         0x08618b80       0x70 /cern/99/lib/libpacklib.a(mzbook.o)
                                  0x0 (size before relaxing)
                0x08618b80                mzcl_
 *fill*         0x08618bf0       0x10 00
 COMMON         0x08618c00     0x5a20 /cern/99/lib/libpacklib.a(mzebra.o)
                                  0x0 (size before relaxing)
                0x08618c00                zceta_
                0x08619400                zbcdch_
                0x08619460                rzcount_
                0x08619480                zheadp_
                0x08619500                jzuc_
                0x08619540                rzcstri_
                0x08619b44                znatur_
                0x08619b60                rzclun_
                0x08619ba0                rzcstrc_
 COMMON         0x0861e620     0x5008 /cern/99/lib/libpacklib.a(mzflag.o)
                                  0x0 (size before relaxing)
                0x0861e620                mzcwk_
                0x08623620                zlimit_
 *fill*         0x08623628       0x18 00
 COMMON         0x08623640      0x508 /cern/99/lib/libpacklib.a(mzform.o)
                                  0x0 (size before relaxing)
                0x08623640                zkrakc_
 COMMON         0x08623b48        0x8 /cern/99/lib/libpacklib.a(ztell.o)
                                  0x0 (size before relaxing)
                0x08623b48                ztellc_
 *fill*         0x08623b50       0x10 00
 COMMON         0x08623b60     0x150c /cern/99/lib/libpacklib.a(rzcdir.o)
                                  0x0 (size before relaxing)
                0x08623b60                rzcl_
                0x08623ba0                rzdirc_
                0x08624e60                rzch_
                0x08625060                rzdirn_
 *fill*         0x0862506c       0x14 00
 COMMON         0x08625080       0x28 /cern/99/lib/libpacklib.a(rzfdir.o)
                                  0x0 (size before relaxing)
                0x08625080                rzcycle_
 *fill*         0x086250a8       0x18 00
 COMMON         0x086250c0     0x8800 /cern/99/lib/libpacklib.a(rziodo.o)
                                  0x0 (size before relaxing)
                0x086250c0                rzbuff_
 COMMON         0x0862d8c0      0xe10 /cern/99/lib/libpacklib.a(czgeta.o)
                                  0x0 (size before relaxing)
                0x0862d8c0                czsock_
 *fill*         0x0862e6d0       0x10 00
 COMMON         0x0862e6e0     0x3fa0 /cern/99/lib/libpacklib.a(hqputf.o)
                                  0x0 (size before relaxing)
                0x0862e6e0                hcqcom_
                0x086316e0                hcqcod_
 COMMON         0x08632680      0x350 /cern/99/lib/libpacklib.a(fziffx.o)
                                  0x0 (size before relaxing)
                0x08632680                mzioc_
 *fill*         0x086329d0       0x10 00
 COMMON         0x086329e0      0x3f4 /cern/99/lib/libpacklib.a(rzopen.o)
                                  0x0 (size before relaxing)
                0x086329e0                rzckey_
 COMMON         0x08632dd4       0x18 /cern/99/lib/libpacklib.a(rzout.o)
                                  0x0 (size before relaxing)
                0x08632dd4                rzcout_
 COMMON         0x08632dec     0x2400 /cern/99/lib/libpacklib.a(open.o)
                                  0x0 (size before relaxing)
                0x08632dec                rfilefdt
                0x086331ec                rfio_buf
 COMMON         0x086351ec        0x4 /cern/99/lib/libpacklib.a(serror.o)
                                  0x0 (size before relaxing)
                0x086351ec                serrno
 *fill*         0x086351f0       0x10 00
 COMMON         0x08635200      0x600 /cern/99/lib/libpacklib.a(dzsnap.o)
                                  0x0 (size before relaxing)
                0x08635200                dzc1ch_
                0x08635760                dzc1_
 COMMON         0x08635800       0x28 /cern/99/lib/libpacklib.a(fzipha.o)
                                  0x0 (size before relaxing)
                0x08635800                fzhci_
 *fill*         0x08635828       0x18 00
 COMMON         0x08635840      0x1d4 /cern/99/lib/libpacklib.a(rzveri.o)
                                  0x0 (size before relaxing)
                0x08635840                rzbmap_
                0x08635880                rzover_
 *fill*         0x08635a14        0xc 00
 COMMON         0x08635a20     0x1324 /usr/lib/gcc-lib/i686-pc-linux-gnu/2.95.3/libg2c.a(err.o)
                                  0x0 (size before relaxing)
                0x08635a20                f(short, void, int, char)
                0x08635a24                f__hiwater
                0x08635a28                f__putn
                0x08635a2c                f__fmtlen
                0x08635a30                f__elist
                0x08635a34                f__sequential
                0x08635a38                f__fmtbuf
                0x08635a3c                f__getn
                0x08635a40                f__curunit
                0x08635a44                f__doned
                0x08635a48                f(char, float)
                0x08635a4c                f__external
                0x08635a50                f__reading
                0x08635a54                f__icptr
                0x08635a58                f__donewrec
                0x08635a5c                f__init
                0x08635a60                f__doed
                0x08635a64                f(char, long *, short __restrict)
                0x08635a68                f__doend
                0x08635a6c                f__cblank
                0x08635a70                f__scale
                0x08635a74                f__recpos
                0x08635a78                f__dorevert
                0x08635a7c                f__formatted
                0x08635a80                f__units
                0x08636d40                f__cursor
 *fill*         0x08636d44       0x1c 00
 COMMON         0x08636d60       0x90 /usr/lib/gcc-lib/i686-pc-linux-gnu/2.95.3/libg2c.a(fmt.o)
                                  0x0 (size before relaxing)
                0x08636d60                f(long double,  *)
                0x08636d64                f__nonl
                0x08636d68                f__parenlvl
                0x08636d6c                f__workdone
                0x08636d70                f__revloc
                0x08636d80                f__ret
                0x08636dc0                f__cnt
                0x08636de8                f(char *)
                0x08636dec                f(char,  *)
 COMMON         0x08636df0        0x8 /usr/lib/gcc-lib/i686-pc-linux-gnu/2.95.3/libg2c.a(iio.o)
                                  0x0 (size before relaxing)
                0x08636df0                f__icnum
                0x08636df4                f__icend
 COMMON         0x08636df8       0x34 /usr/lib/gcc-lib/i686-pc-linux-gnu/2.95.3/libg2c.a(lread.o)
                                  0x0 (size before relaxing)
                0x08636df8                f__ltype
                0x08636dfc                l_getc
                0x08636e00                f__lioproc
                0x08636e04                l_ungetc
                0x08636e08                l_eof
                0x08636e0c                nml_read
                0x08636e10                f__lchar
                0x08636e14                f__lquit
                0x08636e18                f__ly
                0x08636e20                f(long, long long)
                0x08636e28                f__lcount
 COMMON         0x08636e2c        0x4 /usr/lib/gcc-lib/i686-pc-linux-gnu/2.95.3/libg2c.a(sue.o)
                                  0x0 (size before relaxing)
                0x08636e2c                f__recloc
 COMMON         0x08636e30        0x4 /usr/lib/gcc-lib/i686-pc-linux-gnu/2.95.3/libg2c.a(uio.o)
                                  0x0 (size before relaxing)
                0x08636e30                f__reclen
 COMMON         0x08636e34        0x8 /usr/lib/gcc-lib/i686-pc-linux-gnu/2.95.3/libg2c.a(setarg.o)
                                  0x0 (size before relaxing)
                0x08636e34                f__xargv
                0x08636e38                f__xargc
 COMMON         0x08636e3c        0x8 /usr/lib/gcc-lib/i686-pc-linux-gnu/2.95.3/libg2c.a(lwrite.o)
                                  0x0 (size before relaxing)
                0x08636e3c                f__Aquote
                0x08636e40                L_len
                0x08636e44                . = ALIGN (0x4)
                0x08636e44                . = ALIGN (0x4)
                0x08636e44                _end = .
                0x08636e44                PROVIDE (end, .)
                0x08636e44                . = DATA_SEGMENT_END (.)

.stab           0x00000000    0xd6c68
 *(.stab)
 .stab          0x00000000     0x6fe4 mcar48p_105j.o
 .stab          0x00006fe4      0x3cc /home/pcl2483/pedro/jadesoft/util/mcgen/Plib/libmc105j.a(mcgetf.o)
                                0x3d8 (size before relaxing)
 .stab          0x000073b0      0x5c4 /home/pcl2483/pedro/jadesoft/util/mcgen/Plib/libmc105j.a(mcgeth.o)
                                0x5d0 (size before relaxing)
 .stab          0x00007974      0x564 /home/pcl2483/pedro/jadesoft/util/mcgen/Plib/libmc105j.a(mcgetp.o)
                                0x570 (size before relaxing)
 .stab          0x00007ed8      0x5ac /home/pcl2483/pedro/jadesoft/util/mcgen/Plib/libmc105j.a(mcinit.o)
                                0x5b8 (size before relaxing)
 .stab          0x00008484      0x4a4 /home/pcl2483/pedro/jadesoft/util/mcgen/Plib/libmc105j.a(mcstbl.o)
                                0x4b0 (size before relaxing)
 .stab          0x00008928      0x9cc /home/pcl2483/pedro/jadesoft/util/mcgen/Plib/libmc105j.a(mcwrit.o)
                                0x9d8 (size before relaxing)
 .stab          0x000092f4      0x5dc /home/pcl2483/pedro/jadesoft/util/mcgen/Plib/libmc105j.a(mytype.o)
                                0x5e8 (size before relaxing)
 .stab          0x000098d0      0x918 /home/pcl2483/pedro/jadesoft/util/mcgen/Plib/libmc105j.a(pxeecb.o)
                                0x924 (size before relaxing)
 .stab          0x0000a1e8      0xa44 /home/pcl2483/pedro/jadesoft/util/mcgen/Plib/libmc105j.a(evwrtj.o)
                                0xa50 (size before relaxing)
 .stab          0x0000ac2c      0x3cc /home/pcl2483/pedro/jadesoft/util/mcgen/Plib/libmc105j.a(incprd.o)
                                0x3d8 (size before relaxing)
 .stab          0x0000aff8      0x408 /home/pcl2483/pedro/jadesoft/util/mcgen/Plib/libmc105j.a(jadeco.o)
                                0x414 (size before relaxing)
 .stab          0x0000b400      0x99c /home/pcl2483/pedro/jadesoft/util/mcgen/Plib/libmc105j.a(jtconv.o)
                                0x9a8 (size before relaxing)
 .stab          0x0000bd9c      0x840 /home/pcl2483/pedro/jadesoft/util/mcgen/Plib/libmc105j.a(mcrnst.o)
                                0x84c (size before relaxing)
 .stab          0x0000c5dc      0x2c4 /home/pcl2483/pedro/jadesoft/util/mcgen/Plib/libmc105j.a(ntcprd.o)
                                0x2d0 (size before relaxing)
 .stab          0x0000c8a0      0x5c4 /home/pcl2483/pedro/jadesoft/util/mcgen/Plib/libmc105j.a(prcprd.o)
                                0x5d0 (size before relaxing)
 .stab          0x0000ce64      0x480 /home/pcl2483/pedro/jadesoft/util/mcgen/Plib/libmc105j.a(wrcprd.o)
                                0x48c (size before relaxing)
 .stab          0x0000d2e4      0x2f4 /home/pcl2483/pedro/jadesoft/util/mcgen/Plib/libpythia5722.a(pydata.o)
                                0x300 (size before relaxing)
 .stab          0x0000d5d8      0xd68 /home/pcl2483/pedro/jadesoft/util/mcgen/Plib/libpythia5722.a(pyevnt.o)
                                0xd74 (size before relaxing)
 .stab          0x0000e340      0x3fc /home/pcl2483/pedro/jadesoft/util/mcgen/Plib/libpythia5722.a(pyfram.o)
                                0x408 (size before relaxing)
 .stab          0x0000e73c      0xbe8 /home/pcl2483/pedro/jadesoft/util/mcgen/Plib/libpythia5722.a(pyinit.o)
                                0xbf4 (size before relaxing)
 .stab          0x0000f324      0x900 /home/pcl2483/pedro/jadesoft/util/mcgen/Plib/libpythia5722.a(pyinki.o)
                                0x90c (size before relaxing)
 .stab          0x0000fc24     0x1110 /home/pcl2483/pedro/jadesoft/util/mcgen/Plib/libpythia5722.a(pyinpr.o)
                               0x111c (size before relaxing)
 .stab          0x00010d34     0x123c /home/pcl2483/pedro/jadesoft/util/mcgen/Plib/libpythia5722.a(pyinre.o)
                               0x1248 (size before relaxing)
 .stab          0x00011f70     0x2a54 /home/pcl2483/pedro/jadesoft/util/mcgen/Plib/libpythia5722.a(pymaxi.o)
                               0x2a60 (size before relaxing)
 .stab          0x000149c4     0x189c /home/pcl2483/pedro/jadesoft/util/mcgen/Plib/libpythia5722.a(pymult.o)
                               0x18a8 (size before relaxing)
 .stab          0x00016260     0x1b84 /home/pcl2483/pedro/jadesoft/util/mcgen/Plib/libpythia5722.a(pyofsh.o)
                               0x1b90 (size before relaxing)
 .stab          0x00017de4      0x618 /home/pcl2483/pedro/jadesoft/util/mcgen/Plib/libpythia5722.a(pypile.o)
                                0x624 (size before relaxing)
 .stab          0x000183fc     0x29b8 /home/pcl2483/pedro/jadesoft/util/mcgen/Plib/libpythia5722.a(pyrand.o)
                               0x29c4 (size before relaxing)
 .stab          0x0001adb4     0x2664 /home/pcl2483/pedro/jadesoft/util/mcgen/Plib/libpythia5722.a(pyremn.o)
                               0x2670 (size before relaxing)
 .stab          0x0001d418     0x2e08 /home/pcl2483/pedro/jadesoft/util/mcgen/Plib/libpythia5722.a(pyresd.o)
                               0x2e14 (size before relaxing)
 .stab          0x00020220      0xba0 /home/pcl2483/pedro/jadesoft/util/mcgen/Plib/libpythia5722.a(pysave.o)
                                0xbac (size before relaxing)
 .stab          0x00020dc0     0x49b0 /home/pcl2483/pedro/jadesoft/util/mcgen/Plib/libpythia5722.a(pyscat.o)
                               0x49bc (size before relaxing)
 .stab          0x00025770     0xb4b4 /home/pcl2483/pedro/jadesoft/util/mcgen/Plib/libpythia5722.a(pysigh.o)
                               0xb4c0 (size before relaxing)
 .stab          0x00030c24      0x948 /home/pcl2483/pedro/jadesoft/util/mcgen/Plib/libpythia5722.a(pyspli.o)
                                0x954 (size before relaxing)
 .stab          0x0003156c     0x23e8 /home/pcl2483/pedro/jadesoft/util/mcgen/Plib/libpythia5722.a(pysspa.o)
                               0x23f4 (size before relaxing)
 .stab          0x00033954      0xdc8 /home/pcl2483/pedro/jadesoft/util/mcgen/Plib/libpythia5722.a(pystfl.o)
                                0xdd4 (size before relaxing)
 .stab          0x0003471c     0x1494 /home/pcl2483/pedro/jadesoft/util/mcgen/Plib/libpythia5722.a(pystfu.o)
                               0x14a0 (size before relaxing)
 .stab          0x00035bb0      0x714 /home/pcl2483/pedro/jadesoft/util/mcgen/Plib/libpythia5722.a(pystga.o)
                                0x720 (size before relaxing)
 .stab          0x000362c4      0x7c8 /home/pcl2483/pedro/jadesoft/util/mcgen/Plib/libpythia5722.a(pystpi.o)
                                0x7d4 (size before relaxing)
 .stab          0x00036a8c      0xf54 /home/pcl2483/pedro/jadesoft/util/mcgen/Plib/libpythia5722.a(pystpr.o)
                                0xf60 (size before relaxing)
 .stab          0x000379e0      0x33c /home/pcl2483/pedro/jadesoft/util/mcgen/Plib/libpythia5722.a(pyupev.o)
                                0x348 (size before relaxing)
 .stab          0x00037d1c      0x42c /home/pcl2483/pedro/jadesoft/util/mcgen/Plib/libpythia5722.a(pywaux.o)
                                0x438 (size before relaxing)
 .stab          0x00038148     0x366c /home/pcl2483/pedro/jadesoft/util/mcgen/Plib/libpythia5722.a(pywidt.o)
                               0x3678 (size before relaxing)
 .stab          0x0003b7b4     0x1104 /home/pcl2483/pedro/jadesoft/util/mcgen/Plib/libpythia5722.a(pyxtot.o)
                               0x1110 (size before relaxing)
 .stab          0x0003c8b8     0x21cc /home/pcl2483/pedro/jadesoft/util/mcgen/Plib/libpythia5722.a(rkbbv.o)
                               0x21d8 (size before relaxing)
 .stab          0x0003ea84      0x2e8 /home/pcl2483/pedro/jadesoft/util/mcgen/Plib/libpythia5722.a(rkdot.o)
                                0x2f4 (size before relaxing)
 .stab          0x0003ed6c      0x534 /home/pcl2483/pedro/jadesoft/util/mcgen/Plib/libpythia5722.a(rkhlpk.o)
                                0x540 (size before relaxing)
 .stab          0x0003f2a0      0x378 /home/pcl2483/pedro/jadesoft/util/mcgen/Plib/libpythia5722.a(rkrand.o)
                                0x384 (size before relaxing)
 .stab          0x0003f618      0x648 /home/pcl2483/pedro/jadesoft/util/mcgen/Plib/libpythia5722.a(rkzf.o)
                                0x654 (size before relaxing)
 .stab          0x0003fc60      0x378 /home/pcl2483/pedro/jadesoft/util/mcgen/Plib/libpythia5722.a(rkzpr.o)
                                0x384 (size before relaxing)
 .stab          0x0003ffd8      0x420 /home/pcl2483/pedro/jadesoft/util/mcgen/Plib/libpythia5722.a(rkzsf.o)
                                0x42c (size before relaxing)
 .stab          0x000403f8      0x3fc /home/pcl2483/pedro/jadesoft/util/mcgen/Plib/libpythia5722.a(structm.o)
                                0x408 (size before relaxing)
 .stab          0x000407f4      0x348 /home/pcl2483/pedro/jadesoft/util/mcgen/Plib/libpythia5722.a(pdfset.o)
                                0x354 (size before relaxing)
 .stab          0x00040b3c     0x1680 /home/pcl2483/pedro/jadesoft/util/mcgen/Plib/libpythia5722.a(pyctq2.o)
                               0x168c (size before relaxing)
 .stab          0x000421bc      0xf18 /home/pcl2483/pedro/jadesoft/util/mcgen/Plib/libpythia5722.a(pydiff.o)
                                0xf24 (size before relaxing)
 .stab          0x000430d4      0x99c /home/pcl2483/pedro/jadesoft/util/mcgen/Plib/libpythia5722.a(pydocu.o)
                                0x9a8 (size before relaxing)
 .stab          0x00043a70      0x48c /home/pcl2483/pedro/jadesoft/util/mcgen/Plib/libpythia5722.a(pyevwt.o)
                                0x498 (size before relaxing)
 .stab          0x00043efc      0x408 /home/pcl2483/pedro/jadesoft/util/mcgen/Plib/libpythia5722.a(pygamm.o)
                                0x414 (size before relaxing)
 .stab          0x00044304      0x900 /home/pcl2483/pedro/jadesoft/util/mcgen/Plib/libpythia5722.a(pygano.o)
                                0x90c (size before relaxing)
 .stab          0x00044c04      0x7c8 /home/pcl2483/pedro/jadesoft/util/mcgen/Plib/libpythia5722.a(pyggam.o)
                                0x7d4 (size before relaxing)
 .stab          0x000453cc      0x9d8 /home/pcl2483/pedro/jadesoft/util/mcgen/Plib/libpythia5722.a(pygvmd.o)
                                0x9e4 (size before relaxing)
 .stab          0x00045da4      0x408 /home/pcl2483/pedro/jadesoft/util/mcgen/Plib/libpythia5722.a(pyhfth.o)
                                0x414 (size before relaxing)
 .stab          0x000461ac      0x54c /home/pcl2483/pedro/jadesoft/util/mcgen/Plib/libpythia5722.a(pyi3au.o)
                                0x558 (size before relaxing)
 .stab          0x000466f8      0xffc /home/pcl2483/pedro/jadesoft/util/mcgen/Plib/libpythia5722.a(pyinbm.o)
                               0x1008 (size before relaxing)
 .stab          0x000476f4      0x5ac /home/pcl2483/pedro/jadesoft/util/mcgen/Plib/libpythia5722.a(pykcut.o)
                                0x5b8 (size before relaxing)
 .stab          0x00047ca0     0x1824 /home/pcl2483/pedro/jadesoft/util/mcgen/Plib/libpythia5722.a(pyklim.o)
                               0x1830 (size before relaxing)
 .stab          0x000494c4     0x1404 /home/pcl2483/pedro/jadesoft/util/mcgen/Plib/libpythia5722.a(pykmap.o)
                               0x1410 (size before relaxing)
 .stab          0x0004a8c8      0xeb8 /home/pcl2483/pedro/jadesoft/util/mcgen/Plib/libpythia5722.a(pyqqbh.o)
                                0xec4 (size before relaxing)
 .stab          0x0004b780      0x6cc /home/pcl2483/pedro/jadesoft/util/mcgen/Plib/libpythia5722.a(pyspen.o)
                                0x6d8 (size before relaxing)
 .stab          0x0004be4c      0xa74 /home/pcl2483/pedro/jadesoft/util/mcgen/Plib/libpythia5722.a(pystel.o)
                                0xa80 (size before relaxing)
 .stab          0x0004c8c0      0x4ec /home/pcl2483/pedro/jadesoft/util/mcgen/Plib/libpythia5722.a(pygbeh.o)
                                0x4f8 (size before relaxing)
 .stab          0x0004cdac      0x414 /home/pcl2483/pedro/jadesoft/util/mcgen/Plib/libpythia5722.a(pygdir.o)
                                0x420 (size before relaxing)
 .stab          0x0004d1c0      0x2c4 /home/pcl2483/pedro/jadesoft/util/mcgen/Plib/libariadne408.a(ardata.o)
                                0x2d0 (size before relaxing)
 .stab          0x0004d484      0x63c /home/pcl2483/pedro/jadesoft/util/mcgen/Plib/libariadne408.a(arexec.o)
                                0x648 (size before relaxing)
 .stab          0x0004dac0      0x678 /home/pcl2483/pedro/jadesoft/util/mcgen/Plib/libariadne408.a(arinit.o)
                                0x684 (size before relaxing)
 .stab          0x0004e138      0x72c /home/pcl2483/pedro/jadesoft/util/mcgen/Plib/libariadne408.a(arlept.o)
                                0x738 (size before relaxing)
 .stab          0x0004e864      0x66c /home/pcl2483/pedro/jadesoft/util/mcgen/Plib/libariadne408.a(arpars.o)
                                0x678 (size before relaxing)
 .stab          0x0004eed0      0x510 /home/pcl2483/pedro/jadesoft/util/mcgen/Plib/libariadne408.a(arphas.o)
                                0x51c (size before relaxing)
 .stab          0x0004f3e0      0x9d8 /home/pcl2483/pedro/jadesoft/util/mcgen/Plib/libariadne408.a(arptqq.o)
                                0x9e4 (size before relaxing)
 .stab          0x0004fdb8      0xbac /home/pcl2483/pedro/jadesoft/util/mcgen/Plib/libariadne408.a(arpyth.o)
                                0xbb8 (size before relaxing)
 .stab          0x00050964      0x408 /home/pcl2483/pedro/jadesoft/util/mcgen/Plib/libariadne408.a(arpyww.o)
                                0x414 (size before relaxing)
 .stab          0x00050d6c     0x1458 /home/pcl2483/pedro/jadesoft/util/mcgen/Plib/libariadne408.a(arremn.o)
                               0x1464 (size before relaxing)
 .stab          0x000521c4      0x834 /home/pcl2483/pedro/jadesoft/util/mcgen/Plib/libariadne408.a(arscan.o)
                                0x840 (size before relaxing)
 .stab          0x000529f8      0x4b0 /home/pcl2483/pedro/jadesoft/util/mcgen/Plib/libariadne408.a(arstra.o)
                                0x4bc (size before relaxing)
 .stab          0x00052ea8     0x12b4 /home/pcl2483/pedro/jadesoft/util/mcgen/Plib/libariadne408.a(artune.o)
                               0x12c0 (size before relaxing)
 .stab          0x0005415c      0x33c /home/pcl2483/pedro/jadesoft/util/mcgen/Plib/libariadne408.a(arupom.o)
                                0x348 (size before relaxing)
 .stab          0x00054498      0x324 /home/pcl2483/pedro/jadesoft/util/mcgen/Plib/libariadne408.a(arzcms.o)
                                0x330 (size before relaxing)
 .stab          0x000547bc      0x2e8 /home/pcl2483/pedro/jadesoft/util/mcgen/Plib/libariadne408.a(lnstrf.o)
                                0x2f4 (size before relaxing)
 .stab          0x00054aa4      0x45c /home/pcl2483/pedro/jadesoft/util/mcgen/Plib/libariadne408.a(arbole.o)
                                0x468 (size before relaxing)
 .stab          0x00054f00      0x6e4 /home/pcl2483/pedro/jadesoft/util/mcgen/Plib/libariadne408.a(arbopy.o)
                                0x6f0 (size before relaxing)
 .stab          0x000555e4      0x324 /home/pcl2483/pedro/jadesoft/util/mcgen/Plib/libariadne408.a(arcasc.o)
                                0x330 (size before relaxing)
 .stab          0x00055908      0x57c /home/pcl2483/pedro/jadesoft/util/mcgen/Plib/libariadne408.a(archem.o)
                                0x588 (size before relaxing)
 .stab          0x00055e84      0x42c /home/pcl2483/pedro/jadesoft/util/mcgen/Plib/libariadne408.a(arcoli.o)
                                0x438 (size before relaxing)
 .stab          0x000562b0      0x2f4 /home/pcl2483/pedro/jadesoft/util/mcgen/Plib/libariadne408.a(arcont.o)
                                0x300 (size before relaxing)
 .stab          0x000565a4      0x45c /home/pcl2483/pedro/jadesoft/util/mcgen/Plib/libariadne408.a(arcopa.o)
                                0x468 (size before relaxing)
 .stab          0x00056a00      0x348 /home/pcl2483/pedro/jadesoft/util/mcgen/Plib/libariadne408.a(arcrdi.o)
                                0x354 (size before relaxing)
 .stab          0x00056d48      0x6e4 /home/pcl2483/pedro/jadesoft/util/mcgen/Plib/libariadne408.a(ardump.o)
                                0x6f0 (size before relaxing)
 .stab          0x0005742c     0x1098 /home/pcl2483/pedro/jadesoft/util/mcgen/Plib/libariadne408.a(arerrm.o)
                               0x10a4 (size before relaxing)
 .stab          0x000584c4      0x5b8 /home/pcl2483/pedro/jadesoft/util/mcgen/Plib/libariadne408.a(arevol.o)
                                0x5c4 (size before relaxing)
 .stab          0x00058a7c      0x558 /home/pcl2483/pedro/jadesoft/util/mcgen/Plib/libariadne408.a(arexma.o)
                                0x564 (size before relaxing)
 .stab          0x00058fd4      0x438 /home/pcl2483/pedro/jadesoft/util/mcgen/Plib/libariadne408.a(arfidy.o)
                                0x444 (size before relaxing)
 .stab          0x0005940c      0x4b0 /home/pcl2483/pedro/jadesoft/util/mcgen/Plib/libariadne408.a(argpt2.o)
                                0x4bc (size before relaxing)
 .stab          0x000598bc      0x504 /home/pcl2483/pedro/jadesoft/util/mcgen/Plib/libariadne408.a(argqcd.o)
                                0x510 (size before relaxing)
 .stab          0x00059dc0      0x57c /home/pcl2483/pedro/jadesoft/util/mcgen/Plib/libariadne408.a(argqcg.o)
                                0x588 (size before relaxing)
 .stab          0x0005a33c      0x630 /home/pcl2483/pedro/jadesoft/util/mcgen/Plib/libariadne408.a(argqcq.o)
                                0x63c (size before relaxing)
 .stab          0x0005a96c      0x4e0 /home/pcl2483/pedro/jadesoft/util/mcgen/Plib/libariadne408.a(argqed.o)
                                0x4ec (size before relaxing)
 .stab          0x0005ae4c      0x2f4 /home/pcl2483/pedro/jadesoft/util/mcgen/Plib/libariadne408.a(argtyp.o)
                                0x300 (size before relaxing)
 .stab          0x0005b140      0x480 /home/pcl2483/pedro/jadesoft/util/mcgen/Plib/libariadne408.a(arincr.o)
                                0x48c (size before relaxing)
 .stab          0x0005b5c0      0xc90 /home/pcl2483/pedro/jadesoft/util/mcgen/Plib/libariadne408.a(arinqq.o)
                                0xc9c (size before relaxing)
 .stab          0x0005c250      0x378 /home/pcl2483/pedro/jadesoft/util/mcgen/Plib/libariadne408.a(armade.o)
                                0x384 (size before relaxing)
 .stab          0x0005c5c8      0x30c /home/pcl2483/pedro/jadesoft/util/mcgen/Plib/libariadne408.a(armas2.o)
                                0x318 (size before relaxing)
 .stab          0x0005c8d4      0x3c0 /home/pcl2483/pedro/jadesoft/util/mcgen/Plib/libariadne408.a(armass.o)
                                0x3cc (size before relaxing)
 .stab          0x0005cc94      0x3cc /home/pcl2483/pedro/jadesoft/util/mcgen/Plib/libariadne408.a(armcdi.o)
                                0x3d8 (size before relaxing)
 .stab          0x0005d060      0x438 /home/pcl2483/pedro/jadesoft/util/mcgen/Plib/libariadne408.a(armipt.o)
                                0x444 (size before relaxing)
 .stab          0x0005d498      0x75c /home/pcl2483/pedro/jadesoft/util/mcgen/Plib/libariadne408.a(armtqq.o)
                                0x768 (size before relaxing)
 .stab          0x0005dbf4      0x318 /home/pcl2483/pedro/jadesoft/util/mcgen/Plib/libariadne408.a(arndx1.o)
                                0x324 (size before relaxing)
 .stab          0x0005df0c      0x318 /home/pcl2483/pedro/jadesoft/util/mcgen/Plib/libariadne408.a(arndx2.o)
                                0x324 (size before relaxing)
 .stab          0x0005e224      0x318 /home/pcl2483/pedro/jadesoft/util/mcgen/Plib/libariadne408.a(arndx3.o)
                                0x324 (size before relaxing)
 .stab          0x0005e53c      0x318 /home/pcl2483/pedro/jadesoft/util/mcgen/Plib/libariadne408.a(arndy1.o)
                                0x324 (size before relaxing)
 .stab          0x0005e854      0xb1c /home/pcl2483/pedro/jadesoft/util/mcgen/Plib/libariadne408.a(arndy2.o)
                                0xb28 (size before relaxing)
 .stab          0x0005f370      0x33c /home/pcl2483/pedro/jadesoft/util/mcgen/Plib/libariadne408.a(arndy3.o)
                                0x348 (size before relaxing)
 .stab          0x0005f6ac      0x75c /home/pcl2483/pedro/jadesoft/util/mcgen/Plib/libariadne408.a(arndy4.o)
                                0x768 (size before relaxing)
 .stab          0x0005fe08      0xc24 /home/pcl2483/pedro/jadesoft/util/mcgen/Plib/libariadne408.a(arniqq.o)
                                0xc30 (size before relaxing)
 .stab          0x00060a2c      0x354 /home/pcl2483/pedro/jadesoft/util/mcgen/Plib/libariadne408.a(arnofl.o)
                                0x360 (size before relaxing)
 .stab          0x00060d80      0x324 /home/pcl2483/pedro/jadesoft/util/mcgen/Plib/libariadne408.a(arobo1.o)
                                0x330 (size before relaxing)
 .stab          0x000610a4      0x33c /home/pcl2483/pedro/jadesoft/util/mcgen/Plib/libariadne408.a(arobo2.o)
                                0x348 (size before relaxing)
 .stab          0x000613e0      0x354 /home/pcl2483/pedro/jadesoft/util/mcgen/Plib/libariadne408.a(arobo3.o)
                                0x360 (size before relaxing)
 .stab          0x00061734      0x33c /home/pcl2483/pedro/jadesoft/util/mcgen/Plib/libariadne408.a(arpcms.o)
                                0x348 (size before relaxing)
 .stab          0x00061a70      0xac8 /home/pcl2483/pedro/jadesoft/util/mcgen/Plib/libariadne408.a(arpoki.o)
                                0xad4 (size before relaxing)
 .stab          0x00062538      0x930 /home/pcl2483/pedro/jadesoft/util/mcgen/Plib/libariadne408.a(arposf.o)
                                0x93c (size before relaxing)
 .stab          0x00062e68      0x3e4 /home/pcl2483/pedro/jadesoft/util/mcgen/Plib/libariadne408.a(arprda.o)
                                0x3f0 (size before relaxing)
 .stab          0x0006324c      0x7bc /home/pcl2483/pedro/jadesoft/util/mcgen/Plib/libariadne408.a(arprdy.o)
                                0x7c8 (size before relaxing)
 .stab          0x00063a08      0x510 /home/pcl2483/pedro/jadesoft/util/mcgen/Plib/libariadne408.a(arprgc.o)
                                0x51c (size before relaxing)
 .stab          0x00063f18      0x318 /home/pcl2483/pedro/jadesoft/util/mcgen/Plib/libariadne408.a(arrobo.o)
                                0x324 (size before relaxing)
 .stab          0x00064230      0x414 /home/pcl2483/pedro/jadesoft/util/mcgen/Plib/libariadne408.a(arsume.o)
                                0x420 (size before relaxing)
 .stab          0x00064644      0x390 /home/pcl2483/pedro/jadesoft/util/mcgen/Plib/libariadne408.a(arvet1.o)
                                0x39c (size before relaxing)
 .stab          0x000649d4      0x378 /home/pcl2483/pedro/jadesoft/util/mcgen/Plib/libariadne408.a(arvet3.o)
                                0x384 (size before relaxing)
 .stab          0x00064d4c      0x378 /home/pcl2483/pedro/jadesoft/util/mcgen/Plib/libariadne408.a(arvet4.o)
                                0x384 (size before relaxing)
 .stab          0x000650c4      0x2f4 /home/pcl2483/pedro/jadesoft/util/mcgen/Plib/libariadne408.a(arvet5.o)
                                0x300 (size before relaxing)
 .stab          0x000653b8      0x33c /home/pcl2483/pedro/jadesoft/util/mcgen/Plib/libariadne408.a(arveth.o)
                                0x348 (size before relaxing)
 .stab          0x000656f4      0x480 /home/pcl2483/pedro/jadesoft/util/mcgen/Plib/libariadne408.a(arbocm.o)
                                0x48c (size before relaxing)
 .stab          0x00065b74      0xb10 /home/pcl2483/pedro/jadesoft/util/mcgen/Plib/libariadne408.a(archki.o)
                                0xb1c (size before relaxing)
 .stab          0x00066684      0x624 /home/pcl2483/pedro/jadesoft/util/mcgen/Plib/libariadne408.a(ardbrb.o)
                                0x630 (size before relaxing)
 .stab          0x00066ca8      0x84c /home/pcl2483/pedro/jadesoft/util/mcgen/Plib/libariadne408.a(arearr.o)
                                0x858 (size before relaxing)
 .stab          0x000674f4      0x8c4 /home/pcl2483/pedro/jadesoft/util/mcgen/Plib/libariadne408.a(aremit.o)
                                0x8d0 (size before relaxing)
 .stab          0x00067db8      0x450 /home/pcl2483/pedro/jadesoft/util/mcgen/Plib/libariadne408.a(arevst.o)
                                0x45c (size before relaxing)
 .stab          0x00068208      0x45c /home/pcl2483/pedro/jadesoft/util/mcgen/Plib/libariadne408.a(argdis.o)
                                0x468 (size before relaxing)
 .stab          0x00068664     0x11dc /home/pcl2483/pedro/jadesoft/util/mcgen/Plib/libariadne408.a(arging.o)
                               0x11e8 (size before relaxing)
 .stab          0x00069840      0x420 /home/pcl2483/pedro/jadesoft/util/mcgen/Plib/libariadne408.a(aripsf.o)
                                0x42c (size before relaxing)
 .stab          0x00069c60      0x300 /home/pcl2483/pedro/jadesoft/util/mcgen/Plib/libariadne408.a(aript2.o)
                                0x30c (size before relaxing)
 .stab          0x00069f60      0x4b0 /home/pcl2483/pedro/jadesoft/util/mcgen/Plib/libariadne408.a(arjoqq.o)
                                0x4bc (size before relaxing)
 .stab          0x0006a410      0x4f8 /home/pcl2483/pedro/jadesoft/util/mcgen/Plib/libariadne408.a(arjost.o)
                                0x504 (size before relaxing)
 .stab          0x0006a908      0x324 /home/pcl2483/pedro/jadesoft/util/mcgen/Plib/libariadne408.a(armas3.o)
                                0x330 (size before relaxing)
 .stab          0x0006ac2c      0x354 /home/pcl2483/pedro/jadesoft/util/mcgen/Plib/libariadne408.a(arpadd.o)
                                0x360 (size before relaxing)
 .stab          0x0006af80      0xc24 /home/pcl2483/pedro/jadesoft/util/mcgen/Plib/libariadne408.a(arradg.o)
                                0xc30 (size before relaxing)
 .stab          0x0006bba4      0x468 /home/pcl2483/pedro/jadesoft/util/mcgen/Plib/libariadne408.a(arradp.o)
                                0x474 (size before relaxing)
 .stab          0x0006c00c      0x510 /home/pcl2483/pedro/jadesoft/util/mcgen/Plib/libariadne408.a(arradq.o)
                                0x51c (size before relaxing)
 .stab          0x0006c51c      0x504 /home/pcl2483/pedro/jadesoft/util/mcgen/Plib/libariadne408.a(arreca.o)
                                0x510 (size before relaxing)
 .stab          0x0006ca20      0x558 /home/pcl2483/pedro/jadesoft/util/mcgen/Plib/libariadne408.a(arremd.o)
                                0x564 (size before relaxing)
 .stab          0x0006cf78      0x5e8 /home/pcl2483/pedro/jadesoft/util/mcgen/Plib/libariadne408.a(arremp.o)
                                0x5f4 (size before relaxing)
 .stab          0x0006d560      0x624 /home/pcl2483/pedro/jadesoft/util/mcgen/Plib/libariadne408.a(arsplg.o)
                                0x630 (size before relaxing)
 .stab          0x0006db84      0x528 /home/pcl2483/pedro/jadesoft/util/mcgen/Plib/libariadne408.a(arstor.o)
                                0x534 (size before relaxing)
 .stab          0x0006e0ac      0x780 /home/pcl2483/pedro/jadesoft/util/mcgen/Plib/libariadne408.a(arswap.o)
                                0x78c (size before relaxing)
 .stab          0x0006e82c      0x4a4 /home/pcl2483/pedro/jadesoft/util/mcgen/Plib/libariadne408.a(artpt2.o)
                                0x4b0 (size before relaxing)
 .stab          0x0006ecd0      0x5a0 /home/pcl2483/pedro/jadesoft/util/mcgen/Plib/libariadne408.a(araddg.o)
                                0x5ac (size before relaxing)
 .stab          0x0006f270      0x5a0 /home/pcl2483/pedro/jadesoft/util/mcgen/Plib/libariadne408.a(archfl.o)
                                0x5ac (size before relaxing)
 .stab          0x0006f810      0x3a8 /home/pcl2483/pedro/jadesoft/util/mcgen/Plib/libariadne408.a(arduph.o)
                                0x3b4 (size before relaxing)
 .stab          0x0006fbb8      0x978 /home/pcl2483/pedro/jadesoft/util/mcgen/Plib/libariadne408.a(ardyre.o)
                                0x984 (size before relaxing)
 .stab          0x00070530      0xbc4 /home/pcl2483/pedro/jadesoft/util/mcgen/Plib/libariadne408.a(aremi2.o)
                                0xbd0 (size before relaxing)
 .stab          0x000710f4      0x6b4 /home/pcl2483/pedro/jadesoft/util/mcgen/Plib/libariadne408.a(aremi3.o)
                                0x6c0 (size before relaxing)
 .stab          0x000717a8      0x42c /home/pcl2483/pedro/jadesoft/util/mcgen/Plib/libariadne408.a(argdig.o)
                                0x438 (size before relaxing)
 .stab          0x00071bd4      0x720 /home/pcl2483/pedro/jadesoft/util/mcgen/Plib/libariadne408.a(argetr.o)
                                0x72c (size before relaxing)
 .stab          0x000722f4     0x105c /home/pcl2483/pedro/jadesoft/util/mcgen/Plib/libariadne408.a(argig2.o)
                               0x1068 (size before relaxing)
 .stab          0x00073350      0x36c /home/pcl2483/pedro/jadesoft/util/mcgen/Plib/libariadne408.a(arobo4.o)
                                0x378 (size before relaxing)
 .stab          0x000736bc      0x384 /home/pcl2483/pedro/jadesoft/util/mcgen/Plib/libariadne408.a(arobo5.o)
                                0x390 (size before relaxing)
 .stab          0x00073a40      0x7b0 /home/pcl2483/pedro/jadesoft/util/mcgen/Plib/libariadne408.a(arorie.o)
                                0x7bc (size before relaxing)
 .stab          0x000741f0      0x378 /home/pcl2483/pedro/jadesoft/util/mcgen/Plib/libariadne408.a(arpado.o)
                                0x384 (size before relaxing)
 .stab          0x00074568      0x354 /home/pcl2483/pedro/jadesoft/util/mcgen/Plib/libariadne408.a(arpins.o)
                                0x360 (size before relaxing)
 .stab          0x000748bc      0x720 /home/pcl2483/pedro/jadesoft/util/mcgen/Plib/libariadne408.a(arputr.o)
                                0x72c (size before relaxing)
 .stab          0x00074fdc      0x738 /home/pcl2483/pedro/jadesoft/util/mcgen/Plib/libariadne408.a(arremg.o)
                                0x744 (size before relaxing)
 .stab          0x00075714      0x3cc /home/pcl2483/pedro/jadesoft/util/mcgen/Plib/libariadne408.a(arrems.o)
                                0x3d8 (size before relaxing)
 .stab          0x00075ae0      0x450 /home/pcl2483/pedro/jadesoft/util/mcgen/Plib/libariadne408.a(arthrw.o)
                                0x45c (size before relaxing)
 .stab          0x00075f30      0x318 /home/pcl2483/pedro/jadesoft/util/mcgen/Plib/libariadne408.a(aruthr.o)
                                0x324 (size before relaxing)
 .stab          0x00076248      0x4ec /home/pcl2483/pedro/jadesoft/util/mcgen/Plib/libariadne408.a(arvet6.o)
                                0x4f8 (size before relaxing)
 .stab          0x00076734      0x4e0 /home/pcl2483/pedro/jadesoft/util/mcgen/Plib/libariadne408.a(arvet7.o)
                                0x4ec (size before relaxing)
 .stab          0x00076c14      0xf0c /home/pcl2483/pedro/jadesoft/util/mcgen/Plib/libariadne408.a(aradig.o)
                                0xf18 (size before relaxing)
 .stab          0x00077b20      0x558 /home/pcl2483/pedro/jadesoft/util/mcgen/Plib/libariadne408.a(arcodi.o)
                                0x564 (size before relaxing)
 .stab          0x00078078      0x5a0 /home/pcl2483/pedro/jadesoft/util/mcgen/Plib/libariadne408.a(arecoi.o)
                                0x5ac (size before relaxing)
 .stab          0x00078618      0xaa4 /home/pcl2483/pedro/jadesoft/util/mcgen/Plib/libariadne408.a(aradg2.o)
                                0xab0 (size before relaxing)
 .stab          0x000790bc      0x87c /home/pcl2483/pedro/jadesoft/util/mcgen/Plib/libjt74opal.a(klu.o)
                                0x888 (size before relaxing)
 .stab          0x00079938      0x618 /home/pcl2483/pedro/jadesoft/util/mcgen/Plib/libjt74opal.a(lu2ent.o)
                                0x624 (size before relaxing)
 .stab          0x00079f50      0x3cc /home/pcl2483/pedro/jadesoft/util/mcgen/Plib/libjt74opal.a(luchge.o)
                                0x3d8 (size before relaxing)
 .stab          0x0007a31c      0x6fc /home/pcl2483/pedro/jadesoft/util/mcgen/Plib/libjt74opal.a(lucomp.o)
                                0x708 (size before relaxing)
 .stab          0x0007aa18      0x2c4 /home/pcl2483/pedro/jadesoft/util/mcgen/Plib/libjt74opal.a(ludata.o)
                                0x2d0 (size before relaxing)
 .stab          0x0007acdc     0x2d30 /home/pcl2483/pedro/jadesoft/util/mcgen/Plib/libjt74opal.a(ludecy.o)
                               0x2d3c (size before relaxing)
 .stab          0x0007da0c     0x10b0 /home/pcl2483/pedro/jadesoft/util/mcgen/Plib/libjt74opal.a(luedit.o)
                               0x10bc (size before relaxing)
 .stab          0x0007eabc      0x498 /home/pcl2483/pedro/jadesoft/util/mcgen/Plib/libjt74opal.a(luerrm.o)
                                0x4a4 (size before relaxing)
 .stab          0x0007ef54      0x828 /home/pcl2483/pedro/jadesoft/util/mcgen/Plib/libjt74opal.a(luexec.o)
                                0x834 (size before relaxing)
 .stab          0x0007f77c     0x186c /home/pcl2483/pedro/jadesoft/util/mcgen/Plib/libjt74opal.a(lugive.o)
                               0x1878 (size before relaxing)
 .stab          0x00080fe8     0x1dac /home/pcl2483/pedro/jadesoft/util/mcgen/Plib/libjt74opal.a(luindf.o)
                               0x1db8 (size before relaxing)
 .stab          0x00082d94     0x129c /home/pcl2483/pedro/jadesoft/util/mcgen/Plib/libjt74opal.a(lukfdi.o)
                               0x12a8 (size before relaxing)
 .stab          0x00084030     0x1758 /home/pcl2483/pedro/jadesoft/util/mcgen/Plib/libjt74opal.a(lulist.o)
                               0x1764 (size before relaxing)
 .stab          0x00085788      0x798 /home/pcl2483/pedro/jadesoft/util/mcgen/Plib/libjt74opal.a(lulogo.o)
                                0x7a4 (size before relaxing)
 .stab          0x00085f20      0x954 /home/pcl2483/pedro/jadesoft/util/mcgen/Plib/libjt74opal.a(luname.o)
                                0x960 (size before relaxing)
 .stab          0x00086874     0x1554 /home/pcl2483/pedro/jadesoft/util/mcgen/Plib/libjt74opal.a(luprep.o)
                               0x1560 (size before relaxing)
 .stab          0x00087dc8      0x36c /home/pcl2483/pedro/jadesoft/util/mcgen/Plib/libjt74opal.a(luptdi.o)
                                0x378 (size before relaxing)
 .stab          0x00088134      0xa14 /home/pcl2483/pedro/jadesoft/util/mcgen/Plib/libjt74opal.a(lurobo.o)
                                0xa20 (size before relaxing)
 .stab          0x00088b48     0x36fc /home/pcl2483/pedro/jadesoft/util/mcgen/Plib/libjt74opal.a(lushow.o)
                               0x3708 (size before relaxing)
 .stab          0x0008c244     0x3fd8 /home/pcl2483/pedro/jadesoft/util/mcgen/Plib/libjt74opal.a(lustrf.o)
                               0x3fe4 (size before relaxing)
 .stab          0x0009021c     0x31d4 /home/pcl2483/pedro/jadesoft/util/mcgen/Plib/libjt74opal.a(lutabu.o)
                               0x31e0 (size before relaxing)
 .stab          0x000933f0      0xa14 /home/pcl2483/pedro/jadesoft/util/mcgen/Plib/libjt74opal.a(lutaud.o)
                                0xa20 (size before relaxing)
 .stab          0x00093e04      0x8e8 /home/pcl2483/pedro/jadesoft/util/mcgen/Plib/libjt74opal.a(luzdis.o)
                                0x8f4 (size before relaxing)
 .stab          0x000946ec      0x5dc /home/pcl2483/pedro/jadesoft/util/mcgen/Plib/libjt74opal.a(plu.o)
                                0x5e8 (size before relaxing)
 .stab          0x00094cc8      0x648 /home/pcl2483/pedro/jadesoft/util/mcgen/Plib/libjt74opal.a(rlu.o)
                                0x654 (size before relaxing)
 .stab          0x00095310      0x39c /home/pcl2483/pedro/jadesoft/util/mcgen/Plib/libjt74opal.a(taupol.o)
                                0x3a8 (size before relaxing)
 .stab          0x000956ac      0x3c0 /home/pcl2483/pedro/jadesoft/util/mcgen/Plib/libjt74opal.a(ulalem.o)
                                0x3cc (size before relaxing)
 .stab          0x00095a6c      0x4d4 /home/pcl2483/pedro/jadesoft/util/mcgen/Plib/libjt74opal.a(ulalps.o)
                                0x4e0 (size before relaxing)
 .stab          0x00095f40      0x378 /home/pcl2483/pedro/jadesoft/util/mcgen/Plib/libjt74opal.a(ulangl.o)
                                0x384 (size before relaxing)
 .stab          0x000962b8      0x63c /home/pcl2483/pedro/jadesoft/util/mcgen/Plib/libjt74opal.a(ulmass.o)
                                0x648 (size before relaxing)
 .stab          0x000968f4      0x7b0 /home/pcl2483/pedro/jadesoft/util/mcgen/Plib/libjt74opal.a(dexay.o)
                                0x7bc (size before relaxing)
 .stab          0x000970a4      0x60c /home/pcl2483/pedro/jadesoft/util/mcgen/Plib/libjt74opal.a(dexay1.o)
                                0x618 (size before relaxing)
 .stab          0x000976b0      0x420 /home/pcl2483/pedro/jadesoft/util/mcgen/Plib/libjt74opal.a(dexel.o)
                                0x42c (size before relaxing)
 .stab          0x00097ad0      0x390 /home/pcl2483/pedro/jadesoft/util/mcgen/Plib/libjt74opal.a(dexkk.o)
                                0x39c (size before relaxing)
 .stab          0x00097e60      0x42c /home/pcl2483/pedro/jadesoft/util/mcgen/Plib/libjt74opal.a(dexks.o)
                                0x438 (size before relaxing)
 .stab          0x0009828c      0x42c /home/pcl2483/pedro/jadesoft/util/mcgen/Plib/libjt74opal.a(dexmu.o)
                                0x438 (size before relaxing)
 .stab          0x000986b8      0x42c /home/pcl2483/pedro/jadesoft/util/mcgen/Plib/libjt74opal.a(dexnew.o)
                                0x438 (size before relaxing)
 .stab          0x00098ae4      0x390 /home/pcl2483/pedro/jadesoft/util/mcgen/Plib/libjt74opal.a(dexpi.o)
                                0x39c (size before relaxing)
 .stab          0x00098e74      0x420 /home/pcl2483/pedro/jadesoft/util/mcgen/Plib/libjt74opal.a(dexro.o)
                                0x42c (size before relaxing)
 .stab          0x00099294      0x438 /home/pcl2483/pedro/jadesoft/util/mcgen/Plib/libjt74opal.a(dwlnew.o)
                                0x444 (size before relaxing)
 .stab          0x000996cc      0x3b4 /home/pcl2483/pedro/jadesoft/util/mcgen/Plib/libjt74opal.a(dwluaa.o)
                                0x3c0 (size before relaxing)
 .stab          0x00099a80      0x348 /home/pcl2483/pedro/jadesoft/util/mcgen/Plib/libjt74opal.a(dwluel.o)
                                0x354 (size before relaxing)
 .stab          0x00099dc8      0x324 /home/pcl2483/pedro/jadesoft/util/mcgen/Plib/libjt74opal.a(dwlukk.o)
                                0x330 (size before relaxing)
 .stab          0x0009a0ec      0x420 /home/pcl2483/pedro/jadesoft/util/mcgen/Plib/libjt74opal.a(dwluks.o)
                                0x42c (size before relaxing)
 .stab          0x0009a50c      0x348 /home/pcl2483/pedro/jadesoft/util/mcgen/Plib/libjt74opal.a(dwlumu.o)
                                0x354 (size before relaxing)
 .stab          0x0009a854      0x324 /home/pcl2483/pedro/jadesoft/util/mcgen/Plib/libjt74opal.a(dwlupi.o)
                                0x330 (size before relaxing)
 .stab          0x0009ab78      0x354 /home/pcl2483/pedro/jadesoft/util/mcgen/Plib/libjt74opal.a(dwluro.o)
                                0x360 (size before relaxing)
 .stab          0x0009aecc      0x384 /home/pcl2483/pedro/jadesoft/util/mcgen/Plib/libjt74opal.a(dwrph.o)
                                0x390 (size before relaxing)
 .stab          0x0009b250      0x528 /home/pcl2483/pedro/jadesoft/util/mcgen/Plib/libjt74opal.a(filhep.o)
                                0x534 (size before relaxing)
 .stab          0x0009b778      0x8dc /home/pcl2483/pedro/jadesoft/util/mcgen/Plib/libjt74opal.a(initdk.o)
                                0x8e8 (size before relaxing)
 .stab          0x0009c054      0x420 /home/pcl2483/pedro/jadesoft/util/mcgen/Plib/libjt74opal.a(jaker.o)
                                0x42c (size before relaxing)
 .stab          0x0009c474      0xc9c /home/pcl2483/pedro/jadesoft/util/mcgen/Plib/libjt74opal.a(luboei.o)
                                0xca8 (size before relaxing)
 .stab          0x0009d110      0x4f8 /home/pcl2483/pedro/jadesoft/util/mcgen/Plib/libjt74opal.a(lunpik.o)
                                0x504 (size before relaxing)
 .stab          0x0009d608      0x7e0 /home/pcl2483/pedro/jadesoft/util/mcgen/Plib/libjt74opal.a(dadmel.o)
                                0x7ec (size before relaxing)
 .stab          0x0009dde8      0x5a0 /home/pcl2483/pedro/jadesoft/util/mcgen/Plib/libjt74opal.a(dadmkk.o)
                                0x5ac (size before relaxing)
 .stab          0x0009e388      0x81c /home/pcl2483/pedro/jadesoft/util/mcgen/Plib/libjt74opal.a(dadmks.o)
                                0x828 (size before relaxing)
 .stab          0x0009eba4      0x7b0 /home/pcl2483/pedro/jadesoft/util/mcgen/Plib/libjt74opal.a(dadmmu.o)
                                0x7bc (size before relaxing)
 .stab          0x0009f354      0x594 /home/pcl2483/pedro/jadesoft/util/mcgen/Plib/libjt74opal.a(dadmpi.o)
                                0x5a0 (size before relaxing)
 .stab          0x0009f8e8      0x78c /home/pcl2483/pedro/jadesoft/util/mcgen/Plib/libjt74opal.a(dadmro.o)
                                0x798 (size before relaxing)
 .stab          0x000a0074      0xa44 /home/pcl2483/pedro/jadesoft/util/mcgen/Plib/libjt74opal.a(dadnew.o)
                                0xa50 (size before relaxing)
 .stab          0x000a0ab8      0x438 /home/pcl2483/pedro/jadesoft/util/mcgen/Plib/libjt74opal.a(dexaa.o)
                                0x444 (size before relaxing)
 .stab          0x000a0ef0     0x10c8 /home/pcl2483/pedro/jadesoft/util/mcgen/Plib/libjt74opal.a(dph4pi.o)
                               0x10d4 (size before relaxing)
 .stab          0x000a1fb8      0xe58 /home/pcl2483/pedro/jadesoft/util/mcgen/Plib/libjt74opal.a(dph5pi.o)
                                0xe64 (size before relaxing)
 .stab          0x000a2e10      0xe4c /home/pcl2483/pedro/jadesoft/util/mcgen/Plib/libjt74opal.a(dphnpi.o)
                                0xe58 (size before relaxing)
 .stab          0x000a3c5c      0x420 /home/pcl2483/pedro/jadesoft/util/mcgen/Plib/libjt74opal.a(dphsel.o)
                                0x42c (size before relaxing)
 .stab          0x000a407c      0xa68 /home/pcl2483/pedro/jadesoft/util/mcgen/Plib/libjt74opal.a(dphsks.o)
                                0xa74 (size before relaxing)
 .stab          0x000a4ae4      0x420 /home/pcl2483/pedro/jadesoft/util/mcgen/Plib/libjt74opal.a(dphsmu.o)
                                0x42c (size before relaxing)
 .stab          0x000a4f04      0x42c /home/pcl2483/pedro/jadesoft/util/mcgen/Plib/libjt74opal.a(dphspk.o)
                                0x438 (size before relaxing)
 .stab          0x000a5330      0x774 /home/pcl2483/pedro/jadesoft/util/mcgen/Plib/libjt74opal.a(dphsrk.o)
                                0x780 (size before relaxing)
 .stab          0x000a5aa4      0x6f0 /home/pcl2483/pedro/jadesoft/util/mcgen/Plib/libjt74opal.a(dphsro.o)
                                0x6fc (size before relaxing)
 .stab          0x000a6194      0xd80 /home/pcl2483/pedro/jadesoft/util/mcgen/Plib/libjt74opal.a(dphtre.o)
                                0xd8c (size before relaxing)
 .stab          0x000a6f14      0xae0 /home/pcl2483/pedro/jadesoft/util/mcgen/Plib/libjt74opal.a(drcmu.o)
                                0xaec (size before relaxing)
 .stab          0x000a79f4      0x324 /home/pcl2483/pedro/jadesoft/util/mcgen/Plib/libjt74opal.a(dwluph.o)
                                0x330 (size before relaxing)
 .stab          0x000a7d18      0x300 /home/pcl2483/pedro/jadesoft/util/mcgen/Plib/libjt74opal.a(fpirho.o)
                                0x30c (size before relaxing)
 .stab          0x000a8018      0x30c /home/pcl2483/pedro/jadesoft/util/mcgen/Plib/libjt74opal.a(fpirk.o)
                                0x318 (size before relaxing)
 .stab          0x000a8324      0x3a8 /home/pcl2483/pedro/jadesoft/util/mcgen/Plib/libjt74opal.a(rotor2.o)
                                0x3b4 (size before relaxing)
 .stab          0x000a86cc      0x390 /home/pcl2483/pedro/jadesoft/util/mcgen/Plib/libjt74opal.a(rotor3.o)
                                0x39c (size before relaxing)
 .stab          0x000a8a5c      0x2f4 /home/pcl2483/pedro/jadesoft/util/mcgen/Plib/libjt74opal.a(rotpol.o)
                                0x300 (size before relaxing)
 .stab          0x000a8d50      0x2f4 /home/pcl2483/pedro/jadesoft/util/mcgen/Plib/libjt74opal.a(rotpox.o)
                                0x300 (size before relaxing)
 .stab          0x000a9044      0x600 /home/pcl2483/pedro/jadesoft/util/mcgen/Plib/libjt74opal.a(sigee.o)
                                0x60c (size before relaxing)
 .stab          0x000a9644      0x360 /home/pcl2483/pedro/jadesoft/util/mcgen/Plib/libjt74opal.a(sphera.o)
                                0x36c (size before relaxing)
 .stab          0x000a99a4      0x360 /home/pcl2483/pedro/jadesoft/util/mcgen/Plib/libjt74opal.a(spherd.o)
                                0x36c (size before relaxing)
 .stab          0x000a9d04      0x3c0 /home/pcl2483/pedro/jadesoft/util/mcgen/Plib/libjt74opal.a(bostd3.o)
                                0x3cc (size before relaxing)
 .stab          0x000aa0c4      0x3c0 /home/pcl2483/pedro/jadesoft/util/mcgen/Plib/libjt74opal.a(bostr3.o)
                                0x3cc (size before relaxing)
 .stab          0x000aa484      0x444 /home/pcl2483/pedro/jadesoft/util/mcgen/Plib/libjt74opal.a(bwigs.o)
                                0x450 (size before relaxing)
 .stab          0x000aa8c8      0x9a8 /home/pcl2483/pedro/jadesoft/util/mcgen/Plib/libjt74opal.a(choice.o)
                                0x9b4 (size before relaxing)
 .stab          0x000ab270      0x780 /home/pcl2483/pedro/jadesoft/util/mcgen/Plib/libjt74opal.a(dadmaa.o)
                                0x78c (size before relaxing)
 .stab          0x000ab9f0      0x450 /home/pcl2483/pedro/jadesoft/util/mcgen/Plib/libjt74opal.a(dam4pi.o)
                                0x45c (size before relaxing)
 .stab          0x000abe40      0x804 /home/pcl2483/pedro/jadesoft/util/mcgen/Plib/libjt74opal.a(dampog.o)
                                0x810 (size before relaxing)
 .stab          0x000ac644      0xb10 /home/pcl2483/pedro/jadesoft/util/mcgen/Plib/libjt74opal.a(damppk.o)
                                0xb1c (size before relaxing)
 .stab          0x000ad154      0x378 /home/pcl2483/pedro/jadesoft/util/mcgen/Plib/libjt74opal.a(dampry.o)
                                0x384 (size before relaxing)
 .stab          0x000ad4cc      0x45c /home/pcl2483/pedro/jadesoft/util/mcgen/Plib/libjt74opal.a(dcdmas.o)
                                0x468 (size before relaxing)
 .stab          0x000ad928      0x42c /home/pcl2483/pedro/jadesoft/util/mcgen/Plib/libjt74opal.a(dphsaa.o)
                                0x438 (size before relaxing)
 .stab          0x000add54      0x594 /home/pcl2483/pedro/jadesoft/util/mcgen/Plib/libjt74opal.a(form1.o)
                                0x5a0 (size before relaxing)
 .stab          0x000ae2e8      0x624 /home/pcl2483/pedro/jadesoft/util/mcgen/Plib/libjt74opal.a(form2.o)
                                0x630 (size before relaxing)
 .stab          0x000ae90c      0x318 /home/pcl2483/pedro/jadesoft/util/mcgen/Plib/libjt74opal.a(form3.o)
                                0x324 (size before relaxing)
 .stab          0x000aec24      0x6cc /home/pcl2483/pedro/jadesoft/util/mcgen/Plib/libjt74opal.a(form4.o)
                                0x6d8 (size before relaxing)
 .stab          0x000af2f0      0x570 /home/pcl2483/pedro/jadesoft/util/mcgen/Plib/libjt74opal.a(form5.o)
                                0x57c (size before relaxing)
 .stab          0x000af860      0x4a4 /home/pcl2483/pedro/jadesoft/util/mcgen/Plib/libjt74opal.a(formom.o)
                                0x4b0 (size before relaxing)
 .stab          0x000afd04      0x3fc /home/pcl2483/pedro/jadesoft/util/mcgen/Plib/libjt74opal.a(fpik.o)
                                0x408 (size before relaxing)
 .stab          0x000b0100      0x420 /home/pcl2483/pedro/jadesoft/util/mcgen/Plib/libjt74opal.a(fpikm.o)
                                0x42c (size before relaxing)
 .stab          0x000b0520      0x474 /home/pcl2483/pedro/jadesoft/util/mcgen/Plib/libjt74opal.a(fpikmd.o)
                                0x480 (size before relaxing)
 .stab          0x000b0994      0x30c /home/pcl2483/pedro/jadesoft/util/mcgen/Plib/libjt74opal.a(gfun.o)
                                0x318 (size before relaxing)
 .stab          0x000b0ca0      0x474 /home/pcl2483/pedro/jadesoft/util/mcgen/Plib/libjt74opal.a(prod5.o)
                                0x480 (size before relaxing)
 .stab          0x000b1114      0x3a8 /home/pcl2483/pedro/jadesoft/util/mcgen/Plib/libjt74opal.a(rotod2.o)
                                0x3b4 (size before relaxing)
 .stab          0x000b14bc      0x3a8 /home/pcl2483/pedro/jadesoft/util/mcgen/Plib/libjt74opal.a(rotod3.o)
                                0x3b4 (size before relaxing)
 .stab          0x000b1864      0x66c /home/pcl2483/pedro/jadesoft/util/mcgen/Plib/libjt74opal.a(sqm2.o)
                                0x678 (size before relaxing)
 .stab          0x000b1ed0      0x810 /home/pcl2483/pedro/jadesoft/util/mcgen/Plib/libjt74opal.a(thb.o)
                                0x81c (size before relaxing)
 .stab          0x000b26e0      0x30c /home/pcl2483/pedro/jadesoft/util/mcgen/Plib/libjt74opal.a(wigfor.o)
                                0x318 (size before relaxing)
 .stab          0x000b29ec      0x3cc /home/pcl2483/pedro/jadesoft/util/mcgen/Plib/libjt74opal.a(bwig.o)
                                0x3d8 (size before relaxing)
 .stab          0x000b2db8      0x3cc /home/pcl2483/pedro/jadesoft/util/mcgen/Plib/libjt74opal.a(bwigm.o)
                                0x3d8 (size before relaxing)
 .stab          0x000b3184      0x4b0 /home/pcl2483/pedro/jadesoft/util/mcgen/Plib/libjt74opal.a(claxi.o)
                                0x4bc (size before relaxing)
 .stab          0x000b3634      0x300 /home/pcl2483/pedro/jadesoft/util/mcgen/Plib/libjt74opal.a(clnut.o)
                                0x30c (size before relaxing)
 .stab          0x000b3934      0x354 /home/pcl2483/pedro/jadesoft/util/mcgen/Plib/libjt74opal.a(clvec.o)
                                0x360 (size before relaxing)
 .stab          0x000b3c88      0xe58 /home/pcl2483/pedro/jadesoft/util/mcgen/Plib/libjt74opal.a(curr.o)
                                0xe64 (size before relaxing)
 .stab          0x000b4ae0      0x558 /home/pcl2483/pedro/jadesoft/util/mcgen/Plib/libjt74opal.a(dilog.o)
                                0x564 (size before relaxing)
 .stab          0x000b5038      0xe28 /home/pcl2483/pedro/jadesoft/util/mcgen/Plib/libckern105.a(ckern.o)
                                0xe34 (size before relaxing)
 .stab          0x000b5e60      0x600 /home/pcl2483/pedro/jadesoft/util/mcgen/Plib/libckern105.a(cksord.o)
                                0x60c (size before relaxing)
 .stab          0x000b6460      0x48c /home/pcl2483/pedro/jadesoft/util/mcgen/Plib/libckern105.a(cnjet.o)
                                0x498 (size before relaxing)
 .stab          0x000b68ec      0x45c /home/pcl2483/pedro/jadesoft/util/mcgen/Plib/libpx114.a(pxang3.o)
                                0x468 (size before relaxing)
 .stab          0x000b6d48      0x3d8 /home/pcl2483/pedro/jadesoft/util/mcgen/Plib/libpx114.a(pxanxy.o)
                                0x3e4 (size before relaxing)
 .stab          0x000b7120      0xb94 /home/pcl2483/pedro/jadesoft/util/mcgen/Plib/libpx114.a(pxcone.o)
                                0xba0 (size before relaxing)
 .stab          0x000b7cb4      0x330 /home/pcl2483/pedro/jadesoft/util/mcgen/Plib/libpx114.a(pxcopv.o)
                                0x33c (size before relaxing)
 .stab          0x000b7fe4      0x4b0 /home/pcl2483/pedro/jadesoft/util/mcgen/Plib/libpx114.a(pxjpdg.o)
                                0x4bc (size before relaxing)
 .stab          0x000b8494      0x7a4 /home/pcl2483/pedro/jadesoft/util/mcgen/Plib/libpx114.a(pxjsp3.o)
                                0x7b0 (size before relaxing)
 .stab          0x000b8c38      0x834 /home/pcl2483/pedro/jadesoft/util/mcgen/Plib/libpx114.a(pxlsp3.o)
                                0x840 (size before relaxing)
 .stab          0x000b946c      0x5c4 /home/pcl2483/pedro/jadesoft/util/mcgen/Plib/libpx114.a(pxlth4.o)
                                0x5d0 (size before relaxing)
 .stab          0x000b9a30      0xf30 /home/pcl2483/pedro/jadesoft/util/mcgen/Plib/libpx114.a(pxlut3.o)
                                0xf3c (size before relaxing)
 .stab          0x000ba960      0x390 /home/pcl2483/pedro/jadesoft/util/mcgen/Plib/libpx114.a(pxlzf5.o)
                                0x39c (size before relaxing)
 .stab          0x000bacf0      0x57c /home/pcl2483/pedro/jadesoft/util/mcgen/Plib/libpx114.a(pxmmbb.o)
                                0x588 (size before relaxing)
 .stab          0x000bb26c      0x3fc /home/pcl2483/pedro/jadesoft/util/mcgen/Plib/libpx114.a(pxnorv.o)
                                0x408 (size before relaxing)
 .stab          0x000bb668      0x858 /home/pcl2483/pedro/jadesoft/util/mcgen/Plib/libpx114.a(pxolap.o)
                                0x864 (size before relaxing)
 .stab          0x000bbec0      0x594 /home/pcl2483/pedro/jadesoft/util/mcgen/Plib/libpx114.a(pxord.o)
                                0x5a0 (size before relaxing)
 .stab          0x000bc454      0x42c /home/pcl2483/pedro/jadesoft/util/mcgen/Plib/libpx114.a(pxplt3.o)
                                0x438 (size before relaxing)
 .stab          0x000bc880      0x384 /home/pcl2483/pedro/jadesoft/util/mcgen/Plib/libpx114.a(pxplu3.o)
                                0x390 (size before relaxing)
 .stab          0x000bcc04      0x510 /home/pcl2483/pedro/jadesoft/util/mcgen/Plib/libpx114.a(pxprcv.o)
                                0x51c (size before relaxing)
 .stab          0x000bd114      0x504 /home/pcl2483/pedro/jadesoft/util/mcgen/Plib/libpx114.a(pxprrv.o)
                                0x510 (size before relaxing)
 .stab          0x000bd618      0x498 /home/pcl2483/pedro/jadesoft/util/mcgen/Plib/libpx114.a(pxrap4.o)
                                0x4a4 (size before relaxing)
 .stab          0x000bdab0      0x444 /home/pcl2483/pedro/jadesoft/util/mcgen/Plib/libpx114.a(pxrmx3.o)
                                0x450 (size before relaxing)
 .stab          0x000bdef4      0x348 /home/pcl2483/pedro/jadesoft/util/mcgen/Plib/libpx114.a(pxrob3.o)
                                0x354 (size before relaxing)
 .stab          0x000be23c      0x348 /home/pcl2483/pedro/jadesoft/util/mcgen/Plib/libpx114.a(pxrof3.o)
                                0x354 (size before relaxing)
 .stab          0x000be584      0x63c /home/pcl2483/pedro/jadesoft/util/mcgen/Plib/libpx114.a(pxsear.o)
                                0x648 (size before relaxing)
 .stab          0x000bebc0      0x570 /home/pcl2483/pedro/jadesoft/util/mcgen/Plib/libpx114.a(pxsorv.o)
                                0x57c (size before relaxing)
 .stab          0x000bf130      0x588 /home/pcl2483/pedro/jadesoft/util/mcgen/Plib/libpx114.a(pxtry.o)
                                0x594 (size before relaxing)
 .stab          0x000bf6b8      0x444 /home/pcl2483/pedro/jadesoft/util/mcgen/Plib/libpx114.a(pxuvec.o)
                                0x450 (size before relaxing)
 .stab          0x000bfafc      0x324 /home/pcl2483/pedro/jadesoft/util/mcgen/Plib/libpx114.a(pxzerv.o)
                                0x330 (size before relaxing)
 .stab          0x000bfe20      0xf3c /home/pcl2483/pedro/jadesoft/util/mcgen/Plib/libpx114.a(ykern.o)
                                0xf48 (size before relaxing)
 .stab          0x000c0d5c      0x42c /home/pcl2483/pedro/jadesoft/util/mcgen/Plib/libpx114.a(ynjet.o)
                                0x438 (size before relaxing)
 .stab          0x000c1188      0x474 /home/pcl2483/pedro/jadesoft/util/mcgen/Plib/libpx114.a(yyjet.o)
                                0x480 (size before relaxing)
 .stab          0x000c15fc      0x354 /home/pcl2483/pedro/jadesoft/util/mcgen/Plib/libpx114.a(pxaddv.o)
                                0x360 (size before relaxing)
 .stab          0x000c1950      0x9a8 /home/pcl2483/pedro/jadesoft/util/mcgen/Plib/libpx114.a(pxdiam.o)
                                0x9b4 (size before relaxing)
 .stab          0x000c22f8      0x3d8 /home/pcl2483/pedro/jadesoft/util/mcgen/Plib/libpx114.a(pxmulm.o)
                                0x3e4 (size before relaxing)
 .stab          0x000c26d0      0x408 /home/pcl2483/pedro/jadesoft/util/mcgen/Plib/libpx114.a(pxnew.o)
                                0x414 (size before relaxing)
 .stab          0x000c2ad8      0x36c /home/pcl2483/pedro/jadesoft/util/mcgen/Plib/libpx114.a(pxsame.o)
                                0x378 (size before relaxing)
 .stab          0x000c2e44      0x3a8 /home/pcl2483/pedro/jadesoft/util/mcgen/Plib/libpx114.a(pxunim.o)
                                0x3b4 (size before relaxing)
 .stab          0x000c31ec      0xd80 /usr/lib/gcc-lib/i686-pc-linux-gnu/2.95.3/libg2c.a(close.o)
                                0xdc8 (size before relaxing)
 .stab          0x000c3f6c      0x1bc /usr/lib/gcc-lib/i686-pc-linux-gnu/2.95.3/libg2c.a(dolio.o)
                                0x3fc (size before relaxing)
 .stab          0x000c4128      0x5d0 /usr/lib/gcc-lib/i686-pc-linux-gnu/2.95.3/libg2c.a(due.o)
                                0xdec (size before relaxing)
 .stab          0x000c46f8      0x6c0 /usr/lib/gcc-lib/i686-pc-linux-gnu/2.95.3/libg2c.a(endfile.o)
                                0xf18 (size before relaxing)
 .stab          0x000c4db8     0x13a4 /usr/lib/gcc-lib/i686-pc-linux-gnu/2.95.3/libg2c.a(err.o)
                               0x1554 (size before relaxing)
 .stab          0x000c615c     0x15a8 /usr/lib/gcc-lib/i686-pc-linux-gnu/2.95.3/libg2c.a(fmt.o)
                               0x1dc4 (size before relaxing)
 .stab          0x000c7704      0x93c /usr/lib/gcc-lib/i686-pc-linux-gnu/2.95.3/libg2c.a(iio.o)
                               0x1188 (size before relaxing)
 .stab          0x000c8040      0x678 /usr/lib/gcc-lib/i686-pc-linux-gnu/2.95.3/libg2c.a(inquire.o)
                                0xe94 (size before relaxing)
 .stab          0x000c86b8     0x1a28 /usr/lib/gcc-lib/i686-pc-linux-gnu/2.95.3/libg2c.a(lread.o)
                               0x22b0 (size before relaxing)
 .stab          0x000ca0e0      0xe94 /usr/lib/gcc-lib/i686-pc-linux-gnu/2.95.3/libg2c.a(open.o)
                               0x16d4 (size before relaxing)
 .stab          0x000caf74     0x17f4 /usr/lib/gcc-lib/i686-pc-linux-gnu/2.95.3/libg2c.a(rdfmt.o)
                               0x20a0 (size before relaxing)
 .stab          0x000cc768      0x3c0 /usr/lib/gcc-lib/i686-pc-linux-gnu/2.95.3/libg2c.a(rewind.o)
                                0xbdc (size before relaxing)
 .stab          0x000ccb28      0x66c /usr/lib/gcc-lib/i686-pc-linux-gnu/2.95.3/libg2c.a(rsfe.o)
                                0xeb8 (size before relaxing)
 .stab          0x000cd194      0x444 /usr/lib/gcc-lib/i686-pc-linux-gnu/2.95.3/libg2c.a(sfe.o)
                                0xc60 (size before relaxing)
 .stab          0x000cd5d8      0x678 /usr/lib/gcc-lib/i686-pc-linux-gnu/2.95.3/libg2c.a(sue.o)
                                0xe94 (size before relaxing)
 .stab          0x000cdc50      0x744 /usr/lib/gcc-lib/i686-pc-linux-gnu/2.95.3/libg2c.a(uio.o)
                                0xf6c (size before relaxing)
 .stab          0x000ce394      0x5a0 /usr/lib/gcc-lib/i686-pc-linux-gnu/2.95.3/libg2c.a(util.o)
                                0xf30 (size before relaxing)
 .stab          0x000ce934     0x1308 /usr/lib/gcc-lib/i686-pc-linux-gnu/2.95.3/libg2c.a(wrtfmt.o)
                               0x1b54 (size before relaxing)
 .stab          0x000cfc3c      0x63c /usr/lib/gcc-lib/i686-pc-linux-gnu/2.95.3/libg2c.a(wsfe.o)
                                0xe88 (size before relaxing)
 .stab          0x000d0278      0x444 /usr/lib/gcc-lib/i686-pc-linux-gnu/2.95.3/libg2c.a(wsle.o)
                                0xc90 (size before relaxing)
 .stab          0x000d06bc      0xb40 /usr/lib/gcc-lib/i686-pc-linux-gnu/2.95.3/libg2c.a(main.o)
                                0xf48 (size before relaxing)
 .stab          0x000d11fc      0x450 /usr/lib/gcc-lib/i686-pc-linux-gnu/2.95.3/libg2c.a(s_stop.o)
                                0xf18 (size before relaxing)
 .stab          0x000d164c      0x408 /usr/lib/gcc-lib/i686-pc-linux-gnu/2.95.3/libg2c.a(sig_die.o)
                                0xf00 (size before relaxing)
 .stab          0x000d1a54      0x2c4 /usr/lib/gcc-lib/i686-pc-linux-gnu/2.95.3/libg2c.a(setarg.o)
                                0x948 (size before relaxing)
 .stab          0x000d1d18      0x504 /usr/lib/gcc-lib/i686-pc-linux-gnu/2.95.3/libg2c.a(setsig.o)
                               0x1020 (size before relaxing)
 .stab          0x000d221c      0x264 /usr/lib/gcc-lib/i686-pc-linux-gnu/2.95.3/libg2c.a(pow_dd.o)
                                0x4e0 (size before relaxing)
 .stab          0x000d2480      0x174 /usr/lib/gcc-lib/i686-pc-linux-gnu/2.95.3/libg2c.a(c_abs.o)
                                0x3b4 (size before relaxing)
 .stab          0x000d25f4      0x2d0 /usr/lib/gcc-lib/i686-pc-linux-gnu/2.95.3/libg2c.a(c_log.o)
                                0x5ac (size before relaxing)
 .stab          0x000d28c4      0x1ec /usr/lib/gcc-lib/i686-pc-linux-gnu/2.95.3/libg2c.a(r_lg10.o)
                                0x4c8 (size before relaxing)
 .stab          0x000d2ab0      0x240 /usr/lib/gcc-lib/i686-pc-linux-gnu/2.95.3/libg2c.a(r_mod.o)
                                0x480 (size before relaxing)
 .stab          0x000d2cf0      0x240 /usr/lib/gcc-lib/i686-pc-linux-gnu/2.95.3/libg2c.a(d_mod.o)
                                0x480 (size before relaxing)
 .stab          0x000d2f30      0x294 /usr/lib/gcc-lib/i686-pc-linux-gnu/2.95.3/libg2c.a(i_indx.o)
                                0x4d4 (size before relaxing)
 .stab          0x000d31c4      0x1bc /usr/lib/gcc-lib/i686-pc-linux-gnu/2.95.3/libg2c.a(l_gt.o)
                                0x3fc (size before relaxing)
 .stab          0x000d3380      0x1bc /usr/lib/gcc-lib/i686-pc-linux-gnu/2.95.3/libg2c.a(l_lt.o)
                                0x3fc (size before relaxing)
 .stab          0x000d353c      0x93c /usr/lib/gcc-lib/i686-pc-linux-gnu/2.95.3/libg2c.a(s_cat.o)
                               0x114c (size before relaxing)
 .stab          0x000d3e78      0x2f4 /usr/lib/gcc-lib/i686-pc-linux-gnu/2.95.3/libg2c.a(s_cmp.o)
                                0x534 (size before relaxing)
 .stab          0x000d416c      0x2d0 /usr/lib/gcc-lib/i686-pc-linux-gnu/2.95.3/libg2c.a(s_copy.o)
                                0x510 (size before relaxing)
 .stab          0x000d443c      0x1d4 /usr/lib/gcc-lib/i686-pc-linux-gnu/2.95.3/libg2c.a(lnblnk_.o)
                                0x414 (size before relaxing)
 .stab          0x000d4610      0x2dc /usr/lib/gcc-lib/i686-pc-linux-gnu/2.95.3/libg2c.a(fmtlib.o)
                                0x51c (size before relaxing)
 .stab          0x000d48ec      0xd20 /usr/lib/gcc-lib/i686-pc-linux-gnu/2.95.3/libg2c.a(lwrite.o)
                               0x1584 (size before relaxing)
 .stab          0x000d560c      0xd14 /usr/lib/gcc-lib/i686-pc-linux-gnu/2.95.3/libg2c.a(wref.o)
                               0x15c0 (size before relaxing)
 .stab          0x000d6320      0x3a8 /usr/lib/gcc-lib/i686-pc-linux-gnu/2.95.3/libg2c.a(F77_aloc.o)
                                0xef4 (size before relaxing)
 .stab          0x000d66c8      0x324 /usr/lib/gcc-lib/i686-pc-linux-gnu/2.95.3/libg2c.a(cabs.o)
                                0x39c (size before relaxing)
 .stab          0x000d69ec      0x27c /usr/lib/gcc-lib/i686-pc-linux-gnu/2.95.3/libg2c.a(exit_.o)
                                0xb58 (size before relaxing)

.stabstr        0x00000000    0x37763
 *(.stabstr)
 .stabstr       0x00000000    0x37763 mcar48p_105j.o
                                  0x0 (size before relaxing)

.stab.excl
 *(.stab.excl)

.stab.exclstr
 *(.stab.exclstr)

.stab.index
 *(.stab.index)

.stab.indexstr
 *(.stab.indexstr)

.comment        0x00000000     0x85b3
 *(.comment)
 .comment       0x00000000       0x26 /usr/lib/crt1.o
 .comment       0x00000026       0x26 /usr/lib/crti.o
 .comment       0x0000004c       0x26 /usr/lib/gcc-lib/i686-pc-linux-gnu/2.95.3/crtbegin.o
 .comment       0x00000072       0x26 mcar48p_105j.o
 .comment       0x00000098       0x26 /home/pcl2483/pedro/jadesoft/util/mcgen/Plib/libmc105j.a(mcgetf.o)
 .comment       0x000000be       0x26 /home/pcl2483/pedro/jadesoft/util/mcgen/Plib/libmc105j.a(mcgeth.o)
 .comment       0x000000e4       0x26 /home/pcl2483/pedro/jadesoft/util/mcgen/Plib/libmc105j.a(mcgetp.o)
 .comment       0x0000010a       0x26 /home/pcl2483/pedro/jadesoft/util/mcgen/Plib/libmc105j.a(mcinit.o)
 .comment       0x00000130       0x26 /home/pcl2483/pedro/jadesoft/util/mcgen/Plib/libmc105j.a(mcstbl.o)
 .comment       0x00000156       0x26 /home/pcl2483/pedro/jadesoft/util/mcgen/Plib/libmc105j.a(mcwrit.o)
 .comment       0x0000017c       0x26 /home/pcl2483/pedro/jadesoft/util/mcgen/Plib/libmc105j.a(mytype.o)
 .comment       0x000001a2       0x26 /home/pcl2483/pedro/jadesoft/util/mcgen/Plib/libmc105j.a(pxeecb.o)
 .comment       0x000001c8       0x26 /home/pcl2483/pedro/jadesoft/util/mcgen/Plib/libmc105j.a(evwrtj.o)
 .comment       0x000001ee       0x26 /home/pcl2483/pedro/jadesoft/util/mcgen/Plib/libmc105j.a(incprd.o)
 .comment       0x00000214       0x26 /home/pcl2483/pedro/jadesoft/util/mcgen/Plib/libmc105j.a(jadeco.o)
 .comment       0x0000023a       0x26 /home/pcl2483/pedro/jadesoft/util/mcgen/Plib/libmc105j.a(jtconv.o)
 .comment       0x00000260       0x26 /home/pcl2483/pedro/jadesoft/util/mcgen/Plib/libmc105j.a(mcrnst.o)
 .comment       0x00000286       0x26 /home/pcl2483/pedro/jadesoft/util/mcgen/Plib/libmc105j.a(ntcprd.o)
 .comment       0x000002ac       0x26 /home/pcl2483/pedro/jadesoft/util/mcgen/Plib/libmc105j.a(prcprd.o)
 .comment       0x000002d2       0x26 /home/pcl2483/pedro/jadesoft/util/mcgen/Plib/libmc105j.a(wrcprd.o)
 .comment       0x000002f8       0x26 /home/pcl2483/pedro/jadesoft/util/mcgen/Plib/libpythia5722.a(pydata.o)
 .comment       0x0000031e       0x26 /home/pcl2483/pedro/jadesoft/util/mcgen/Plib/libpythia5722.a(pyevnt.o)
 .comment       0x00000344       0x26 /home/pcl2483/pedro/jadesoft/util/mcgen/Plib/libpythia5722.a(pyfram.o)
 .comment       0x0000036a       0x26 /home/pcl2483/pedro/jadesoft/util/mcgen/Plib/libpythia5722.a(pyinit.o)
 .comment       0x00000390       0x26 /home/pcl2483/pedro/jadesoft/util/mcgen/Plib/libpythia5722.a(pyinki.o)
 .comment       0x000003b6       0x26 /home/pcl2483/pedro/jadesoft/util/mcgen/Plib/libpythia5722.a(pyinpr.o)
 .comment       0x000003dc       0x26 /home/pcl2483/pedro/jadesoft/util/mcgen/Plib/libpythia5722.a(pyinre.o)
 .comment       0x00000402       0x26 /home/pcl2483/pedro/jadesoft/util/mcgen/Plib/libpythia5722.a(pymaxi.o)
 .comment       0x00000428       0x26 /home/pcl2483/pedro/jadesoft/util/mcgen/Plib/libpythia5722.a(pymult.o)
 .comment       0x0000044e       0x26 /home/pcl2483/pedro/jadesoft/util/mcgen/Plib/libpythia5722.a(pyofsh.o)
 .comment       0x00000474       0x26 /home/pcl2483/pedro/jadesoft/util/mcgen/Plib/libpythia5722.a(pypile.o)
 .comment       0x0000049a       0x26 /home/pcl2483/pedro/jadesoft/util/mcgen/Plib/libpythia5722.a(pyrand.o)
 .comment       0x000004c0       0x26 /home/pcl2483/pedro/jadesoft/util/mcgen/Plib/libpythia5722.a(pyremn.o)
 .comment       0x000004e6       0x26 /home/pcl2483/pedro/jadesoft/util/mcgen/Plib/libpythia5722.a(pyresd.o)
 .comment       0x0000050c       0x26 /home/pcl2483/pedro/jadesoft/util/mcgen/Plib/libpythia5722.a(pysave.o)
 .comment       0x00000532       0x26 /home/pcl2483/pedro/jadesoft/util/mcgen/Plib/libpythia5722.a(pyscat.o)
 .comment       0x00000558       0x26 /home/pcl2483/pedro/jadesoft/util/mcgen/Plib/libpythia5722.a(pysigh.o)
 .comment       0x0000057e       0x26 /home/pcl2483/pedro/jadesoft/util/mcgen/Plib/libpythia5722.a(pyspli.o)
 .comment       0x000005a4       0x26 /home/pcl2483/pedro/jadesoft/util/mcgen/Plib/libpythia5722.a(pysspa.o)
 .comment       0x000005ca       0x26 /home/pcl2483/pedro/jadesoft/util/mcgen/Plib/libpythia5722.a(pystfl.o)
 .comment       0x000005f0       0x26 /home/pcl2483/pedro/jadesoft/util/mcgen/Plib/libpythia5722.a(pystfu.o)
 .comment       0x00000616       0x26 /home/pcl2483/pedro/jadesoft/util/mcgen/Plib/libpythia5722.a(pystga.o)
 .comment       0x0000063c       0x26 /home/pcl2483/pedro/jadesoft/util/mcgen/Plib/libpythia5722.a(pystpi.o)
 .comment       0x00000662       0x26 /home/pcl2483/pedro/jadesoft/util/mcgen/Plib/libpythia5722.a(pystpr.o)
 .comment       0x00000688       0x26 /home/pcl2483/pedro/jadesoft/util/mcgen/Plib/libpythia5722.a(pyupev.o)
 .comment       0x000006ae       0x26 /home/pcl2483/pedro/jadesoft/util/mcgen/Plib/libpythia5722.a(pywaux.o)
 .comment       0x000006d4       0x26 /home/pcl2483/pedro/jadesoft/util/mcgen/Plib/libpythia5722.a(pywidt.o)
 .comment       0x000006fa       0x26 /home/pcl2483/pedro/jadesoft/util/mcgen/Plib/libpythia5722.a(pyxtot.o)
 .comment       0x00000720       0x26 /home/pcl2483/pedro/jadesoft/util/mcgen/Plib/libpythia5722.a(rkbbv.o)
 .comment       0x00000746       0x26 /home/pcl2483/pedro/jadesoft/util/mcgen/Plib/libpythia5722.a(rkdot.o)
 .comment       0x0000076c       0x26 /home/pcl2483/pedro/jadesoft/util/mcgen/Plib/libpythia5722.a(rkhlpk.o)
 .comment       0x00000792       0x26 /home/pcl2483/pedro/jadesoft/util/mcgen/Plib/libpythia5722.a(rkrand.o)
 .comment       0x000007b8       0x26 /home/pcl2483/pedro/jadesoft/util/mcgen/Plib/libpythia5722.a(rkzf.o)
 .comment       0x000007de       0x26 /home/pcl2483/pedro/jadesoft/util/mcgen/Plib/libpythia5722.a(rkzpr.o)
 .comment       0x00000804       0x26 /home/pcl2483/pedro/jadesoft/util/mcgen/Plib/libpythia5722.a(rkzsf.o)
 .comment       0x0000082a       0x26 /home/pcl2483/pedro/jadesoft/util/mcgen/Plib/libpythia5722.a(structm.o)
 .comment       0x00000850       0x26 /home/pcl2483/pedro/jadesoft/util/mcgen/Plib/libpythia5722.a(pdfset.o)
 .comment       0x00000876       0x26 /home/pcl2483/pedro/jadesoft/util/mcgen/Plib/libpythia5722.a(pyctq2.o)
 .comment       0x0000089c       0x26 /home/pcl2483/pedro/jadesoft/util/mcgen/Plib/libpythia5722.a(pydiff.o)
 .comment       0x000008c2       0x26 /home/pcl2483/pedro/jadesoft/util/mcgen/Plib/libpythia5722.a(pydocu.o)
 .comment       0x000008e8       0x26 /home/pcl2483/pedro/jadesoft/util/mcgen/Plib/libpythia5722.a(pyevwt.o)
 .comment       0x0000090e       0x26 /home/pcl2483/pedro/jadesoft/util/mcgen/Plib/libpythia5722.a(pygamm.o)
 .comment       0x00000934       0x26 /home/pcl2483/pedro/jadesoft/util/mcgen/Plib/libpythia5722.a(pygano.o)
 .comment       0x0000095a       0x26 /home/pcl2483/pedro/jadesoft/util/mcgen/Plib/libpythia5722.a(pyggam.o)
 .comment       0x00000980       0x26 /home/pcl2483/pedro/jadesoft/util/mcgen/Plib/libpythia5722.a(pygvmd.o)
 .comment       0x000009a6       0x26 /home/pcl2483/pedro/jadesoft/util/mcgen/Plib/libpythia5722.a(pyhfth.o)
 .comment       0x000009cc       0x26 /home/pcl2483/pedro/jadesoft/util/mcgen/Plib/libpythia5722.a(pyi3au.o)
 .comment       0x000009f2       0x26 /home/pcl2483/pedro/jadesoft/util/mcgen/Plib/libpythia5722.a(pyinbm.o)
 .comment       0x00000a18       0x26 /home/pcl2483/pedro/jadesoft/util/mcgen/Plib/libpythia5722.a(pykcut.o)
 .comment       0x00000a3e       0x26 /home/pcl2483/pedro/jadesoft/util/mcgen/Plib/libpythia5722.a(pyklim.o)
 .comment       0x00000a64       0x26 /home/pcl2483/pedro/jadesoft/util/mcgen/Plib/libpythia5722.a(pykmap.o)
 .comment       0x00000a8a       0x26 /home/pcl2483/pedro/jadesoft/util/mcgen/Plib/libpythia5722.a(pyqqbh.o)
 .comment       0x00000ab0       0x26 /home/pcl2483/pedro/jadesoft/util/mcgen/Plib/libpythia5722.a(pyspen.o)
 .comment       0x00000ad6       0x26 /home/pcl2483/pedro/jadesoft/util/mcgen/Plib/libpythia5722.a(pystel.o)
 .comment       0x00000afc       0x26 /home/pcl2483/pedro/jadesoft/util/mcgen/Plib/libpythia5722.a(pygbeh.o)
 .comment       0x00000b22       0x26 /home/pcl2483/pedro/jadesoft/util/mcgen/Plib/libpythia5722.a(pygdir.o)
 .comment       0x00000b48       0x26 /home/pcl2483/pedro/jadesoft/util/mcgen/Plib/libariadne408.a(ardata.o)
 .comment       0x00000b6e       0x26 /home/pcl2483/pedro/jadesoft/util/mcgen/Plib/libariadne408.a(arexec.o)
 .comment       0x00000b94       0x26 /home/pcl2483/pedro/jadesoft/util/mcgen/Plib/libariadne408.a(arinit.o)
 .comment       0x00000bba       0x26 /home/pcl2483/pedro/jadesoft/util/mcgen/Plib/libariadne408.a(arlept.o)
 .comment       0x00000be0       0x26 /home/pcl2483/pedro/jadesoft/util/mcgen/Plib/libariadne408.a(arpars.o)
 .comment       0x00000c06       0x26 /home/pcl2483/pedro/jadesoft/util/mcgen/Plib/libariadne408.a(arphas.o)
 .comment       0x00000c2c       0x26 /home/pcl2483/pedro/jadesoft/util/mcgen/Plib/libariadne408.a(arptqq.o)
 .comment       0x00000c52       0x26 /home/pcl2483/pedro/jadesoft/util/mcgen/Plib/libariadne408.a(arpyth.o)
 .comment       0x00000c78       0x26 /home/pcl2483/pedro/jadesoft/util/mcgen/Plib/libariadne408.a(arpyww.o)
 .comment       0x00000c9e       0x26 /home/pcl2483/pedro/jadesoft/util/mcgen/Plib/libariadne408.a(arremn.o)
 .comment       0x00000cc4       0x26 /home/pcl2483/pedro/jadesoft/util/mcgen/Plib/libariadne408.a(arscan.o)
 .comment       0x00000cea       0x26 /home/pcl2483/pedro/jadesoft/util/mcgen/Plib/libariadne408.a(arstra.o)
 .comment       0x00000d10       0x26 /home/pcl2483/pedro/jadesoft/util/mcgen/Plib/libariadne408.a(artune.o)
 .comment       0x00000d36       0x26 /home/pcl2483/pedro/jadesoft/util/mcgen/Plib/libariadne408.a(arupom.o)
 .comment       0x00000d5c       0x26 /home/pcl2483/pedro/jadesoft/util/mcgen/Plib/libariadne408.a(arzcms.o)
 .comment       0x00000d82       0x26 /home/pcl2483/pedro/jadesoft/util/mcgen/Plib/libariadne408.a(lnstrf.o)
 .comment       0x00000da8       0x26 /home/pcl2483/pedro/jadesoft/util/mcgen/Plib/libariadne408.a(arbole.o)
 .comment       0x00000dce       0x26 /home/pcl2483/pedro/jadesoft/util/mcgen/Plib/libariadne408.a(arbopy.o)
 .comment       0x00000df4       0x26 /home/pcl2483/pedro/jadesoft/util/mcgen/Plib/libariadne408.a(arcasc.o)
 .comment       0x00000e1a       0x26 /home/pcl2483/pedro/jadesoft/util/mcgen/Plib/libariadne408.a(archem.o)
 .comment       0x00000e40       0x26 /home/pcl2483/pedro/jadesoft/util/mcgen/Plib/libariadne408.a(arcoli.o)
 .comment       0x00000e66       0x26 /home/pcl2483/pedro/jadesoft/util/mcgen/Plib/libariadne408.a(arcont.o)
 .comment       0x00000e8c       0x26 /home/pcl2483/pedro/jadesoft/util/mcgen/Plib/libariadne408.a(arcopa.o)
 .comment       0x00000eb2       0x26 /home/pcl2483/pedro/jadesoft/util/mcgen/Plib/libariadne408.a(arcrdi.o)
 .comment       0x00000ed8       0x26 /home/pcl2483/pedro/jadesoft/util/mcgen/Plib/libariadne408.a(ardump.o)
 .comment       0x00000efe       0x26 /home/pcl2483/pedro/jadesoft/util/mcgen/Plib/libariadne408.a(arerrm.o)
 .comment       0x00000f24       0x26 /home/pcl2483/pedro/jadesoft/util/mcgen/Plib/libariadne408.a(arevol.o)
 .comment       0x00000f4a       0x26 /home/pcl2483/pedro/jadesoft/util/mcgen/Plib/libariadne408.a(arexma.o)
 .comment       0x00000f70       0x26 /home/pcl2483/pedro/jadesoft/util/mcgen/Plib/libariadne408.a(arfidy.o)
 .comment       0x00000f96       0x26 /home/pcl2483/pedro/jadesoft/util/mcgen/Plib/libariadne408.a(argpt2.o)
 .comment       0x00000fbc       0x26 /home/pcl2483/pedro/jadesoft/util/mcgen/Plib/libariadne408.a(argqcd.o)
 .comment       0x00000fe2       0x26 /home/pcl2483/pedro/jadesoft/util/mcgen/Plib/libariadne408.a(argqcg.o)
 .comment       0x00001008       0x26 /home/pcl2483/pedro/jadesoft/util/mcgen/Plib/libariadne408.a(argqcq.o)
 .comment       0x0000102e       0x26 /home/pcl2483/pedro/jadesoft/util/mcgen/Plib/libariadne408.a(argqed.o)
 .comment       0x00001054       0x26 /home/pcl2483/pedro/jadesoft/util/mcgen/Plib/libariadne408.a(argtyp.o)
 .comment       0x0000107a       0x26 /home/pcl2483/pedro/jadesoft/util/mcgen/Plib/libariadne408.a(arincr.o)
 .comment       0x000010a0       0x26 /home/pcl2483/pedro/jadesoft/util/mcgen/Plib/libariadne408.a(arinqq.o)
 .comment       0x000010c6       0x26 /home/pcl2483/pedro/jadesoft/util/mcgen/Plib/libariadne408.a(armade.o)
 .comment       0x000010ec       0x26 /home/pcl2483/pedro/jadesoft/util/mcgen/Plib/libariadne408.a(armas2.o)
 .comment       0x00001112       0x26 /home/pcl2483/pedro/jadesoft/util/mcgen/Plib/libariadne408.a(armass.o)
 .comment       0x00001138       0x26 /home/pcl2483/pedro/jadesoft/util/mcgen/Plib/libariadne408.a(armcdi.o)
 .comment       0x0000115e       0x26 /home/pcl2483/pedro/jadesoft/util/mcgen/Plib/libariadne408.a(armipt.o)
 .comment       0x00001184       0x26 /home/pcl2483/pedro/jadesoft/util/mcgen/Plib/libariadne408.a(armtqq.o)
 .comment       0x000011aa       0x26 /home/pcl2483/pedro/jadesoft/util/mcgen/Plib/libariadne408.a(arndx1.o)
 .comment       0x000011d0       0x26 /home/pcl2483/pedro/jadesoft/util/mcgen/Plib/libariadne408.a(arndx2.o)
 .comment       0x000011f6       0x26 /home/pcl2483/pedro/jadesoft/util/mcgen/Plib/libariadne408.a(arndx3.o)
 .comment       0x0000121c       0x26 /home/pcl2483/pedro/jadesoft/util/mcgen/Plib/libariadne408.a(arndy1.o)
 .comment       0x00001242       0x26 /home/pcl2483/pedro/jadesoft/util/mcgen/Plib/libariadne408.a(arndy2.o)
 .comment       0x00001268       0x26 /home/pcl2483/pedro/jadesoft/util/mcgen/Plib/libariadne408.a(arndy3.o)
 .comment       0x0000128e       0x26 /home/pcl2483/pedro/jadesoft/util/mcgen/Plib/libariadne408.a(arndy4.o)
 .comment       0x000012b4       0x26 /home/pcl2483/pedro/jadesoft/util/mcgen/Plib/libariadne408.a(arniqq.o)
 .comment       0x000012da       0x26 /home/pcl2483/pedro/jadesoft/util/mcgen/Plib/libariadne408.a(arnofl.o)
 .comment       0x00001300       0x26 /home/pcl2483/pedro/jadesoft/util/mcgen/Plib/libariadne408.a(arobo1.o)
 .comment       0x00001326       0x26 /home/pcl2483/pedro/jadesoft/util/mcgen/Plib/libariadne408.a(arobo2.o)
 .comment       0x0000134c       0x26 /home/pcl2483/pedro/jadesoft/util/mcgen/Plib/libariadne408.a(arobo3.o)
 .comment       0x00001372       0x26 /home/pcl2483/pedro/jadesoft/util/mcgen/Plib/libariadne408.a(arpcms.o)
 .comment       0x00001398       0x26 /home/pcl2483/pedro/jadesoft/util/mcgen/Plib/libariadne408.a(arpoki.o)
 .comment       0x000013be       0x26 /home/pcl2483/pedro/jadesoft/util/mcgen/Plib/libariadne408.a(arposf.o)
 .comment       0x000013e4       0x26 /home/pcl2483/pedro/jadesoft/util/mcgen/Plib/libariadne408.a(arprda.o)
 .comment       0x0000140a       0x26 /home/pcl2483/pedro/jadesoft/util/mcgen/Plib/libariadne408.a(arprdy.o)
 .comment       0x00001430       0x26 /home/pcl2483/pedro/jadesoft/util/mcgen/Plib/libariadne408.a(arprgc.o)
 .comment       0x00001456       0x26 /home/pcl2483/pedro/jadesoft/util/mcgen/Plib/libariadne408.a(arrobo.o)
 .comment       0x0000147c       0x26 /home/pcl2483/pedro/jadesoft/util/mcgen/Plib/libariadne408.a(arsume.o)
 .comment       0x000014a2       0x26 /home/pcl2483/pedro/jadesoft/util/mcgen/Plib/libariadne408.a(arvet1.o)
 .comment       0x000014c8       0x26 /home/pcl2483/pedro/jadesoft/util/mcgen/Plib/libariadne408.a(arvet3.o)
 .comment       0x000014ee       0x26 /home/pcl2483/pedro/jadesoft/util/mcgen/Plib/libariadne408.a(arvet4.o)
 .comment       0x00001514       0x26 /home/pcl2483/pedro/jadesoft/util/mcgen/Plib/libariadne408.a(arvet5.o)
 .comment       0x0000153a       0x26 /home/pcl2483/pedro/jadesoft/util/mcgen/Plib/libariadne408.a(arveth.o)
 .comment       0x00001560       0x26 /home/pcl2483/pedro/jadesoft/util/mcgen/Plib/libariadne408.a(arbocm.o)
 .comment       0x00001586       0x26 /home/pcl2483/pedro/jadesoft/util/mcgen/Plib/libariadne408.a(archki.o)
 .comment       0x000015ac       0x26 /home/pcl2483/pedro/jadesoft/util/mcgen/Plib/libariadne408.a(ardbrb.o)
 .comment       0x000015d2       0x26 /home/pcl2483/pedro/jadesoft/util/mcgen/Plib/libariadne408.a(arearr.o)
 .comment       0x000015f8       0x26 /home/pcl2483/pedro/jadesoft/util/mcgen/Plib/libariadne408.a(aremit.o)
 .comment       0x0000161e       0x26 /home/pcl2483/pedro/jadesoft/util/mcgen/Plib/libariadne408.a(arevst.o)
 .comment       0x00001644       0x26 /home/pcl2483/pedro/jadesoft/util/mcgen/Plib/libariadne408.a(argdis.o)
 .comment       0x0000166a       0x26 /home/pcl2483/pedro/jadesoft/util/mcgen/Plib/libariadne408.a(arging.o)
 .comment       0x00001690       0x26 /home/pcl2483/pedro/jadesoft/util/mcgen/Plib/libariadne408.a(aripsf.o)
 .comment       0x000016b6       0x26 /home/pcl2483/pedro/jadesoft/util/mcgen/Plib/libariadne408.a(aript2.o)
 .comment       0x000016dc       0x26 /home/pcl2483/pedro/jadesoft/util/mcgen/Plib/libariadne408.a(arjoqq.o)
 .comment       0x00001702       0x26 /home/pcl2483/pedro/jadesoft/util/mcgen/Plib/libariadne408.a(arjost.o)
 .comment       0x00001728       0x26 /home/pcl2483/pedro/jadesoft/util/mcgen/Plib/libariadne408.a(armas3.o)
 .comment       0x0000174e       0x26 /home/pcl2483/pedro/jadesoft/util/mcgen/Plib/libariadne408.a(arpadd.o)
 .comment       0x00001774       0x26 /home/pcl2483/pedro/jadesoft/util/mcgen/Plib/libariadne408.a(arradg.o)
 .comment       0x0000179a       0x26 /home/pcl2483/pedro/jadesoft/util/mcgen/Plib/libariadne408.a(arradp.o)
 .comment       0x000017c0       0x26 /home/pcl2483/pedro/jadesoft/util/mcgen/Plib/libariadne408.a(arradq.o)
 .comment       0x000017e6       0x26 /home/pcl2483/pedro/jadesoft/util/mcgen/Plib/libariadne408.a(arreca.o)
 .comment       0x0000180c       0x26 /home/pcl2483/pedro/jadesoft/util/mcgen/Plib/libariadne408.a(arremd.o)
 .comment       0x00001832       0x26 /home/pcl2483/pedro/jadesoft/util/mcgen/Plib/libariadne408.a(arremp.o)
 .comment       0x00001858       0x26 /home/pcl2483/pedro/jadesoft/util/mcgen/Plib/libariadne408.a(arsplg.o)
 .comment       0x0000187e       0x26 /home/pcl2483/pedro/jadesoft/util/mcgen/Plib/libariadne408.a(arstor.o)
 .comment       0x000018a4       0x26 /home/pcl2483/pedro/jadesoft/util/mcgen/Plib/libariadne408.a(arswap.o)
 .comment       0x000018ca       0x26 /home/pcl2483/pedro/jadesoft/util/mcgen/Plib/libariadne408.a(artpt2.o)
 .comment       0x000018f0       0x26 /home/pcl2483/pedro/jadesoft/util/mcgen/Plib/libariadne408.a(araddg.o)
 .comment       0x00001916       0x26 /home/pcl2483/pedro/jadesoft/util/mcgen/Plib/libariadne408.a(archfl.o)
 .comment       0x0000193c       0x26 /home/pcl2483/pedro/jadesoft/util/mcgen/Plib/libariadne408.a(arduph.o)
 .comment       0x00001962       0x26 /home/pcl2483/pedro/jadesoft/util/mcgen/Plib/libariadne408.a(ardyre.o)
 .comment       0x00001988       0x26 /home/pcl2483/pedro/jadesoft/util/mcgen/Plib/libariadne408.a(aremi2.o)
 .comment       0x000019ae       0x26 /home/pcl2483/pedro/jadesoft/util/mcgen/Plib/libariadne408.a(aremi3.o)
 .comment       0x000019d4       0x26 /home/pcl2483/pedro/jadesoft/util/mcgen/Plib/libariadne408.a(argdig.o)
 .comment       0x000019fa       0x26 /home/pcl2483/pedro/jadesoft/util/mcgen/Plib/libariadne408.a(argetr.o)
 .comment       0x00001a20       0x26 /home/pcl2483/pedro/jadesoft/util/mcgen/Plib/libariadne408.a(argig2.o)
 .comment       0x00001a46       0x26 /home/pcl2483/pedro/jadesoft/util/mcgen/Plib/libariadne408.a(arobo4.o)
 .comment       0x00001a6c       0x26 /home/pcl2483/pedro/jadesoft/util/mcgen/Plib/libariadne408.a(arobo5.o)
 .comment       0x00001a92       0x26 /home/pcl2483/pedro/jadesoft/util/mcgen/Plib/libariadne408.a(arorie.o)
 .comment       0x00001ab8       0x26 /home/pcl2483/pedro/jadesoft/util/mcgen/Plib/libariadne408.a(arpado.o)
 .comment       0x00001ade       0x26 /home/pcl2483/pedro/jadesoft/util/mcgen/Plib/libariadne408.a(arpins.o)
 .comment       0x00001b04       0x26 /home/pcl2483/pedro/jadesoft/util/mcgen/Plib/libariadne408.a(arputr.o)
 .comment       0x00001b2a       0x26 /home/pcl2483/pedro/jadesoft/util/mcgen/Plib/libariadne408.a(arremg.o)
 .comment       0x00001b50       0x26 /home/pcl2483/pedro/jadesoft/util/mcgen/Plib/libariadne408.a(arrems.o)
 .comment       0x00001b76       0x26 /home/pcl2483/pedro/jadesoft/util/mcgen/Plib/libariadne408.a(arthrw.o)
 .comment       0x00001b9c       0x26 /home/pcl2483/pedro/jadesoft/util/mcgen/Plib/libariadne408.a(aruthr.o)
 .comment       0x00001bc2       0x26 /home/pcl2483/pedro/jadesoft/util/mcgen/Plib/libariadne408.a(arvet6.o)
 .comment       0x00001be8       0x26 /home/pcl2483/pedro/jadesoft/util/mcgen/Plib/libariadne408.a(arvet7.o)
 .comment       0x00001c0e       0x26 /home/pcl2483/pedro/jadesoft/util/mcgen/Plib/libariadne408.a(aradig.o)
 .comment       0x00001c34       0x26 /home/pcl2483/pedro/jadesoft/util/mcgen/Plib/libariadne408.a(arcodi.o)
 .comment       0x00001c5a       0x26 /home/pcl2483/pedro/jadesoft/util/mcgen/Plib/libariadne408.a(arecoi.o)
 .comment       0x00001c80       0x26 /home/pcl2483/pedro/jadesoft/util/mcgen/Plib/libariadne408.a(aradg2.o)
 .comment       0x00001ca6       0x26 /home/pcl2483/pedro/jadesoft/util/mcgen/Plib/libjt74opal.a(klu.o)
 .comment       0x00001ccc       0x26 /home/pcl2483/pedro/jadesoft/util/mcgen/Plib/libjt74opal.a(lu2ent.o)
 .comment       0x00001cf2       0x26 /home/pcl2483/pedro/jadesoft/util/mcgen/Plib/libjt74opal.a(luchge.o)
 .comment       0x00001d18       0x26 /home/pcl2483/pedro/jadesoft/util/mcgen/Plib/libjt74opal.a(lucomp.o)
 .comment       0x00001d3e       0x26 /home/pcl2483/pedro/jadesoft/util/mcgen/Plib/libjt74opal.a(ludata.o)
 .comment       0x00001d64       0x26 /home/pcl2483/pedro/jadesoft/util/mcgen/Plib/libjt74opal.a(ludecy.o)
 .comment       0x00001d8a       0x26 /home/pcl2483/pedro/jadesoft/util/mcgen/Plib/libjt74opal.a(luedit.o)
 .comment       0x00001db0       0x26 /home/pcl2483/pedro/jadesoft/util/mcgen/Plib/libjt74opal.a(luerrm.o)
 .comment       0x00001dd6       0x26 /home/pcl2483/pedro/jadesoft/util/mcgen/Plib/libjt74opal.a(luexec.o)
 .comment       0x00001dfc       0x26 /home/pcl2483/pedro/jadesoft/util/mcgen/Plib/libjt74opal.a(lugive.o)
 .comment       0x00001e22       0x26 /home/pcl2483/pedro/jadesoft/util/mcgen/Plib/libjt74opal.a(luindf.o)
 .comment       0x00001e48       0x26 /home/pcl2483/pedro/jadesoft/util/mcgen/Plib/libjt74opal.a(lukfdi.o)
 .comment       0x00001e6e       0x26 /home/pcl2483/pedro/jadesoft/util/mcgen/Plib/libjt74opal.a(lulist.o)
 .comment       0x00001e94       0x26 /home/pcl2483/pedro/jadesoft/util/mcgen/Plib/libjt74opal.a(lulogo.o)
 .comment       0x00001eba       0x26 /home/pcl2483/pedro/jadesoft/util/mcgen/Plib/libjt74opal.a(luname.o)
 .comment       0x00001ee0       0x26 /home/pcl2483/pedro/jadesoft/util/mcgen/Plib/libjt74opal.a(luprep.o)
 .comment       0x00001f06       0x26 /home/pcl2483/pedro/jadesoft/util/mcgen/Plib/libjt74opal.a(luptdi.o)
 .comment       0x00001f2c       0x26 /home/pcl2483/pedro/jadesoft/util/mcgen/Plib/libjt74opal.a(lurobo.o)
 .comment       0x00001f52       0x26 /home/pcl2483/pedro/jadesoft/util/mcgen/Plib/libjt74opal.a(lushow.o)
 .comment       0x00001f78       0x26 /home/pcl2483/pedro/jadesoft/util/mcgen/Plib/libjt74opal.a(lustrf.o)
 .comment       0x00001f9e       0x26 /home/pcl2483/pedro/jadesoft/util/mcgen/Plib/libjt74opal.a(lutabu.o)
 .comment       0x00001fc4       0x26 /home/pcl2483/pedro/jadesoft/util/mcgen/Plib/libjt74opal.a(lutaud.o)
 .comment       0x00001fea       0x26 /home/pcl2483/pedro/jadesoft/util/mcgen/Plib/libjt74opal.a(luzdis.o)
 .comment       0x00002010       0x26 /home/pcl2483/pedro/jadesoft/util/mcgen/Plib/libjt74opal.a(plu.o)
 .comment       0x00002036       0x26 /home/pcl2483/pedro/jadesoft/util/mcgen/Plib/libjt74opal.a(rlu.o)
 .comment       0x0000205c       0x26 /home/pcl2483/pedro/jadesoft/util/mcgen/Plib/libjt74opal.a(taupol.o)
 .comment       0x00002082       0x26 /home/pcl2483/pedro/jadesoft/util/mcgen/Plib/libjt74opal.a(ulalem.o)
 .comment       0x000020a8       0x26 /home/pcl2483/pedro/jadesoft/util/mcgen/Plib/libjt74opal.a(ulalps.o)
 .comment       0x000020ce       0x26 /home/pcl2483/pedro/jadesoft/util/mcgen/Plib/libjt74opal.a(ulangl.o)
 .comment       0x000020f4       0x26 /home/pcl2483/pedro/jadesoft/util/mcgen/Plib/libjt74opal.a(ulmass.o)
 .comment       0x0000211a       0x26 /home/pcl2483/pedro/jadesoft/util/mcgen/Plib/libjt74opal.a(dexay.o)
 .comment       0x00002140       0x26 /home/pcl2483/pedro/jadesoft/util/mcgen/Plib/libjt74opal.a(dexay1.o)
 .comment       0x00002166       0x26 /home/pcl2483/pedro/jadesoft/util/mcgen/Plib/libjt74opal.a(dexel.o)
 .comment       0x0000218c       0x26 /home/pcl2483/pedro/jadesoft/util/mcgen/Plib/libjt74opal.a(dexkk.o)
 .comment       0x000021b2       0x26 /home/pcl2483/pedro/jadesoft/util/mcgen/Plib/libjt74opal.a(dexks.o)
 .comment       0x000021d8       0x26 /home/pcl2483/pedro/jadesoft/util/mcgen/Plib/libjt74opal.a(dexmu.o)
 .comment       0x000021fe       0x26 /home/pcl2483/pedro/jadesoft/util/mcgen/Plib/libjt74opal.a(dexnew.o)
 .comment       0x00002224       0x26 /home/pcl2483/pedro/jadesoft/util/mcgen/Plib/libjt74opal.a(dexpi.o)
 .comment       0x0000224a       0x26 /home/pcl2483/pedro/jadesoft/util/mcgen/Plib/libjt74opal.a(dexro.o)
 .comment       0x00002270       0x26 /home/pcl2483/pedro/jadesoft/util/mcgen/Plib/libjt74opal.a(dwlnew.o)
 .comment       0x00002296       0x26 /home/pcl2483/pedro/jadesoft/util/mcgen/Plib/libjt74opal.a(dwluaa.o)
 .comment       0x000022bc       0x26 /home/pcl2483/pedro/jadesoft/util/mcgen/Plib/libjt74opal.a(dwluel.o)
 .comment       0x000022e2       0x26 /home/pcl2483/pedro/jadesoft/util/mcgen/Plib/libjt74opal.a(dwlukk.o)
 .comment       0x00002308       0x26 /home/pcl2483/pedro/jadesoft/util/mcgen/Plib/libjt74opal.a(dwluks.o)
 .comment       0x0000232e       0x26 /home/pcl2483/pedro/jadesoft/util/mcgen/Plib/libjt74opal.a(dwlumu.o)
 .comment       0x00002354       0x26 /home/pcl2483/pedro/jadesoft/util/mcgen/Plib/libjt74opal.a(dwlupi.o)
 .comment       0x0000237a       0x26 /home/pcl2483/pedro/jadesoft/util/mcgen/Plib/libjt74opal.a(dwluro.o)
 .comment       0x000023a0       0x26 /home/pcl2483/pedro/jadesoft/util/mcgen/Plib/libjt74opal.a(dwrph.o)
 .comment       0x000023c6       0x26 /home/pcl2483/pedro/jadesoft/util/mcgen/Plib/libjt74opal.a(filhep.o)
 .comment       0x000023ec       0x26 /home/pcl2483/pedro/jadesoft/util/mcgen/Plib/libjt74opal.a(initdk.o)
 .comment       0x00002412       0x26 /home/pcl2483/pedro/jadesoft/util/mcgen/Plib/libjt74opal.a(jaker.o)
 .comment       0x00002438       0x26 /home/pcl2483/pedro/jadesoft/util/mcgen/Plib/libjt74opal.a(luboei.o)
 .comment       0x0000245e       0x26 /home/pcl2483/pedro/jadesoft/util/mcgen/Plib/libjt74opal.a(lunpik.o)
 .comment       0x00002484       0x26 /home/pcl2483/pedro/jadesoft/util/mcgen/Plib/libjt74opal.a(dadmel.o)
 .comment       0x000024aa       0x26 /home/pcl2483/pedro/jadesoft/util/mcgen/Plib/libjt74opal.a(dadmkk.o)
 .comment       0x000024d0       0x26 /home/pcl2483/pedro/jadesoft/util/mcgen/Plib/libjt74opal.a(dadmks.o)
 .comment       0x000024f6       0x26 /home/pcl2483/pedro/jadesoft/util/mcgen/Plib/libjt74opal.a(dadmmu.o)
 .comment       0x0000251c       0x26 /home/pcl2483/pedro/jadesoft/util/mcgen/Plib/libjt74opal.a(dadmpi.o)
 .comment       0x00002542       0x26 /home/pcl2483/pedro/jadesoft/util/mcgen/Plib/libjt74opal.a(dadmro.o)
 .comment       0x00002568       0x26 /home/pcl2483/pedro/jadesoft/util/mcgen/Plib/libjt74opal.a(dadnew.o)
 .comment       0x0000258e       0x26 /home/pcl2483/pedro/jadesoft/util/mcgen/Plib/libjt74opal.a(dexaa.o)
 .comment       0x000025b4       0x26 /home/pcl2483/pedro/jadesoft/util/mcgen/Plib/libjt74opal.a(dph4pi.o)
 .comment       0x000025da       0x26 /home/pcl2483/pedro/jadesoft/util/mcgen/Plib/libjt74opal.a(dph5pi.o)
 .comment       0x00002600       0x26 /home/pcl2483/pedro/jadesoft/util/mcgen/Plib/libjt74opal.a(dphnpi.o)
 .comment       0x00002626       0x26 /home/pcl2483/pedro/jadesoft/util/mcgen/Plib/libjt74opal.a(dphsel.o)
 .comment       0x0000264c       0x26 /home/pcl2483/pedro/jadesoft/util/mcgen/Plib/libjt74opal.a(dphsks.o)
 .comment       0x00002672       0x26 /home/pcl2483/pedro/jadesoft/util/mcgen/Plib/libjt74opal.a(dphsmu.o)
 .comment       0x00002698       0x26 /home/pcl2483/pedro/jadesoft/util/mcgen/Plib/libjt74opal.a(dphspk.o)
 .comment       0x000026be       0x26 /home/pcl2483/pedro/jadesoft/util/mcgen/Plib/libjt74opal.a(dphsrk.o)
 .comment       0x000026e4       0x26 /home/pcl2483/pedro/jadesoft/util/mcgen/Plib/libjt74opal.a(dphsro.o)
 .comment       0x0000270a       0x26 /home/pcl2483/pedro/jadesoft/util/mcgen/Plib/libjt74opal.a(dphtre.o)
 .comment       0x00002730       0x26 /home/pcl2483/pedro/jadesoft/util/mcgen/Plib/libjt74opal.a(drcmu.o)
 .comment       0x00002756       0x26 /home/pcl2483/pedro/jadesoft/util/mcgen/Plib/libjt74opal.a(dwluph.o)
 .comment       0x0000277c       0x26 /home/pcl2483/pedro/jadesoft/util/mcgen/Plib/libjt74opal.a(fpirho.o)
 .comment       0x000027a2       0x26 /home/pcl2483/pedro/jadesoft/util/mcgen/Plib/libjt74opal.a(fpirk.o)
 .comment       0x000027c8       0x26 /home/pcl2483/pedro/jadesoft/util/mcgen/Plib/libjt74opal.a(rotor2.o)
 .comment       0x000027ee       0x26 /home/pcl2483/pedro/jadesoft/util/mcgen/Plib/libjt74opal.a(rotor3.o)
 .comment       0x00002814       0x26 /home/pcl2483/pedro/jadesoft/util/mcgen/Plib/libjt74opal.a(rotpol.o)
 .comment       0x0000283a       0x26 /home/pcl2483/pedro/jadesoft/util/mcgen/Plib/libjt74opal.a(rotpox.o)
 .comment       0x00002860       0x26 /home/pcl2483/pedro/jadesoft/util/mcgen/Plib/libjt74opal.a(sigee.o)
 .comment       0x00002886       0x26 /home/pcl2483/pedro/jadesoft/util/mcgen/Plib/libjt74opal.a(sphera.o)
 .comment       0x000028ac       0x26 /home/pcl2483/pedro/jadesoft/util/mcgen/Plib/libjt74opal.a(spherd.o)
 .comment       0x000028d2       0x26 /home/pcl2483/pedro/jadesoft/util/mcgen/Plib/libjt74opal.a(bostd3.o)
 .comment       0x000028f8       0x26 /home/pcl2483/pedro/jadesoft/util/mcgen/Plib/libjt74opal.a(bostr3.o)
 .comment       0x0000291e       0x26 /home/pcl2483/pedro/jadesoft/util/mcgen/Plib/libjt74opal.a(bwigs.o)
 .comment       0x00002944       0x26 /home/pcl2483/pedro/jadesoft/util/mcgen/Plib/libjt74opal.a(choice.o)
 .comment       0x0000296a       0x26 /home/pcl2483/pedro/jadesoft/util/mcgen/Plib/libjt74opal.a(dadmaa.o)
 .comment       0x00002990       0x26 /home/pcl2483/pedro/jadesoft/util/mcgen/Plib/libjt74opal.a(dam4pi.o)
 .comment       0x000029b6       0x26 /home/pcl2483/pedro/jadesoft/util/mcgen/Plib/libjt74opal.a(dampog.o)
 .comment       0x000029dc       0x26 /home/pcl2483/pedro/jadesoft/util/mcgen/Plib/libjt74opal.a(damppk.o)
 .comment       0x00002a02       0x26 /home/pcl2483/pedro/jadesoft/util/mcgen/Plib/libjt74opal.a(dampry.o)
 .comment       0x00002a28       0x26 /home/pcl2483/pedro/jadesoft/util/mcgen/Plib/libjt74opal.a(dcdmas.o)
 .comment       0x00002a4e       0x26 /home/pcl2483/pedro/jadesoft/util/mcgen/Plib/libjt74opal.a(dphsaa.o)
 .comment       0x00002a74       0x26 /home/pcl2483/pedro/jadesoft/util/mcgen/Plib/libjt74opal.a(form1.o)
 .comment       0x00002a9a       0x26 /home/pcl2483/pedro/jadesoft/util/mcgen/Plib/libjt74opal.a(form2.o)
 .comment       0x00002ac0       0x26 /home/pcl2483/pedro/jadesoft/util/mcgen/Plib/libjt74opal.a(form3.o)
 .comment       0x00002ae6       0x26 /home/pcl2483/pedro/jadesoft/util/mcgen/Plib/libjt74opal.a(form4.o)
 .comment       0x00002b0c       0x26 /home/pcl2483/pedro/jadesoft/util/mcgen/Plib/libjt74opal.a(form5.o)
 .comment       0x00002b32       0x26 /home/pcl2483/pedro/jadesoft/util/mcgen/Plib/libjt74opal.a(formom.o)
 .comment       0x00002b58       0x26 /home/pcl2483/pedro/jadesoft/util/mcgen/Plib/libjt74opal.a(fpik.o)
 .comment       0x00002b7e       0x26 /home/pcl2483/pedro/jadesoft/util/mcgen/Plib/libjt74opal.a(fpikm.o)
 .comment       0x00002ba4       0x26 /home/pcl2483/pedro/jadesoft/util/mcgen/Plib/libjt74opal.a(fpikmd.o)
 .comment       0x00002bca       0x26 /home/pcl2483/pedro/jadesoft/util/mcgen/Plib/libjt74opal.a(gfun.o)
 .comment       0x00002bf0       0x26 /home/pcl2483/pedro/jadesoft/util/mcgen/Plib/libjt74opal.a(prod5.o)
 .comment       0x00002c16       0x26 /home/pcl2483/pedro/jadesoft/util/mcgen/Plib/libjt74opal.a(rotod2.o)
 .comment       0x00002c3c       0x26 /home/pcl2483/pedro/jadesoft/util/mcgen/Plib/libjt74opal.a(rotod3.o)
 .comment       0x00002c62       0x26 /home/pcl2483/pedro/jadesoft/util/mcgen/Plib/libjt74opal.a(sqm2.o)
 .comment       0x00002c88       0x26 /home/pcl2483/pedro/jadesoft/util/mcgen/Plib/libjt74opal.a(thb.o)
 .comment       0x00002cae       0x26 /home/pcl2483/pedro/jadesoft/util/mcgen/Plib/libjt74opal.a(wigfor.o)
 .comment       0x00002cd4       0x26 /home/pcl2483/pedro/jadesoft/util/mcgen/Plib/libjt74opal.a(bwig.o)
 .comment       0x00002cfa       0x26 /home/pcl2483/pedro/jadesoft/util/mcgen/Plib/libjt74opal.a(bwigm.o)
 .comment       0x00002d20       0x26 /home/pcl2483/pedro/jadesoft/util/mcgen/Plib/libjt74opal.a(claxi.o)
 .comment       0x00002d46       0x26 /home/pcl2483/pedro/jadesoft/util/mcgen/Plib/libjt74opal.a(clnut.o)
 .comment       0x00002d6c       0x26 /home/pcl2483/pedro/jadesoft/util/mcgen/Plib/libjt74opal.a(clvec.o)
 .comment       0x00002d92       0x26 /home/pcl2483/pedro/jadesoft/util/mcgen/Plib/libjt74opal.a(curr.o)
 .comment       0x00002db8       0x26 /home/pcl2483/pedro/jadesoft/util/mcgen/Plib/libjt74opal.a(dilog.o)
 .comment       0x00002dde       0x26 /home/pcl2483/pedro/jadesoft/util/mcgen/Plib/libckern105.a(ckern.o)
 .comment       0x00002e04       0x26 /home/pcl2483/pedro/jadesoft/util/mcgen/Plib/libckern105.a(cksord.o)
 .comment       0x00002e2a       0x26 /home/pcl2483/pedro/jadesoft/util/mcgen/Plib/libckern105.a(cnjet.o)
 .comment       0x00002e50       0x26 /home/pcl2483/pedro/jadesoft/util/mcgen/Plib/libpx114.a(pxang3.o)
 .comment       0x00002e76       0x26 /home/pcl2483/pedro/jadesoft/util/mcgen/Plib/libpx114.a(pxanxy.o)
 .comment       0x00002e9c       0x26 /home/pcl2483/pedro/jadesoft/util/mcgen/Plib/libpx114.a(pxcone.o)
 .comment       0x00002ec2       0x26 /home/pcl2483/pedro/jadesoft/util/mcgen/Plib/libpx114.a(pxcopv.o)
 .comment       0x00002ee8       0x26 /home/pcl2483/pedro/jadesoft/util/mcgen/Plib/libpx114.a(pxjpdg.o)
 .comment       0x00002f0e       0x26 /home/pcl2483/pedro/jadesoft/util/mcgen/Plib/libpx114.a(pxjsp3.o)
 .comment       0x00002f34       0x26 /home/pcl2483/pedro/jadesoft/util/mcgen/Plib/libpx114.a(pxlsp3.o)
 .comment       0x00002f5a       0x26 /home/pcl2483/pedro/jadesoft/util/mcgen/Plib/libpx114.a(pxlth4.o)
 .comment       0x00002f80       0x26 /home/pcl2483/pedro/jadesoft/util/mcgen/Plib/libpx114.a(pxlut3.o)
 .comment       0x00002fa6       0x26 /home/pcl2483/pedro/jadesoft/util/mcgen/Plib/libpx114.a(pxlzf5.o)
 .comment       0x00002fcc       0x26 /home/pcl2483/pedro/jadesoft/util/mcgen/Plib/libpx114.a(pxmmbb.o)
 .comment       0x00002ff2       0x26 /home/pcl2483/pedro/jadesoft/util/mcgen/Plib/libpx114.a(pxnorv.o)
 .comment       0x00003018       0x26 /home/pcl2483/pedro/jadesoft/util/mcgen/Plib/libpx114.a(pxolap.o)
 .comment       0x0000303e       0x26 /home/pcl2483/pedro/jadesoft/util/mcgen/Plib/libpx114.a(pxord.o)
 .comment       0x00003064       0x26 /home/pcl2483/pedro/jadesoft/util/mcgen/Plib/libpx114.a(pxplt3.o)
 .comment       0x0000308a       0x26 /home/pcl2483/pedro/jadesoft/util/mcgen/Plib/libpx114.a(pxplu3.o)
 .comment       0x000030b0       0x26 /home/pcl2483/pedro/jadesoft/util/mcgen/Plib/libpx114.a(pxprcv.o)
 .comment       0x000030d6       0x26 /home/pcl2483/pedro/jadesoft/util/mcgen/Plib/libpx114.a(pxprrv.o)
 .comment       0x000030fc       0x26 /home/pcl2483/pedro/jadesoft/util/mcgen/Plib/libpx114.a(pxrap4.o)
 .comment       0x00003122       0x26 /home/pcl2483/pedro/jadesoft/util/mcgen/Plib/libpx114.a(pxrmx3.o)
 .comment       0x00003148       0x26 /home/pcl2483/pedro/jadesoft/util/mcgen/Plib/libpx114.a(pxrob3.o)
 .comment       0x0000316e       0x26 /home/pcl2483/pedro/jadesoft/util/mcgen/Plib/libpx114.a(pxrof3.o)
 .comment       0x00003194       0x26 /home/pcl2483/pedro/jadesoft/util/mcgen/Plib/libpx114.a(pxsear.o)
 .comment       0x000031ba       0x26 /home/pcl2483/pedro/jadesoft/util/mcgen/Plib/libpx114.a(pxsorv.o)
 .comment       0x000031e0       0x26 /home/pcl2483/pedro/jadesoft/util/mcgen/Plib/libpx114.a(pxtry.o)
 .comment       0x00003206       0x26 /home/pcl2483/pedro/jadesoft/util/mcgen/Plib/libpx114.a(pxuvec.o)
 .comment       0x0000322c       0x26 /home/pcl2483/pedro/jadesoft/util/mcgen/Plib/libpx114.a(pxzerv.o)
 .comment       0x00003252       0x26 /home/pcl2483/pedro/jadesoft/util/mcgen/Plib/libpx114.a(ykern.o)
 .comment       0x00003278       0x26 /home/pcl2483/pedro/jadesoft/util/mcgen/Plib/libpx114.a(ynjet.o)
 .comment       0x0000329e       0x26 /home/pcl2483/pedro/jadesoft/util/mcgen/Plib/libpx114.a(yyjet.o)
 .comment       0x000032c4       0x26 /home/pcl2483/pedro/jadesoft/util/mcgen/Plib/libpx114.a(pxaddv.o)
 .comment       0x000032ea       0x26 /home/pcl2483/pedro/jadesoft/util/mcgen/Plib/libpx114.a(pxdiam.o)
 .comment       0x00003310       0x26 /home/pcl2483/pedro/jadesoft/util/mcgen/Plib/libpx114.a(pxmulm.o)
 .comment       0x00003336       0x26 /home/pcl2483/pedro/jadesoft/util/mcgen/Plib/libpx114.a(pxnew.o)
 .comment       0x0000335c       0x26 /home/pcl2483/pedro/jadesoft/util/mcgen/Plib/libpx114.a(pxsame.o)
 .comment       0x00003382       0x26 /home/pcl2483/pedro/jadesoft/util/mcgen/Plib/libpx114.a(pxunim.o)
 .comment       0x000033a8       0x37 /cern/99/lib/libpacklib.a(ffgo.o)
 .comment       0x000033df       0x37 /cern/99/lib/libpacklib.a(ffinit.o)
 .comment       0x00003416       0x37 /cern/99/lib/libpacklib.a(ffkey.o)
 .comment       0x0000344d       0x37 /cern/99/lib/libpacklib.a(ffset.o)
 .comment       0x00003484       0x37 /cern/99/lib/libpacklib.a(ffskip.o)
 .comment       0x000034bb       0x37 /cern/99/lib/libpacklib.a(ffupca.o)
 .comment       0x000034f2       0x37 /cern/99/lib/libpacklib.a(ffuser.o)
 .comment       0x00003529       0x37 /cern/99/lib/libpacklib.a(ffuset.o)
 .comment       0x00003560       0x37 /cern/99/lib/libpacklib.a(hrput.o)
 .comment       0x00003597       0x37 /cern/99/lib/libpacklib.a(hbook1.o)
 .comment       0x000035ce       0x37 /cern/99/lib/libpacklib.a(hbook2.o)
 .comment       0x00003605       0x37 /cern/99/lib/libpacklib.a(hbookb.o)
 .comment       0x0000363c       0x37 /cern/99/lib/libpacklib.a(hbtit.o)
 .comment       0x00003673       0x37 /cern/99/lib/libpacklib.a(hbug.o)
 .comment       0x000036aa       0x37 /cern/99/lib/libpacklib.a(hcdir.o)
 .comment       0x000036e1       0x37 /cern/99/lib/libpacklib.a(hchnam.o)
 .comment       0x00003718       0x37 /cern/99/lib/libpacklib.a(hdelet.o)
 .comment       0x0000374f       0x37 /cern/99/lib/libpacklib.a(hfill.o)
 .comment       0x00003786       0x37 /cern/99/lib/libpacklib.a(hfilpf.o)
 .comment       0x000037bd       0x37 /cern/99/lib/libpacklib.a(hgive.o)
 .comment       0x000037f4       0x37 /cern/99/lib/libpacklib.a(hidopt.o)
 .comment       0x0000382b       0x37 /cern/99/lib/libpacklib.a(hlimit.o)
 .comment       0x00003862       0x37 /cern/99/lib/libpacklib.a(hloop.o)
 .comment       0x00003899       0x37 /cern/99/lib/libpacklib.a(hmachi.o)
 .comment       0x000038d0       0x37 /cern/99/lib/libpacklib.a(hnoent.o)
 .comment       0x00003907       0x37 /cern/99/lib/libpacklib.a(hopera.o)
 .comment       0x0000393e       0x37 /cern/99/lib/libpacklib.a(hpaff.o)
 .comment       0x00003975       0x37 /cern/99/lib/libpacklib.a(hpak.o)
 .comment       0x000039ac       0x37 /cern/99/lib/libpacklib.a(hpake.o)
 .comment       0x000039e3       0x37 /cern/99/lib/libpacklib.a(hpath.o)
 .comment       0x00003a1a       0x37 /cern/99/lib/libpacklib.a(hrebin.o)
 .comment       0x00003a51       0x37 /cern/99/lib/libpacklib.a(hreset.o)
 .comment       0x00003a88       0x37 /cern/99/lib/libpacklib.a(hrez0.o)
 .comment       0x00003abf       0x37 /cern/99/lib/libpacklib.a(hsifla.o)
 .comment       0x00003af6       0x37 /cern/99/lib/libpacklib.a(hspace.o)
 .comment       0x00003b2d       0x37 /cern/99/lib/libpacklib.a(hstaf.o)
 .comment       0x00003b64       0x37 /cern/99/lib/libpacklib.a(hsupis.o)
 .comment       0x00003b9b       0x37 /cern/99/lib/libpacklib.a(huoptc.o)
 .comment       0x00003bd2       0x37 /cern/99/lib/libpacklib.a(hlogpf.o)
 .comment       0x00003c09       0x37 /cern/99/lib/libpacklib.a(hoptpf.o)
 .comment       0x00003c40       0x37 /cern/99/lib/libpacklib.a(hitoc.o)
 .comment       0x00003c77       0x37 /cern/99/lib/libpacklib.a(hnbufd.o)
 .comment       0x00003cae       0x37 /cern/99/lib/libpacklib.a(hntmpd.o)
 .comment       0x00003ce5       0x37 /cern/99/lib/libpacklib.a(hntrset.o)
 .comment       0x00003d1c       0x37 /cern/99/lib/libpacklib.a(fzin.o)
 .comment       0x00003d53       0x37 /cern/99/lib/libpacklib.a(fzirel.o)
 .comment       0x00003d8a       0x37 /cern/99/lib/libpacklib.a(fzloc.o)
 .comment       0x00003dc1       0x37 /cern/99/lib/libpacklib.a(mzbook.o)
 .comment       0x00003df8       0x37 /cern/99/lib/libpacklib.a(mzdrop.o)
 .comment       0x00003e2f       0x37 /cern/99/lib/libpacklib.a(mzebra.o)
 .comment       0x00003e66       0x37 /cern/99/lib/libpacklib.a(mzflag.o)
 .comment       0x00003e9d       0x37 /cern/99/lib/libpacklib.a(mzinco.o)
 .comment       0x00003ed4       0x37 /cern/99/lib/libpacklib.a(mzlift.o)
 .comment       0x00003f0b       0x37 /cern/99/lib/libpacklib.a(mzlink.o)
 .comment       0x00003f42       0x37 /cern/99/lib/libpacklib.a(mzneed.o)
 .comment       0x00003f79       0x37 /cern/99/lib/libpacklib.a(mzpaw.o)
 .comment       0x00003fb0       0x37 /cern/99/lib/libpacklib.a(mzpush.o)
 .comment       0x00003fe7       0x37 /cern/99/lib/libpacklib.a(mzstor.o)
 .comment       0x0000401e       0x37 /cern/99/lib/libpacklib.a(mzvers.o)
 .comment       0x00004055       0x37 /cern/99/lib/libpacklib.a(mzgar1.o)
 .comment       0x0000408c       0x37 /cern/99/lib/libpacklib.a(mzgsta.o)
 .comment       0x000040c3       0x37 /cern/99/lib/libpacklib.a(mzmove.o)
 .comment       0x000040fa       0x37 /cern/99/lib/libpacklib.a(mzrelb.o)
 .comment       0x00004131       0x37 /cern/99/lib/libpacklib.a(mzrell.o)
 .comment       0x00004168       0x37 /cern/99/lib/libpacklib.a(mzrelx.o)
 .comment       0x0000419f       0x37 /cern/99/lib/libpacklib.a(mztabf.o)
 .comment       0x000041d6       0x37 /cern/99/lib/libpacklib.a(mztabm.o)
 .comment       0x0000420d       0x37 /cern/99/lib/libpacklib.a(mztabr.o)
 .comment       0x00004244       0x37 /cern/99/lib/libpacklib.a(mztabs.o)
 .comment       0x0000427b       0x37 /cern/99/lib/libpacklib.a(mztabx.o)
 .comment       0x000042b2       0x37 /cern/99/lib/libpacklib.a(mzchln.o)
 .comment       0x000042e9       0x37 /cern/99/lib/libpacklib.a(mzchls.o)
 .comment       0x00004320       0x37 /cern/99/lib/libpacklib.a(mzchnb.o)
 .comment       0x00004357       0x37 /cern/99/lib/libpacklib.a(mzfdiv.o)
 .comment       0x0000438e       0x37 /cern/99/lib/libpacklib.a(mzform.o)
 .comment       0x000043c5       0x37 /cern/99/lib/libpacklib.a(mzioch.o)
 .comment       0x000043fc       0x37 /cern/99/lib/libpacklib.a(mzresv.o)
 .comment       0x00004433       0x37 /cern/99/lib/libpacklib.a(mzsdiv.o)
 .comment       0x0000446a       0x37 /cern/99/lib/libpacklib.a(zvautx.o)
 .comment       0x000044a1       0x37 /cern/99/lib/libpacklib.a(zfatal.o)
 .comment       0x000044d8       0x37 /cern/99/lib/libpacklib.a(zfatam.o)
 .comment       0x0000450f       0x37 /cern/99/lib/libpacklib.a(ztell.o)
 .comment       0x00004546       0x37 /cern/99/lib/libpacklib.a(ztelus.o)
 .comment       0x0000457d       0x37 /cern/99/lib/libpacklib.a(izbcdt.o)
 .comment       0x000045b4       0x37 /cern/99/lib/libpacklib.a(izhnum.o)
 .comment       0x000045eb       0x37 /cern/99/lib/libpacklib.a(zshunt.o)
 .comment       0x00004622       0x37 /cern/99/lib/libpacklib.a(rzcdir.o)
 .comment       0x00004659       0x37 /cern/99/lib/libpacklib.a(rzdate.o)
 .comment       0x00004690       0x37 /cern/99/lib/libpacklib.a(rzfdir.o)
 .comment       0x000046c7       0x37 /cern/99/lib/libpacklib.a(rziodo.o)
 .comment       0x000046fe       0x37 /cern/99/lib/libpacklib.a(rzpaff.o)
 .comment       0x00004735       0x37 /cern/99/lib/libpacklib.a(rzpath.o)
 .comment       0x0000476c       0x37 /cern/99/lib/libpacklib.a(rzrtop.o)
 .comment       0x000047a3       0x37 /cern/99/lib/libpacklib.a(rzsame.o)
 .comment       0x000047da       0x37 /cern/99/lib/libpacklib.a(rzsave.o)
 .comment       0x00004811       0x37 /cern/99/lib/libpacklib.a(rzstrir.o)
 .comment       0x00004848       0x37 /cern/99/lib/libpacklib.a(rzvcyc.o)
 .comment       0x0000487f       0x37 /cern/99/lib/libpacklib.a(abend.o)
 .comment       0x000048b6       0x37 /cern/99/lib/libpacklib.a(datime.o)
 .comment       0x000048ed       0x37 /cern/99/lib/libpacklib.a(datimh.o)
 .comment       0x00004924       0x37 /cern/99/lib/libpacklib.a(jumpxn.o)
 .comment       0x0000495b       0x37 /cern/99/lib/libpacklib.a(locf.o)
 .comment       0x00004992       0x37 /cern/99/lib/libpacklib.a(qnexte.o)
 .comment       0x000049c9       0x37 /cern/99/lib/libpacklib.a(lenocc.o)
 .comment       0x00004a00       0x37 /cern/99/lib/libpacklib.a(vxinvb.o)
 .comment       0x00004a37       0x37 /cern/99/lib/libpacklib.a(cfclos.o)
 .comment       0x00004a6e       0x37 /cern/99/lib/libpacklib.a(cfget.o)
 .comment       0x00004aa5       0x37 /cern/99/lib/libpacklib.a(cfput.o)
 .comment       0x00004adc       0x37 /cern/99/lib/libpacklib.a(cfseek.o)
 .comment       0x00004b13       0x37 /cern/99/lib/libpacklib.a(cfopen.o)
 .comment       0x00004b4a       0x37 /cern/99/lib/libpacklib.a(cleft.o)
 .comment       0x00004b81       0x37 /cern/99/lib/libpacklib.a(cltou.o)
 .comment       0x00004bb8       0x37 /cern/99/lib/libpacklib.a(cutol.o)
 .comment       0x00004bef       0x37 /cern/99/lib/libpacklib.a(floarg.o)
 .comment       0x00004c26       0x37 /cern/99/lib/libpacklib.a(intarg.o)
 .comment       0x00004c5d       0x37 /cern/99/lib/libpacklib.a(kerngt.o)
 .comment       0x00004c94       0x37 /cern/99/lib/libpacklib.a(uoptc.o)
 .comment       0x00004ccb       0x37 /cern/99/lib/libpacklib.a(utrans.o)
 .comment       0x00004d02       0x37 /cern/99/lib/libpacklib.a(ishftr.o)
 .comment       0x00004d39       0x37 /cern/99/lib/libpacklib.a(qnext.o)
 .comment       0x00004d70       0x37 /cern/99/lib/libpacklib.a(ucopy2c.o)
 .comment       0x00004da7       0x37 /cern/99/lib/libpacklib.a(iucomp.o)
 .comment       0x00004dde       0x37 /cern/99/lib/libpacklib.a(noarg.o)
 .comment       0x00004e15       0x37 /cern/99/lib/libpacklib.a(sbit0.o)
 .comment       0x00004e4c       0x37 /cern/99/lib/libpacklib.a(sbit1.o)
 .comment       0x00004e83       0x37 /cern/99/lib/libpacklib.a(ublow.o)
 .comment       0x00004eba       0x37 /cern/99/lib/libpacklib.a(ubunch.o)
 .comment       0x00004ef1       0x37 /cern/99/lib/libpacklib.a(ucopy.o)
 .comment       0x00004f28       0x37 /cern/99/lib/libpacklib.a(uctoh.o)
 .comment       0x00004f5f       0x37 /cern/99/lib/libpacklib.a(uctoh1.o)
 .comment       0x00004f96       0x37 /cern/99/lib/libpacklib.a(uhtoc.o)
 .comment       0x00004fcd       0x37 /cern/99/lib/libpacklib.a(vblank.o)
 .comment       0x00005004       0x37 /cern/99/lib/libpacklib.a(vfill.o)
 .comment       0x0000503b       0x37 /cern/99/lib/libpacklib.a(vzero.o)
 .comment       0x00005072       0x37 /cern/99/lib/libpacklib.a(jbit.o)
 .comment       0x000050a9       0x37 /cern/99/lib/libpacklib.a(jbyt.o)
 .comment       0x000050e0       0x37 /cern/99/lib/libpacklib.a(sbyt.o)
 .comment       0x00005117       0x37 /cern/99/lib/libpacklib.a(locati.o)
 .comment       0x0000514e       0x37 /cern/99/lib/libpacklib.a(czgeta.o)
 .comment       0x00005185       0x37 /cern/99/lib/libpacklib.a(czputa.o)
 .comment       0x000051bc       0x37 /cern/99/lib/libpacklib.a(ffcard.o)
 .comment       0x000051f3       0x37 /cern/99/lib/libpacklib.a(fffind.o)
 .comment       0x0000522a       0x37 /cern/99/lib/libpacklib.a(hqputf.o)
 .comment       0x00005261       0x37 /cern/99/lib/libpacklib.a(hbpqry.o)
 .comment       0x00005298       0x37 /cern/99/lib/libpacklib.a(hrendc.o)
 .comment       0x000052cf       0x37 /cern/99/lib/libpacklib.a(hropen.o)
 .comment       0x00005306       0x37 /cern/99/lib/libpacklib.a(hrout.o)
 .comment       0x0000533d       0x37 /cern/99/lib/libpacklib.a(hrzcd.o)
 .comment       0x00005374       0x37 /cern/99/lib/libpacklib.a(hrzout.o)
 .comment       0x000053ab       0x37 /cern/99/lib/libpacklib.a(hbar2.o)
 .comment       0x000053e2       0x37 /cern/99/lib/libpacklib.a(hbarx.o)
 .comment       0x00005419       0x37 /cern/99/lib/libpacklib.a(hbary.o)
 .comment       0x00005450       0x37 /cern/99/lib/libpacklib.a(hbin.o)
 .comment       0x00005487       0x37 /cern/99/lib/libpacklib.a(hcopy.o)
 .comment       0x000054be       0x37 /cern/99/lib/libpacklib.a(hcx.o)
 .comment       0x000054f5       0x37 /cern/99/lib/libpacklib.a(hcxy.o)
 .comment       0x0000552c       0x37 /cern/99/lib/libpacklib.a(hdcofl.o)
 .comment       0x00005563       0x37 /cern/99/lib/libpacklib.a(hf1.o)
 .comment       0x0000559a       0x37 /cern/99/lib/libpacklib.a(hf1aut.o)
 .comment       0x000055d1       0x37 /cern/99/lib/libpacklib.a(hf2.o)
 .comment       0x00005608       0x37 /cern/99/lib/libpacklib.a(hfcx.o)
 .comment       0x0000563f       0x37 /cern/99/lib/libpacklib.a(hfcxy.o)
 .comment       0x00005676       0x37 /cern/99/lib/libpacklib.a(hfidp.o)
 .comment       0x000056ad       0x37 /cern/99/lib/libpacklib.a(hfind.o)
 .comment       0x000056e4       0x37 /cern/99/lib/libpacklib.a(hi.o)
 .comment       0x0000571b       0x37 /cern/99/lib/libpacklib.a(hie.o)
 .comment       0x00005752       0x37 /cern/99/lib/libpacklib.a(hix.o)
 .comment       0x00005789       0x37 /cern/99/lib/libpacklib.a(hlabeq.o)
 .comment       0x000057c0       0x37 /cern/99/lib/libpacklib.a(hmdir.o)
 .comment       0x000057f7       0x37 /cern/99/lib/libpacklib.a(hoper1.o)
 .comment       0x0000582e       0x37 /cern/99/lib/libpacklib.a(hoper1a.o)
 .comment       0x00005865       0x37 /cern/99/lib/libpacklib.a(hnbfwr.o)
 .comment       0x0000589c       0x37 /cern/99/lib/libpacklib.a(hnbuff.o)
 .comment       0x000058d3       0x37 /cern/99/lib/libpacklib.a(hnmset.o)
 .comment       0x0000590a       0x37 /cern/99/lib/libpacklib.a(hntdel.o)
 .comment       0x00005941       0x37 /cern/99/lib/libpacklib.a(hntmpf.o)
 .comment       0x00005978       0x37 /cern/99/lib/libpacklib.a(fzidia.o)
 .comment       0x000059af       0x37 /cern/99/lib/libpacklib.a(fziffn.o)
 .comment       0x000059e6       0x37 /cern/99/lib/libpacklib.a(fziffx.o)
 .comment       0x00005a1d       0x37 /cern/99/lib/libpacklib.a(fzilin.o)
 .comment       0x00005a54       0x37 /cern/99/lib/libpacklib.a(fzimtb.o)
 .comment       0x00005a8b       0x37 /cern/99/lib/libpacklib.a(fzirec.o)
 .comment       0x00005ac2       0x37 /cern/99/lib/libpacklib.a(fzitrn.o)
 .comment       0x00005af9       0x37 /cern/99/lib/libpacklib.a(fzout.o)
 .comment       0x00005b30       0x37 /cern/99/lib/libpacklib.a(fzitrx.o)
 .comment       0x00005b67       0x37 /cern/99/lib/libpacklib.a(mzcopy.o)
 .comment       0x00005b9e       0x37 /cern/99/lib/libpacklib.a(mzpudx.o)
 .comment       0x00005bd5       0x37 /cern/99/lib/libpacklib.a(mzfgap.o)
 .comment       0x00005c0c       0x37 /cern/99/lib/libpacklib.a(mzgarb.o)
 .comment       0x00005c43       0x37 /cern/99/lib/libpacklib.a(mztabc.o)
 .comment       0x00005c7a       0x37 /cern/99/lib/libpacklib.a(mztabh.o)
 .comment       0x00005cb1       0x37 /cern/99/lib/libpacklib.a(mzdvac.o)
 .comment       0x00005ce8       0x37 /cern/99/lib/libpacklib.a(mziocf.o)
 .comment       0x00005d1f       0x37 /cern/99/lib/libpacklib.a(mziocr.o)
 .comment       0x00005d56       0x37 /cern/99/lib/libpacklib.a(mzixco.o)
 .comment       0x00005d8d       0x37 /cern/99/lib/libpacklib.a(zabend.o)
 .comment       0x00005dc4       0x37 /cern/99/lib/libpacklib.a(zend.o)
 .comment       0x00005dfb       0x37 /cern/99/lib/libpacklib.a(zphase.o)
 .comment       0x00005e32       0x37 /cern/99/lib/libpacklib.a(zpostm.o)
 .comment       0x00005e69       0x37 /cern/99/lib/libpacklib.a(zhtoi.o)
 .comment       0x00005ea0       0x37 /cern/99/lib/libpacklib.a(rzclos.o)
 .comment       0x00005ed7       0x37 /cern/99/lib/libpacklib.a(rzend.o)
 .comment       0x00005f0e       0x37 /cern/99/lib/libpacklib.a(rzfree.o)
 .comment       0x00005f45       0x37 /cern/99/lib/libpacklib.a(rzmdir.o)
 .comment       0x00005f7c       0x37 /cern/99/lib/libpacklib.a(rzmods.o)
 .comment       0x00005fb3       0x37 /cern/99/lib/libpacklib.a(rzopen.o)
 .comment       0x00005fea       0x37 /cern/99/lib/libpacklib.a(rzout.o)
 .comment       0x00006021       0x37 /cern/99/lib/libpacklib.a(rzstrip.o)
 .comment       0x00006058       0x37 /cern/99/lib/libpacklib.a(rzused.o)
 .comment       0x0000608f       0x14 /cern/99/lib/libpacklib.a(close.o)
 .comment       0x000060a3       0x14 /cern/99/lib/libpacklib.a(error.o)
 .comment       0x000060b7       0x14 /cern/99/lib/libpacklib.a(lseek.o)
 .comment       0x000060cb       0x14 /cern/99/lib/libpacklib.a(open.o)
 .comment       0x000060df       0x14 /cern/99/lib/libpacklib.a(parse.o)
 .comment       0x000060f3       0x14 /cern/99/lib/libpacklib.a(read.o)
 .comment       0x00006107       0x14 /cern/99/lib/libpacklib.a(serror.o)
 .comment       0x0000611b       0x14 /cern/99/lib/libpacklib.a(setopt.o)
 .comment       0x0000612f       0x14 /cern/99/lib/libpacklib.a(socket.o)
 .comment       0x00006143       0x14 /cern/99/lib/libpacklib.a(stream.o)
 .comment       0x00006157       0x14 /cern/99/lib/libpacklib.a(trace.o)
 .comment       0x0000616b       0x14 /cern/99/lib/libpacklib.a(write.o)
 .comment       0x0000617f       0x37 /cern/99/lib/libpacklib.a(cfopei.o)
 .comment       0x000061b6       0x37 /cern/99/lib/libpacklib.a(cfstat.o)
 .comment       0x000061ed       0x37 /cern/99/lib/libpacklib.a(fchtak.o)
 .comment       0x00006224       0x37 /cern/99/lib/libpacklib.a(gshowf.o)
 .comment       0x0000625b       0x37 /cern/99/lib/libpacklib.a(icluns.o)
 .comment       0x00006292       0x37 /cern/99/lib/libpacklib.a(traceq.o)
 .comment       0x000062c9       0x37 /cern/99/lib/libpacklib.a(xinbf.o)
 .comment       0x00006300       0x37 /cern/99/lib/libpacklib.a(xinbs.o)
 .comment       0x00006337       0x37 /cern/99/lib/libpacklib.a(halloc.o)
 .comment       0x0000636e       0x37 /cern/99/lib/libpacklib.a(hrfile.o)
 .comment       0x000063a5       0x37 /cern/99/lib/libpacklib.a(hfc1.o)
 .comment       0x000063dc       0x37 /cern/99/lib/libpacklib.a(hlccmp.o)
 .comment       0x00006413       0x37 /cern/99/lib/libpacklib.a(hlgnxt.o)
 .comment       0x0000644a       0x37 /cern/99/lib/libpacklib.a(hlhcmp.o)
 .comment       0x00006481       0x37 /cern/99/lib/libpacklib.a(hlpos.o)
 .comment       0x000064b8       0x37 /cern/99/lib/libpacklib.a(dzsnap.o)
 .comment       0x000064ef       0x37 /cern/99/lib/libpacklib.a(dztext.o)
 .comment       0x00006526       0x37 /cern/99/lib/libpacklib.a(zpage.o)
 .comment       0x0000655d       0x37 /cern/99/lib/libpacklib.a(fzipha.o)
 .comment       0x00006594       0x37 /cern/99/lib/libpacklib.a(fziphd.o)
 .comment       0x000065cb       0x37 /cern/99/lib/libpacklib.a(fziphm.o)
 .comment       0x00006602       0x37 /cern/99/lib/libpacklib.a(fziphr.o)
 .comment       0x00006639       0x37 /cern/99/lib/libpacklib.a(fziprl.o)
 .comment       0x00006670       0x37 /cern/99/lib/libpacklib.a(fzoffn.o)
 .comment       0x000066a7       0x37 /cern/99/lib/libpacklib.a(fzoffx.o)
 .comment       0x000066de       0x37 /cern/99/lib/libpacklib.a(fzon1.o)
 .comment       0x00006715       0x37 /cern/99/lib/libpacklib.a(fzon2.o)
 .comment       0x0000674c       0x37 /cern/99/lib/libpacklib.a(fzon3.o)
 .comment       0x00006783       0x37 /cern/99/lib/libpacklib.a(fzon4.o)
 .comment       0x000067ba       0x37 /cern/99/lib/libpacklib.a(fzon5.o)
 .comment       0x000067f1       0x37 /cern/99/lib/libpacklib.a(fzon6.o)
 .comment       0x00006828       0x37 /cern/99/lib/libpacklib.a(fzorec.o)
 .comment       0x0000685f       0x37 /cern/99/lib/libpacklib.a(fzotab.o)
 .comment       0x00006896       0x37 /cern/99/lib/libpacklib.a(fzotrn.o)
 .comment       0x000068cd       0x37 /cern/99/lib/libpacklib.a(fzotxt.o)
 .comment       0x00006904       0x37 /cern/99/lib/libpacklib.a(fzicv.o)
 .comment       0x0000693b       0x37 /cern/99/lib/libpacklib.a(fzotrx.o)
 .comment       0x00006972       0x37 /cern/99/lib/libpacklib.a(mzend.o)
 .comment       0x000069a9       0x37 /cern/99/lib/libpacklib.a(mzmaps.o)
 .comment       0x000069e0       0x37 /cern/99/lib/libpacklib.a(mzmark.o)
 .comment       0x00006a17       0x37 /cern/99/lib/libpacklib.a(mzwork.o)
 .comment       0x00006a4e       0x37 /cern/99/lib/libpacklib.a(zitoh.o)
 .comment       0x00006a85       0x37 /cern/99/lib/libpacklib.a(rzallo.o)
 .comment       0x00006abc       0x37 /cern/99/lib/libpacklib.a(rzdelk.o)
 .comment       0x00006af3       0x37 /cern/99/lib/libpacklib.a(rzexpd.o)
 .comment       0x00006b2a       0x37 /cern/99/lib/libpacklib.a(rzfile.o)
 .comment       0x00006b61       0x37 /cern/99/lib/libpacklib.a(rzllok.o)
 .comment       0x00006b98       0x37 /cern/99/lib/libpacklib.a(rzlock.o)
 .comment       0x00006bcf       0x37 /cern/99/lib/libpacklib.a(rzmake.o)
 .comment       0x00006c06       0x37 /cern/99/lib/libpacklib.a(rzobkn.o)
 .comment       0x00006c3d       0x37 /cern/99/lib/libpacklib.a(rzpurf.o)
 .comment       0x00006c74       0x37 /cern/99/lib/libpacklib.a(rzveri.o)
 .comment       0x00006cab       0x37 /cern/99/lib/libpacklib.a(rzwrt.o)
 .comment       0x00006ce2       0x14 /cern/99/lib/libpacklib.a(connect.o)
 .comment       0x00006cf6       0x14 /cern/99/lib/libpacklib.a(getacct.o)
 .comment       0x00006d0a       0x14 /cern/99/lib/libpacklib.a(getacctent.o)
 .comment       0x00006d1e       0x14 /cern/99/lib/libpacklib.a(getconfent.o)
 .comment       0x00006d32       0x14 /cern/99/lib/libpacklib.a(getifnam.o)
 .comment       0x00006d46       0x14 /cern/99/lib/libpacklib.a(log.o)
 .comment       0x00006d5a       0x14 /cern/99/lib/libpacklib.a(remote.o)
 .comment       0x00006d6e       0x14 /cern/99/lib/libpacklib.a(setnetio.o)
 .comment       0x00006d82       0x37 /cern/99/lib/libpacklib.a(vxinvc.o)
 .comment       0x00006db9       0x37 /cern/99/lib/libpacklib.a(cfstati.o)
 .comment       0x00006df0       0x37 /cern/99/lib/libpacklib.a(dzare1.o)
 .comment       0x00006e27       0x37 /cern/99/lib/libpacklib.a(dzbkup.o)
 .comment       0x00006e5e       0x37 /cern/99/lib/libpacklib.a(dzbkxr.o)
 .comment       0x00006e95       0x37 /cern/99/lib/libpacklib.a(dzdata.o)
 .comment       0x00006ecc       0x37 /cern/99/lib/libpacklib.a(dzmap.o)
 .comment       0x00006f03       0x37 /cern/99/lib/libpacklib.a(dzopt.o)
 .comment       0x00006f3a       0x37 /cern/99/lib/libpacklib.a(dzshpr.o)
 .comment       0x00006f71       0x37 /cern/99/lib/libpacklib.a(dztyp.o)
 .comment       0x00006fa8       0x37 /cern/99/lib/libpacklib.a(fziasc.o)
 .comment       0x00006fdf       0x37 /cern/99/lib/libpacklib.a(fzichh.o)
 .comment       0x00007016       0x37 /cern/99/lib/libpacklib.a(fzidum.o)
 .comment       0x0000704d       0x37 /cern/99/lib/libpacklib.a(fzophr.o)
 .comment       0x00007084       0x37 /cern/99/lib/libpacklib.a(fzocv.o)
 .comment       0x000070bb       0x37 /cern/99/lib/libpacklib.a(izbcd.o)
 .comment       0x000070f2       0x37 /cern/99/lib/libpacklib.a(rzdlok.o)
 .comment       0x00007129       0x37 /cern/99/lib/libpacklib.a(rzver1.o)
 .comment       0x00007160       0x37 /cern/99/lib/libpacklib.a(rzver2.o)
 .comment       0x00007197       0x14 /cern/99/lib/libpacklib.a(stat.o)
 .comment       0x000071ab       0x37 /cern/99/lib/libpacklib.a(cfweof.o)
 .comment       0x000071e2       0x37 /cern/99/lib/libpacklib.a(iumode.o)
 .comment       0x00007219       0x37 /cern/99/lib/libpacklib.a(iufind.o)
 .comment       0x00007250       0x37 /cern/99/lib/libpacklib.a(iusame.o)
 .comment       0x00007287       0x37 /cern/99/lib/libpacklib.a(jrsbyt.o)
 .comment       0x000072be       0x37 /cern/99/lib/libpacklib.a(ucopiv.o)
 .comment       0x000072f5       0x37 /cern/99/lib/libpacklib.a(dzbkdv.o)
 .comment       0x0000732c       0x37 /cern/99/lib/libpacklib.a(dzbkhd.o)
 .comment       0x00007363       0x37 /cern/99/lib/libpacklib.a(dziopr.o)
 .comment       0x0000739a       0x37 /cern/99/lib/libpacklib.a(fzialn.o)
 .comment       0x000073d1       0x37 /cern/99/lib/libpacklib.a(fzoasc.o)
 .comment       0x00007408       0x37 /cern/99/lib/libpacklib.a(izchav.o)
 .comment       0x0000743f       0x37 /cern/99/lib/libpacklib.a(rzprnk.o)
 .comment       0x00007476       0x14 /cern/99/lib/libpacklib.a(mstat.o)
 .comment       0x0000748a       0x37 /cern/99/lib/libpacklib.a(dziopd.o)
 .comment       0x000074c1       0x37 /cern/99/lib/libpacklib.a(dzioph.o)
 .comment       0x000074f8       0x37 /cern/99/lib/libpacklib.a(fzoaln.o)
 .comment       0x0000752f       0x37 /cern/99/lib/libpacklib.a(fzoapk.o)
 .comment       0x00007566       0x37 /cern/99/lib/libpacklib.a(uh1toc.o)
 .comment       0x0000759d       0x35 /cern/99/lib/libmathlib.a(dsyev.o)
 .comment       0x000075d2       0x35 /cern/99/lib/libmathlib.a(dsytrd.o)
 .comment       0x00007607       0x35 /cern/99/lib/libmathlib.a(ilaenv.o)
 .comment       0x0000763c       0x35 /cern/99/lib/libmathlib.a(lsame.o)
 .comment       0x00007671       0x35 /cern/99/lib/libmathlib.a(xerbla.o)
 .comment       0x000076a6       0x35 /cern/99/lib/libmathlib.a(dscal.o)
 .comment       0x000076db       0x35 /cern/99/lib/libmathlib.a(dsyr2k.o)
 .comment       0x00007710       0x35 /cern/99/lib/libmathlib.a(dlamch.o)
 .comment       0x00007745       0x35 /cern/99/lib/libmathlib.a(dlansy.o)
 .comment       0x0000777a       0x35 /cern/99/lib/libmathlib.a(dlascl.o)
 .comment       0x000077af       0x35 /cern/99/lib/libmathlib.a(dlassq.o)
 .comment       0x000077e4       0x35 /cern/99/lib/libmathlib.a(dlatrd.o)
 .comment       0x00007819       0x35 /cern/99/lib/libmathlib.a(dorgtr.o)
 .comment       0x0000784e       0x35 /cern/99/lib/libmathlib.a(dsteqr.o)
 .comment       0x00007883       0x35 /cern/99/lib/libmathlib.a(dsterf.o)
 .comment       0x000078b8       0x35 /cern/99/lib/libmathlib.a(dsytd2.o)
 .comment       0x000078ed       0x35 /cern/99/lib/libmathlib.a(daxpy.o)
 .comment       0x00007922       0x35 /cern/99/lib/libmathlib.a(ddot.o)
 .comment       0x00007957       0x35 /cern/99/lib/libmathlib.a(dgemv.o)
 .comment       0x0000798c       0x35 /cern/99/lib/libmathlib.a(dswap.o)
 .comment       0x000079c1       0x35 /cern/99/lib/libmathlib.a(dsymv.o)
 .comment       0x000079f6       0x35 /cern/99/lib/libmathlib.a(dsyr2.o)
 .comment       0x00007a2b       0x35 /cern/99/lib/libmathlib.a(dlae2.o)
 .comment       0x00007a60       0x35 /cern/99/lib/libmathlib.a(dlaev2.o)
 .comment       0x00007a95       0x35 /cern/99/lib/libmathlib.a(dlanst.o)
 .comment       0x00007aca       0x35 /cern/99/lib/libmathlib.a(dlapy2.o)
 .comment       0x00007aff       0x35 /cern/99/lib/libmathlib.a(dlarfg.o)
 .comment       0x00007b34       0x35 /cern/99/lib/libmathlib.a(dlartg.o)
 .comment       0x00007b69       0x35 /cern/99/lib/libmathlib.a(dlaset.o)
 .comment       0x00007b9e       0x35 /cern/99/lib/libmathlib.a(dlasr.o)
 .comment       0x00007bd3       0x35 /cern/99/lib/libmathlib.a(dlasrt.o)
 .comment       0x00007c08       0x35 /cern/99/lib/libmathlib.a(dorgql.o)
 .comment       0x00007c3d       0x35 /cern/99/lib/libmathlib.a(dorgqr.o)
 .comment       0x00007c72       0x35 /cern/99/lib/libmathlib.a(dnrm2.o)
 .comment       0x00007ca7       0x35 /cern/99/lib/libmathlib.a(dlarfb.o)
 .comment       0x00007cdc       0x35 /cern/99/lib/libmathlib.a(dlarft.o)
 .comment       0x00007d11       0x35 /cern/99/lib/libmathlib.a(dorg2l.o)
 .comment       0x00007d46       0x35 /cern/99/lib/libmathlib.a(dorg2r.o)
 .comment       0x00007d7b       0x35 /cern/99/lib/libmathlib.a(dcopy.o)
 .comment       0x00007db0       0x35 /cern/99/lib/libmathlib.a(dgemm.o)
 .comment       0x00007de5       0x35 /cern/99/lib/libmathlib.a(dtrmm.o)
 .comment       0x00007e1a       0x35 /cern/99/lib/libmathlib.a(dtrmv.o)
 .comment       0x00007e4f       0x35 /cern/99/lib/libmathlib.a(dlarf.o)
 .comment       0x00007e84       0x35 /cern/99/lib/libmathlib.a(dger.o)
 .comment       0x00007eb9       0x26 /usr/lib/libc_nonshared.a(atexit.oS)
 .comment       0x00007edf       0x26 /usr/lib/gcc-lib/i686-pc-linux-gnu/2.95.3/libg2c.a(close.o)
 .comment       0x00007f05       0x26 /usr/lib/gcc-lib/i686-pc-linux-gnu/2.95.3/libg2c.a(dolio.o)
 .comment       0x00007f2b       0x26 /usr/lib/gcc-lib/i686-pc-linux-gnu/2.95.3/libg2c.a(due.o)
 .comment       0x00007f51       0x26 /usr/lib/gcc-lib/i686-pc-linux-gnu/2.95.3/libg2c.a(endfile.o)
 .comment       0x00007f77       0x26 /usr/lib/gcc-lib/i686-pc-linux-gnu/2.95.3/libg2c.a(err.o)
 .comment       0x00007f9d       0x26 /usr/lib/gcc-lib/i686-pc-linux-gnu/2.95.3/libg2c.a(fmt.o)
 .comment       0x00007fc3       0x26 /usr/lib/gcc-lib/i686-pc-linux-gnu/2.95.3/libg2c.a(iio.o)
 .comment       0x00007fe9       0x26 /usr/lib/gcc-lib/i686-pc-linux-gnu/2.95.3/libg2c.a(inquire.o)
 .comment       0x0000800f       0x26 /usr/lib/gcc-lib/i686-pc-linux-gnu/2.95.3/libg2c.a(lread.o)
 .comment       0x00008035       0x26 /usr/lib/gcc-lib/i686-pc-linux-gnu/2.95.3/libg2c.a(open.o)
 .comment       0x0000805b       0x26 /usr/lib/gcc-lib/i686-pc-linux-gnu/2.95.3/libg2c.a(rdfmt.o)
 .comment       0x00008081       0x26 /usr/lib/gcc-lib/i686-pc-linux-gnu/2.95.3/libg2c.a(rewind.o)
 .comment       0x000080a7       0x26 /usr/lib/gcc-lib/i686-pc-linux-gnu/2.95.3/libg2c.a(rsfe.o)
 .comment       0x000080cd       0x26 /usr/lib/gcc-lib/i686-pc-linux-gnu/2.95.3/libg2c.a(sfe.o)
 .comment       0x000080f3       0x26 /usr/lib/gcc-lib/i686-pc-linux-gnu/2.95.3/libg2c.a(sue.o)
 .comment       0x00008119       0x26 /usr/lib/gcc-lib/i686-pc-linux-gnu/2.95.3/libg2c.a(uio.o)
 .comment       0x0000813f       0x26 /usr/lib/gcc-lib/i686-pc-linux-gnu/2.95.3/libg2c.a(util.o)
 .comment       0x00008165       0x26 /usr/lib/gcc-lib/i686-pc-linux-gnu/2.95.3/libg2c.a(wrtfmt.o)
 .comment       0x0000818b       0x26 /usr/lib/gcc-lib/i686-pc-linux-gnu/2.95.3/libg2c.a(wsfe.o)
 .comment       0x000081b1       0x26 /usr/lib/gcc-lib/i686-pc-linux-gnu/2.95.3/libg2c.a(wsle.o)
 .comment       0x000081d7       0x26 /usr/lib/gcc-lib/i686-pc-linux-gnu/2.95.3/libg2c.a(main.o)
 .comment       0x000081fd       0x26 /usr/lib/gcc-lib/i686-pc-linux-gnu/2.95.3/libg2c.a(s_stop.o)
 .comment       0x00008223       0x26 /usr/lib/gcc-lib/i686-pc-linux-gnu/2.95.3/libg2c.a(sig_die.o)
 .comment       0x00008249       0x26 /usr/lib/gcc-lib/i686-pc-linux-gnu/2.95.3/libg2c.a(setarg.o)
 .comment       0x0000826f       0x26 /usr/lib/gcc-lib/i686-pc-linux-gnu/2.95.3/libg2c.a(setsig.o)
 .comment       0x00008295       0x26 /usr/lib/gcc-lib/i686-pc-linux-gnu/2.95.3/libg2c.a(pow_dd.o)
 .comment       0x000082bb       0x26 /usr/lib/gcc-lib/i686-pc-linux-gnu/2.95.3/libg2c.a(c_abs.o)
 .comment       0x000082e1       0x26 /usr/lib/gcc-lib/i686-pc-linux-gnu/2.95.3/libg2c.a(c_log.o)
 .comment       0x00008307       0x26 /usr/lib/gcc-lib/i686-pc-linux-gnu/2.95.3/libg2c.a(r_lg10.o)
 .comment       0x0000832d       0x26 /usr/lib/gcc-lib/i686-pc-linux-gnu/2.95.3/libg2c.a(r_mod.o)
 .comment       0x00008353       0x26 /usr/lib/gcc-lib/i686-pc-linux-gnu/2.95.3/libg2c.a(d_mod.o)
 .comment       0x00008379       0x26 /usr/lib/gcc-lib/i686-pc-linux-gnu/2.95.3/libg2c.a(i_indx.o)
 .comment       0x0000839f       0x26 /usr/lib/gcc-lib/i686-pc-linux-gnu/2.95.3/libg2c.a(l_gt.o)
 .comment       0x000083c5       0x26 /usr/lib/gcc-lib/i686-pc-linux-gnu/2.95.3/libg2c.a(l_lt.o)
 .comment       0x000083eb       0x26 /usr/lib/gcc-lib/i686-pc-linux-gnu/2.95.3/libg2c.a(s_cat.o)
 .comment       0x00008411       0x26 /usr/lib/gcc-lib/i686-pc-linux-gnu/2.95.3/libg2c.a(s_cmp.o)
 .comment       0x00008437       0x26 /usr/lib/gcc-lib/i686-pc-linux-gnu/2.95.3/libg2c.a(s_copy.o)
 .comment       0x0000845d       0x26 /usr/lib/gcc-lib/i686-pc-linux-gnu/2.95.3/libg2c.a(lnblnk_.o)
 .comment       0x00008483       0x26 /usr/lib/gcc-lib/i686-pc-linux-gnu/2.95.3/libg2c.a(fmtlib.o)
 .comment       0x000084a9       0x26 /usr/lib/gcc-lib/i686-pc-linux-gnu/2.95.3/libg2c.a(lwrite.o)
 .comment       0x000084cf       0x26 /usr/lib/gcc-lib/i686-pc-linux-gnu/2.95.3/libg2c.a(wref.o)
 .comment       0x000084f5       0x26 /usr/lib/gcc-lib/i686-pc-linux-gnu/2.95.3/libg2c.a(F77_aloc.o)
 .comment       0x0000851b       0x26 /usr/lib/gcc-lib/i686-pc-linux-gnu/2.95.3/libg2c.a(cabs.o)
 .comment       0x00008541       0x26 /usr/lib/gcc-lib/i686-pc-linux-gnu/2.95.3/libg2c.a(exit_.o)
 .comment       0x00008567       0x26 /usr/lib/gcc-lib/i686-pc-linux-gnu/2.95.3/crtend.o
 .comment       0x0000858d       0x26 /usr/lib/crtn.o

.debug
 *(.debug)

.line
 *(.line)

.debug_srcinfo
 *(.debug_srcinfo)

.debug_sfnames
 *(.debug_sfnames)

.debug_aranges
 *(.debug_aranges)

.debug_pubnames
 *(.debug_pubnames)

.debug_info
 *(.debug_info .gnu.linkonce.wi.*)

.debug_abbrev
 *(.debug_abbrev)

.debug_line
 *(.debug_line)

.debug_frame
 *(.debug_frame)

.debug_str
 *(.debug_str)

.debug_loc
 *(.debug_loc)

.debug_macinfo
 *(.debug_macinfo)

.debug_weaknames
 *(.debug_weaknames)

.debug_funcnames
 *(.debug_funcnames)

.debug_typenames
 *(.debug_typenames)

.debug_varnames
 *(.debug_varnames)
OUTPUT(mcar48p_105j.run elf32-i386)

.note           0x00000000     0x3b60
 .note          0x00000000       0x14 /usr/lib/crt1.o
 .note          0x00000014       0x14 /usr/lib/crti.o
 .note          0x00000028       0x14 /usr/lib/gcc-lib/i686-pc-linux-gnu/2.95.3/crtbegin.o
 .note          0x0000003c       0x14 mcar48p_105j.o
 .note          0x00000050       0x14 /home/pcl2483/pedro/jadesoft/util/mcgen/Plib/libmc105j.a(mcgetf.o)
 .note          0x00000064       0x14 /home/pcl2483/pedro/jadesoft/util/mcgen/Plib/libmc105j.a(mcgeth.o)
 .note          0x00000078       0x14 /home/pcl2483/pedro/jadesoft/util/mcgen/Plib/libmc105j.a(mcgetp.o)
 .note          0x0000008c       0x14 /home/pcl2483/pedro/jadesoft/util/mcgen/Plib/libmc105j.a(mcinit.o)
 .note          0x000000a0       0x14 /home/pcl2483/pedro/jadesoft/util/mcgen/Plib/libmc105j.a(mcstbl.o)
 .note          0x000000b4       0x14 /home/pcl2483/pedro/jadesoft/util/mcgen/Plib/libmc105j.a(mcwrit.o)
 .note          0x000000c8       0x14 /home/pcl2483/pedro/jadesoft/util/mcgen/Plib/libmc105j.a(mytype.o)
 .note          0x000000dc       0x14 /home/pcl2483/pedro/jadesoft/util/mcgen/Plib/libmc105j.a(pxeecb.o)
 .note          0x000000f0       0x14 /home/pcl2483/pedro/jadesoft/util/mcgen/Plib/libmc105j.a(evwrtj.o)
 .note          0x00000104       0x14 /home/pcl2483/pedro/jadesoft/util/mcgen/Plib/libmc105j.a(incprd.o)
 .note          0x00000118       0x14 /home/pcl2483/pedro/jadesoft/util/mcgen/Plib/libmc105j.a(jadeco.o)
 .note          0x0000012c       0x14 /home/pcl2483/pedro/jadesoft/util/mcgen/Plib/libmc105j.a(jtconv.o)
 .note          0x00000140       0x14 /home/pcl2483/pedro/jadesoft/util/mcgen/Plib/libmc105j.a(mcrnst.o)
 .note          0x00000154       0x14 /home/pcl2483/pedro/jadesoft/util/mcgen/Plib/libmc105j.a(ntcprd.o)
 .note          0x00000168       0x14 /home/pcl2483/pedro/jadesoft/util/mcgen/Plib/libmc105j.a(prcprd.o)
 .note          0x0000017c       0x14 /home/pcl2483/pedro/jadesoft/util/mcgen/Plib/libmc105j.a(wrcprd.o)
 .note          0x00000190       0x14 /home/pcl2483/pedro/jadesoft/util/mcgen/Plib/libpythia5722.a(pydata.o)
 .note          0x000001a4       0x14 /home/pcl2483/pedro/jadesoft/util/mcgen/Plib/libpythia5722.a(pyevnt.o)
 .note          0x000001b8       0x14 /home/pcl2483/pedro/jadesoft/util/mcgen/Plib/libpythia5722.a(pyfram.o)
 .note          0x000001cc       0x14 /home/pcl2483/pedro/jadesoft/util/mcgen/Plib/libpythia5722.a(pyinit.o)
 .note          0x000001e0       0x14 /home/pcl2483/pedro/jadesoft/util/mcgen/Plib/libpythia5722.a(pyinki.o)
 .note          0x000001f4       0x14 /home/pcl2483/pedro/jadesoft/util/mcgen/Plib/libpythia5722.a(pyinpr.o)
 .note          0x00000208       0x14 /home/pcl2483/pedro/jadesoft/util/mcgen/Plib/libpythia5722.a(pyinre.o)
 .note          0x0000021c       0x14 /home/pcl2483/pedro/jadesoft/util/mcgen/Plib/libpythia5722.a(pymaxi.o)
 .note          0x00000230       0x14 /home/pcl2483/pedro/jadesoft/util/mcgen/Plib/libpythia5722.a(pymult.o)
 .note          0x00000244       0x14 /home/pcl2483/pedro/jadesoft/util/mcgen/Plib/libpythia5722.a(pyofsh.o)
 .note          0x00000258       0x14 /home/pcl2483/pedro/jadesoft/util/mcgen/Plib/libpythia5722.a(pypile.o)
 .note          0x0000026c       0x14 /home/pcl2483/pedro/jadesoft/util/mcgen/Plib/libpythia5722.a(pyrand.o)
 .note          0x00000280       0x14 /home/pcl2483/pedro/jadesoft/util/mcgen/Plib/libpythia5722.a(pyremn.o)
 .note          0x00000294       0x14 /home/pcl2483/pedro/jadesoft/util/mcgen/Plib/libpythia5722.a(pyresd.o)
 .note          0x000002a8       0x14 /home/pcl2483/pedro/jadesoft/util/mcgen/Plib/libpythia5722.a(pysave.o)
 .note          0x000002bc       0x14 /home/pcl2483/pedro/jadesoft/util/mcgen/Plib/libpythia5722.a(pyscat.o)
 .note          0x000002d0       0x14 /home/pcl2483/pedro/jadesoft/util/mcgen/Plib/libpythia5722.a(pysigh.o)
 .note          0x000002e4       0x14 /home/pcl2483/pedro/jadesoft/util/mcgen/Plib/libpythia5722.a(pyspli.o)
 .note          0x000002f8       0x14 /home/pcl2483/pedro/jadesoft/util/mcgen/Plib/libpythia5722.a(pysspa.o)
 .note          0x0000030c       0x14 /home/pcl2483/pedro/jadesoft/util/mcgen/Plib/libpythia5722.a(pystfl.o)
 .note          0x00000320       0x14 /home/pcl2483/pedro/jadesoft/util/mcgen/Plib/libpythia5722.a(pystfu.o)
 .note          0x00000334       0x14 /home/pcl2483/pedro/jadesoft/util/mcgen/Plib/libpythia5722.a(pystga.o)
 .note          0x00000348       0x14 /home/pcl2483/pedro/jadesoft/util/mcgen/Plib/libpythia5722.a(pystpi.o)
 .note          0x0000035c       0x14 /home/pcl2483/pedro/jadesoft/util/mcgen/Plib/libpythia5722.a(pystpr.o)
 .note          0x00000370       0x14 /home/pcl2483/pedro/jadesoft/util/mcgen/Plib/libpythia5722.a(pyupev.o)
 .note          0x00000384       0x14 /home/pcl2483/pedro/jadesoft/util/mcgen/Plib/libpythia5722.a(pywaux.o)
 .note          0x00000398       0x14 /home/pcl2483/pedro/jadesoft/util/mcgen/Plib/libpythia5722.a(pywidt.o)
 .note          0x000003ac       0x14 /home/pcl2483/pedro/jadesoft/util/mcgen/Plib/libpythia5722.a(pyxtot.o)
 .note          0x000003c0       0x14 /home/pcl2483/pedro/jadesoft/util/mcgen/Plib/libpythia5722.a(rkbbv.o)
 .note          0x000003d4       0x14 /home/pcl2483/pedro/jadesoft/util/mcgen/Plib/libpythia5722.a(rkdot.o)
 .note          0x000003e8       0x14 /home/pcl2483/pedro/jadesoft/util/mcgen/Plib/libpythia5722.a(rkhlpk.o)
 .note          0x000003fc       0x14 /home/pcl2483/pedro/jadesoft/util/mcgen/Plib/libpythia5722.a(rkrand.o)
 .note          0x00000410       0x14 /home/pcl2483/pedro/jadesoft/util/mcgen/Plib/libpythia5722.a(rkzf.o)
 .note          0x00000424       0x14 /home/pcl2483/pedro/jadesoft/util/mcgen/Plib/libpythia5722.a(rkzpr.o)
 .note          0x00000438       0x14 /home/pcl2483/pedro/jadesoft/util/mcgen/Plib/libpythia5722.a(rkzsf.o)
 .note          0x0000044c       0x14 /home/pcl2483/pedro/jadesoft/util/mcgen/Plib/libpythia5722.a(structm.o)
 .note          0x00000460       0x14 /home/pcl2483/pedro/jadesoft/util/mcgen/Plib/libpythia5722.a(pdfset.o)
 .note          0x00000474       0x14 /home/pcl2483/pedro/jadesoft/util/mcgen/Plib/libpythia5722.a(pyctq2.o)
 .note          0x00000488       0x14 /home/pcl2483/pedro/jadesoft/util/mcgen/Plib/libpythia5722.a(pydiff.o)
 .note          0x0000049c       0x14 /home/pcl2483/pedro/jadesoft/util/mcgen/Plib/libpythia5722.a(pydocu.o)
 .note          0x000004b0       0x14 /home/pcl2483/pedro/jadesoft/util/mcgen/Plib/libpythia5722.a(pyevwt.o)
 .note          0x000004c4       0x14 /home/pcl2483/pedro/jadesoft/util/mcgen/Plib/libpythia5722.a(pygamm.o)
 .note          0x000004d8       0x14 /home/pcl2483/pedro/jadesoft/util/mcgen/Plib/libpythia5722.a(pygano.o)
 .note          0x000004ec       0x14 /home/pcl2483/pedro/jadesoft/util/mcgen/Plib/libpythia5722.a(pyggam.o)
 .note          0x00000500       0x14 /home/pcl2483/pedro/jadesoft/util/mcgen/Plib/libpythia5722.a(pygvmd.o)
 .note          0x00000514       0x14 /home/pcl2483/pedro/jadesoft/util/mcgen/Plib/libpythia5722.a(pyhfth.o)
 .note          0x00000528       0x14 /home/pcl2483/pedro/jadesoft/util/mcgen/Plib/libpythia5722.a(pyi3au.o)
 .note          0x0000053c       0x14 /home/pcl2483/pedro/jadesoft/util/mcgen/Plib/libpythia5722.a(pyinbm.o)
 .note          0x00000550       0x14 /home/pcl2483/pedro/jadesoft/util/mcgen/Plib/libpythia5722.a(pykcut.o)
 .note          0x00000564       0x14 /home/pcl2483/pedro/jadesoft/util/mcgen/Plib/libpythia5722.a(pyklim.o)
 .note          0x00000578       0x14 /home/pcl2483/pedro/jadesoft/util/mcgen/Plib/libpythia5722.a(pykmap.o)
 .note          0x0000058c       0x14 /home/pcl2483/pedro/jadesoft/util/mcgen/Plib/libpythia5722.a(pyqqbh.o)
 .note          0x000005a0       0x14 /home/pcl2483/pedro/jadesoft/util/mcgen/Plib/libpythia5722.a(pyspen.o)
 .note          0x000005b4       0x14 /home/pcl2483/pedro/jadesoft/util/mcgen/Plib/libpythia5722.a(pystel.o)
 .note          0x000005c8       0x14 /home/pcl2483/pedro/jadesoft/util/mcgen/Plib/libpythia5722.a(pygbeh.o)
 .note          0x000005dc       0x14 /home/pcl2483/pedro/jadesoft/util/mcgen/Plib/libpythia5722.a(pygdir.o)
 .note          0x000005f0       0x14 /home/pcl2483/pedro/jadesoft/util/mcgen/Plib/libariadne408.a(ardata.o)
 .note          0x00000604       0x14 /home/pcl2483/pedro/jadesoft/util/mcgen/Plib/libariadne408.a(arexec.o)
 .note          0x00000618       0x14 /home/pcl2483/pedro/jadesoft/util/mcgen/Plib/libariadne408.a(arinit.o)
 .note          0x0000062c       0x14 /home/pcl2483/pedro/jadesoft/util/mcgen/Plib/libariadne408.a(arlept.o)
 .note          0x00000640       0x14 /home/pcl2483/pedro/jadesoft/util/mcgen/Plib/libariadne408.a(arpars.o)
 .note          0x00000654       0x14 /home/pcl2483/pedro/jadesoft/util/mcgen/Plib/libariadne408.a(arphas.o)
 .note          0x00000668       0x14 /home/pcl2483/pedro/jadesoft/util/mcgen/Plib/libariadne408.a(arptqq.o)
 .note          0x0000067c       0x14 /home/pcl2483/pedro/jadesoft/util/mcgen/Plib/libariadne408.a(arpyth.o)
 .note          0x00000690       0x14 /home/pcl2483/pedro/jadesoft/util/mcgen/Plib/libariadne408.a(arpyww.o)
 .note          0x000006a4       0x14 /home/pcl2483/pedro/jadesoft/util/mcgen/Plib/libariadne408.a(arremn.o)
 .note          0x000006b8       0x14 /home/pcl2483/pedro/jadesoft/util/mcgen/Plib/libariadne408.a(arscan.o)
 .note          0x000006cc       0x14 /home/pcl2483/pedro/jadesoft/util/mcgen/Plib/libariadne408.a(arstra.o)
 .note          0x000006e0       0x14 /home/pcl2483/pedro/jadesoft/util/mcgen/Plib/libariadne408.a(artune.o)
 .note          0x000006f4       0x14 /home/pcl2483/pedro/jadesoft/util/mcgen/Plib/libariadne408.a(arupom.o)
 .note          0x00000708       0x14 /home/pcl2483/pedro/jadesoft/util/mcgen/Plib/libariadne408.a(arzcms.o)
 .note          0x0000071c       0x14 /home/pcl2483/pedro/jadesoft/util/mcgen/Plib/libariadne408.a(lnstrf.o)
 .note          0x00000730       0x14 /home/pcl2483/pedro/jadesoft/util/mcgen/Plib/libariadne408.a(arbole.o)
 .note          0x00000744       0x14 /home/pcl2483/pedro/jadesoft/util/mcgen/Plib/libariadne408.a(arbopy.o)
 .note          0x00000758       0x14 /home/pcl2483/pedro/jadesoft/util/mcgen/Plib/libariadne408.a(arcasc.o)
 .note          0x0000076c       0x14 /home/pcl2483/pedro/jadesoft/util/mcgen/Plib/libariadne408.a(archem.o)
 .note          0x00000780       0x14 /home/pcl2483/pedro/jadesoft/util/mcgen/Plib/libariadne408.a(arcoli.o)
 .note          0x00000794       0x14 /home/pcl2483/pedro/jadesoft/util/mcgen/Plib/libariadne408.a(arcont.o)
 .note          0x000007a8       0x14 /home/pcl2483/pedro/jadesoft/util/mcgen/Plib/libariadne408.a(arcopa.o)
 .note          0x000007bc       0x14 /home/pcl2483/pedro/jadesoft/util/mcgen/Plib/libariadne408.a(arcrdi.o)
 .note          0x000007d0       0x14 /home/pcl2483/pedro/jadesoft/util/mcgen/Plib/libariadne408.a(ardump.o)
 .note          0x000007e4       0x14 /home/pcl2483/pedro/jadesoft/util/mcgen/Plib/libariadne408.a(arerrm.o)
 .note          0x000007f8       0x14 /home/pcl2483/pedro/jadesoft/util/mcgen/Plib/libariadne408.a(arevol.o)
 .note          0x0000080c       0x14 /home/pcl2483/pedro/jadesoft/util/mcgen/Plib/libariadne408.a(arexma.o)
 .note          0x00000820       0x14 /home/pcl2483/pedro/jadesoft/util/mcgen/Plib/libariadne408.a(arfidy.o)
 .note          0x00000834       0x14 /home/pcl2483/pedro/jadesoft/util/mcgen/Plib/libariadne408.a(argpt2.o)
 .note          0x00000848       0x14 /home/pcl2483/pedro/jadesoft/util/mcgen/Plib/libariadne408.a(argqcd.o)
 .note          0x0000085c       0x14 /home/pcl2483/pedro/jadesoft/util/mcgen/Plib/libariadne408.a(argqcg.o)
 .note          0x00000870       0x14 /home/pcl2483/pedro/jadesoft/util/mcgen/Plib/libariadne408.a(argqcq.o)
 .note          0x00000884       0x14 /home/pcl2483/pedro/jadesoft/util/mcgen/Plib/libariadne408.a(argqed.o)
 .note          0x00000898       0x14 /home/pcl2483/pedro/jadesoft/util/mcgen/Plib/libariadne408.a(argtyp.o)
 .note          0x000008ac       0x14 /home/pcl2483/pedro/jadesoft/util/mcgen/Plib/libariadne408.a(arincr.o)
 .note          0x000008c0       0x14 /home/pcl2483/pedro/jadesoft/util/mcgen/Plib/libariadne408.a(arinqq.o)
 .note          0x000008d4       0x14 /home/pcl2483/pedro/jadesoft/util/mcgen/Plib/libariadne408.a(armade.o)
 .note          0x000008e8       0x14 /home/pcl2483/pedro/jadesoft/util/mcgen/Plib/libariadne408.a(armas2.o)
 .note          0x000008fc       0x14 /home/pcl2483/pedro/jadesoft/util/mcgen/Plib/libariadne408.a(armass.o)
 .note          0x00000910       0x14 /home/pcl2483/pedro/jadesoft/util/mcgen/Plib/libariadne408.a(armcdi.o)
 .note          0x00000924       0x14 /home/pcl2483/pedro/jadesoft/util/mcgen/Plib/libariadne408.a(armipt.o)
 .note          0x00000938       0x14 /home/pcl2483/pedro/jadesoft/util/mcgen/Plib/libariadne408.a(armtqq.o)
 .note          0x0000094c       0x14 /home/pcl2483/pedro/jadesoft/util/mcgen/Plib/libariadne408.a(arndx1.o)
 .note          0x00000960       0x14 /home/pcl2483/pedro/jadesoft/util/mcgen/Plib/libariadne408.a(arndx2.o)
 .note          0x00000974       0x14 /home/pcl2483/pedro/jadesoft/util/mcgen/Plib/libariadne408.a(arndx3.o)
 .note          0x00000988       0x14 /home/pcl2483/pedro/jadesoft/util/mcgen/Plib/libariadne408.a(arndy1.o)
 .note          0x0000099c       0x14 /home/pcl2483/pedro/jadesoft/util/mcgen/Plib/libariadne408.a(arndy2.o)
 .note          0x000009b0       0x14 /home/pcl2483/pedro/jadesoft/util/mcgen/Plib/libariadne408.a(arndy3.o)
 .note          0x000009c4       0x14 /home/pcl2483/pedro/jadesoft/util/mcgen/Plib/libariadne408.a(arndy4.o)
 .note          0x000009d8       0x14 /home/pcl2483/pedro/jadesoft/util/mcgen/Plib/libariadne408.a(arniqq.o)
 .note          0x000009ec       0x14 /home/pcl2483/pedro/jadesoft/util/mcgen/Plib/libariadne408.a(arnofl.o)
 .note          0x00000a00       0x14 /home/pcl2483/pedro/jadesoft/util/mcgen/Plib/libariadne408.a(arobo1.o)
 .note          0x00000a14       0x14 /home/pcl2483/pedro/jadesoft/util/mcgen/Plib/libariadne408.a(arobo2.o)
 .note          0x00000a28       0x14 /home/pcl2483/pedro/jadesoft/util/mcgen/Plib/libariadne408.a(arobo3.o)
 .note          0x00000a3c       0x14 /home/pcl2483/pedro/jadesoft/util/mcgen/Plib/libariadne408.a(arpcms.o)
 .note          0x00000a50       0x14 /home/pcl2483/pedro/jadesoft/util/mcgen/Plib/libariadne408.a(arpoki.o)
 .note          0x00000a64       0x14 /home/pcl2483/pedro/jadesoft/util/mcgen/Plib/libariadne408.a(arposf.o)
 .note          0x00000a78       0x14 /home/pcl2483/pedro/jadesoft/util/mcgen/Plib/libariadne408.a(arprda.o)
 .note          0x00000a8c       0x14 /home/pcl2483/pedro/jadesoft/util/mcgen/Plib/libariadne408.a(arprdy.o)
 .note          0x00000aa0       0x14 /home/pcl2483/pedro/jadesoft/util/mcgen/Plib/libariadne408.a(arprgc.o)
 .note          0x00000ab4       0x14 /home/pcl2483/pedro/jadesoft/util/mcgen/Plib/libariadne408.a(arrobo.o)
 .note          0x00000ac8       0x14 /home/pcl2483/pedro/jadesoft/util/mcgen/Plib/libariadne408.a(arsume.o)
 .note          0x00000adc       0x14 /home/pcl2483/pedro/jadesoft/util/mcgen/Plib/libariadne408.a(arvet1.o)
 .note          0x00000af0       0x14 /home/pcl2483/pedro/jadesoft/util/mcgen/Plib/libariadne408.a(arvet3.o)
 .note          0x00000b04       0x14 /home/pcl2483/pedro/jadesoft/util/mcgen/Plib/libariadne408.a(arvet4.o)
 .note          0x00000b18       0x14 /home/pcl2483/pedro/jadesoft/util/mcgen/Plib/libariadne408.a(arvet5.o)
 .note          0x00000b2c       0x14 /home/pcl2483/pedro/jadesoft/util/mcgen/Plib/libariadne408.a(arveth.o)
 .note          0x00000b40       0x14 /home/pcl2483/pedro/jadesoft/util/mcgen/Plib/libariadne408.a(arbocm.o)
 .note          0x00000b54       0x14 /home/pcl2483/pedro/jadesoft/util/mcgen/Plib/libariadne408.a(archki.o)
 .note          0x00000b68       0x14 /home/pcl2483/pedro/jadesoft/util/mcgen/Plib/libariadne408.a(ardbrb.o)
 .note          0x00000b7c       0x14 /home/pcl2483/pedro/jadesoft/util/mcgen/Plib/libariadne408.a(arearr.o)
 .note          0x00000b90       0x14 /home/pcl2483/pedro/jadesoft/util/mcgen/Plib/libariadne408.a(aremit.o)
 .note          0x00000ba4       0x14 /home/pcl2483/pedro/jadesoft/util/mcgen/Plib/libariadne408.a(arevst.o)
 .note          0x00000bb8       0x14 /home/pcl2483/pedro/jadesoft/util/mcgen/Plib/libariadne408.a(argdis.o)
 .note          0x00000bcc       0x14 /home/pcl2483/pedro/jadesoft/util/mcgen/Plib/libariadne408.a(arging.o)
 .note          0x00000be0       0x14 /home/pcl2483/pedro/jadesoft/util/mcgen/Plib/libariadne408.a(aripsf.o)
 .note          0x00000bf4       0x14 /home/pcl2483/pedro/jadesoft/util/mcgen/Plib/libariadne408.a(aript2.o)
 .note          0x00000c08       0x14 /home/pcl2483/pedro/jadesoft/util/mcgen/Plib/libariadne408.a(arjoqq.o)
 .note          0x00000c1c       0x14 /home/pcl2483/pedro/jadesoft/util/mcgen/Plib/libariadne408.a(arjost.o)
 .note          0x00000c30       0x14 /home/pcl2483/pedro/jadesoft/util/mcgen/Plib/libariadne408.a(armas3.o)
 .note          0x00000c44       0x14 /home/pcl2483/pedro/jadesoft/util/mcgen/Plib/libariadne408.a(arpadd.o)
 .note          0x00000c58       0x14 /home/pcl2483/pedro/jadesoft/util/mcgen/Plib/libariadne408.a(arradg.o)
 .note          0x00000c6c       0x14 /home/pcl2483/pedro/jadesoft/util/mcgen/Plib/libariadne408.a(arradp.o)
 .note          0x00000c80       0x14 /home/pcl2483/pedro/jadesoft/util/mcgen/Plib/libariadne408.a(arradq.o)
 .note          0x00000c94       0x14 /home/pcl2483/pedro/jadesoft/util/mcgen/Plib/libariadne408.a(arreca.o)
 .note          0x00000ca8       0x14 /home/pcl2483/pedro/jadesoft/util/mcgen/Plib/libariadne408.a(arremd.o)
 .note          0x00000cbc       0x14 /home/pcl2483/pedro/jadesoft/util/mcgen/Plib/libariadne408.a(arremp.o)
 .note          0x00000cd0       0x14 /home/pcl2483/pedro/jadesoft/util/mcgen/Plib/libariadne408.a(arsplg.o)
 .note          0x00000ce4       0x14 /home/pcl2483/pedro/jadesoft/util/mcgen/Plib/libariadne408.a(arstor.o)
 .note          0x00000cf8       0x14 /home/pcl2483/pedro/jadesoft/util/mcgen/Plib/libariadne408.a(arswap.o)
 .note          0x00000d0c       0x14 /home/pcl2483/pedro/jadesoft/util/mcgen/Plib/libariadne408.a(artpt2.o)
 .note          0x00000d20       0x14 /home/pcl2483/pedro/jadesoft/util/mcgen/Plib/libariadne408.a(araddg.o)
 .note          0x00000d34       0x14 /home/pcl2483/pedro/jadesoft/util/mcgen/Plib/libariadne408.a(archfl.o)
 .note          0x00000d48       0x14 /home/pcl2483/pedro/jadesoft/util/mcgen/Plib/libariadne408.a(arduph.o)
 .note          0x00000d5c       0x14 /home/pcl2483/pedro/jadesoft/util/mcgen/Plib/libariadne408.a(ardyre.o)
 .note          0x00000d70       0x14 /home/pcl2483/pedro/jadesoft/util/mcgen/Plib/libariadne408.a(aremi2.o)
 .note          0x00000d84       0x14 /home/pcl2483/pedro/jadesoft/util/mcgen/Plib/libariadne408.a(aremi3.o)
 .note          0x00000d98       0x14 /home/pcl2483/pedro/jadesoft/util/mcgen/Plib/libariadne408.a(argdig.o)
 .note          0x00000dac       0x14 /home/pcl2483/pedro/jadesoft/util/mcgen/Plib/libariadne408.a(argetr.o)
 .note          0x00000dc0       0x14 /home/pcl2483/pedro/jadesoft/util/mcgen/Plib/libariadne408.a(argig2.o)
 .note          0x00000dd4       0x14 /home/pcl2483/pedro/jadesoft/util/mcgen/Plib/libariadne408.a(arobo4.o)
 .note          0x00000de8       0x14 /home/pcl2483/pedro/jadesoft/util/mcgen/Plib/libariadne408.a(arobo5.o)
 .note          0x00000dfc       0x14 /home/pcl2483/pedro/jadesoft/util/mcgen/Plib/libariadne408.a(arorie.o)
 .note          0x00000e10       0x14 /home/pcl2483/pedro/jadesoft/util/mcgen/Plib/libariadne408.a(arpado.o)
 .note          0x00000e24       0x14 /home/pcl2483/pedro/jadesoft/util/mcgen/Plib/libariadne408.a(arpins.o)
 .note          0x00000e38       0x14 /home/pcl2483/pedro/jadesoft/util/mcgen/Plib/libariadne408.a(arputr.o)
 .note          0x00000e4c       0x14 /home/pcl2483/pedro/jadesoft/util/mcgen/Plib/libariadne408.a(arremg.o)
 .note          0x00000e60       0x14 /home/pcl2483/pedro/jadesoft/util/mcgen/Plib/libariadne408.a(arrems.o)
 .note          0x00000e74       0x14 /home/pcl2483/pedro/jadesoft/util/mcgen/Plib/libariadne408.a(arthrw.o)
 .note          0x00000e88       0x14 /home/pcl2483/pedro/jadesoft/util/mcgen/Plib/libariadne408.a(aruthr.o)
 .note          0x00000e9c       0x14 /home/pcl2483/pedro/jadesoft/util/mcgen/Plib/libariadne408.a(arvet6.o)
 .note          0x00000eb0       0x14 /home/pcl2483/pedro/jadesoft/util/mcgen/Plib/libariadne408.a(arvet7.o)
 .note          0x00000ec4       0x14 /home/pcl2483/pedro/jadesoft/util/mcgen/Plib/libariadne408.a(aradig.o)
 .note          0x00000ed8       0x14 /home/pcl2483/pedro/jadesoft/util/mcgen/Plib/libariadne408.a(arcodi.o)
 .note          0x00000eec       0x14 /home/pcl2483/pedro/jadesoft/util/mcgen/Plib/libariadne408.a(arecoi.o)
 .note          0x00000f00       0x14 /home/pcl2483/pedro/jadesoft/util/mcgen/Plib/libariadne408.a(aradg2.o)
 .note          0x00000f14       0x14 /home/pcl2483/pedro/jadesoft/util/mcgen/Plib/libjt74opal.a(klu.o)
 .note          0x00000f28       0x14 /home/pcl2483/pedro/jadesoft/util/mcgen/Plib/libjt74opal.a(lu2ent.o)
 .note          0x00000f3c       0x14 /home/pcl2483/pedro/jadesoft/util/mcgen/Plib/libjt74opal.a(luchge.o)
 .note          0x00000f50       0x14 /home/pcl2483/pedro/jadesoft/util/mcgen/Plib/libjt74opal.a(lucomp.o)
 .note          0x00000f64       0x14 /home/pcl2483/pedro/jadesoft/util/mcgen/Plib/libjt74opal.a(ludata.o)
 .note          0x00000f78       0x14 /home/pcl2483/pedro/jadesoft/util/mcgen/Plib/libjt74opal.a(ludecy.o)
 .note          0x00000f8c       0x14 /home/pcl2483/pedro/jadesoft/util/mcgen/Plib/libjt74opal.a(luedit.o)
 .note          0x00000fa0       0x14 /home/pcl2483/pedro/jadesoft/util/mcgen/Plib/libjt74opal.a(luerrm.o)
 .note          0x00000fb4       0x14 /home/pcl2483/pedro/jadesoft/util/mcgen/Plib/libjt74opal.a(luexec.o)
 .note          0x00000fc8       0x14 /home/pcl2483/pedro/jadesoft/util/mcgen/Plib/libjt74opal.a(lugive.o)
 .note          0x00000fdc       0x14 /home/pcl2483/pedro/jadesoft/util/mcgen/Plib/libjt74opal.a(luindf.o)
 .note          0x00000ff0       0x14 /home/pcl2483/pedro/jadesoft/util/mcgen/Plib/libjt74opal.a(lukfdi.o)
 .note          0x00001004       0x14 /home/pcl2483/pedro/jadesoft/util/mcgen/Plib/libjt74opal.a(lulist.o)
 .note          0x00001018       0x14 /home/pcl2483/pedro/jadesoft/util/mcgen/Plib/libjt74opal.a(lulogo.o)
 .note          0x0000102c       0x14 /home/pcl2483/pedro/jadesoft/util/mcgen/Plib/libjt74opal.a(luname.o)
 .note          0x00001040       0x14 /home/pcl2483/pedro/jadesoft/util/mcgen/Plib/libjt74opal.a(luprep.o)
 .note          0x00001054       0x14 /home/pcl2483/pedro/jadesoft/util/mcgen/Plib/libjt74opal.a(luptdi.o)
 .note          0x00001068       0x14 /home/pcl2483/pedro/jadesoft/util/mcgen/Plib/libjt74opal.a(lurobo.o)
 .note          0x0000107c       0x14 /home/pcl2483/pedro/jadesoft/util/mcgen/Plib/libjt74opal.a(lushow.o)
 .note          0x00001090       0x14 /home/pcl2483/pedro/jadesoft/util/mcgen/Plib/libjt74opal.a(lustrf.o)
 .note          0x000010a4       0x14 /home/pcl2483/pedro/jadesoft/util/mcgen/Plib/libjt74opal.a(lutabu.o)
 .note          0x000010b8       0x14 /home/pcl2483/pedro/jadesoft/util/mcgen/Plib/libjt74opal.a(lutaud.o)
 .note          0x000010cc       0x14 /home/pcl2483/pedro/jadesoft/util/mcgen/Plib/libjt74opal.a(luzdis.o)
 .note          0x000010e0       0x14 /home/pcl2483/pedro/jadesoft/util/mcgen/Plib/libjt74opal.a(plu.o)
 .note          0x000010f4       0x14 /home/pcl2483/pedro/jadesoft/util/mcgen/Plib/libjt74opal.a(rlu.o)
 .note          0x00001108       0x14 /home/pcl2483/pedro/jadesoft/util/mcgen/Plib/libjt74opal.a(taupol.o)
 .note          0x0000111c       0x14 /home/pcl2483/pedro/jadesoft/util/mcgen/Plib/libjt74opal.a(ulalem.o)
 .note          0x00001130       0x14 /home/pcl2483/pedro/jadesoft/util/mcgen/Plib/libjt74opal.a(ulalps.o)
 .note          0x00001144       0x14 /home/pcl2483/pedro/jadesoft/util/mcgen/Plib/libjt74opal.a(ulangl.o)
 .note          0x00001158       0x14 /home/pcl2483/pedro/jadesoft/util/mcgen/Plib/libjt74opal.a(ulmass.o)
 .note          0x0000116c       0x14 /home/pcl2483/pedro/jadesoft/util/mcgen/Plib/libjt74opal.a(dexay.o)
 .note          0x00001180       0x14 /home/pcl2483/pedro/jadesoft/util/mcgen/Plib/libjt74opal.a(dexay1.o)
 .note          0x00001194       0x14 /home/pcl2483/pedro/jadesoft/util/mcgen/Plib/libjt74opal.a(dexel.o)
 .note          0x000011a8       0x14 /home/pcl2483/pedro/jadesoft/util/mcgen/Plib/libjt74opal.a(dexkk.o)
 .note          0x000011bc       0x14 /home/pcl2483/pedro/jadesoft/util/mcgen/Plib/libjt74opal.a(dexks.o)
 .note          0x000011d0       0x14 /home/pcl2483/pedro/jadesoft/util/mcgen/Plib/libjt74opal.a(dexmu.o)
 .note          0x000011e4       0x14 /home/pcl2483/pedro/jadesoft/util/mcgen/Plib/libjt74opal.a(dexnew.o)
 .note          0x000011f8       0x14 /home/pcl2483/pedro/jadesoft/util/mcgen/Plib/libjt74opal.a(dexpi.o)
 .note          0x0000120c       0x14 /home/pcl2483/pedro/jadesoft/util/mcgen/Plib/libjt74opal.a(dexro.o)
 .note          0x00001220       0x14 /home/pcl2483/pedro/jadesoft/util/mcgen/Plib/libjt74opal.a(dwlnew.o)
 .note          0x00001234       0x14 /home/pcl2483/pedro/jadesoft/util/mcgen/Plib/libjt74opal.a(dwluaa.o)
 .note          0x00001248       0x14 /home/pcl2483/pedro/jadesoft/util/mcgen/Plib/libjt74opal.a(dwluel.o)
 .note          0x0000125c       0x14 /home/pcl2483/pedro/jadesoft/util/mcgen/Plib/libjt74opal.a(dwlukk.o)
 .note          0x00001270       0x14 /home/pcl2483/pedro/jadesoft/util/mcgen/Plib/libjt74opal.a(dwluks.o)
 .note          0x00001284       0x14 /home/pcl2483/pedro/jadesoft/util/mcgen/Plib/libjt74opal.a(dwlumu.o)
 .note          0x00001298       0x14 /home/pcl2483/pedro/jadesoft/util/mcgen/Plib/libjt74opal.a(dwlupi.o)
 .note          0x000012ac       0x14 /home/pcl2483/pedro/jadesoft/util/mcgen/Plib/libjt74opal.a(dwluro.o)
 .note          0x000012c0       0x14 /home/pcl2483/pedro/jadesoft/util/mcgen/Plib/libjt74opal.a(dwrph.o)
 .note          0x000012d4       0x14 /home/pcl2483/pedro/jadesoft/util/mcgen/Plib/libjt74opal.a(filhep.o)
 .note          0x000012e8       0x14 /home/pcl2483/pedro/jadesoft/util/mcgen/Plib/libjt74opal.a(initdk.o)
 .note          0x000012fc       0x14 /home/pcl2483/pedro/jadesoft/util/mcgen/Plib/libjt74opal.a(jaker.o)
 .note          0x00001310       0x14 /home/pcl2483/pedro/jadesoft/util/mcgen/Plib/libjt74opal.a(luboei.o)
 .note          0x00001324       0x14 /home/pcl2483/pedro/jadesoft/util/mcgen/Plib/libjt74opal.a(lunpik.o)
 .note          0x00001338       0x14 /home/pcl2483/pedro/jadesoft/util/mcgen/Plib/libjt74opal.a(dadmel.o)
 .note          0x0000134c       0x14 /home/pcl2483/pedro/jadesoft/util/mcgen/Plib/libjt74opal.a(dadmkk.o)
 .note          0x00001360       0x14 /home/pcl2483/pedro/jadesoft/util/mcgen/Plib/libjt74opal.a(dadmks.o)
 .note          0x00001374       0x14 /home/pcl2483/pedro/jadesoft/util/mcgen/Plib/libjt74opal.a(dadmmu.o)
 .note          0x00001388       0x14 /home/pcl2483/pedro/jadesoft/util/mcgen/Plib/libjt74opal.a(dadmpi.o)
 .note          0x0000139c       0x14 /home/pcl2483/pedro/jadesoft/util/mcgen/Plib/libjt74opal.a(dadmro.o)
 .note          0x000013b0       0x14 /home/pcl2483/pedro/jadesoft/util/mcgen/Plib/libjt74opal.a(dadnew.o)
 .note          0x000013c4       0x14 /home/pcl2483/pedro/jadesoft/util/mcgen/Plib/libjt74opal.a(dexaa.o)
 .note          0x000013d8       0x14 /home/pcl2483/pedro/jadesoft/util/mcgen/Plib/libjt74opal.a(dph4pi.o)
 .note          0x000013ec       0x14 /home/pcl2483/pedro/jadesoft/util/mcgen/Plib/libjt74opal.a(dph5pi.o)
 .note          0x00001400       0x14 /home/pcl2483/pedro/jadesoft/util/mcgen/Plib/libjt74opal.a(dphnpi.o)
 .note          0x00001414       0x14 /home/pcl2483/pedro/jadesoft/util/mcgen/Plib/libjt74opal.a(dphsel.o)
 .note          0x00001428       0x14 /home/pcl2483/pedro/jadesoft/util/mcgen/Plib/libjt74opal.a(dphsks.o)
 .note          0x0000143c       0x14 /home/pcl2483/pedro/jadesoft/util/mcgen/Plib/libjt74opal.a(dphsmu.o)
 .note          0x00001450       0x14 /home/pcl2483/pedro/jadesoft/util/mcgen/Plib/libjt74opal.a(dphspk.o)
 .note          0x00001464       0x14 /home/pcl2483/pedro/jadesoft/util/mcgen/Plib/libjt74opal.a(dphsrk.o)
 .note          0x00001478       0x14 /home/pcl2483/pedro/jadesoft/util/mcgen/Plib/libjt74opal.a(dphsro.o)
 .note          0x0000148c       0x14 /home/pcl2483/pedro/jadesoft/util/mcgen/Plib/libjt74opal.a(dphtre.o)
 .note          0x000014a0       0x14 /home/pcl2483/pedro/jadesoft/util/mcgen/Plib/libjt74opal.a(drcmu.o)
 .note          0x000014b4       0x14 /home/pcl2483/pedro/jadesoft/util/mcgen/Plib/libjt74opal.a(dwluph.o)
 .note          0x000014c8       0x14 /home/pcl2483/pedro/jadesoft/util/mcgen/Plib/libjt74opal.a(fpirho.o)
 .note          0x000014dc       0x14 /home/pcl2483/pedro/jadesoft/util/mcgen/Plib/libjt74opal.a(fpirk.o)
 .note          0x000014f0       0x14 /home/pcl2483/pedro/jadesoft/util/mcgen/Plib/libjt74opal.a(rotor2.o)
 .note          0x00001504       0x14 /home/pcl2483/pedro/jadesoft/util/mcgen/Plib/libjt74opal.a(rotor3.o)
 .note          0x00001518       0x14 /home/pcl2483/pedro/jadesoft/util/mcgen/Plib/libjt74opal.a(rotpol.o)
 .note          0x0000152c       0x14 /home/pcl2483/pedro/jadesoft/util/mcgen/Plib/libjt74opal.a(rotpox.o)
 .note          0x00001540       0x14 /home/pcl2483/pedro/jadesoft/util/mcgen/Plib/libjt74opal.a(sigee.o)
 .note          0x00001554       0x14 /home/pcl2483/pedro/jadesoft/util/mcgen/Plib/libjt74opal.a(sphera.o)
 .note          0x00001568       0x14 /home/pcl2483/pedro/jadesoft/util/mcgen/Plib/libjt74opal.a(spherd.o)
 .note          0x0000157c       0x14 /home/pcl2483/pedro/jadesoft/util/mcgen/Plib/libjt74opal.a(bostd3.o)
 .note          0x00001590       0x14 /home/pcl2483/pedro/jadesoft/util/mcgen/Plib/libjt74opal.a(bostr3.o)
 .note          0x000015a4       0x14 /home/pcl2483/pedro/jadesoft/util/mcgen/Plib/libjt74opal.a(bwigs.o)
 .note          0x000015b8       0x14 /home/pcl2483/pedro/jadesoft/util/mcgen/Plib/libjt74opal.a(choice.o)
 .note          0x000015cc       0x14 /home/pcl2483/pedro/jadesoft/util/mcgen/Plib/libjt74opal.a(dadmaa.o)
 .note          0x000015e0       0x14 /home/pcl2483/pedro/jadesoft/util/mcgen/Plib/libjt74opal.a(dam4pi.o)
 .note          0x000015f4       0x14 /home/pcl2483/pedro/jadesoft/util/mcgen/Plib/libjt74opal.a(dampog.o)
 .note          0x00001608       0x14 /home/pcl2483/pedro/jadesoft/util/mcgen/Plib/libjt74opal.a(damppk.o)
 .note          0x0000161c       0x14 /home/pcl2483/pedro/jadesoft/util/mcgen/Plib/libjt74opal.a(dampry.o)
 .note          0x00001630       0x14 /home/pcl2483/pedro/jadesoft/util/mcgen/Plib/libjt74opal.a(dcdmas.o)
 .note          0x00001644       0x14 /home/pcl2483/pedro/jadesoft/util/mcgen/Plib/libjt74opal.a(dphsaa.o)
 .note          0x00001658       0x14 /home/pcl2483/pedro/jadesoft/util/mcgen/Plib/libjt74opal.a(form1.o)
 .note          0x0000166c       0x14 /home/pcl2483/pedro/jadesoft/util/mcgen/Plib/libjt74opal.a(form2.o)
 .note          0x00001680       0x14 /home/pcl2483/pedro/jadesoft/util/mcgen/Plib/libjt74opal.a(form3.o)
 .note          0x00001694       0x14 /home/pcl2483/pedro/jadesoft/util/mcgen/Plib/libjt74opal.a(form4.o)
 .note          0x000016a8       0x14 /home/pcl2483/pedro/jadesoft/util/mcgen/Plib/libjt74opal.a(form5.o)
 .note          0x000016bc       0x14 /home/pcl2483/pedro/jadesoft/util/mcgen/Plib/libjt74opal.a(formom.o)
 .note          0x000016d0       0x14 /home/pcl2483/pedro/jadesoft/util/mcgen/Plib/libjt74opal.a(fpik.o)
 .note          0x000016e4       0x14 /home/pcl2483/pedro/jadesoft/util/mcgen/Plib/libjt74opal.a(fpikm.o)
 .note          0x000016f8       0x14 /home/pcl2483/pedro/jadesoft/util/mcgen/Plib/libjt74opal.a(fpikmd.o)
 .note          0x0000170c       0x14 /home/pcl2483/pedro/jadesoft/util/mcgen/Plib/libjt74opal.a(gfun.o)
 .note          0x00001720       0x14 /home/pcl2483/pedro/jadesoft/util/mcgen/Plib/libjt74opal.a(prod5.o)
 .note          0x00001734       0x14 /home/pcl2483/pedro/jadesoft/util/mcgen/Plib/libjt74opal.a(rotod2.o)
 .note          0x00001748       0x14 /home/pcl2483/pedro/jadesoft/util/mcgen/Plib/libjt74opal.a(rotod3.o)
 .note          0x0000175c       0x14 /home/pcl2483/pedro/jadesoft/util/mcgen/Plib/libjt74opal.a(sqm2.o)
 .note          0x00001770       0x14 /home/pcl2483/pedro/jadesoft/util/mcgen/Plib/libjt74opal.a(thb.o)
 .note          0x00001784       0x14 /home/pcl2483/pedro/jadesoft/util/mcgen/Plib/libjt74opal.a(wigfor.o)
 .note          0x00001798       0x14 /home/pcl2483/pedro/jadesoft/util/mcgen/Plib/libjt74opal.a(bwig.o)
 .note          0x000017ac       0x14 /home/pcl2483/pedro/jadesoft/util/mcgen/Plib/libjt74opal.a(bwigm.o)
 .note          0x000017c0       0x14 /home/pcl2483/pedro/jadesoft/util/mcgen/Plib/libjt74opal.a(claxi.o)
 .note          0x000017d4       0x14 /home/pcl2483/pedro/jadesoft/util/mcgen/Plib/libjt74opal.a(clnut.o)
 .note          0x000017e8       0x14 /home/pcl2483/pedro/jadesoft/util/mcgen/Plib/libjt74opal.a(clvec.o)
 .note          0x000017fc       0x14 /home/pcl2483/pedro/jadesoft/util/mcgen/Plib/libjt74opal.a(curr.o)
 .note          0x00001810       0x14 /home/pcl2483/pedro/jadesoft/util/mcgen/Plib/libjt74opal.a(dilog.o)
 .note          0x00001824       0x14 /home/pcl2483/pedro/jadesoft/util/mcgen/Plib/libckern105.a(ckern.o)
 .note          0x00001838       0x14 /home/pcl2483/pedro/jadesoft/util/mcgen/Plib/libckern105.a(cksord.o)
 .note          0x0000184c       0x14 /home/pcl2483/pedro/jadesoft/util/mcgen/Plib/libckern105.a(cnjet.o)
 .note          0x00001860       0x14 /home/pcl2483/pedro/jadesoft/util/mcgen/Plib/libpx114.a(pxang3.o)
 .note          0x00001874       0x14 /home/pcl2483/pedro/jadesoft/util/mcgen/Plib/libpx114.a(pxanxy.o)
 .note          0x00001888       0x14 /home/pcl2483/pedro/jadesoft/util/mcgen/Plib/libpx114.a(pxcone.o)
 .note          0x0000189c       0x14 /home/pcl2483/pedro/jadesoft/util/mcgen/Plib/libpx114.a(pxcopv.o)
 .note          0x000018b0       0x14 /home/pcl2483/pedro/jadesoft/util/mcgen/Plib/libpx114.a(pxjpdg.o)
 .note          0x000018c4       0x14 /home/pcl2483/pedro/jadesoft/util/mcgen/Plib/libpx114.a(pxjsp3.o)
 .note          0x000018d8       0x14 /home/pcl2483/pedro/jadesoft/util/mcgen/Plib/libpx114.a(pxlsp3.o)
 .note          0x000018ec       0x14 /home/pcl2483/pedro/jadesoft/util/mcgen/Plib/libpx114.a(pxlth4.o)
 .note          0x00001900       0x14 /home/pcl2483/pedro/jadesoft/util/mcgen/Plib/libpx114.a(pxlut3.o)
 .note          0x00001914       0x14 /home/pcl2483/pedro/jadesoft/util/mcgen/Plib/libpx114.a(pxlzf5.o)
 .note          0x00001928       0x14 /home/pcl2483/pedro/jadesoft/util/mcgen/Plib/libpx114.a(pxmmbb.o)
 .note          0x0000193c       0x14 /home/pcl2483/pedro/jadesoft/util/mcgen/Plib/libpx114.a(pxnorv.o)
 .note          0x00001950       0x14 /home/pcl2483/pedro/jadesoft/util/mcgen/Plib/libpx114.a(pxolap.o)
 .note          0x00001964       0x14 /home/pcl2483/pedro/jadesoft/util/mcgen/Plib/libpx114.a(pxord.o)
 .note          0x00001978       0x14 /home/pcl2483/pedro/jadesoft/util/mcgen/Plib/libpx114.a(pxplt3.o)
 .note          0x0000198c       0x14 /home/pcl2483/pedro/jadesoft/util/mcgen/Plib/libpx114.a(pxplu3.o)
 .note          0x000019a0       0x14 /home/pcl2483/pedro/jadesoft/util/mcgen/Plib/libpx114.a(pxprcv.o)
 .note          0x000019b4       0x14 /home/pcl2483/pedro/jadesoft/util/mcgen/Plib/libpx114.a(pxprrv.o)
 .note          0x000019c8       0x14 /home/pcl2483/pedro/jadesoft/util/mcgen/Plib/libpx114.a(pxrap4.o)
 .note          0x000019dc       0x14 /home/pcl2483/pedro/jadesoft/util/mcgen/Plib/libpx114.a(pxrmx3.o)
 .note          0x000019f0       0x14 /home/pcl2483/pedro/jadesoft/util/mcgen/Plib/libpx114.a(pxrob3.o)
 .note          0x00001a04       0x14 /home/pcl2483/pedro/jadesoft/util/mcgen/Plib/libpx114.a(pxrof3.o)
 .note          0x00001a18       0x14 /home/pcl2483/pedro/jadesoft/util/mcgen/Plib/libpx114.a(pxsear.o)
 .note          0x00001a2c       0x14 /home/pcl2483/pedro/jadesoft/util/mcgen/Plib/libpx114.a(pxsorv.o)
 .note          0x00001a40       0x14 /home/pcl2483/pedro/jadesoft/util/mcgen/Plib/libpx114.a(pxtry.o)
 .note          0x00001a54       0x14 /home/pcl2483/pedro/jadesoft/util/mcgen/Plib/libpx114.a(pxuvec.o)
 .note          0x00001a68       0x14 /home/pcl2483/pedro/jadesoft/util/mcgen/Plib/libpx114.a(pxzerv.o)
 .note          0x00001a7c       0x14 /home/pcl2483/pedro/jadesoft/util/mcgen/Plib/libpx114.a(ykern.o)
 .note          0x00001a90       0x14 /home/pcl2483/pedro/jadesoft/util/mcgen/Plib/libpx114.a(ynjet.o)
 .note          0x00001aa4       0x14 /home/pcl2483/pedro/jadesoft/util/mcgen/Plib/libpx114.a(yyjet.o)
 .note          0x00001ab8       0x14 /home/pcl2483/pedro/jadesoft/util/mcgen/Plib/libpx114.a(pxaddv.o)
 .note          0x00001acc       0x14 /home/pcl2483/pedro/jadesoft/util/mcgen/Plib/libpx114.a(pxdiam.o)
 .note          0x00001ae0       0x14 /home/pcl2483/pedro/jadesoft/util/mcgen/Plib/libpx114.a(pxmulm.o)
 .note          0x00001af4       0x14 /home/pcl2483/pedro/jadesoft/util/mcgen/Plib/libpx114.a(pxnew.o)
 .note          0x00001b08       0x14 /home/pcl2483/pedro/jadesoft/util/mcgen/Plib/libpx114.a(pxsame.o)
 .note          0x00001b1c       0x14 /home/pcl2483/pedro/jadesoft/util/mcgen/Plib/libpx114.a(pxunim.o)
 .note          0x00001b30       0x14 /cern/99/lib/libpacklib.a(ffgo.o)
 .note          0x00001b44       0x14 /cern/99/lib/libpacklib.a(ffinit.o)
 .note          0x00001b58       0x14 /cern/99/lib/libpacklib.a(ffkey.o)
 .note          0x00001b6c       0x14 /cern/99/lib/libpacklib.a(ffset.o)
 .note          0x00001b80       0x14 /cern/99/lib/libpacklib.a(ffskip.o)
 .note          0x00001b94       0x14 /cern/99/lib/libpacklib.a(ffupca.o)
 .note          0x00001ba8       0x14 /cern/99/lib/libpacklib.a(ffuser.o)
 .note          0x00001bbc       0x14 /cern/99/lib/libpacklib.a(ffuset.o)
 .note          0x00001bd0       0x14 /cern/99/lib/libpacklib.a(hrput.o)
 .note          0x00001be4       0x14 /cern/99/lib/libpacklib.a(hbook1.o)
 .note          0x00001bf8       0x14 /cern/99/lib/libpacklib.a(hbook2.o)
 .note          0x00001c0c       0x14 /cern/99/lib/libpacklib.a(hbookb.o)
 .note          0x00001c20       0x14 /cern/99/lib/libpacklib.a(hbtit.o)
 .note          0x00001c34       0x14 /cern/99/lib/libpacklib.a(hbug.o)
 .note          0x00001c48       0x14 /cern/99/lib/libpacklib.a(hcdir.o)
 .note          0x00001c5c       0x14 /cern/99/lib/libpacklib.a(hchnam.o)
 .note          0x00001c70       0x14 /cern/99/lib/libpacklib.a(hdelet.o)
 .note          0x00001c84       0x14 /cern/99/lib/libpacklib.a(hfill.o)
 .note          0x00001c98       0x14 /cern/99/lib/libpacklib.a(hfilpf.o)
 .note          0x00001cac       0x14 /cern/99/lib/libpacklib.a(hgive.o)
 .note          0x00001cc0       0x14 /cern/99/lib/libpacklib.a(hidopt.o)
 .note          0x00001cd4       0x14 /cern/99/lib/libpacklib.a(hlimit.o)
 .note          0x00001ce8       0x14 /cern/99/lib/libpacklib.a(hloop.o)
 .note          0x00001cfc       0x14 /cern/99/lib/libpacklib.a(hmachi.o)
 .note          0x00001d10       0x14 /cern/99/lib/libpacklib.a(hnoent.o)
 .note          0x00001d24       0x14 /cern/99/lib/libpacklib.a(hopera.o)
 .note          0x00001d38       0x14 /cern/99/lib/libpacklib.a(hpaff.o)
 .note          0x00001d4c       0x14 /cern/99/lib/libpacklib.a(hpak.o)
 .note          0x00001d60       0x14 /cern/99/lib/libpacklib.a(hpake.o)
 .note          0x00001d74       0x14 /cern/99/lib/libpacklib.a(hpath.o)
 .note          0x00001d88       0x14 /cern/99/lib/libpacklib.a(hrebin.o)
 .note          0x00001d9c       0x14 /cern/99/lib/libpacklib.a(hreset.o)
 .note          0x00001db0       0x14 /cern/99/lib/libpacklib.a(hrez0.o)
 .note          0x00001dc4       0x14 /cern/99/lib/libpacklib.a(hsifla.o)
 .note          0x00001dd8       0x14 /cern/99/lib/libpacklib.a(hspace.o)
 .note          0x00001dec       0x14 /cern/99/lib/libpacklib.a(hstaf.o)
 .note          0x00001e00       0x14 /cern/99/lib/libpacklib.a(hsupis.o)
 .note          0x00001e14       0x14 /cern/99/lib/libpacklib.a(huoptc.o)
 .note          0x00001e28       0x14 /cern/99/lib/libpacklib.a(hlogpf.o)
 .note          0x00001e3c       0x14 /cern/99/lib/libpacklib.a(hoptpf.o)
 .note          0x00001e50       0x14 /cern/99/lib/libpacklib.a(hitoc.o)
 .note          0x00001e64       0x14 /cern/99/lib/libpacklib.a(hnbufd.o)
 .note          0x00001e78       0x14 /cern/99/lib/libpacklib.a(hntmpd.o)
 .note          0x00001e8c       0x14 /cern/99/lib/libpacklib.a(hntrset.o)
 .note          0x00001ea0       0x14 /cern/99/lib/libpacklib.a(fzin.o)
 .note          0x00001eb4       0x14 /cern/99/lib/libpacklib.a(fzirel.o)
 .note          0x00001ec8       0x14 /cern/99/lib/libpacklib.a(fzloc.o)
 .note          0x00001edc       0x14 /cern/99/lib/libpacklib.a(mzbook.o)
 .note          0x00001ef0       0x14 /cern/99/lib/libpacklib.a(mzdrop.o)
 .note          0x00001f04       0x14 /cern/99/lib/libpacklib.a(mzebra.o)
 .note          0x00001f18       0x14 /cern/99/lib/libpacklib.a(mzflag.o)
 .note          0x00001f2c       0x14 /cern/99/lib/libpacklib.a(mzinco.o)
 .note          0x00001f40       0x14 /cern/99/lib/libpacklib.a(mzlift.o)
 .note          0x00001f54       0x14 /cern/99/lib/libpacklib.a(mzlink.o)
 .note          0x00001f68       0x14 /cern/99/lib/libpacklib.a(mzneed.o)
 .note          0x00001f7c       0x14 /cern/99/lib/libpacklib.a(mzpaw.o)
 .note          0x00001f90       0x14 /cern/99/lib/libpacklib.a(mzpush.o)
 .note          0x00001fa4       0x14 /cern/99/lib/libpacklib.a(mzstor.o)
 .note          0x00001fb8       0x14 /cern/99/lib/libpacklib.a(mzvers.o)
 .note          0x00001fcc       0x14 /cern/99/lib/libpacklib.a(mzgar1.o)
 .note          0x00001fe0       0x14 /cern/99/lib/libpacklib.a(mzgsta.o)
 .note          0x00001ff4       0x14 /cern/99/lib/libpacklib.a(mzmove.o)
 .note          0x00002008       0x14 /cern/99/lib/libpacklib.a(mzrelb.o)
 .note          0x0000201c       0x14 /cern/99/lib/libpacklib.a(mzrell.o)
 .note          0x00002030       0x14 /cern/99/lib/libpacklib.a(mzrelx.o)
 .note          0x00002044       0x14 /cern/99/lib/libpacklib.a(mztabf.o)
 .note          0x00002058       0x14 /cern/99/lib/libpacklib.a(mztabm.o)
 .note          0x0000206c       0x14 /cern/99/lib/libpacklib.a(mztabr.o)
 .note          0x00002080       0x14 /cern/99/lib/libpacklib.a(mztabs.o)
 .note          0x00002094       0x14 /cern/99/lib/libpacklib.a(mztabx.o)
 .note          0x000020a8       0x14 /cern/99/lib/libpacklib.a(mzchln.o)
 .note          0x000020bc       0x14 /cern/99/lib/libpacklib.a(mzchls.o)
 .note          0x000020d0       0x14 /cern/99/lib/libpacklib.a(mzchnb.o)
 .note          0x000020e4       0x14 /cern/99/lib/libpacklib.a(mzfdiv.o)
 .note          0x000020f8       0x14 /cern/99/lib/libpacklib.a(mzform.o)
 .note          0x0000210c       0x14 /cern/99/lib/libpacklib.a(mzioch.o)
 .note          0x00002120       0x14 /cern/99/lib/libpacklib.a(mzresv.o)
 .note          0x00002134       0x14 /cern/99/lib/libpacklib.a(mzsdiv.o)
 .note          0x00002148       0x14 /cern/99/lib/libpacklib.a(zvautx.o)
 .note          0x0000215c       0x14 /cern/99/lib/libpacklib.a(zfatal.o)
 .note          0x00002170       0x14 /cern/99/lib/libpacklib.a(zfatam.o)
 .note          0x00002184       0x14 /cern/99/lib/libpacklib.a(ztell.o)
 .note          0x00002198       0x14 /cern/99/lib/libpacklib.a(ztelus.o)
 .note          0x000021ac       0x14 /cern/99/lib/libpacklib.a(izbcdt.o)
 .note          0x000021c0       0x14 /cern/99/lib/libpacklib.a(izhnum.o)
 .note          0x000021d4       0x14 /cern/99/lib/libpacklib.a(zshunt.o)
 .note          0x000021e8       0x14 /cern/99/lib/libpacklib.a(rzcdir.o)
 .note          0x000021fc       0x14 /cern/99/lib/libpacklib.a(rzdate.o)
 .note          0x00002210       0x14 /cern/99/lib/libpacklib.a(rzfdir.o)
 .note          0x00002224       0x14 /cern/99/lib/libpacklib.a(rziodo.o)
 .note          0x00002238       0x14 /cern/99/lib/libpacklib.a(rzpaff.o)
 .note          0x0000224c       0x14 /cern/99/lib/libpacklib.a(rzpath.o)
 .note          0x00002260       0x14 /cern/99/lib/libpacklib.a(rzrtop.o)
 .note          0x00002274       0x14 /cern/99/lib/libpacklib.a(rzsame.o)
 .note          0x00002288       0x14 /cern/99/lib/libpacklib.a(rzsave.o)
 .note          0x0000229c       0x14 /cern/99/lib/libpacklib.a(rzstrir.o)
 .note          0x000022b0       0x14 /cern/99/lib/libpacklib.a(rzvcyc.o)
 .note          0x000022c4       0x14 /cern/99/lib/libpacklib.a(abend.o)
 .note          0x000022d8       0x14 /cern/99/lib/libpacklib.a(datime.o)
 .note          0x000022ec       0x14 /cern/99/lib/libpacklib.a(datimh.o)
 .note          0x00002300       0x14 /cern/99/lib/libpacklib.a(jumpxn.o)
 .note          0x00002314       0x14 /cern/99/lib/libpacklib.a(locf.o)
 .note          0x00002328       0x14 /cern/99/lib/libpacklib.a(qnexte.o)
 .note          0x0000233c       0x14 /cern/99/lib/libpacklib.a(lenocc.o)
 .note          0x00002350       0x14 /cern/99/lib/libpacklib.a(vxinvb.o)
 .note          0x00002364       0x14 /cern/99/lib/libpacklib.a(cfclos.o)
 .note          0x00002378       0x14 /cern/99/lib/libpacklib.a(cfget.o)
 .note          0x0000238c       0x14 /cern/99/lib/libpacklib.a(cfput.o)
 .note          0x000023a0       0x14 /cern/99/lib/libpacklib.a(cfseek.o)
 .note          0x000023b4       0x14 /cern/99/lib/libpacklib.a(cfopen.o)
 .note          0x000023c8       0x14 /cern/99/lib/libpacklib.a(cleft.o)
 .note          0x000023dc       0x14 /cern/99/lib/libpacklib.a(cltou.o)
 .note          0x000023f0       0x14 /cern/99/lib/libpacklib.a(cutol.o)
 .note          0x00002404       0x14 /cern/99/lib/libpacklib.a(floarg.o)
 .note          0x00002418       0x14 /cern/99/lib/libpacklib.a(intarg.o)
 .note          0x0000242c       0x14 /cern/99/lib/libpacklib.a(kerngt.o)
 .note          0x00002440       0x14 /cern/99/lib/libpacklib.a(uoptc.o)
 .note          0x00002454       0x14 /cern/99/lib/libpacklib.a(utrans.o)
 .note          0x00002468       0x14 /cern/99/lib/libpacklib.a(ishftr.o)
 .note          0x0000247c       0x14 /cern/99/lib/libpacklib.a(qnext.o)
 .note          0x00002490       0x14 /cern/99/lib/libpacklib.a(ucopy2c.o)
 .note          0x000024a4       0x14 /cern/99/lib/libpacklib.a(iucomp.o)
 .note          0x000024b8       0x14 /cern/99/lib/libpacklib.a(noarg.o)
 .note          0x000024cc       0x14 /cern/99/lib/libpacklib.a(sbit0.o)
 .note          0x000024e0       0x14 /cern/99/lib/libpacklib.a(sbit1.o)
 .note          0x000024f4       0x14 /cern/99/lib/libpacklib.a(ublow.o)
 .note          0x00002508       0x14 /cern/99/lib/libpacklib.a(ubunch.o)
 .note          0x0000251c       0x14 /cern/99/lib/libpacklib.a(ucopy.o)
 .note          0x00002530       0x14 /cern/99/lib/libpacklib.a(uctoh.o)
 .note          0x00002544       0x14 /cern/99/lib/libpacklib.a(uctoh1.o)
 .note          0x00002558       0x14 /cern/99/lib/libpacklib.a(uhtoc.o)
 .note          0x0000256c       0x14 /cern/99/lib/libpacklib.a(vblank.o)
 .note          0x00002580       0x14 /cern/99/lib/libpacklib.a(vfill.o)
 .note          0x00002594       0x14 /cern/99/lib/libpacklib.a(vzero.o)
 .note          0x000025a8       0x14 /cern/99/lib/libpacklib.a(jbit.o)
 .note          0x000025bc       0x14 /cern/99/lib/libpacklib.a(jbyt.o)
 .note          0x000025d0       0x14 /cern/99/lib/libpacklib.a(sbyt.o)
 .note          0x000025e4       0x14 /cern/99/lib/libpacklib.a(locati.o)
 .note          0x000025f8       0x14 /cern/99/lib/libpacklib.a(czgeta.o)
 .note          0x0000260c       0x14 /cern/99/lib/libpacklib.a(czputa.o)
 .note          0x00002620       0x14 /cern/99/lib/libpacklib.a(ffcard.o)
 .note          0x00002634       0x14 /cern/99/lib/libpacklib.a(fffind.o)
 .note          0x00002648       0x14 /cern/99/lib/libpacklib.a(hqputf.o)
 .note          0x0000265c       0x14 /cern/99/lib/libpacklib.a(hbpqry.o)
 .note          0x00002670       0x14 /cern/99/lib/libpacklib.a(hrendc.o)
 .note          0x00002684       0x14 /cern/99/lib/libpacklib.a(hropen.o)
 .note          0x00002698       0x14 /cern/99/lib/libpacklib.a(hrout.o)
 .note          0x000026ac       0x14 /cern/99/lib/libpacklib.a(hrzcd.o)
 .note          0x000026c0       0x14 /cern/99/lib/libpacklib.a(hrzout.o)
 .note          0x000026d4       0x14 /cern/99/lib/libpacklib.a(hbar2.o)
 .note          0x000026e8       0x14 /cern/99/lib/libpacklib.a(hbarx.o)
 .note          0x000026fc       0x14 /cern/99/lib/libpacklib.a(hbary.o)
 .note          0x00002710       0x14 /cern/99/lib/libpacklib.a(hbin.o)
 .note          0x00002724       0x14 /cern/99/lib/libpacklib.a(hcopy.o)
 .note          0x00002738       0x14 /cern/99/lib/libpacklib.a(hcx.o)
 .note          0x0000274c       0x14 /cern/99/lib/libpacklib.a(hcxy.o)
 .note          0x00002760       0x14 /cern/99/lib/libpacklib.a(hdcofl.o)
 .note          0x00002774       0x14 /cern/99/lib/libpacklib.a(hf1.o)
 .note          0x00002788       0x14 /cern/99/lib/libpacklib.a(hf1aut.o)
 .note          0x0000279c       0x14 /cern/99/lib/libpacklib.a(hf2.o)
 .note          0x000027b0       0x14 /cern/99/lib/libpacklib.a(hfcx.o)
 .note          0x000027c4       0x14 /cern/99/lib/libpacklib.a(hfcxy.o)
 .note          0x000027d8       0x14 /cern/99/lib/libpacklib.a(hfidp.o)
 .note          0x000027ec       0x14 /cern/99/lib/libpacklib.a(hfind.o)
 .note          0x00002800       0x14 /cern/99/lib/libpacklib.a(hi.o)
 .note          0x00002814       0x14 /cern/99/lib/libpacklib.a(hie.o)
 .note          0x00002828       0x14 /cern/99/lib/libpacklib.a(hix.o)
 .note          0x0000283c       0x14 /cern/99/lib/libpacklib.a(hlabeq.o)
 .note          0x00002850       0x14 /cern/99/lib/libpacklib.a(hmdir.o)
 .note          0x00002864       0x14 /cern/99/lib/libpacklib.a(hoper1.o)
 .note          0x00002878       0x14 /cern/99/lib/libpacklib.a(hoper1a.o)
 .note          0x0000288c       0x14 /cern/99/lib/libpacklib.a(hnbfwr.o)
 .note          0x000028a0       0x14 /cern/99/lib/libpacklib.a(hnbuff.o)
 .note          0x000028b4       0x14 /cern/99/lib/libpacklib.a(hnmset.o)
 .note          0x000028c8       0x14 /cern/99/lib/libpacklib.a(hntdel.o)
 .note          0x000028dc       0x14 /cern/99/lib/libpacklib.a(hntmpf.o)
 .note          0x000028f0       0x14 /cern/99/lib/libpacklib.a(fzidia.o)
 .note          0x00002904       0x14 /cern/99/lib/libpacklib.a(fziffn.o)
 .note          0x00002918       0x14 /cern/99/lib/libpacklib.a(fziffx.o)
 .note          0x0000292c       0x14 /cern/99/lib/libpacklib.a(fzilin.o)
 .note          0x00002940       0x14 /cern/99/lib/libpacklib.a(fzimtb.o)
 .note          0x00002954       0x14 /cern/99/lib/libpacklib.a(fzirec.o)
 .note          0x00002968       0x14 /cern/99/lib/libpacklib.a(fzitrn.o)
 .note          0x0000297c       0x14 /cern/99/lib/libpacklib.a(fzout.o)
 .note          0x00002990       0x14 /cern/99/lib/libpacklib.a(fzitrx.o)
 .note          0x000029a4       0x14 /cern/99/lib/libpacklib.a(mzcopy.o)
 .note          0x000029b8       0x14 /cern/99/lib/libpacklib.a(mzpudx.o)
 .note          0x000029cc       0x14 /cern/99/lib/libpacklib.a(mzfgap.o)
 .note          0x000029e0       0x14 /cern/99/lib/libpacklib.a(mzgarb.o)
 .note          0x000029f4       0x14 /cern/99/lib/libpacklib.a(mztabc.o)
 .note          0x00002a08       0x14 /cern/99/lib/libpacklib.a(mztabh.o)
 .note          0x00002a1c       0x14 /cern/99/lib/libpacklib.a(mzdvac.o)
 .note          0x00002a30       0x14 /cern/99/lib/libpacklib.a(mziocf.o)
 .note          0x00002a44       0x14 /cern/99/lib/libpacklib.a(mziocr.o)
 .note          0x00002a58       0x14 /cern/99/lib/libpacklib.a(mzixco.o)
 .note          0x00002a6c       0x14 /cern/99/lib/libpacklib.a(zabend.o)
 .note          0x00002a80       0x14 /cern/99/lib/libpacklib.a(zend.o)
 .note          0x00002a94       0x14 /cern/99/lib/libpacklib.a(zphase.o)
 .note          0x00002aa8       0x14 /cern/99/lib/libpacklib.a(zpostm.o)
 .note          0x00002abc       0x14 /cern/99/lib/libpacklib.a(zhtoi.o)
 .note          0x00002ad0       0x14 /cern/99/lib/libpacklib.a(rzclos.o)
 .note          0x00002ae4       0x14 /cern/99/lib/libpacklib.a(rzend.o)
 .note          0x00002af8       0x14 /cern/99/lib/libpacklib.a(rzfree.o)
 .note          0x00002b0c       0x14 /cern/99/lib/libpacklib.a(rzmdir.o)
 .note          0x00002b20       0x14 /cern/99/lib/libpacklib.a(rzmods.o)
 .note          0x00002b34       0x14 /cern/99/lib/libpacklib.a(rzopen.o)
 .note          0x00002b48       0x14 /cern/99/lib/libpacklib.a(rzout.o)
 .note          0x00002b5c       0x14 /cern/99/lib/libpacklib.a(rzstrip.o)
 .note          0x00002b70       0x14 /cern/99/lib/libpacklib.a(rzused.o)
 .note          0x00002b84       0x14 /cern/99/lib/libpacklib.a(close.o)
 .note          0x00002b98       0x14 /cern/99/lib/libpacklib.a(error.o)
 .note          0x00002bac       0x14 /cern/99/lib/libpacklib.a(lseek.o)
 .note          0x00002bc0       0x14 /cern/99/lib/libpacklib.a(open.o)
 .note          0x00002bd4       0x14 /cern/99/lib/libpacklib.a(parse.o)
 .note          0x00002be8       0x14 /cern/99/lib/libpacklib.a(read.o)
 .note          0x00002bfc       0x14 /cern/99/lib/libpacklib.a(serror.o)
 .note          0x00002c10       0x14 /cern/99/lib/libpacklib.a(setopt.o)
 .note          0x00002c24       0x14 /cern/99/lib/libpacklib.a(socket.o)
 .note          0x00002c38       0x14 /cern/99/lib/libpacklib.a(stream.o)
 .note          0x00002c4c       0x14 /cern/99/lib/libpacklib.a(trace.o)
 .note          0x00002c60       0x14 /cern/99/lib/libpacklib.a(write.o)
 .note          0x00002c74       0x14 /cern/99/lib/libpacklib.a(cfopei.o)
 .note          0x00002c88       0x14 /cern/99/lib/libpacklib.a(cfstat.o)
 .note          0x00002c9c       0x14 /cern/99/lib/libpacklib.a(fchtak.o)
 .note          0x00002cb0       0x14 /cern/99/lib/libpacklib.a(gshowf.o)
 .note          0x00002cc4       0x14 /cern/99/lib/libpacklib.a(icluns.o)
 .note          0x00002cd8       0x14 /cern/99/lib/libpacklib.a(traceq.o)
 .note          0x00002cec       0x14 /cern/99/lib/libpacklib.a(xinbf.o)
 .note          0x00002d00       0x14 /cern/99/lib/libpacklib.a(xinbs.o)
 .note          0x00002d14       0x14 /cern/99/lib/libpacklib.a(halloc.o)
 .note          0x00002d28       0x14 /cern/99/lib/libpacklib.a(hrfile.o)
 .note          0x00002d3c       0x14 /cern/99/lib/libpacklib.a(hfc1.o)
 .note          0x00002d50       0x14 /cern/99/lib/libpacklib.a(hlccmp.o)
 .note          0x00002d64       0x14 /cern/99/lib/libpacklib.a(hlgnxt.o)
 .note          0x00002d78       0x14 /cern/99/lib/libpacklib.a(hlhcmp.o)
 .note          0x00002d8c       0x14 /cern/99/lib/libpacklib.a(hlpos.o)
 .note          0x00002da0       0x14 /cern/99/lib/libpacklib.a(dzsnap.o)
 .note          0x00002db4       0x14 /cern/99/lib/libpacklib.a(dztext.o)
 .note          0x00002dc8       0x14 /cern/99/lib/libpacklib.a(zpage.o)
 .note          0x00002ddc       0x14 /cern/99/lib/libpacklib.a(fzipha.o)
 .note          0x00002df0       0x14 /cern/99/lib/libpacklib.a(fziphd.o)
 .note          0x00002e04       0x14 /cern/99/lib/libpacklib.a(fziphm.o)
 .note          0x00002e18       0x14 /cern/99/lib/libpacklib.a(fziphr.o)
 .note          0x00002e2c       0x14 /cern/99/lib/libpacklib.a(fziprl.o)
 .note          0x00002e40       0x14 /cern/99/lib/libpacklib.a(fzoffn.o)
 .note          0x00002e54       0x14 /cern/99/lib/libpacklib.a(fzoffx.o)
 .note          0x00002e68       0x14 /cern/99/lib/libpacklib.a(fzon1.o)
 .note          0x00002e7c       0x14 /cern/99/lib/libpacklib.a(fzon2.o)
 .note          0x00002e90       0x14 /cern/99/lib/libpacklib.a(fzon3.o)
 .note          0x00002ea4       0x14 /cern/99/lib/libpacklib.a(fzon4.o)
 .note          0x00002eb8       0x14 /cern/99/lib/libpacklib.a(fzon5.o)
 .note          0x00002ecc       0x14 /cern/99/lib/libpacklib.a(fzon6.o)
 .note          0x00002ee0       0x14 /cern/99/lib/libpacklib.a(fzorec.o)
 .note          0x00002ef4       0x14 /cern/99/lib/libpacklib.a(fzotab.o)
 .note          0x00002f08       0x14 /cern/99/lib/libpacklib.a(fzotrn.o)
 .note          0x00002f1c       0x14 /cern/99/lib/libpacklib.a(fzotxt.o)
 .note          0x00002f30       0x14 /cern/99/lib/libpacklib.a(fzicv.o)
 .note          0x00002f44       0x14 /cern/99/lib/libpacklib.a(fzotrx.o)
 .note          0x00002f58       0x14 /cern/99/lib/libpacklib.a(mzend.o)
 .note          0x00002f6c       0x14 /cern/99/lib/libpacklib.a(mzmaps.o)
 .note          0x00002f80       0x14 /cern/99/lib/libpacklib.a(mzmark.o)
 .note          0x00002f94       0x14 /cern/99/lib/libpacklib.a(mzwork.o)
 .note          0x00002fa8       0x14 /cern/99/lib/libpacklib.a(zitoh.o)
 .note          0x00002fbc       0x14 /cern/99/lib/libpacklib.a(rzallo.o)
 .note          0x00002fd0       0x14 /cern/99/lib/libpacklib.a(rzdelk.o)
 .note          0x00002fe4       0x14 /cern/99/lib/libpacklib.a(rzexpd.o)
 .note          0x00002ff8       0x14 /cern/99/lib/libpacklib.a(rzfile.o)
 .note          0x0000300c       0x14 /cern/99/lib/libpacklib.a(rzllok.o)
 .note          0x00003020       0x14 /cern/99/lib/libpacklib.a(rzlock.o)
 .note          0x00003034       0x14 /cern/99/lib/libpacklib.a(rzmake.o)
 .note          0x00003048       0x14 /cern/99/lib/libpacklib.a(rzobkn.o)
 .note          0x0000305c       0x14 /cern/99/lib/libpacklib.a(rzpurf.o)
 .note          0x00003070       0x14 /cern/99/lib/libpacklib.a(rzveri.o)
 .note          0x00003084       0x14 /cern/99/lib/libpacklib.a(rzwrt.o)
 .note          0x00003098       0x14 /cern/99/lib/libpacklib.a(connect.o)
 .note          0x000030ac       0x14 /cern/99/lib/libpacklib.a(getacct.o)
 .note          0x000030c0       0x14 /cern/99/lib/libpacklib.a(getacctent.o)
 .note          0x000030d4       0x14 /cern/99/lib/libpacklib.a(getconfent.o)
 .note          0x000030e8       0x14 /cern/99/lib/libpacklib.a(getifnam.o)
 .note          0x000030fc       0x14 /cern/99/lib/libpacklib.a(log.o)
 .note          0x00003110       0x14 /cern/99/lib/libpacklib.a(remote.o)
 .note          0x00003124       0x14 /cern/99/lib/libpacklib.a(setnetio.o)
 .note          0x00003138       0x14 /cern/99/lib/libpacklib.a(vxinvc.o)
 .note          0x0000314c       0x14 /cern/99/lib/libpacklib.a(cfstati.o)
 .note          0x00003160       0x14 /cern/99/lib/libpacklib.a(dzare1.o)
 .note          0x00003174       0x14 /cern/99/lib/libpacklib.a(dzbkup.o)
 .note          0x00003188       0x14 /cern/99/lib/libpacklib.a(dzbkxr.o)
 .note          0x0000319c       0x14 /cern/99/lib/libpacklib.a(dzdata.o)
 .note          0x000031b0       0x14 /cern/99/lib/libpacklib.a(dzmap.o)
 .note          0x000031c4       0x14 /cern/99/lib/libpacklib.a(dzopt.o)
 .note          0x000031d8       0x14 /cern/99/lib/libpacklib.a(dzshpr.o)
 .note          0x000031ec       0x14 /cern/99/lib/libpacklib.a(dztyp.o)
 .note          0x00003200       0x14 /cern/99/lib/libpacklib.a(fziasc.o)
 .note          0x00003214       0x14 /cern/99/lib/libpacklib.a(fzichh.o)
 .note          0x00003228       0x14 /cern/99/lib/libpacklib.a(fzidum.o)
 .note          0x0000323c       0x14 /cern/99/lib/libpacklib.a(fzophr.o)
 .note          0x00003250       0x14 /cern/99/lib/libpacklib.a(fzocv.o)
 .note          0x00003264       0x14 /cern/99/lib/libpacklib.a(izbcd.o)
 .note          0x00003278       0x14 /cern/99/lib/libpacklib.a(rzdlok.o)
 .note          0x0000328c       0x14 /cern/99/lib/libpacklib.a(rzver1.o)
 .note          0x000032a0       0x14 /cern/99/lib/libpacklib.a(rzver2.o)
 .note          0x000032b4       0x14 /cern/99/lib/libpacklib.a(stat.o)
 .note          0x000032c8       0x14 /cern/99/lib/libpacklib.a(cfweof.o)
 .note          0x000032dc       0x14 /cern/99/lib/libpacklib.a(iumode.o)
 .note          0x000032f0       0x14 /cern/99/lib/libpacklib.a(iufind.o)
 .note          0x00003304       0x14 /cern/99/lib/libpacklib.a(iusame.o)
 .note          0x00003318       0x14 /cern/99/lib/libpacklib.a(jrsbyt.o)
 .note          0x0000332c       0x14 /cern/99/lib/libpacklib.a(ucopiv.o)
 .note          0x00003340       0x14 /cern/99/lib/libpacklib.a(dzbkdv.o)
 .note          0x00003354       0x14 /cern/99/lib/libpacklib.a(dzbkhd.o)
 .note          0x00003368       0x14 /cern/99/lib/libpacklib.a(dziopr.o)
 .note          0x0000337c       0x14 /cern/99/lib/libpacklib.a(fzialn.o)
 .note          0x00003390       0x14 /cern/99/lib/libpacklib.a(fzoasc.o)
 .note          0x000033a4       0x14 /cern/99/lib/libpacklib.a(izchav.o)
 .note          0x000033b8       0x14 /cern/99/lib/libpacklib.a(rzprnk.o)
 .note          0x000033cc       0x14 /cern/99/lib/libpacklib.a(mstat.o)
 .note          0x000033e0       0x14 /cern/99/lib/libpacklib.a(dziopd.o)
 .note          0x000033f4       0x14 /cern/99/lib/libpacklib.a(dzioph.o)
 .note          0x00003408       0x14 /cern/99/lib/libpacklib.a(fzoaln.o)
 .note          0x0000341c       0x14 /cern/99/lib/libpacklib.a(fzoapk.o)
 .note          0x00003430       0x14 /cern/99/lib/libpacklib.a(uh1toc.o)
 .note          0x00003444       0x14 /cern/99/lib/libmathlib.a(dsyev.o)
 .note          0x00003458       0x14 /cern/99/lib/libmathlib.a(dsytrd.o)
 .note          0x0000346c       0x14 /cern/99/lib/libmathlib.a(ilaenv.o)
 .note          0x00003480       0x14 /cern/99/lib/libmathlib.a(lsame.o)
 .note          0x00003494       0x14 /cern/99/lib/libmathlib.a(xerbla.o)
 .note          0x000034a8       0x14 /cern/99/lib/libmathlib.a(dscal.o)
 .note          0x000034bc       0x14 /cern/99/lib/libmathlib.a(dsyr2k.o)
 .note          0x000034d0       0x14 /cern/99/lib/libmathlib.a(dlamch.o)
 .note          0x000034e4       0x14 /cern/99/lib/libmathlib.a(dlansy.o)
 .note          0x000034f8       0x14 /cern/99/lib/libmathlib.a(dlascl.o)
 .note          0x0000350c       0x14 /cern/99/lib/libmathlib.a(dlassq.o)
 .note          0x00003520       0x14 /cern/99/lib/libmathlib.a(dlatrd.o)
 .note          0x00003534       0x14 /cern/99/lib/libmathlib.a(dorgtr.o)
 .note          0x00003548       0x14 /cern/99/lib/libmathlib.a(dsteqr.o)
 .note          0x0000355c       0x14 /cern/99/lib/libmathlib.a(dsterf.o)
 .note          0x00003570       0x14 /cern/99/lib/libmathlib.a(dsytd2.o)
 .note          0x00003584       0x14 /cern/99/lib/libmathlib.a(daxpy.o)
 .note          0x00003598       0x14 /cern/99/lib/libmathlib.a(ddot.o)
 .note          0x000035ac       0x14 /cern/99/lib/libmathlib.a(dgemv.o)
 .note          0x000035c0       0x14 /cern/99/lib/libmathlib.a(dswap.o)
 .note          0x000035d4       0x14 /cern/99/lib/libmathlib.a(dsymv.o)
 .note          0x000035e8       0x14 /cern/99/lib/libmathlib.a(dsyr2.o)
 .note          0x000035fc       0x14 /cern/99/lib/libmathlib.a(dlae2.o)
 .note          0x00003610       0x14 /cern/99/lib/libmathlib.a(dlaev2.o)
 .note          0x00003624       0x14 /cern/99/lib/libmathlib.a(dlanst.o)
 .note          0x00003638       0x14 /cern/99/lib/libmathlib.a(dlapy2.o)
 .note          0x0000364c       0x14 /cern/99/lib/libmathlib.a(dlarfg.o)
 .note          0x00003660       0x14 /cern/99/lib/libmathlib.a(dlartg.o)
 .note          0x00003674       0x14 /cern/99/lib/libmathlib.a(dlaset.o)
 .note          0x00003688       0x14 /cern/99/lib/libmathlib.a(dlasr.o)
 .note          0x0000369c       0x14 /cern/99/lib/libmathlib.a(dlasrt.o)
 .note          0x000036b0       0x14 /cern/99/lib/libmathlib.a(dorgql.o)
 .note          0x000036c4       0x14 /cern/99/lib/libmathlib.a(dorgqr.o)
 .note          0x000036d8       0x14 /cern/99/lib/libmathlib.a(dnrm2.o)
 .note          0x000036ec       0x14 /cern/99/lib/libmathlib.a(dlarfb.o)
 .note          0x00003700       0x14 /cern/99/lib/libmathlib.a(dlarft.o)
 .note          0x00003714       0x14 /cern/99/lib/libmathlib.a(dorg2l.o)
 .note          0x00003728       0x14 /cern/99/lib/libmathlib.a(dorg2r.o)
 .note          0x0000373c       0x14 /cern/99/lib/libmathlib.a(dcopy.o)
 .note          0x00003750       0x14 /cern/99/lib/libmathlib.a(dgemm.o)
 .note          0x00003764       0x14 /cern/99/lib/libmathlib.a(dtrmm.o)
 .note          0x00003778       0x14 /cern/99/lib/libmathlib.a(dtrmv.o)
 .note          0x0000378c       0x14 /cern/99/lib/libmathlib.a(dlarf.o)
 .note          0x000037a0       0x14 /cern/99/lib/libmathlib.a(dger.o)
 .note          0x000037b4       0x14 /usr/lib/libc_nonshared.a(atexit.oS)
 .note          0x000037c8       0x14 /usr/lib/gcc-lib/i686-pc-linux-gnu/2.95.3/libg2c.a(close.o)
 .note          0x000037dc       0x14 /usr/lib/gcc-lib/i686-pc-linux-gnu/2.95.3/libg2c.a(dolio.o)
 .note          0x000037f0       0x14 /usr/lib/gcc-lib/i686-pc-linux-gnu/2.95.3/libg2c.a(due.o)
 .note          0x00003804       0x14 /usr/lib/gcc-lib/i686-pc-linux-gnu/2.95.3/libg2c.a(endfile.o)
 .note          0x00003818       0x14 /usr/lib/gcc-lib/i686-pc-linux-gnu/2.95.3/libg2c.a(err.o)
 .note          0x0000382c       0x14 /usr/lib/gcc-lib/i686-pc-linux-gnu/2.95.3/libg2c.a(fmt.o)
 .note          0x00003840       0x14 /usr/lib/gcc-lib/i686-pc-linux-gnu/2.95.3/libg2c.a(iio.o)
 .note          0x00003854       0x14 /usr/lib/gcc-lib/i686-pc-linux-gnu/2.95.3/libg2c.a(inquire.o)
 .note          0x00003868       0x14 /usr/lib/gcc-lib/i686-pc-linux-gnu/2.95.3/libg2c.a(lread.o)
 .note          0x0000387c       0x14 /usr/lib/gcc-lib/i686-pc-linux-gnu/2.95.3/libg2c.a(open.o)
 .note          0x00003890       0x14 /usr/lib/gcc-lib/i686-pc-linux-gnu/2.95.3/libg2c.a(rdfmt.o)
 .note          0x000038a4       0x14 /usr/lib/gcc-lib/i686-pc-linux-gnu/2.95.3/libg2c.a(rewind.o)
 .note          0x000038b8       0x14 /usr/lib/gcc-lib/i686-pc-linux-gnu/2.95.3/libg2c.a(rsfe.o)
 .note          0x000038cc       0x14 /usr/lib/gcc-lib/i686-pc-linux-gnu/2.95.3/libg2c.a(sfe.o)
 .note          0x000038e0       0x14 /usr/lib/gcc-lib/i686-pc-linux-gnu/2.95.3/libg2c.a(sue.o)
 .note          0x000038f4       0x14 /usr/lib/gcc-lib/i686-pc-linux-gnu/2.95.3/libg2c.a(uio.o)
 .note          0x00003908       0x14 /usr/lib/gcc-lib/i686-pc-linux-gnu/2.95.3/libg2c.a(util.o)
 .note          0x0000391c       0x14 /usr/lib/gcc-lib/i686-pc-linux-gnu/2.95.3/libg2c.a(wrtfmt.o)
 .note          0x00003930       0x14 /usr/lib/gcc-lib/i686-pc-linux-gnu/2.95.3/libg2c.a(wsfe.o)
 .note          0x00003944       0x14 /usr/lib/gcc-lib/i686-pc-linux-gnu/2.95.3/libg2c.a(wsle.o)
 .note          0x00003958       0x14 /usr/lib/gcc-lib/i686-pc-linux-gnu/2.95.3/libg2c.a(main.o)
 .note          0x0000396c       0x14 /usr/lib/gcc-lib/i686-pc-linux-gnu/2.95.3/libg2c.a(s_stop.o)
 .note          0x00003980       0x14 /usr/lib/gcc-lib/i686-pc-linux-gnu/2.95.3/libg2c.a(sig_die.o)
 .note          0x00003994       0x14 /usr/lib/gcc-lib/i686-pc-linux-gnu/2.95.3/libg2c.a(setarg.o)
 .note          0x000039a8       0x14 /usr/lib/gcc-lib/i686-pc-linux-gnu/2.95.3/libg2c.a(setsig.o)
 .note          0x000039bc       0x14 /usr/lib/gcc-lib/i686-pc-linux-gnu/2.95.3/libg2c.a(pow_dd.o)
 .note          0x000039d0       0x14 /usr/lib/gcc-lib/i686-pc-linux-gnu/2.95.3/libg2c.a(c_abs.o)
 .note          0x000039e4       0x14 /usr/lib/gcc-lib/i686-pc-linux-gnu/2.95.3/libg2c.a(c_log.o)
 .note          0x000039f8       0x14 /usr/lib/gcc-lib/i686-pc-linux-gnu/2.95.3/libg2c.a(r_lg10.o)
 .note          0x00003a0c       0x14 /usr/lib/gcc-lib/i686-pc-linux-gnu/2.95.3/libg2c.a(r_mod.o)
 .note          0x00003a20       0x14 /usr/lib/gcc-lib/i686-pc-linux-gnu/2.95.3/libg2c.a(d_mod.o)
 .note          0x00003a34       0x14 /usr/lib/gcc-lib/i686-pc-linux-gnu/2.95.3/libg2c.a(i_indx.o)
 .note          0x00003a48       0x14 /usr/lib/gcc-lib/i686-pc-linux-gnu/2.95.3/libg2c.a(l_gt.o)
 .note          0x00003a5c       0x14 /usr/lib/gcc-lib/i686-pc-linux-gnu/2.95.3/libg2c.a(l_lt.o)
 .note          0x00003a70       0x14 /usr/lib/gcc-lib/i686-pc-linux-gnu/2.95.3/libg2c.a(s_cat.o)
 .note          0x00003a84       0x14 /usr/lib/gcc-lib/i686-pc-linux-gnu/2.95.3/libg2c.a(s_cmp.o)
 .note          0x00003a98       0x14 /usr/lib/gcc-lib/i686-pc-linux-gnu/2.95.3/libg2c.a(s_copy.o)
 .note          0x00003aac       0x14 /usr/lib/gcc-lib/i686-pc-linux-gnu/2.95.3/libg2c.a(lnblnk_.o)
 .note          0x00003ac0       0x14 /usr/lib/gcc-lib/i686-pc-linux-gnu/2.95.3/libg2c.a(fmtlib.o)
 .note          0x00003ad4       0x14 /usr/lib/gcc-lib/i686-pc-linux-gnu/2.95.3/libg2c.a(lwrite.o)
 .note          0x00003ae8       0x14 /usr/lib/gcc-lib/i686-pc-linux-gnu/2.95.3/libg2c.a(wref.o)
 .note          0x00003afc       0x14 /usr/lib/gcc-lib/i686-pc-linux-gnu/2.95.3/libg2c.a(F77_aloc.o)
 .note          0x00003b10       0x14 /usr/lib/gcc-lib/i686-pc-linux-gnu/2.95.3/libg2c.a(cabs.o)
 .note          0x00003b24       0x14 /usr/lib/gcc-lib/i686-pc-linux-gnu/2.95.3/libg2c.a(exit_.o)
 .note          0x00003b38       0x14 /usr/lib/gcc-lib/i686-pc-linux-gnu/2.95.3/crtend.o
 .note          0x00003b4c       0x14 /usr/lib/crtn.o
