Archive member included because of file (symbol)

/home/pcl2483/pedro/jadesoft/util/mcgen/Plib/libmc105j.a(mcgetf.o)
                              mchw59_105j.o (mcgetf_)
/home/pcl2483/pedro/jadesoft/util/mcgen/Plib/libmc105j.a(mcgeth.o)
                              mchw59_105j.o (mcgeth_)
/home/pcl2483/pedro/jadesoft/util/mcgen/Plib/libmc105j.a(mcgetp.o)
                              mchw59_105j.o (mcgetp_)
/home/pcl2483/pedro/jadesoft/util/mcgen/Plib/libmc105j.a(mcinit.o)
                              mchw59_105j.o (mcinit_)
/home/pcl2483/pedro/jadesoft/util/mcgen/Plib/libmc105j.a(mcstbl.o)
                              mchw59_105j.o (mcstbl_)
/home/pcl2483/pedro/jadesoft/util/mcgen/Plib/libmc105j.a(mcwrit.o)
                              mchw59_105j.o (mcwrit_)
/home/pcl2483/pedro/jadesoft/util/mcgen/Plib/libmc105j.a(pxeecb.o)
                              mchw59_105j.o (pxeecb_)
/home/pcl2483/pedro/jadesoft/util/mcgen/Plib/libmc105j.a(evwrtj.o)
                              /home/pcl2483/pedro/jadesoft/util/mcgen/Plib/libmc105j.a(mcwrit.o) (evwrtj_)
/home/pcl2483/pedro/jadesoft/util/mcgen/Plib/libmc105j.a(incprd.o)
                              /home/pcl2483/pedro/jadesoft/util/mcgen/Plib/libmc105j.a(evwrtj.o) (incprd_)
/home/pcl2483/pedro/jadesoft/util/mcgen/Plib/libmc105j.a(jadeco.o)
                              /home/pcl2483/pedro/jadesoft/util/mcgen/Plib/libmc105j.a(evwrtj.o) (jadeco_)
/home/pcl2483/pedro/jadesoft/util/mcgen/Plib/libmc105j.a(jtconv.o)
                              /home/pcl2483/pedro/jadesoft/util/mcgen/Plib/libmc105j.a(mcgeth.o) (jtconv_)
/home/pcl2483/pedro/jadesoft/util/mcgen/Plib/libmc105j.a(mcrnst.o)
                              /home/pcl2483/pedro/jadesoft/util/mcgen/Plib/libmc105j.a(mcwrit.o) (mcrnst_)
/home/pcl2483/pedro/jadesoft/util/mcgen/Plib/libmc105j.a(ntcprd.o)
                              /home/pcl2483/pedro/jadesoft/util/mcgen/Plib/libmc105j.a(evwrtj.o) (ntcprd_)
/home/pcl2483/pedro/jadesoft/util/mcgen/Plib/libmc105j.a(prcprd.o)
                              /home/pcl2483/pedro/jadesoft/util/mcgen/Plib/libmc105j.a(evwrtj.o) (prcprd_)
/home/pcl2483/pedro/jadesoft/util/mcgen/Plib/libmc105j.a(wrcprd.o)
                              /home/pcl2483/pedro/jadesoft/util/mcgen/Plib/libmc105j.a(evwrtj.o) (wrcprd_)
/home/pcl2483/pedro/jadesoft/util/mcgen/Plib/libherwig59.a(fxhlms.o)
                              mchw59_105j.o (fxhlms_)
/home/pcl2483/pedro/jadesoft/util/mcgen/Plib/libherwig59.a(h59driv.o)
                              mchw59_105j.o (h59driv_)
/home/pcl2483/pedro/jadesoft/util/mcgen/Plib/libherwig59.a(hwbgen.o)
                              /home/pcl2483/pedro/jadesoft/util/mcgen/Plib/libherwig59.a(h59driv.o) (hwbgen_)
/home/pcl2483/pedro/jadesoft/util/mcgen/Plib/libherwig59.a(hwbjco.o)
                              /home/pcl2483/pedro/jadesoft/util/mcgen/Plib/libherwig59.a(hwbgen.o) (hwbjco_)
/home/pcl2483/pedro/jadesoft/util/mcgen/Plib/libherwig59.a(hwbmas.o)
                              /home/pcl2483/pedro/jadesoft/util/mcgen/Plib/libherwig59.a(hwbgen.o) (hwbmas_)
/home/pcl2483/pedro/jadesoft/util/mcgen/Plib/libherwig59.a(hwbran.o)
                              /home/pcl2483/pedro/jadesoft/util/mcgen/Plib/libherwig59.a(hwbgen.o) (hwbran_)
/home/pcl2483/pedro/jadesoft/util/mcgen/Plib/libherwig59.a(hwbspa.o)
                              /home/pcl2483/pedro/jadesoft/util/mcgen/Plib/libherwig59.a(hwbgen.o) (hwbspa_)
/home/pcl2483/pedro/jadesoft/util/mcgen/Plib/libherwig59.a(hwbspn.o)
                              /home/pcl2483/pedro/jadesoft/util/mcgen/Plib/libherwig59.a(hwbgen.o) (hwbspn_)
/home/pcl2483/pedro/jadesoft/util/mcgen/Plib/libherwig59.a(hwbtim.o)
                              /home/pcl2483/pedro/jadesoft/util/mcgen/Plib/libherwig59.a(hwbgen.o) (hwbtim_)
/home/pcl2483/pedro/jadesoft/util/mcgen/Plib/libherwig59.a(hwbvmc.o)
                              /home/pcl2483/pedro/jadesoft/util/mcgen/Plib/libherwig59.a(hwbran.o) (hwbvmc_)
/home/pcl2483/pedro/jadesoft/util/mcgen/Plib/libherwig59.a(hwcdec.o)
                              /home/pcl2483/pedro/jadesoft/util/mcgen/Plib/libherwig59.a(h59driv.o) (hwcdec_)
/home/pcl2483/pedro/jadesoft/util/mcgen/Plib/libherwig59.a(hwcfla.o)
                              /home/pcl2483/pedro/jadesoft/util/mcgen/Plib/libherwig59.a(hwcdec.o) (hwcfla_)
/home/pcl2483/pedro/jadesoft/util/mcgen/Plib/libherwig59.a(hwcfor.o)
                              /home/pcl2483/pedro/jadesoft/util/mcgen/Plib/libherwig59.a(h59driv.o) (hwcfor_)
/home/pcl2483/pedro/jadesoft/util/mcgen/Plib/libherwig59.a(hwcgsp.o)
                              /home/pcl2483/pedro/jadesoft/util/mcgen/Plib/libherwig59.a(hwcfor.o) (hwcgsp_)
/home/pcl2483/pedro/jadesoft/util/mcgen/Plib/libherwig59.a(hwchad.o)
                              /home/pcl2483/pedro/jadesoft/util/mcgen/Plib/libherwig59.a(hwcdec.o) (hwchad_)
/home/pcl2483/pedro/jadesoft/util/mcgen/Plib/libherwig59.a(hwconv.o)
                              mchw59_105j.o (hwconv_)
/home/pcl2483/pedro/jadesoft/util/mcgen/Plib/libherwig59.a(hwdhqk.o)
                              /home/pcl2483/pedro/jadesoft/util/mcgen/Plib/libherwig59.a(h59driv.o) (hwdhqk_)
/home/pcl2483/pedro/jadesoft/util/mcgen/Plib/libherwig59.a(hwdpwt.o)
                              /home/pcl2483/pedro/jadesoft/util/mcgen/Plib/libherwig59.a(hwdhqk.o) (hwdpwt_)
/home/pcl2483/pedro/jadesoft/util/mcgen/Plib/libherwig59.a(hwdthr.o)
                              /home/pcl2483/pedro/jadesoft/util/mcgen/Plib/libherwig59.a(hwdhqk.o) (hwdthr_)
/home/pcl2483/pedro/jadesoft/util/mcgen/Plib/libherwig59.a(hwdtwo.o)
                              /home/pcl2483/pedro/jadesoft/util/mcgen/Plib/libherwig59.a(hwcfor.o) (hwdtwo_)
/home/pcl2483/pedro/jadesoft/util/mcgen/Plib/libherwig59.a(hwdwwt.o)
                              /home/pcl2483/pedro/jadesoft/util/mcgen/Plib/libherwig59.a(hwdhqk.o) (hwdwwt_)
/home/pcl2483/pedro/jadesoft/util/mcgen/Plib/libherwig59.a(hwefin.o)
                              /home/pcl2483/pedro/jadesoft/util/mcgen/Plib/libherwig59.a(h59driv.o) (hwefin_)
/home/pcl2483/pedro/jadesoft/util/mcgen/Plib/libherwig59.a(hweini.o)
                              /home/pcl2483/pedro/jadesoft/util/mcgen/Plib/libherwig59.a(h59driv.o) (hweini_)
/home/pcl2483/pedro/jadesoft/util/mcgen/Plib/libherwig59.a(hwepro.o)
                              /home/pcl2483/pedro/jadesoft/util/mcgen/Plib/libherwig59.a(h59driv.o) (hwepro_)
/home/pcl2483/pedro/jadesoft/util/mcgen/Plib/libherwig59.a(hwhbgf.o)
                              /home/pcl2483/pedro/jadesoft/util/mcgen/Plib/libherwig59.a(hwepro.o) (hwhbgf_)
/home/pcl2483/pedro/jadesoft/util/mcgen/Plib/libherwig59.a(hwhbki.o)
                              /home/pcl2483/pedro/jadesoft/util/mcgen/Plib/libherwig59.a(hwhbgf.o) (hwhbki_)
/home/pcl2483/pedro/jadesoft/util/mcgen/Plib/libherwig59.a(hwhbrn.o)
                              /home/pcl2483/pedro/jadesoft/util/mcgen/Plib/libherwig59.a(hwhbgf.o) (hwhbrn_)
/home/pcl2483/pedro/jadesoft/util/mcgen/Plib/libherwig59.a(hwhbsg.o)
                              /home/pcl2483/pedro/jadesoft/util/mcgen/Plib/libherwig59.a(hwhbgf.o) (hwhbsg_)
/home/pcl2483/pedro/jadesoft/util/mcgen/Plib/libherwig59.a(hwhdis.o)
                              /home/pcl2483/pedro/jadesoft/util/mcgen/Plib/libherwig59.a(hwepro.o) (hwhdis_)
/home/pcl2483/pedro/jadesoft/util/mcgen/Plib/libherwig59.a(hwhdyp.o)
                              /home/pcl2483/pedro/jadesoft/util/mcgen/Plib/libherwig59.a(hwepro.o) (hwhdyp_)
/home/pcl2483/pedro/jadesoft/util/mcgen/Plib/libherwig59.a(hwhegg.o)
                              /home/pcl2483/pedro/jadesoft/util/mcgen/Plib/libherwig59.a(hwepro.o) (hwhegg_)
/home/pcl2483/pedro/jadesoft/util/mcgen/Plib/libherwig59.a(hwhegw.o)
                              /home/pcl2483/pedro/jadesoft/util/mcgen/Plib/libherwig59.a(hwepro.o) (hwhegw_)
/home/pcl2483/pedro/jadesoft/util/mcgen/Plib/libherwig59.a(hwhegx.o)
                              /home/pcl2483/pedro/jadesoft/util/mcgen/Plib/libherwig59.a(hwhegw.o) (hwhegx_)
/home/pcl2483/pedro/jadesoft/util/mcgen/Plib/libherwig59.a(hwhepa.o)
                              /home/pcl2483/pedro/jadesoft/util/mcgen/Plib/libherwig59.a(hwepro.o) (hwhepa_)
/home/pcl2483/pedro/jadesoft/util/mcgen/Plib/libherwig59.a(hwhepg.o)
                              /home/pcl2483/pedro/jadesoft/util/mcgen/Plib/libherwig59.a(hwepro.o) (hwhepg_)
/home/pcl2483/pedro/jadesoft/util/mcgen/Plib/libherwig59.a(hwheww.o)
                              /home/pcl2483/pedro/jadesoft/util/mcgen/Plib/libherwig59.a(hwepro.o) (hwheww_)
/home/pcl2483/pedro/jadesoft/util/mcgen/Plib/libherwig59.a(hwhhvy.o)
                              /home/pcl2483/pedro/jadesoft/util/mcgen/Plib/libherwig59.a(hwepro.o) (hwhhvy_)
/home/pcl2483/pedro/jadesoft/util/mcgen/Plib/libherwig59.a(hwhigj.o)
                              /home/pcl2483/pedro/jadesoft/util/mcgen/Plib/libherwig59.a(hwepro.o) (hwhigj_)
/home/pcl2483/pedro/jadesoft/util/mcgen/Plib/libherwig59.a(hwhigm.o)
                              /home/pcl2483/pedro/jadesoft/util/mcgen/Plib/libherwig59.a(hwhigj.o) (hwhigm_)
/home/pcl2483/pedro/jadesoft/util/mcgen/Plib/libherwig59.a(hwhigs.o)
                              /home/pcl2483/pedro/jadesoft/util/mcgen/Plib/libherwig59.a(hwepro.o) (hwhigs_)
/home/pcl2483/pedro/jadesoft/util/mcgen/Plib/libherwig59.a(hwhigt.o)
                              /home/pcl2483/pedro/jadesoft/util/mcgen/Plib/libherwig59.a(hwhigs.o) (hwhigt_)
/home/pcl2483/pedro/jadesoft/util/mcgen/Plib/libherwig59.a(hwhigw.o)
                              /home/pcl2483/pedro/jadesoft/util/mcgen/Plib/libherwig59.a(hwepro.o) (hwhigw_)
/home/pcl2483/pedro/jadesoft/util/mcgen/Plib/libherwig59.a(hwhigz.o)
                              /home/pcl2483/pedro/jadesoft/util/mcgen/Plib/libherwig59.a(hwepro.o) (hwhigz_)
/home/pcl2483/pedro/jadesoft/util/mcgen/Plib/libherwig59.a(hwhph2.o)
                              /home/pcl2483/pedro/jadesoft/util/mcgen/Plib/libherwig59.a(hwepro.o) (hwhph2_)
/home/pcl2483/pedro/jadesoft/util/mcgen/Plib/libherwig59.a(hwhpho.o)
                              /home/pcl2483/pedro/jadesoft/util/mcgen/Plib/libherwig59.a(hwepro.o) (hwhpho_)
/home/pcl2483/pedro/jadesoft/util/mcgen/Plib/libherwig59.a(hwhppb.o)
                              /home/pcl2483/pedro/jadesoft/util/mcgen/Plib/libherwig59.a(hwhph2.o) (hwhppb_)
/home/pcl2483/pedro/jadesoft/util/mcgen/Plib/libherwig59.a(hwhppe.o)
                              /home/pcl2483/pedro/jadesoft/util/mcgen/Plib/libherwig59.a(hwepro.o) (hwhppe_)
/home/pcl2483/pedro/jadesoft/util/mcgen/Plib/libherwig59.a(hwhpph.o)
                              /home/pcl2483/pedro/jadesoft/util/mcgen/Plib/libherwig59.a(hwepro.o) (hwhpph_)
/home/pcl2483/pedro/jadesoft/util/mcgen/Plib/libherwig59.a(hwhppm.o)
                              /home/pcl2483/pedro/jadesoft/util/mcgen/Plib/libherwig59.a(hwepro.o) (hwhppm_)
/home/pcl2483/pedro/jadesoft/util/mcgen/Plib/libherwig59.a(hwhppt.o)
                              /home/pcl2483/pedro/jadesoft/util/mcgen/Plib/libherwig59.a(hwepro.o) (hwhppt_)
/home/pcl2483/pedro/jadesoft/util/mcgen/Plib/libherwig59.a(hwhpqs.o)
                              /home/pcl2483/pedro/jadesoft/util/mcgen/Plib/libherwig59.a(hwepro.o) (hwhpqs_)
/home/pcl2483/pedro/jadesoft/util/mcgen/Plib/libherwig59.a(hwhqcd.o)
                              /home/pcl2483/pedro/jadesoft/util/mcgen/Plib/libherwig59.a(hwepro.o) (hwhqcd_)
/home/pcl2483/pedro/jadesoft/util/mcgen/Plib/libherwig59.a(hwhqcp.o)
                              /home/pcl2483/pedro/jadesoft/util/mcgen/Plib/libherwig59.a(hwhdyp.o) (hwhqcp_)
/home/pcl2483/pedro/jadesoft/util/mcgen/Plib/libherwig59.a(hwhsng.o)
                              /home/pcl2483/pedro/jadesoft/util/mcgen/Plib/libherwig59.a(hwepro.o) (hwhsng_)
/home/pcl2483/pedro/jadesoft/util/mcgen/Plib/libherwig59.a(hwhsnm.o)
                              /home/pcl2483/pedro/jadesoft/util/mcgen/Plib/libherwig59.a(hwhsng.o) (hwhsnm_)
/home/pcl2483/pedro/jadesoft/util/mcgen/Plib/libherwig59.a(hwhv1j.o)
                              /home/pcl2483/pedro/jadesoft/util/mcgen/Plib/libherwig59.a(hwepro.o) (hwhv1j_)
/home/pcl2483/pedro/jadesoft/util/mcgen/Plib/libherwig59.a(hwhwex.o)
                              /home/pcl2483/pedro/jadesoft/util/mcgen/Plib/libherwig59.a(hwepro.o) (hwhwex_)
/home/pcl2483/pedro/jadesoft/util/mcgen/Plib/libherwig59.a(hwhwpr.o)
                              /home/pcl2483/pedro/jadesoft/util/mcgen/Plib/libherwig59.a(hwepro.o) (hwhwpr_)
/home/pcl2483/pedro/jadesoft/util/mcgen/Plib/libherwig59.a(hwigin.o)
                              /home/pcl2483/pedro/jadesoft/util/mcgen/Plib/libherwig59.a(h59driv.o) (hwigin_)
/home/pcl2483/pedro/jadesoft/util/mcgen/Plib/libherwig59.a(hwmwgt.o)
                              /home/pcl2483/pedro/jadesoft/util/mcgen/Plib/libherwig59.a(hwepro.o) (hwmwgt_)
/home/pcl2483/pedro/jadesoft/util/mcgen/Plib/libherwig59.a(hwrazm.o)
                              /home/pcl2483/pedro/jadesoft/util/mcgen/Plib/libherwig59.a(hwbjco.o) (hwrazm_)
/home/pcl2483/pedro/jadesoft/util/mcgen/Plib/libherwig59.a(hwrgau.o)
                              /home/pcl2483/pedro/jadesoft/util/mcgen/Plib/libherwig59.a(hwbgen.o) (hwrgau_)
/home/pcl2483/pedro/jadesoft/util/mcgen/Plib/libherwig59.a(hwrgen.o)
                              /home/pcl2483/pedro/jadesoft/util/mcgen/Plib/libherwig59.a(hwbran.o) (hwrgen_)
/home/pcl2483/pedro/jadesoft/util/mcgen/Plib/libherwig59.a(hwrint.o)
                              /home/pcl2483/pedro/jadesoft/util/mcgen/Plib/libherwig59.a(hwbran.o) (hwrint_)
/home/pcl2483/pedro/jadesoft/util/mcgen/Plib/libherwig59.a(hwrlog.o)
                              /home/pcl2483/pedro/jadesoft/util/mcgen/Plib/libherwig59.a(hwbgen.o) (hwrlog_)
/home/pcl2483/pedro/jadesoft/util/mcgen/Plib/libherwig59.a(hwrpip.o)
                              /home/pcl2483/pedro/jadesoft/util/mcgen/Plib/libherwig59.a(hwepro.o) (hwrpip_)
/home/pcl2483/pedro/jadesoft/util/mcgen/Plib/libherwig59.a(hwrpow.o)
                              /home/pcl2483/pedro/jadesoft/util/mcgen/Plib/libherwig59.a(hwhhvy.o) (hwrpow_)
/home/pcl2483/pedro/jadesoft/util/mcgen/Plib/libherwig59.a(hwruni.o)
                              /home/pcl2483/pedro/jadesoft/util/mcgen/Plib/libherwig59.a(hwbran.o) (hwruni_)
/home/pcl2483/pedro/jadesoft/util/mcgen/Plib/libherwig59.a(hwsbrn.o)
                              /home/pcl2483/pedro/jadesoft/util/mcgen/Plib/libherwig59.a(hwbgen.o) (hwsbrn_)
/home/pcl2483/pedro/jadesoft/util/mcgen/Plib/libherwig59.a(hwsfbr.o)
                              /home/pcl2483/pedro/jadesoft/util/mcgen/Plib/libherwig59.a(hwsbrn.o) (hwsfbr_)
/home/pcl2483/pedro/jadesoft/util/mcgen/Plib/libherwig59.a(hwsfun.o)
                              /home/pcl2483/pedro/jadesoft/util/mcgen/Plib/libherwig59.a(hwhbsg.o) (hwsfun_)
/home/pcl2483/pedro/jadesoft/util/mcgen/Plib/libherwig59.a(hwsgam.o)
                              /home/pcl2483/pedro/jadesoft/util/mcgen/Plib/libherwig59.a(hwsfun.o) (hwsgam_)
/home/pcl2483/pedro/jadesoft/util/mcgen/Plib/libherwig59.a(hwsgen.o)
                              /home/pcl2483/pedro/jadesoft/util/mcgen/Plib/libherwig59.a(hwhdyp.o) (hwsgen_)
/home/pcl2483/pedro/jadesoft/util/mcgen/Plib/libherwig59.a(hwsgqq.o)
                              /home/pcl2483/pedro/jadesoft/util/mcgen/Plib/libherwig59.a(hwsbrn.o) (hwsgqq_)
/home/pcl2483/pedro/jadesoft/util/mcgen/Plib/libherwig59.a(hwsspc.o)
                              /home/pcl2483/pedro/jadesoft/util/mcgen/Plib/libherwig59.a(hwbgen.o) (hwsspc_)
/home/pcl2483/pedro/jadesoft/util/mcgen/Plib/libherwig59.a(hwssud.o)
                              /home/pcl2483/pedro/jadesoft/util/mcgen/Plib/libherwig59.a(hwsbrn.o) (hwssud_)
/home/pcl2483/pedro/jadesoft/util/mcgen/Plib/libherwig59.a(hwstab.o)
                              /home/pcl2483/pedro/jadesoft/util/mcgen/Plib/libherwig59.a(hwsbrn.o) (hwstab_)
/home/pcl2483/pedro/jadesoft/util/mcgen/Plib/libherwig59.a(hwsval.o)
                              /home/pcl2483/pedro/jadesoft/util/mcgen/Plib/libherwig59.a(hwsbrn.o) (hwsval_)
/home/pcl2483/pedro/jadesoft/util/mcgen/Plib/libherwig59.a(hwuaem.o)
                              /home/pcl2483/pedro/jadesoft/util/mcgen/Plib/libherwig59.a(hwhbsg.o) (hwuaem_)
/home/pcl2483/pedro/jadesoft/util/mcgen/Plib/libherwig59.a(hwuaer.o)
                              /home/pcl2483/pedro/jadesoft/util/mcgen/Plib/libherwig59.a(hwuaem.o) (hwuaer_)
/home/pcl2483/pedro/jadesoft/util/mcgen/Plib/libherwig59.a(hwualf.o)
                              /home/pcl2483/pedro/jadesoft/util/mcgen/Plib/libherwig59.a(hwbran.o) (hwualf_)
/home/pcl2483/pedro/jadesoft/util/mcgen/Plib/libherwig59.a(hwubst.o)
                              /home/pcl2483/pedro/jadesoft/util/mcgen/Plib/libherwig59.a(hwepro.o) (hwubst_)
/home/pcl2483/pedro/jadesoft/util/mcgen/Plib/libherwig59.a(hwucff.o)
                              /home/pcl2483/pedro/jadesoft/util/mcgen/Plib/libherwig59.a(hwhbsg.o) (hwucff_)
/home/pcl2483/pedro/jadesoft/util/mcgen/Plib/libherwig59.a(hwudat.o)
                              /home/pcl2483/pedro/jadesoft/util/mcgen/Plib/libherwig59.a(fxhlms.o) (hwupdt_)
/home/pcl2483/pedro/jadesoft/util/mcgen/Plib/libherwig59.a(hwudkl.o)
                              /home/pcl2483/pedro/jadesoft/util/mcgen/Plib/libherwig59.a(hwbspa.o) (hwudkl_)
/home/pcl2483/pedro/jadesoft/util/mcgen/Plib/libherwig59.a(hwuecm.o)
                              /home/pcl2483/pedro/jadesoft/util/mcgen/Plib/libherwig59.a(hwhbki.o) (hwuecm_)
/home/pcl2483/pedro/jadesoft/util/mcgen/Plib/libherwig59.a(hwueec.o)
                              /home/pcl2483/pedro/jadesoft/util/mcgen/Plib/libherwig59.a(hwhepa.o) (hwueec_)
/home/pcl2483/pedro/jadesoft/util/mcgen/Plib/libherwig59.a(hwuepr.o)
                              mchw59_105j.o (hwuepr_)
/home/pcl2483/pedro/jadesoft/util/mcgen/Plib/libherwig59.a(hwufne.o)
                              /home/pcl2483/pedro/jadesoft/util/mcgen/Plib/libherwig59.a(h59driv.o) (hwufne_)
/home/pcl2483/pedro/jadesoft/util/mcgen/Plib/libherwig59.a(hwuinc.o)
                              /home/pcl2483/pedro/jadesoft/util/mcgen/Plib/libherwig59.a(h59driv.o) (hwuinc_)
/home/pcl2483/pedro/jadesoft/util/mcgen/Plib/libherwig59.a(hwuine.o)
                              /home/pcl2483/pedro/jadesoft/util/mcgen/Plib/libherwig59.a(h59driv.o) (hwuine_)
/home/pcl2483/pedro/jadesoft/util/mcgen/Plib/libherwig59.a(hwulb4.o)
                              /home/pcl2483/pedro/jadesoft/util/mcgen/Plib/libherwig59.a(hwubst.o) (hwulb4_)
/home/pcl2483/pedro/jadesoft/util/mcgen/Plib/libherwig59.a(hwuldo.o)
                              /home/pcl2483/pedro/jadesoft/util/mcgen/Plib/libherwig59.a(hwbgen.o) (hwuldo_)
/home/pcl2483/pedro/jadesoft/util/mcgen/Plib/libherwig59.a(hwulob.o)
                              /home/pcl2483/pedro/jadesoft/util/mcgen/Plib/libherwig59.a(hwbjco.o) (hwulob_)
/home/pcl2483/pedro/jadesoft/util/mcgen/Plib/libherwig59.a(hwulof.o)
                              /home/pcl2483/pedro/jadesoft/util/mcgen/Plib/libherwig59.a(hwbjco.o) (hwulof_)
/home/pcl2483/pedro/jadesoft/util/mcgen/Plib/libherwig59.a(hwumas.o)
                              /home/pcl2483/pedro/jadesoft/util/mcgen/Plib/libherwig59.a(hwbjco.o) (hwumas_)
/home/pcl2483/pedro/jadesoft/util/mcgen/Plib/libherwig59.a(hwupcm.o)
                              /home/pcl2483/pedro/jadesoft/util/mcgen/Plib/libherwig59.a(hwcfor.o) (hwupcm_)
/home/pcl2483/pedro/jadesoft/util/mcgen/Plib/libherwig59.a(hwures.o)
                              /home/pcl2483/pedro/jadesoft/util/mcgen/Plib/libherwig59.a(hwuinc.o) (hwures_)
/home/pcl2483/pedro/jadesoft/util/mcgen/Plib/libherwig59.a(hwurob.o)
                              /home/pcl2483/pedro/jadesoft/util/mcgen/Plib/libherwig59.a(hwbjco.o) (hwurob_)
/home/pcl2483/pedro/jadesoft/util/mcgen/Plib/libherwig59.a(hwurof.o)
                              /home/pcl2483/pedro/jadesoft/util/mcgen/Plib/libherwig59.a(hwbjco.o) (hwurof_)
/home/pcl2483/pedro/jadesoft/util/mcgen/Plib/libherwig59.a(hwurot.o)
                              /home/pcl2483/pedro/jadesoft/util/mcgen/Plib/libherwig59.a(hwbjco.o) (hwurot_)
/home/pcl2483/pedro/jadesoft/util/mcgen/Plib/libherwig59.a(hwusqr.o)
                              /home/pcl2483/pedro/jadesoft/util/mcgen/Plib/libherwig59.a(hwbmas.o) (hwusqr_)
/home/pcl2483/pedro/jadesoft/util/mcgen/Plib/libherwig59.a(hwutab.o)
                              /home/pcl2483/pedro/jadesoft/util/mcgen/Plib/libherwig59.a(hwbran.o) (hwutab_)
/home/pcl2483/pedro/jadesoft/util/mcgen/Plib/libherwig59.a(hwutim.o)
                              /home/pcl2483/pedro/jadesoft/util/mcgen/Plib/libherwig59.a(hwuine.o) (hwutim_)
/home/pcl2483/pedro/jadesoft/util/mcgen/Plib/libherwig59.a(hwvdif.o)
                              /home/pcl2483/pedro/jadesoft/util/mcgen/Plib/libherwig59.a(hwbjco.o) (hwvdif_)
/home/pcl2483/pedro/jadesoft/util/mcgen/Plib/libherwig59.a(hwvdot.o)
                              /home/pcl2483/pedro/jadesoft/util/mcgen/Plib/libherwig59.a(hwcfor.o) (hwvdot_)
/home/pcl2483/pedro/jadesoft/util/mcgen/Plib/libherwig59.a(hwvequ.o)
                              /home/pcl2483/pedro/jadesoft/util/mcgen/Plib/libherwig59.a(hwbgen.o) (hwvequ_)
/home/pcl2483/pedro/jadesoft/util/mcgen/Plib/libherwig59.a(hwvsca.o)
                              /home/pcl2483/pedro/jadesoft/util/mcgen/Plib/libherwig59.a(hwbjco.o) (hwvsca_)
/home/pcl2483/pedro/jadesoft/util/mcgen/Plib/libherwig59.a(hwvsum.o)
                              /home/pcl2483/pedro/jadesoft/util/mcgen/Plib/libherwig59.a(hwbjco.o) (hwvsum_)
/home/pcl2483/pedro/jadesoft/util/mcgen/Plib/libherwig59.a(hwvzro.o)
                              /home/pcl2483/pedro/jadesoft/util/mcgen/Plib/libherwig59.a(hwbgen.o) (hwvzro_)
/home/pcl2483/pedro/jadesoft/util/mcgen/Plib/libherwig59.a(hwwarn.o)
                              /home/pcl2483/pedro/jadesoft/util/mcgen/Plib/libherwig59.a(hwbgen.o) (hwwarn_)
/home/pcl2483/pedro/jadesoft/util/mcgen/Plib/libherwig59.a(pdfset.o)
                              /home/pcl2483/pedro/jadesoft/util/mcgen/Plib/libherwig59.a(hwsfun.o) (pdfset_)
/home/pcl2483/pedro/jadesoft/util/mcgen/Plib/libherwig59.a(sasgam.o)
                              /home/pcl2483/pedro/jadesoft/util/mcgen/Plib/libherwig59.a(hwsfun.o) (sasgam_)
/home/pcl2483/pedro/jadesoft/util/mcgen/Plib/libherwig59.a(sasvmd.o)
                              /home/pcl2483/pedro/jadesoft/util/mcgen/Plib/libherwig59.a(sasgam.o) (sasvmd_)
/home/pcl2483/pedro/jadesoft/util/mcgen/Plib/libherwig59.a(structm.o)
                              /home/pcl2483/pedro/jadesoft/util/mcgen/Plib/libherwig59.a(hwsfun.o) (structm_)
/home/pcl2483/pedro/jadesoft/util/mcgen/Plib/libherwig59.a(hvcbvi.o)
                              /home/pcl2483/pedro/jadesoft/util/mcgen/Plib/libherwig59.a(hwcfor.o) (hvcbvi_)
/home/pcl2483/pedro/jadesoft/util/mcgen/Plib/libherwig59.a(hvhbvi.o)
                              /home/pcl2483/pedro/jadesoft/util/mcgen/Plib/libherwig59.a(hwepro.o) (hvhbvi_)
/home/pcl2483/pedro/jadesoft/util/mcgen/Plib/libherwig59.a(hwaend.o)
                              /home/pcl2483/pedro/jadesoft/util/mcgen/Plib/libherwig59.a(hwwarn.o) (hwaend_)
/home/pcl2483/pedro/jadesoft/util/mcgen/Plib/libherwig59.a(hwbazf.o)
                              /home/pcl2483/pedro/jadesoft/util/mcgen/Plib/libherwig59.a(hwbspa.o) (hwbazf_)
/home/pcl2483/pedro/jadesoft/util/mcgen/Plib/libherwig59.a(hwbcon.o)
                              /home/pcl2483/pedro/jadesoft/util/mcgen/Plib/libherwig59.a(hwbgen.o) (hwbcon_)
/home/pcl2483/pedro/jadesoft/util/mcgen/Plib/libherwig59.a(hwbded.o)
                              /home/pcl2483/pedro/jadesoft/util/mcgen/Plib/libherwig59.a(hwbgen.o) (hwbded_)
/home/pcl2483/pedro/jadesoft/util/mcgen/Plib/libherwig59.a(hwbdis.o)
                              /home/pcl2483/pedro/jadesoft/util/mcgen/Plib/libherwig59.a(hwbgen.o) (hwbdis_)
/home/pcl2483/pedro/jadesoft/util/mcgen/Plib/libherwig59.a(hwbfin.o)
                              /home/pcl2483/pedro/jadesoft/util/mcgen/Plib/libherwig59.a(hwbgen.o) (hwbfin_)
/home/pcl2483/pedro/jadesoft/util/mcgen/Plib/libherwig59.a(hwbsud.o)
                              /home/pcl2483/pedro/jadesoft/util/mcgen/Plib/libherwig59.a(hwuinc.o) (hwbsud_)
/home/pcl2483/pedro/jadesoft/util/mcgen/Plib/libherwig59.a(hwbsug.o)
                              /home/pcl2483/pedro/jadesoft/util/mcgen/Plib/libherwig59.a(hwbsud.o) (hwbsug_)
/home/pcl2483/pedro/jadesoft/util/mcgen/Plib/libherwig59.a(hwbsul.o)
                              /home/pcl2483/pedro/jadesoft/util/mcgen/Plib/libherwig59.a(hwbsug.o) (hwbsul_)
/home/pcl2483/pedro/jadesoft/util/mcgen/Plib/libherwig59.a(hwccut.o)
                              /home/pcl2483/pedro/jadesoft/util/mcgen/Plib/libherwig59.a(hwcfor.o) (hwccut_)
/home/pcl2483/pedro/jadesoft/util/mcgen/Plib/libherwig59.a(hwdboz.o)
                              /home/pcl2483/pedro/jadesoft/util/mcgen/Plib/libherwig59.a(hwhegg.o) (hwdboz_)
/home/pcl2483/pedro/jadesoft/util/mcgen/Plib/libherwig59.a(hwdhig.o)
                              /home/pcl2483/pedro/jadesoft/util/mcgen/Plib/libherwig59.a(hwhigm.o) (hwdhig_)
/home/pcl2483/pedro/jadesoft/util/mcgen/Plib/libherwig59.a(hwegam.o)
                              /home/pcl2483/pedro/jadesoft/util/mcgen/Plib/libherwig59.a(hwepro.o) (hwegam_)
/home/pcl2483/pedro/jadesoft/util/mcgen/Plib/libherwig59.a(hweisr.o)
                              /home/pcl2483/pedro/jadesoft/util/mcgen/Plib/libherwig59.a(hwepro.o) (hweisr_)
/home/pcl2483/pedro/jadesoft/util/mcgen/Plib/libherwig59.a(hweone.o)
                              /home/pcl2483/pedro/jadesoft/util/mcgen/Plib/libherwig59.a(hwhigs.o) (hweone_)
/home/pcl2483/pedro/jadesoft/util/mcgen/Plib/libherwig59.a(hwetwo.o)
                              /home/pcl2483/pedro/jadesoft/util/mcgen/Plib/libherwig59.a(hwhdis.o) (hwetwo_)
/home/pcl2483/pedro/jadesoft/util/mcgen/Plib/libherwig59.a(hwhew0.o)
                              /home/pcl2483/pedro/jadesoft/util/mcgen/Plib/libherwig59.a(hwheww.o) (hwhew0_)
/home/pcl2483/pedro/jadesoft/util/mcgen/Plib/libherwig59.a(hwhew1.o)
                              /home/pcl2483/pedro/jadesoft/util/mcgen/Plib/libherwig59.a(hwheww.o) (hwhew1_)
/home/pcl2483/pedro/jadesoft/util/mcgen/Plib/libherwig59.a(hwhew2.o)
                              /home/pcl2483/pedro/jadesoft/util/mcgen/Plib/libherwig59.a(hwheww.o) (hwhew2_)
/home/pcl2483/pedro/jadesoft/util/mcgen/Plib/libherwig59.a(hwhew3.o)
                              /home/pcl2483/pedro/jadesoft/util/mcgen/Plib/libherwig59.a(hwheww.o) (hwhew3_)
/home/pcl2483/pedro/jadesoft/util/mcgen/Plib/libherwig59.a(hwhew4.o)
                              /home/pcl2483/pedro/jadesoft/util/mcgen/Plib/libherwig59.a(hwhew3.o) (hwhew4_)
/home/pcl2483/pedro/jadesoft/util/mcgen/Plib/libherwig59.a(hwhew5.o)
                              /home/pcl2483/pedro/jadesoft/util/mcgen/Plib/libherwig59.a(hwheww.o) (hwhew5_)
/home/pcl2483/pedro/jadesoft/util/mcgen/Plib/libherwig59.a(hwhiga.o)
                              /home/pcl2483/pedro/jadesoft/util/mcgen/Plib/libherwig59.a(hwhigj.o) (hwhiga_)
/home/pcl2483/pedro/jadesoft/util/mcgen/Plib/libherwig59.a(hwhigb.o)
                              /home/pcl2483/pedro/jadesoft/util/mcgen/Plib/libherwig59.a(hwhiga.o) (hwhigb_)
/home/pcl2483/pedro/jadesoft/util/mcgen/Plib/libherwig59.a(hwhigy.o)
                              /home/pcl2483/pedro/jadesoft/util/mcgen/Plib/libherwig59.a(hwhigz.o) (hwhigy_)
/home/pcl2483/pedro/jadesoft/util/mcgen/Plib/libherwig59.a(hwrexq.o)
                              /home/pcl2483/pedro/jadesoft/util/mcgen/Plib/libherwig59.a(hwccut.o) (hwrexq_)
/home/pcl2483/pedro/jadesoft/util/mcgen/Plib/libherwig59.a(hwsdgg.o)
                              /home/pcl2483/pedro/jadesoft/util/mcgen/Plib/libherwig59.a(hwsfun.o) (hwsdgg_)
/home/pcl2483/pedro/jadesoft/util/mcgen/Plib/libherwig59.a(hwsdgq.o)
                              /home/pcl2483/pedro/jadesoft/util/mcgen/Plib/libherwig59.a(hwsfun.o) (hwsdgq_)
/home/pcl2483/pedro/jadesoft/util/mcgen/Plib/libherwig59.a(hwuant.o)
                              /home/pcl2483/pedro/jadesoft/util/mcgen/Plib/libherwig59.a(hwures.o) (hwuant_)
/home/pcl2483/pedro/jadesoft/util/mcgen/Plib/libherwig59.a(hwubpr.o)
                              /home/pcl2483/pedro/jadesoft/util/mcgen/Plib/libherwig59.a(hwwarn.o) (hwubpr_)
/home/pcl2483/pedro/jadesoft/util/mcgen/Plib/libherwig59.a(hwuci2.o)
                              /home/pcl2483/pedro/jadesoft/util/mcgen/Plib/libherwig59.a(hwhigb.o) (hwuci2_)
/home/pcl2483/pedro/jadesoft/util/mcgen/Plib/libherwig59.a(hwudks.o)
                              /home/pcl2483/pedro/jadesoft/util/mcgen/Plib/libherwig59.a(hwuinc.o) (hwudks_)
/home/pcl2483/pedro/jadesoft/util/mcgen/Plib/libherwig59.a(hwudpr.o)
                              /home/pcl2483/pedro/jadesoft/util/mcgen/Plib/libherwig59.a(hwuinc.o) (hwudpr_)
/home/pcl2483/pedro/jadesoft/util/mcgen/Plib/libherwig59.a(hwuedt.o)
                              /home/pcl2483/pedro/jadesoft/util/mcgen/Plib/libherwig59.a(hwbded.o) (hwuedt_)
/home/pcl2483/pedro/jadesoft/util/mcgen/Plib/libherwig59.a(hwuemv.o)
                              /home/pcl2483/pedro/jadesoft/util/mcgen/Plib/libherwig59.a(hwbdis.o) (hwuemv_)
/home/pcl2483/pedro/jadesoft/util/mcgen/Plib/libherwig59.a(hwugau.o)
                              /home/pcl2483/pedro/jadesoft/util/mcgen/Plib/libherwig59.a(hwbsud.o) (hwugau_)
/home/pcl2483/pedro/jadesoft/util/mcgen/Plib/libherwig59.a(hwuidt.o)
                              /home/pcl2483/pedro/jadesoft/util/mcgen/Plib/libherwig59.a(hwuinc.o) (hwuidt_)
/home/pcl2483/pedro/jadesoft/util/mcgen/Plib/libherwig59.a(hwulf4.o)
                              /home/pcl2483/pedro/jadesoft/util/mcgen/Plib/libherwig59.a(hwulof.o) (hwulf4_)
/home/pcl2483/pedro/jadesoft/util/mcgen/Plib/libherwig59.a(hwuli2.o)
                              /home/pcl2483/pedro/jadesoft/util/mcgen/Plib/libherwig59.a(hwhigb.o) (hwuli2_)
/home/pcl2483/pedro/jadesoft/util/mcgen/Plib/libherwig59.a(hwusor.o)
                              /home/pcl2483/pedro/jadesoft/util/mcgen/Plib/libherwig59.a(hwudks.o) (hwusor_)
/home/pcl2483/pedro/jadesoft/util/mcgen/Plib/libherwig59.a(sasano.o)
                              /home/pcl2483/pedro/jadesoft/util/mcgen/Plib/libherwig59.a(sasgam.o) (sasano_)
/home/pcl2483/pedro/jadesoft/util/mcgen/Plib/libherwig59.a(sasbeh.o)
                              /home/pcl2483/pedro/jadesoft/util/mcgen/Plib/libherwig59.a(sasgam.o) (sasbeh_)
/home/pcl2483/pedro/jadesoft/util/mcgen/Plib/libherwig59.a(sasdir.o)
                              /home/pcl2483/pedro/jadesoft/util/mcgen/Plib/libherwig59.a(sasgam.o) (sasdir_)
/home/pcl2483/pedro/jadesoft/util/mcgen/Plib/libherwig59.a(hwbsu1.o)
                              /home/pcl2483/pedro/jadesoft/util/mcgen/Plib/libherwig59.a(hwbsud.o) (hwbsu1_)
/home/pcl2483/pedro/jadesoft/util/mcgen/Plib/libherwig59.a(hwbsu2.o)
                              /home/pcl2483/pedro/jadesoft/util/mcgen/Plib/libherwig59.a(hwbsud.o) (hwbsu2_)
/home/pcl2483/pedro/jadesoft/util/mcgen/Plib/libherwig59.a(hwdchk.o)
                              /home/pcl2483/pedro/jadesoft/util/mcgen/Plib/libherwig59.a(hwudks.o) (hwdchk_)
/home/pcl2483/pedro/jadesoft/util/mcgen/Plib/libherwig59.a(hwdhgc.o)
                              /home/pcl2483/pedro/jadesoft/util/mcgen/Plib/libherwig59.a(hwdhig.o) (hwdhgc_)
/home/pcl2483/pedro/jadesoft/util/mcgen/Plib/libherwig59.a(hwdhgf.o)
                              /home/pcl2483/pedro/jadesoft/util/mcgen/Plib/libherwig59.a(hwdhig.o) (hwdhgf_)
/home/pcl2483/pedro/jadesoft/util/mcgen/Plib/libherwig59.a(hwdtop.o)
                              /home/pcl2483/pedro/jadesoft/util/mcgen/Plib/libherwig59.a(hwudks.o) (hwdtop_)
/home/pcl2483/pedro/jadesoft/util/mcgen/Plib/libherwig59.a(hwhig1.o)
                              /home/pcl2483/pedro/jadesoft/util/mcgen/Plib/libherwig59.a(hwhiga.o) (hwhig1_)
/home/pcl2483/pedro/jadesoft/util/mcgen/Plib/libjt74opal.a(luchge.o)
                              /home/pcl2483/pedro/jadesoft/util/mcgen/Plib/libmc105j.a(mcgeth.o) (luchge_)
/home/pcl2483/pedro/jadesoft/util/mcgen/Plib/libjt74opal.a(lucomp.o)
                              /home/pcl2483/pedro/jadesoft/util/mcgen/Plib/libmc105j.a(mcgeth.o) (lucomp_)
/home/pcl2483/pedro/jadesoft/util/mcgen/Plib/libjt74opal.a(ludata.o)
                              mchw59_105j.o (gudatr_)
/home/pcl2483/pedro/jadesoft/util/mcgen/Plib/libjt74opal.a(luedit.o)
                              mchw59_105j.o (luedit_)
/home/pcl2483/pedro/jadesoft/util/mcgen/Plib/libjt74opal.a(luerrm.o)
                              /home/pcl2483/pedro/jadesoft/util/mcgen/Plib/libjt74opal.a(luedit.o) (luerrm_)
/home/pcl2483/pedro/jadesoft/util/mcgen/Plib/libjt74opal.a(luexec.o)
                              /home/pcl2483/pedro/jadesoft/util/mcgen/Plib/libherwig59.a(hwconv.o) (luexec_)
/home/pcl2483/pedro/jadesoft/util/mcgen/Plib/libjt74opal.a(luhepc.o)
                              /home/pcl2483/pedro/jadesoft/util/mcgen/Plib/libherwig59.a(hwconv.o) (luhepc_)
/home/pcl2483/pedro/jadesoft/util/mcgen/Plib/libjt74opal.a(luindf.o)
                              /home/pcl2483/pedro/jadesoft/util/mcgen/Plib/libjt74opal.a(luexec.o) (luindf_)
/home/pcl2483/pedro/jadesoft/util/mcgen/Plib/libjt74opal.a(lukfdi.o)
                              /home/pcl2483/pedro/jadesoft/util/mcgen/Plib/libjt74opal.a(luindf.o) (lukfdi_)
/home/pcl2483/pedro/jadesoft/util/mcgen/Plib/libjt74opal.a(lulist.o)
                              mchw59_105j.o (lulist_)
/home/pcl2483/pedro/jadesoft/util/mcgen/Plib/libjt74opal.a(lulogo.o)
                              /home/pcl2483/pedro/jadesoft/util/mcgen/Plib/libjt74opal.a(lulist.o) (lulogo_)
/home/pcl2483/pedro/jadesoft/util/mcgen/Plib/libjt74opal.a(luname.o)
                              /home/pcl2483/pedro/jadesoft/util/mcgen/Plib/libmc105j.a(mcstbl.o) (luname_)
/home/pcl2483/pedro/jadesoft/util/mcgen/Plib/libjt74opal.a(luprep.o)
                              /home/pcl2483/pedro/jadesoft/util/mcgen/Plib/libjt74opal.a(luexec.o) (luprep_)
/home/pcl2483/pedro/jadesoft/util/mcgen/Plib/libjt74opal.a(luptdi.o)
                              /home/pcl2483/pedro/jadesoft/util/mcgen/Plib/libjt74opal.a(luindf.o) (luptdi_)
/home/pcl2483/pedro/jadesoft/util/mcgen/Plib/libjt74opal.a(lurobo.o)
                              /home/pcl2483/pedro/jadesoft/util/mcgen/Plib/libjt74opal.a(luedit.o) (ludbrb_)
/home/pcl2483/pedro/jadesoft/util/mcgen/Plib/libjt74opal.a(lushow.o)
                              /home/pcl2483/pedro/jadesoft/util/mcgen/Plib/libjt74opal.a(luexec.o) (lushow_)
/home/pcl2483/pedro/jadesoft/util/mcgen/Plib/libjt74opal.a(lustrf.o)
                              /home/pcl2483/pedro/jadesoft/util/mcgen/Plib/libjt74opal.a(luexec.o) (lustrf_)
/home/pcl2483/pedro/jadesoft/util/mcgen/Plib/libjt74opal.a(lutabu.o)
                              mchw59_105j.o (lutabu_)
/home/pcl2483/pedro/jadesoft/util/mcgen/Plib/libjt74opal.a(luzdis.o)
                              /home/pcl2483/pedro/jadesoft/util/mcgen/Plib/libjt74opal.a(luindf.o) (luzdis_)
/home/pcl2483/pedro/jadesoft/util/mcgen/Plib/libjt74opal.a(plu.o)
                              /home/pcl2483/pedro/jadesoft/util/mcgen/Plib/libmc105j.a(mcwrit.o) (plu_)
/home/pcl2483/pedro/jadesoft/util/mcgen/Plib/libjt74opal.a(rlu.o)
                              /home/pcl2483/pedro/jadesoft/util/mcgen/Plib/libherwig59.a(hwrgen.o) (rlu_)
/home/pcl2483/pedro/jadesoft/util/mcgen/Plib/libjt74opal.a(ulangl.o)
                              /home/pcl2483/pedro/jadesoft/util/mcgen/Plib/libjt74opal.a(luedit.o) (ulangl_)
/home/pcl2483/pedro/jadesoft/util/mcgen/Plib/libjt74opal.a(ulmass.o)
                              /home/pcl2483/pedro/jadesoft/util/mcgen/Plib/libjt74opal.a(luindf.o) (ulmass_)
/home/pcl2483/pedro/jadesoft/util/mcgen/Plib/libjt74opal.a(luboei.o)
                              /home/pcl2483/pedro/jadesoft/util/mcgen/Plib/libjt74opal.a(luexec.o) (luboei_)
/home/pcl2483/pedro/jadesoft/util/mcgen/Plib/libjt74opal.a(ludecy.o)
                              /home/pcl2483/pedro/jadesoft/util/mcgen/Plib/libjt74opal.a(luexec.o) (ludecy_)
/home/pcl2483/pedro/jadesoft/util/mcgen/Plib/libjt74opal.a(lutaud.o)
                              /home/pcl2483/pedro/jadesoft/util/mcgen/Plib/libjt74opal.a(ludecy.o) (lutaud_)
/home/pcl2483/pedro/jadesoft/util/mcgen/Plib/libjt74opal.a(taupol.o)
                              /home/pcl2483/pedro/jadesoft/util/mcgen/Plib/libjt74opal.a(lutaud.o) (taupol_)
/home/pcl2483/pedro/jadesoft/util/mcgen/Plib/libjt74opal.a(dexay.o)
                              /home/pcl2483/pedro/jadesoft/util/mcgen/Plib/libjt74opal.a(lutaud.o) (dexay_)
/home/pcl2483/pedro/jadesoft/util/mcgen/Plib/libjt74opal.a(dexay1.o)
                              /home/pcl2483/pedro/jadesoft/util/mcgen/Plib/libjt74opal.a(dexay.o) (dexay1_)
/home/pcl2483/pedro/jadesoft/util/mcgen/Plib/libjt74opal.a(dexel.o)
                              /home/pcl2483/pedro/jadesoft/util/mcgen/Plib/libjt74opal.a(dexay.o) (dexel_)
/home/pcl2483/pedro/jadesoft/util/mcgen/Plib/libjt74opal.a(dexkk.o)
                              /home/pcl2483/pedro/jadesoft/util/mcgen/Plib/libjt74opal.a(dexay.o) (dexkk_)
/home/pcl2483/pedro/jadesoft/util/mcgen/Plib/libjt74opal.a(dexks.o)
                              /home/pcl2483/pedro/jadesoft/util/mcgen/Plib/libjt74opal.a(dexay.o) (dexks_)
/home/pcl2483/pedro/jadesoft/util/mcgen/Plib/libjt74opal.a(dexmu.o)
                              /home/pcl2483/pedro/jadesoft/util/mcgen/Plib/libjt74opal.a(dexay.o) (dexmu_)
/home/pcl2483/pedro/jadesoft/util/mcgen/Plib/libjt74opal.a(dexnew.o)
                              /home/pcl2483/pedro/jadesoft/util/mcgen/Plib/libjt74opal.a(dexay.o) (dexnew_)
/home/pcl2483/pedro/jadesoft/util/mcgen/Plib/libjt74opal.a(dexpi.o)
                              /home/pcl2483/pedro/jadesoft/util/mcgen/Plib/libjt74opal.a(dexay.o) (dexpi_)
/home/pcl2483/pedro/jadesoft/util/mcgen/Plib/libjt74opal.a(dexro.o)
                              /home/pcl2483/pedro/jadesoft/util/mcgen/Plib/libjt74opal.a(dexay.o) (dexro_)
/home/pcl2483/pedro/jadesoft/util/mcgen/Plib/libjt74opal.a(dwlnew.o)
                              /home/pcl2483/pedro/jadesoft/util/mcgen/Plib/libjt74opal.a(dexay1.o) (dwlnew_)
/home/pcl2483/pedro/jadesoft/util/mcgen/Plib/libjt74opal.a(dwluaa.o)
                              /home/pcl2483/pedro/jadesoft/util/mcgen/Plib/libjt74opal.a(dexay1.o) (dwluaa_)
/home/pcl2483/pedro/jadesoft/util/mcgen/Plib/libjt74opal.a(dwluel.o)
                              /home/pcl2483/pedro/jadesoft/util/mcgen/Plib/libjt74opal.a(dexay1.o) (dwluel_)
/home/pcl2483/pedro/jadesoft/util/mcgen/Plib/libjt74opal.a(dwlukk.o)
                              /home/pcl2483/pedro/jadesoft/util/mcgen/Plib/libjt74opal.a(dexay1.o) (dwlukk_)
/home/pcl2483/pedro/jadesoft/util/mcgen/Plib/libjt74opal.a(dwluks.o)
                              /home/pcl2483/pedro/jadesoft/util/mcgen/Plib/libjt74opal.a(dexay1.o) (dwluks_)
/home/pcl2483/pedro/jadesoft/util/mcgen/Plib/libjt74opal.a(dwlumu.o)
                              /home/pcl2483/pedro/jadesoft/util/mcgen/Plib/libjt74opal.a(dexay1.o) (dwlumu_)
/home/pcl2483/pedro/jadesoft/util/mcgen/Plib/libjt74opal.a(dwlupi.o)
                              /home/pcl2483/pedro/jadesoft/util/mcgen/Plib/libjt74opal.a(dexay1.o) (dwlupi_)
/home/pcl2483/pedro/jadesoft/util/mcgen/Plib/libjt74opal.a(dwluro.o)
                              /home/pcl2483/pedro/jadesoft/util/mcgen/Plib/libjt74opal.a(dexay1.o) (dwluro_)
/home/pcl2483/pedro/jadesoft/util/mcgen/Plib/libjt74opal.a(dwrph.o)
                              /home/pcl2483/pedro/jadesoft/util/mcgen/Plib/libjt74opal.a(dexay1.o) (dwrph_)
/home/pcl2483/pedro/jadesoft/util/mcgen/Plib/libjt74opal.a(filhep.o)
                              /home/pcl2483/pedro/jadesoft/util/mcgen/Plib/libjt74opal.a(dwlnew.o) (filhep_)
/home/pcl2483/pedro/jadesoft/util/mcgen/Plib/libjt74opal.a(initdk.o)
                              /home/pcl2483/pedro/jadesoft/util/mcgen/Plib/libjt74opal.a(lutaud.o) (initdk_)
/home/pcl2483/pedro/jadesoft/util/mcgen/Plib/libjt74opal.a(jaker.o)
                              /home/pcl2483/pedro/jadesoft/util/mcgen/Plib/libjt74opal.a(dexay1.o) (jaker_)
/home/pcl2483/pedro/jadesoft/util/mcgen/Plib/libjt74opal.a(lunpik.o)
                              /home/pcl2483/pedro/jadesoft/util/mcgen/Plib/libjt74opal.a(dwlnew.o) (lunpik_)
/home/pcl2483/pedro/jadesoft/util/mcgen/Plib/libjt74opal.a(dadmel.o)
                              /home/pcl2483/pedro/jadesoft/util/mcgen/Plib/libjt74opal.a(dexel.o) (dadmel_)
/home/pcl2483/pedro/jadesoft/util/mcgen/Plib/libjt74opal.a(dadmkk.o)
                              /home/pcl2483/pedro/jadesoft/util/mcgen/Plib/libjt74opal.a(dexkk.o) (dadmkk_)
/home/pcl2483/pedro/jadesoft/util/mcgen/Plib/libjt74opal.a(dadmks.o)
                              /home/pcl2483/pedro/jadesoft/util/mcgen/Plib/libjt74opal.a(dexks.o) (dadmks_)
/home/pcl2483/pedro/jadesoft/util/mcgen/Plib/libjt74opal.a(dadmmu.o)
                              /home/pcl2483/pedro/jadesoft/util/mcgen/Plib/libjt74opal.a(dexmu.o) (dadmmu_)
/home/pcl2483/pedro/jadesoft/util/mcgen/Plib/libjt74opal.a(dadmpi.o)
                              /home/pcl2483/pedro/jadesoft/util/mcgen/Plib/libjt74opal.a(dexpi.o) (dadmpi_)
/home/pcl2483/pedro/jadesoft/util/mcgen/Plib/libjt74opal.a(dadmro.o)
                              /home/pcl2483/pedro/jadesoft/util/mcgen/Plib/libjt74opal.a(dexro.o) (dadmro_)
/home/pcl2483/pedro/jadesoft/util/mcgen/Plib/libjt74opal.a(dadnew.o)
                              /home/pcl2483/pedro/jadesoft/util/mcgen/Plib/libjt74opal.a(dexnew.o) (dadnew_)
/home/pcl2483/pedro/jadesoft/util/mcgen/Plib/libjt74opal.a(dexaa.o)
                              /home/pcl2483/pedro/jadesoft/util/mcgen/Plib/libjt74opal.a(dexay.o) (dexaa_)
/home/pcl2483/pedro/jadesoft/util/mcgen/Plib/libjt74opal.a(dph4pi.o)
                              /home/pcl2483/pedro/jadesoft/util/mcgen/Plib/libjt74opal.a(dadnew.o) (dph4pi_)
/home/pcl2483/pedro/jadesoft/util/mcgen/Plib/libjt74opal.a(dph5pi.o)
                              /home/pcl2483/pedro/jadesoft/util/mcgen/Plib/libjt74opal.a(dadnew.o) (dph5pi_)
/home/pcl2483/pedro/jadesoft/util/mcgen/Plib/libjt74opal.a(dphnpi.o)
                              /home/pcl2483/pedro/jadesoft/util/mcgen/Plib/libjt74opal.a(dadnew.o) (dphnpi_)
/home/pcl2483/pedro/jadesoft/util/mcgen/Plib/libjt74opal.a(dphsel.o)
                              /home/pcl2483/pedro/jadesoft/util/mcgen/Plib/libjt74opal.a(dadmel.o) (dphsel_)
/home/pcl2483/pedro/jadesoft/util/mcgen/Plib/libjt74opal.a(dphsks.o)
                              /home/pcl2483/pedro/jadesoft/util/mcgen/Plib/libjt74opal.a(dadmks.o) (dphsks_)
/home/pcl2483/pedro/jadesoft/util/mcgen/Plib/libjt74opal.a(dphsmu.o)
                              /home/pcl2483/pedro/jadesoft/util/mcgen/Plib/libjt74opal.a(dadmmu.o) (dphsmu_)
/home/pcl2483/pedro/jadesoft/util/mcgen/Plib/libjt74opal.a(dphspk.o)
                              /home/pcl2483/pedro/jadesoft/util/mcgen/Plib/libjt74opal.a(dadnew.o) (dphspk_)
/home/pcl2483/pedro/jadesoft/util/mcgen/Plib/libjt74opal.a(dphsrk.o)
                              /home/pcl2483/pedro/jadesoft/util/mcgen/Plib/libjt74opal.a(dadnew.o) (dphsrk_)
/home/pcl2483/pedro/jadesoft/util/mcgen/Plib/libjt74opal.a(dphsro.o)
                              /home/pcl2483/pedro/jadesoft/util/mcgen/Plib/libjt74opal.a(dadmro.o) (dphsro_)
/home/pcl2483/pedro/jadesoft/util/mcgen/Plib/libjt74opal.a(dphtre.o)
                              /home/pcl2483/pedro/jadesoft/util/mcgen/Plib/libjt74opal.a(dphspk.o) (dphtre_)
/home/pcl2483/pedro/jadesoft/util/mcgen/Plib/libjt74opal.a(drcmu.o)
                              /home/pcl2483/pedro/jadesoft/util/mcgen/Plib/libjt74opal.a(dphsel.o) (drcmu_)
/home/pcl2483/pedro/jadesoft/util/mcgen/Plib/libjt74opal.a(dwluph.o)
                              /home/pcl2483/pedro/jadesoft/util/mcgen/Plib/libjt74opal.a(dwrph.o) (dwluph_)
/home/pcl2483/pedro/jadesoft/util/mcgen/Plib/libjt74opal.a(fpirho.o)
                              /home/pcl2483/pedro/jadesoft/util/mcgen/Plib/libjt74opal.a(dphsro.o) (fpirho_)
/home/pcl2483/pedro/jadesoft/util/mcgen/Plib/libjt74opal.a(fpirk.o)
                              /home/pcl2483/pedro/jadesoft/util/mcgen/Plib/libjt74opal.a(dphsrk.o) (fpirk_)
/home/pcl2483/pedro/jadesoft/util/mcgen/Plib/libjt74opal.a(rotor2.o)
                              /home/pcl2483/pedro/jadesoft/util/mcgen/Plib/libjt74opal.a(dadmel.o) (rotor2_)
/home/pcl2483/pedro/jadesoft/util/mcgen/Plib/libjt74opal.a(rotor3.o)
                              /home/pcl2483/pedro/jadesoft/util/mcgen/Plib/libjt74opal.a(dadmel.o) (rotor3_)
/home/pcl2483/pedro/jadesoft/util/mcgen/Plib/libjt74opal.a(rotpol.o)
                              /home/pcl2483/pedro/jadesoft/util/mcgen/Plib/libjt74opal.a(dph4pi.o) (rotpol_)
/home/pcl2483/pedro/jadesoft/util/mcgen/Plib/libjt74opal.a(rotpox.o)
                              /home/pcl2483/pedro/jadesoft/util/mcgen/Plib/libjt74opal.a(drcmu.o) (rotpox_)
/home/pcl2483/pedro/jadesoft/util/mcgen/Plib/libjt74opal.a(sigee.o)
                              /home/pcl2483/pedro/jadesoft/util/mcgen/Plib/libjt74opal.a(dphnpi.o) (sigee_)
/home/pcl2483/pedro/jadesoft/util/mcgen/Plib/libjt74opal.a(sphera.o)
                              /home/pcl2483/pedro/jadesoft/util/mcgen/Plib/libjt74opal.a(dadmkk.o) (sphera_)
/home/pcl2483/pedro/jadesoft/util/mcgen/Plib/libjt74opal.a(spherd.o)
                              /home/pcl2483/pedro/jadesoft/util/mcgen/Plib/libjt74opal.a(drcmu.o) (spherd_)
/home/pcl2483/pedro/jadesoft/util/mcgen/Plib/libjt74opal.a(bostd3.o)
                              /home/pcl2483/pedro/jadesoft/util/mcgen/Plib/libjt74opal.a(drcmu.o) (bostd3_)
/home/pcl2483/pedro/jadesoft/util/mcgen/Plib/libjt74opal.a(bostr3.o)
                              /home/pcl2483/pedro/jadesoft/util/mcgen/Plib/libjt74opal.a(dph4pi.o) (bostr3_)
/home/pcl2483/pedro/jadesoft/util/mcgen/Plib/libjt74opal.a(bwigs.o)
                              /home/pcl2483/pedro/jadesoft/util/mcgen/Plib/libjt74opal.a(dphsks.o) (bwigs_)
/home/pcl2483/pedro/jadesoft/util/mcgen/Plib/libjt74opal.a(choice.o)
                              /home/pcl2483/pedro/jadesoft/util/mcgen/Plib/libjt74opal.a(dph4pi.o) (choice_)
/home/pcl2483/pedro/jadesoft/util/mcgen/Plib/libjt74opal.a(dadmaa.o)
                              /home/pcl2483/pedro/jadesoft/util/mcgen/Plib/libjt74opal.a(dexaa.o) (dadmaa_)
/home/pcl2483/pedro/jadesoft/util/mcgen/Plib/libjt74opal.a(dam4pi.o)
                              /home/pcl2483/pedro/jadesoft/util/mcgen/Plib/libjt74opal.a(dph4pi.o) (dam4pi_)
/home/pcl2483/pedro/jadesoft/util/mcgen/Plib/libjt74opal.a(dampog.o)
                              /home/pcl2483/pedro/jadesoft/util/mcgen/Plib/libjt74opal.a(dphtre.o) (dampog_)
/home/pcl2483/pedro/jadesoft/util/mcgen/Plib/libjt74opal.a(damppk.o)
                              /home/pcl2483/pedro/jadesoft/util/mcgen/Plib/libjt74opal.a(dphtre.o) (damppk_)
/home/pcl2483/pedro/jadesoft/util/mcgen/Plib/libjt74opal.a(dampry.o)
                              /home/pcl2483/pedro/jadesoft/util/mcgen/Plib/libjt74opal.a(drcmu.o) (dampry_)
/home/pcl2483/pedro/jadesoft/util/mcgen/Plib/libjt74opal.a(dcdmas.o)
                              /home/pcl2483/pedro/jadesoft/util/mcgen/Plib/libjt74opal.a(dph5pi.o) (dcdmas_)
/home/pcl2483/pedro/jadesoft/util/mcgen/Plib/libjt74opal.a(dphsaa.o)
                              /home/pcl2483/pedro/jadesoft/util/mcgen/Plib/libjt74opal.a(dadmaa.o) (dphsaa_)
/home/pcl2483/pedro/jadesoft/util/mcgen/Plib/libjt74opal.a(form1.o)
                              /home/pcl2483/pedro/jadesoft/util/mcgen/Plib/libjt74opal.a(damppk.o) (form1_)
/home/pcl2483/pedro/jadesoft/util/mcgen/Plib/libjt74opal.a(form2.o)
                              /home/pcl2483/pedro/jadesoft/util/mcgen/Plib/libjt74opal.a(damppk.o) (form2_)
/home/pcl2483/pedro/jadesoft/util/mcgen/Plib/libjt74opal.a(form3.o)
                              /home/pcl2483/pedro/jadesoft/util/mcgen/Plib/libjt74opal.a(damppk.o) (form3_)
/home/pcl2483/pedro/jadesoft/util/mcgen/Plib/libjt74opal.a(form4.o)
                              /home/pcl2483/pedro/jadesoft/util/mcgen/Plib/libjt74opal.a(damppk.o) (form4_)
/home/pcl2483/pedro/jadesoft/util/mcgen/Plib/libjt74opal.a(form5.o)
                              /home/pcl2483/pedro/jadesoft/util/mcgen/Plib/libjt74opal.a(damppk.o) (form5_)
/home/pcl2483/pedro/jadesoft/util/mcgen/Plib/libjt74opal.a(formom.o)
                              /home/pcl2483/pedro/jadesoft/util/mcgen/Plib/libjt74opal.a(dampog.o) (formom_)
/home/pcl2483/pedro/jadesoft/util/mcgen/Plib/libjt74opal.a(fpik.o)
                              /home/pcl2483/pedro/jadesoft/util/mcgen/Plib/libjt74opal.a(fpirho.o) (fpik_)
/home/pcl2483/pedro/jadesoft/util/mcgen/Plib/libjt74opal.a(fpikm.o)
                              /home/pcl2483/pedro/jadesoft/util/mcgen/Plib/libjt74opal.a(fpirk.o) (fpikm_)
/home/pcl2483/pedro/jadesoft/util/mcgen/Plib/libjt74opal.a(fpikmd.o)
                              /home/pcl2483/pedro/jadesoft/util/mcgen/Plib/libjt74opal.a(form5.o) (fpikmd_)
/home/pcl2483/pedro/jadesoft/util/mcgen/Plib/libjt74opal.a(gfun.o)
                              /home/pcl2483/pedro/jadesoft/util/mcgen/Plib/libjt74opal.a(form1.o) (gfun_)
/home/pcl2483/pedro/jadesoft/util/mcgen/Plib/libjt74opal.a(prod5.o)
                              /home/pcl2483/pedro/jadesoft/util/mcgen/Plib/libjt74opal.a(damppk.o) (prod5_)
/home/pcl2483/pedro/jadesoft/util/mcgen/Plib/libjt74opal.a(rotod2.o)
                              /home/pcl2483/pedro/jadesoft/util/mcgen/Plib/libjt74opal.a(rotpox.o) (rotod2_)
/home/pcl2483/pedro/jadesoft/util/mcgen/Plib/libjt74opal.a(rotod3.o)
                              /home/pcl2483/pedro/jadesoft/util/mcgen/Plib/libjt74opal.a(rotpox.o) (rotod3_)
/home/pcl2483/pedro/jadesoft/util/mcgen/Plib/libjt74opal.a(sqm2.o)
                              /home/pcl2483/pedro/jadesoft/util/mcgen/Plib/libjt74opal.a(dampry.o) (sqm2_)
/home/pcl2483/pedro/jadesoft/util/mcgen/Plib/libjt74opal.a(thb.o)
                              /home/pcl2483/pedro/jadesoft/util/mcgen/Plib/libjt74opal.a(dampry.o) (thb_)
/home/pcl2483/pedro/jadesoft/util/mcgen/Plib/libjt74opal.a(wigfor.o)
                              /home/pcl2483/pedro/jadesoft/util/mcgen/Plib/libjt74opal.a(form1.o) (wigfor_)
/home/pcl2483/pedro/jadesoft/util/mcgen/Plib/libjt74opal.a(bwig.o)
                              /home/pcl2483/pedro/jadesoft/util/mcgen/Plib/libjt74opal.a(fpik.o) (bwig_)
/home/pcl2483/pedro/jadesoft/util/mcgen/Plib/libjt74opal.a(bwigm.o)
                              /home/pcl2483/pedro/jadesoft/util/mcgen/Plib/libjt74opal.a(form1.o) (bwigm_)
/home/pcl2483/pedro/jadesoft/util/mcgen/Plib/libjt74opal.a(claxi.o)
                              /home/pcl2483/pedro/jadesoft/util/mcgen/Plib/libjt74opal.a(dam4pi.o) (claxi_)
/home/pcl2483/pedro/jadesoft/util/mcgen/Plib/libjt74opal.a(clnut.o)
                              /home/pcl2483/pedro/jadesoft/util/mcgen/Plib/libjt74opal.a(dam4pi.o) (clnut_)
/home/pcl2483/pedro/jadesoft/util/mcgen/Plib/libjt74opal.a(clvec.o)
                              /home/pcl2483/pedro/jadesoft/util/mcgen/Plib/libjt74opal.a(dam4pi.o) (clvec_)
/home/pcl2483/pedro/jadesoft/util/mcgen/Plib/libjt74opal.a(curr.o)
                              /home/pcl2483/pedro/jadesoft/util/mcgen/Plib/libjt74opal.a(dam4pi.o) (curr_)
/home/pcl2483/pedro/jadesoft/util/mcgen/Plib/libjt74opal.a(dilog.o)
                              /home/pcl2483/pedro/jadesoft/util/mcgen/Plib/libjt74opal.a(thb.o) (dilog_)
/home/pcl2483/pedro/jadesoft/util/mcgen/Plib/libckern105.a(ckern.o)
                              mchw59_105j.o (ckern_)
/home/pcl2483/pedro/jadesoft/util/mcgen/Plib/libckern105.a(cksord.o)
                              /home/pcl2483/pedro/jadesoft/util/mcgen/Plib/libckern105.a(ckern.o) (cksord_)
/home/pcl2483/pedro/jadesoft/util/mcgen/Plib/libckern105.a(cnjet.o)
                              mchw59_105j.o (cnjet_)
/home/pcl2483/pedro/jadesoft/util/mcgen/Plib/libpx114.a(pxang3.o)
                              /home/pcl2483/pedro/jadesoft/util/mcgen/Plib/libmc105j.a(pxeecb.o) (pxang3_)
/home/pcl2483/pedro/jadesoft/util/mcgen/Plib/libpx114.a(pxanxy.o)
                              /home/pcl2483/pedro/jadesoft/util/mcgen/Plib/libmc105j.a(evwrtj.o) (pxanxy_)
/home/pcl2483/pedro/jadesoft/util/mcgen/Plib/libpx114.a(pxcone.o)
                              mchw59_105j.o (pxcone_)
/home/pcl2483/pedro/jadesoft/util/mcgen/Plib/libpx114.a(pxcopv.o)
                              /home/pcl2483/pedro/jadesoft/util/mcgen/Plib/libmc105j.a(mcrnst.o) (pxcopv_)
/home/pcl2483/pedro/jadesoft/util/mcgen/Plib/libpx114.a(pxjpdg.o)
                              /home/pcl2483/pedro/jadesoft/util/mcgen/Plib/libmc105j.a(jtconv.o) (pxjpdg_)
/home/pcl2483/pedro/jadesoft/util/mcgen/Plib/libpx114.a(pxjsp3.o)
                              mchw59_105j.o (pxjsp3_)
/home/pcl2483/pedro/jadesoft/util/mcgen/Plib/libpx114.a(pxlsp3.o)
                              mchw59_105j.o (pxlsp3_)
/home/pcl2483/pedro/jadesoft/util/mcgen/Plib/libpx114.a(pxlth4.o)
                              mchw59_105j.o (pxlth4_)
/home/pcl2483/pedro/jadesoft/util/mcgen/Plib/libpx114.a(pxlut3.o)
                              /home/pcl2483/pedro/jadesoft/util/mcgen/Plib/libpx114.a(pxlth4.o) (pxlut3_)
/home/pcl2483/pedro/jadesoft/util/mcgen/Plib/libpx114.a(pxlzf5.o)
                              mchw59_105j.o (pxlzf5_)
/home/pcl2483/pedro/jadesoft/util/mcgen/Plib/libpx114.a(pxmmbb.o)
                              mchw59_105j.o (pxmmbb_)
/home/pcl2483/pedro/jadesoft/util/mcgen/Plib/libpx114.a(pxnorv.o)
                              /home/pcl2483/pedro/jadesoft/util/mcgen/Plib/libpx114.a(pxcone.o) (pxnorv_)
/home/pcl2483/pedro/jadesoft/util/mcgen/Plib/libpx114.a(pxolap.o)
                              /home/pcl2483/pedro/jadesoft/util/mcgen/Plib/libpx114.a(pxcone.o) (pxolap_)
/home/pcl2483/pedro/jadesoft/util/mcgen/Plib/libpx114.a(pxord.o)
                              /home/pcl2483/pedro/jadesoft/util/mcgen/Plib/libpx114.a(pxcone.o) (pxord_)
/home/pcl2483/pedro/jadesoft/util/mcgen/Plib/libpx114.a(pxplt3.o)
                              mchw59_105j.o (pxplt3_)
/home/pcl2483/pedro/jadesoft/util/mcgen/Plib/libpx114.a(pxplu3.o)
                              /home/pcl2483/pedro/jadesoft/util/mcgen/Plib/libpx114.a(pxlut3.o) (pxplu3_)
/home/pcl2483/pedro/jadesoft/util/mcgen/Plib/libpx114.a(pxprcv.o)
                              /home/pcl2483/pedro/jadesoft/util/mcgen/Plib/libmc105j.a(mcstbl.o) (pxprcv_)
/home/pcl2483/pedro/jadesoft/util/mcgen/Plib/libpx114.a(pxprrv.o)
                              /home/pcl2483/pedro/jadesoft/util/mcgen/Plib/libmc105j.a(mcwrit.o) (pxprrv_)
/home/pcl2483/pedro/jadesoft/util/mcgen/Plib/libpx114.a(pxrap4.o)
                              mchw59_105j.o (pxrap4_)
/home/pcl2483/pedro/jadesoft/util/mcgen/Plib/libpx114.a(pxrmx3.o)
                              /home/pcl2483/pedro/jadesoft/util/mcgen/Plib/libpx114.a(pxlut3.o) (pxrmx3_)
/home/pcl2483/pedro/jadesoft/util/mcgen/Plib/libpx114.a(pxrob3.o)
                              /home/pcl2483/pedro/jadesoft/util/mcgen/Plib/libpx114.a(pxlut3.o) (pxrob3_)
/home/pcl2483/pedro/jadesoft/util/mcgen/Plib/libpx114.a(pxrof3.o)
                              /home/pcl2483/pedro/jadesoft/util/mcgen/Plib/libpx114.a(pxlut3.o) (pxrof3_)
/home/pcl2483/pedro/jadesoft/util/mcgen/Plib/libpx114.a(pxsear.o)
                              /home/pcl2483/pedro/jadesoft/util/mcgen/Plib/libpx114.a(pxcone.o) (pxsear_)
/home/pcl2483/pedro/jadesoft/util/mcgen/Plib/libpx114.a(pxsorv.o)
                              /home/pcl2483/pedro/jadesoft/util/mcgen/Plib/libpx114.a(pxord.o) (pxsorv_)
/home/pcl2483/pedro/jadesoft/util/mcgen/Plib/libpx114.a(pxtry.o)
                              /home/pcl2483/pedro/jadesoft/util/mcgen/Plib/libpx114.a(pxsear.o) (pxtry_)
/home/pcl2483/pedro/jadesoft/util/mcgen/Plib/libpx114.a(pxuvec.o)
                              /home/pcl2483/pedro/jadesoft/util/mcgen/Plib/libpx114.a(pxcone.o) (pxuvec_)
/home/pcl2483/pedro/jadesoft/util/mcgen/Plib/libpx114.a(pxzerv.o)
                              /home/pcl2483/pedro/jadesoft/util/mcgen/Plib/libpx114.a(pxcone.o) (pxzerv_)
/home/pcl2483/pedro/jadesoft/util/mcgen/Plib/libpx114.a(ykern.o)
                              mchw59_105j.o (ykern_)
/home/pcl2483/pedro/jadesoft/util/mcgen/Plib/libpx114.a(ynjet.o)
                              mchw59_105j.o (ynjet_)
/home/pcl2483/pedro/jadesoft/util/mcgen/Plib/libpx114.a(yyjet.o)
                              mchw59_105j.o (yyjet_)
/home/pcl2483/pedro/jadesoft/util/mcgen/Plib/libpx114.a(pxaddv.o)
                              /home/pcl2483/pedro/jadesoft/util/mcgen/Plib/libpx114.a(pxcone.o) (pxaddv_)
/home/pcl2483/pedro/jadesoft/util/mcgen/Plib/libpx114.a(pxdiam.o)
                              /home/pcl2483/pedro/jadesoft/util/mcgen/Plib/libpx114.a(pxlsp3.o) (pxdiam_)
/home/pcl2483/pedro/jadesoft/util/mcgen/Plib/libpx114.a(pxmulm.o)
                              /home/pcl2483/pedro/jadesoft/util/mcgen/Plib/libpx114.a(pxdiam.o) (pxmulm_)
/home/pcl2483/pedro/jadesoft/util/mcgen/Plib/libpx114.a(pxnew.o)
                              /home/pcl2483/pedro/jadesoft/util/mcgen/Plib/libpx114.a(pxsear.o) (pxnew_)
/home/pcl2483/pedro/jadesoft/util/mcgen/Plib/libpx114.a(pxsame.o)
                              /home/pcl2483/pedro/jadesoft/util/mcgen/Plib/libpx114.a(pxsear.o) (pxsame_)
/home/pcl2483/pedro/jadesoft/util/mcgen/Plib/libpx114.a(pxunim.o)
                              /home/pcl2483/pedro/jadesoft/util/mcgen/Plib/libpx114.a(pxdiam.o) (pxunim_)
/cern/99/lib/libpacklib.a(ffgo.o)
                              /home/pcl2483/pedro/jadesoft/util/mcgen/Plib/libmc105j.a(mcinit.o) (ffgo_)
/cern/99/lib/libpacklib.a(ffinit.o)
                              /home/pcl2483/pedro/jadesoft/util/mcgen/Plib/libmc105j.a(mcinit.o) (ffinit_)
/cern/99/lib/libpacklib.a(ffkey.o)
                              mchw59_105j.o (ffkey_)
/cern/99/lib/libpacklib.a(ffset.o)
                              /home/pcl2483/pedro/jadesoft/util/mcgen/Plib/libmc105j.a(mcinit.o) (ffset_)
/cern/99/lib/libpacklib.a(ffskip.o)
                              /cern/99/lib/libpacklib.a(ffgo.o) (ffskip_)
/cern/99/lib/libpacklib.a(ffupca.o)
                              /cern/99/lib/libpacklib.a(ffgo.o) (ffupca_)
/cern/99/lib/libpacklib.a(ffuser.o)
                              /cern/99/lib/libpacklib.a(ffinit.o) (ffuser_)
/cern/99/lib/libpacklib.a(ffuset.o)
                              /cern/99/lib/libpacklib.a(ffinit.o) (ffuset_)
/cern/99/lib/libpacklib.a(hrput.o)
                              mchw59_105j.o (hrput_)
/cern/99/lib/libpacklib.a(hbook1.o)
                              mchw59_105j.o (hbook1_)
/cern/99/lib/libpacklib.a(hbook2.o)
                              mchw59_105j.o (hbook2_)
/cern/99/lib/libpacklib.a(hbookb.o)
                              mchw59_105j.o (hbookb_)
/cern/99/lib/libpacklib.a(hbtit.o)
                              /cern/99/lib/libpacklib.a(hbook1.o) (hbtit_)
/cern/99/lib/libpacklib.a(hbug.o)
                              /cern/99/lib/libpacklib.a(hbook1.o) (hbug_)
/cern/99/lib/libpacklib.a(hcdir.o)
                              mchw59_105j.o (hcdir_)
/cern/99/lib/libpacklib.a(hchnam.o)
                              /cern/99/lib/libpacklib.a(hcdir.o) (hchnam_)
/cern/99/lib/libpacklib.a(hdelet.o)
                              /cern/99/lib/libpacklib.a(hbook1.o) (hdelet_)
/cern/99/lib/libpacklib.a(hfill.o)
                              mchw59_105j.o (hfill_)
/cern/99/lib/libpacklib.a(hfilpf.o)
                              /cern/99/lib/libpacklib.a(hfill.o) (hfilpf_)
/cern/99/lib/libpacklib.a(hgive.o)
                              mchw59_105j.o (hgive_)
/cern/99/lib/libpacklib.a(hidopt.o)
                              mchw59_105j.o (hidopt_)
/cern/99/lib/libpacklib.a(hlimit.o)
                              mchw59_105j.o (hlimit_)
/cern/99/lib/libpacklib.a(hloop.o)
                              /cern/99/lib/libpacklib.a(hidopt.o) (hloop_)
/cern/99/lib/libpacklib.a(hmachi.o)
                              /cern/99/lib/libpacklib.a(hlimit.o) (hmachi_)
/cern/99/lib/libpacklib.a(hnoent.o)
                              mchw59_105j.o (hnoent_)
/cern/99/lib/libpacklib.a(hopera.o)
                              mchw59_105j.o (hopera_)
/cern/99/lib/libpacklib.a(hpaff.o)
                              /cern/99/lib/libpacklib.a(hcdir.o) (hpaff_)
/cern/99/lib/libpacklib.a(hpak.o)
                              mchw59_105j.o (hpak_)
/cern/99/lib/libpacklib.a(hpake.o)
                              mchw59_105j.o (hpake_)
/cern/99/lib/libpacklib.a(hpath.o)
                              /cern/99/lib/libpacklib.a(hcdir.o) (hpath_)
/cern/99/lib/libpacklib.a(hrebin.o)
                              mchw59_105j.o (hrebin_)
/cern/99/lib/libpacklib.a(hreset.o)
                              /cern/99/lib/libpacklib.a(hopera.o) (hreset_)
/cern/99/lib/libpacklib.a(hrez0.o)
                              /cern/99/lib/libpacklib.a(hreset.o) (hrez0_)
/cern/99/lib/libpacklib.a(hsifla.o)
                              /cern/99/lib/libpacklib.a(hidopt.o) (hsifla_)
/cern/99/lib/libpacklib.a(hspace.o)
                              /cern/99/lib/libpacklib.a(hbook1.o) (hspace_)
/cern/99/lib/libpacklib.a(hstaf.o)
                              mchw59_105j.o (hstaf_)
/cern/99/lib/libpacklib.a(hsupis.o)
                              /cern/99/lib/libpacklib.a(hreset.o) (hsupis_)
/cern/99/lib/libpacklib.a(huoptc.o)
                              /cern/99/lib/libpacklib.a(hrput.o) (huoptc_)
/cern/99/lib/libpacklib.a(hlogpf.o)
                              /cern/99/lib/libpacklib.a(hcdir.o) (hlogpf_)
/cern/99/lib/libpacklib.a(hoptpf.o)
                              /cern/99/lib/libpacklib.a(hstaf.o) (hoptpf_)
/cern/99/lib/libpacklib.a(hitoc.o)
                              /cern/99/lib/libpacklib.a(hchnam.o) (hitoc_)
/cern/99/lib/libpacklib.a(hnbufd.o)
                              /cern/99/lib/libpacklib.a(hdelet.o) (hnbufd_)
/cern/99/lib/libpacklib.a(hntmpd.o)
                              /cern/99/lib/libpacklib.a(hnbufd.o) (hntmpd_)
/cern/99/lib/libpacklib.a(hntrset.o)
                              /cern/99/lib/libpacklib.a(hreset.o) (hntrset_)
/cern/99/lib/libpacklib.a(fzin.o)
                              /cern/99/lib/libpacklib.a(hlogpf.o) (fzin_)
/cern/99/lib/libpacklib.a(fzirel.o)
                              /cern/99/lib/libpacklib.a(fzin.o) (fzirel_)
/cern/99/lib/libpacklib.a(fzloc.o)
                              /cern/99/lib/libpacklib.a(fzin.o) (fzloc_)
/cern/99/lib/libpacklib.a(mzbook.o)
                              /cern/99/lib/libpacklib.a(hbook1.o) (mzbook_)
/cern/99/lib/libpacklib.a(mzdrop.o)
                              /cern/99/lib/libpacklib.a(hdelet.o) (mzdrop_)
/cern/99/lib/libpacklib.a(mzebra.o)
                              /cern/99/lib/libpacklib.a(hlimit.o) (mzebra_)
/cern/99/lib/libpacklib.a(mzflag.o)
                              /cern/99/lib/libpacklib.a(mzdrop.o) (mzflag_)
/cern/99/lib/libpacklib.a(mzinco.o)
                              /cern/99/lib/libpacklib.a(mzebra.o) (mzinco_)
/cern/99/lib/libpacklib.a(mzlift.o)
                              /cern/99/lib/libpacklib.a(mzbook.o) (mzlift_)
/cern/99/lib/libpacklib.a(mzlink.o)
                              /cern/99/lib/libpacklib.a(hlimit.o) (mzlink_)
/cern/99/lib/libpacklib.a(mzneed.o)
                              /cern/99/lib/libpacklib.a(hspace.o) (mzneed_)
/cern/99/lib/libpacklib.a(mzpaw.o)
                              /cern/99/lib/libpacklib.a(hlimit.o) (mzpaw_)
/cern/99/lib/libpacklib.a(mzpush.o)
                              /cern/99/lib/libpacklib.a(hbook1.o) (mzpush_)
/cern/99/lib/libpacklib.a(mzstor.o)
                              /cern/99/lib/libpacklib.a(mzpaw.o) (mzstor_)
/cern/99/lib/libpacklib.a(mzvers.o)
                              /cern/99/lib/libpacklib.a(mzebra.o) (mzvers_)
/cern/99/lib/libpacklib.a(mzgar1.o)
                              /cern/99/lib/libpacklib.a(mzlift.o) (mzgar1_)
/cern/99/lib/libpacklib.a(mzgsta.o)
                              /cern/99/lib/libpacklib.a(mzgar1.o) (mzgsta_)
/cern/99/lib/libpacklib.a(mzmove.o)
                              /cern/99/lib/libpacklib.a(mzgar1.o) (mzmove_)
/cern/99/lib/libpacklib.a(mzrelb.o)
                              /cern/99/lib/libpacklib.a(fzirel.o) (mzrelb_)
/cern/99/lib/libpacklib.a(mzrell.o)
                              /cern/99/lib/libpacklib.a(fzirel.o) (mzrell_)
/cern/99/lib/libpacklib.a(mzrelx.o)
                              /cern/99/lib/libpacklib.a(mzpush.o) (mzrelx_)
/cern/99/lib/libpacklib.a(mztabf.o)
                              /cern/99/lib/libpacklib.a(mzgar1.o) (mztabf_)
/cern/99/lib/libpacklib.a(mztabm.o)
                              /cern/99/lib/libpacklib.a(mzpush.o) (mztabm_)
/cern/99/lib/libpacklib.a(mztabr.o)
                              /cern/99/lib/libpacklib.a(mzgar1.o) (mztabr_)
/cern/99/lib/libpacklib.a(mztabs.o)
                              /cern/99/lib/libpacklib.a(mzgar1.o) (mztabs_)
/cern/99/lib/libpacklib.a(mztabx.o)
                              /cern/99/lib/libpacklib.a(mzpush.o) (mztabx_)
/cern/99/lib/libpacklib.a(mzchln.o)
                              /cern/99/lib/libpacklib.a(mzrelb.o) (mzchln_)
/cern/99/lib/libpacklib.a(mzchls.o)
                              /cern/99/lib/libpacklib.a(mzdrop.o) (mzchls_)
/cern/99/lib/libpacklib.a(mzchnb.o)
                              /cern/99/lib/libpacklib.a(mzlift.o) (mzchnb_)
/cern/99/lib/libpacklib.a(mzfdiv.o)
                              /cern/99/lib/libpacklib.a(mzpush.o) (mzfdiv_)
/cern/99/lib/libpacklib.a(mzform.o)
                              /cern/99/lib/libpacklib.a(hlimit.o) (mzform_)
/cern/99/lib/libpacklib.a(mzioch.o)
                              /cern/99/lib/libpacklib.a(mzform.o) (mzioch_)
/cern/99/lib/libpacklib.a(mzresv.o)
                              /cern/99/lib/libpacklib.a(mzlift.o) (mzresv_)
/cern/99/lib/libpacklib.a(mzsdiv.o)
                              /cern/99/lib/libpacklib.a(fzin.o) (mzsdiv_)
/cern/99/lib/libpacklib.a(zvautx.o)
                              /cern/99/lib/libpacklib.a(fzin.o) (zvautx_)
/cern/99/lib/libpacklib.a(zfatal.o)
                              /cern/99/lib/libpacklib.a(fzin.o) (zfatal_)
/cern/99/lib/libpacklib.a(zfatam.o)
                              /cern/99/lib/libpacklib.a(mzebra.o) (zfatam_)
/cern/99/lib/libpacklib.a(ztell.o)
                              /cern/99/lib/libpacklib.a(mzgar1.o) (ztell_)
/cern/99/lib/libpacklib.a(ztelus.o)
                              /cern/99/lib/libpacklib.a(ztell.o) (ztelus_)
/cern/99/lib/libpacklib.a(izbcdt.o)
                              /cern/99/lib/libpacklib.a(mzioch.o) (izbcdt_)
/cern/99/lib/libpacklib.a(izhnum.o)
                              /cern/99/lib/libpacklib.a(mzinco.o) (izhnum_)
/cern/99/lib/libpacklib.a(zshunt.o)
                              /cern/99/lib/libpacklib.a(fzin.o) (zshunt_)
/cern/99/lib/libpacklib.a(rzcdir.o)
                              /cern/99/lib/libpacklib.a(hrput.o) (rzcdir_)
/cern/99/lib/libpacklib.a(rzdate.o)
                              /cern/99/lib/libpacklib.a(rzcdir.o) (rzdate_)
/cern/99/lib/libpacklib.a(rzfdir.o)
                              /cern/99/lib/libpacklib.a(rzcdir.o) (rzfdir_)
/cern/99/lib/libpacklib.a(rziodo.o)
                              /cern/99/lib/libpacklib.a(rzfdir.o) (rziodo_)
/cern/99/lib/libpacklib.a(rzpaff.o)
                              /cern/99/lib/libpacklib.a(rzcdir.o) (rzpaff_)
/cern/99/lib/libpacklib.a(rzpath.o)
                              /cern/99/lib/libpacklib.a(rzcdir.o) (rzpath_)
/cern/99/lib/libpacklib.a(rzrtop.o)
                              /cern/99/lib/libpacklib.a(rzcdir.o) (rzrtop_)
/cern/99/lib/libpacklib.a(rzsame.o)
                              /cern/99/lib/libpacklib.a(rzfdir.o) (rzsame_)
/cern/99/lib/libpacklib.a(rzsave.o)
                              /cern/99/lib/libpacklib.a(rzcdir.o) (rzsave_)
/cern/99/lib/libpacklib.a(rzstrir.o)
                              /cern/99/lib/libpacklib.a(rziodo.o) (rzstrir_)
/cern/99/lib/libpacklib.a(rzvcyc.o)
                              /cern/99/lib/libpacklib.a(rzfdir.o) (rzvcyc_)
/cern/99/lib/libpacklib.a(abend.o)
                              /cern/99/lib/libpacklib.a(zfatal.o) (abend_)
/cern/99/lib/libpacklib.a(datime.o)
                              /cern/99/lib/libpacklib.a(hmachi.o) (datime_)
/cern/99/lib/libpacklib.a(datimh.o)
                              /cern/99/lib/libpacklib.a(hmachi.o) (datimh_)
/cern/99/lib/libpacklib.a(jumpxn.o)
                              /cern/99/lib/libpacklib.a(ffuset.o) (jumpad_)
/cern/99/lib/libpacklib.a(locf.o)
                              /cern/99/lib/libpacklib.a(ffkey.o) (locf_)
/cern/99/lib/libpacklib.a(qnexte.o)
                              /cern/99/lib/libpacklib.a(ztell.o) (qnexte_)
/cern/99/lib/libpacklib.a(lenocc.o)
                              mchw59_105j.o (lenocc_)
/cern/99/lib/libpacklib.a(vxinvb.o)
                              /cern/99/lib/libpacklib.a(rziodo.o) (vxinvb_)
/cern/99/lib/libpacklib.a(cfclos.o)
                              /cern/99/lib/libpacklib.a(rzstrir.o) (cfclos_)
/cern/99/lib/libpacklib.a(cfget.o)
                              /cern/99/lib/libpacklib.a(rziodo.o) (cfget_)
/cern/99/lib/libpacklib.a(cfput.o)
                              /cern/99/lib/libpacklib.a(rziodo.o) (cfput_)
/cern/99/lib/libpacklib.a(cfseek.o)
                              /cern/99/lib/libpacklib.a(rziodo.o) (cfseek_)
/cern/99/lib/libpacklib.a(cfopen.o)
                              /cern/99/lib/libpacklib.a(rzstrir.o) (cfopen_)
/cern/99/lib/libpacklib.a(cleft.o)
                              /cern/99/lib/libpacklib.a(mzebra.o) (cleft_)
/cern/99/lib/libpacklib.a(cltou.o)
                              /cern/99/lib/libpacklib.a(hidopt.o) (cltou_)
/cern/99/lib/libpacklib.a(cutol.o)
                              /cern/99/lib/libpacklib.a(cfopen.o) (cutol_)
/cern/99/lib/libpacklib.a(floarg.o)
                              /cern/99/lib/libpacklib.a(hbook1.o) (floarg_)
/cern/99/lib/libpacklib.a(intarg.o)
                              /cern/99/lib/libpacklib.a(hbook1.o) (intarg_)
/cern/99/lib/libpacklib.a(kerngt.o)
                              /cern/99/lib/libpacklib.a(mzvers.o) (kerngt_)
/cern/99/lib/libpacklib.a(uoptc.o)
                              /cern/99/lib/libpacklib.a(huoptc.o) (uoptc_)
/cern/99/lib/libpacklib.a(utrans.o)
                              /cern/99/lib/libpacklib.a(mzioch.o) (utrans_)
/cern/99/lib/libpacklib.a(ishftr.o)
                              /cern/99/lib/libpacklib.a(fzloc.o) (ishftr_)
/cern/99/lib/libpacklib.a(qnext.o)
                              /cern/99/lib/libpacklib.a(qnexte.o) (qnext_)
/cern/99/lib/libpacklib.a(ucopy2c.o)
                              /cern/99/lib/libpacklib.a(ffgo.o) (ucopy2_)
/cern/99/lib/libpacklib.a(iucomp.o)
                              /cern/99/lib/libpacklib.a(ffkey.o) (iucomp_)
/cern/99/lib/libpacklib.a(noarg.o)
                              /cern/99/lib/libpacklib.a(hbook1.o) (noarg_)
/cern/99/lib/libpacklib.a(sbit0.o)
                              /cern/99/lib/libpacklib.a(hopera.o) (sbit0_)
/cern/99/lib/libpacklib.a(sbit1.o)
                              /cern/99/lib/libpacklib.a(hbook1.o) (sbit1_)
/cern/99/lib/libpacklib.a(ublow.o)
                              /cern/99/lib/libpacklib.a(hmachi.o) (ublow_)
/cern/99/lib/libpacklib.a(ubunch.o)
                              /cern/99/lib/libpacklib.a(utrans.o) (ubunch_)
/cern/99/lib/libpacklib.a(ucopy.o)
                              /home/pcl2483/pedro/jadesoft/util/mcgen/Plib/libmc105j.a(mcstbl.o) (ucopy_)
/cern/99/lib/libpacklib.a(uctoh.o)
                              /cern/99/lib/libpacklib.a(ffgo.o) (uctoh_)
/cern/99/lib/libpacklib.a(uctoh1.o)
                              /cern/99/lib/libpacklib.a(mzinco.o) (uctoh1_)
/cern/99/lib/libpacklib.a(uhtoc.o)
                              mchw59_105j.o (uhtoc_)
/cern/99/lib/libpacklib.a(vblank.o)
                              mchw59_105j.o (vblank_)
/cern/99/lib/libpacklib.a(vfill.o)
                              /cern/99/lib/libpacklib.a(ffinit.o) (vfill_)
/cern/99/lib/libpacklib.a(vzero.o)
                              mchw59_105j.o (vzero_)
/cern/99/lib/libpacklib.a(jbit.o)
                              /cern/99/lib/libpacklib.a(hdelet.o) (jbit_)
/cern/99/lib/libpacklib.a(jbyt.o)
                              /cern/99/lib/libpacklib.a(hidopt.o) (jbyt_)
/cern/99/lib/libpacklib.a(sbyt.o)
                              /cern/99/lib/libpacklib.a(hidopt.o) (sbyt_)
/cern/99/lib/libpacklib.a(locati.o)
                              /cern/99/lib/libpacklib.a(hbook1.o) (locati_)
/cern/99/lib/libpacklib.a(czgeta.o)
                              /cern/99/lib/libpacklib.a(hcdir.o) (czgeta_)
/cern/99/lib/libpacklib.a(czputa.o)
                              /cern/99/lib/libpacklib.a(hcdir.o) (czputa_)
/cern/99/lib/libpacklib.a(ffcard.o)
                              /cern/99/lib/libpacklib.a(ffgo.o) (ffcard_)
/cern/99/lib/libpacklib.a(fffind.o)
                              /cern/99/lib/libpacklib.a(ffgo.o) (fffind_)
/cern/99/lib/libpacklib.a(hqputf.o)
                              /cern/99/lib/libpacklib.a(hsupis.o) (hqputf_)
/cern/99/lib/libpacklib.a(hbpqry.o)
                              /cern/99/lib/libpacklib.a(hlogpf.o) (greppqry_)
/cern/99/lib/libpacklib.a(hrendc.o)
                              /cern/99/lib/libpacklib.a(hrput.o) (hrendc_)
/cern/99/lib/libpacklib.a(hropen.o)
                              /cern/99/lib/libpacklib.a(hrput.o) (hropen_)
/cern/99/lib/libpacklib.a(hrout.o)
                              /cern/99/lib/libpacklib.a(hrput.o) (hrout_)
/cern/99/lib/libpacklib.a(hrzcd.o)
                              /cern/99/lib/libpacklib.a(hcdir.o) (hrzcd_)
/cern/99/lib/libpacklib.a(hrzout.o)
                              /cern/99/lib/libpacklib.a(hrout.o) (hrzout_)
/cern/99/lib/libpacklib.a(hbar2.o)
                              /cern/99/lib/libpacklib.a(hopera.o) (hbar2_)
/cern/99/lib/libpacklib.a(hbarx.o)
                              /cern/99/lib/libpacklib.a(hopera.o) (hbarx_)
/cern/99/lib/libpacklib.a(hbary.o)
                              /cern/99/lib/libpacklib.a(hopera.o) (hbary_)
/cern/99/lib/libpacklib.a(hbin.o)
                              /cern/99/lib/libpacklib.a(hbook1.o) (hbin_)
/cern/99/lib/libpacklib.a(hcopy.o)
                              /cern/99/lib/libpacklib.a(hopera.o) (hcopy_)
/cern/99/lib/libpacklib.a(hcx.o)
                              /cern/99/lib/libpacklib.a(hbarx.o) (hcx_)
/cern/99/lib/libpacklib.a(hcxy.o)
                              /cern/99/lib/libpacklib.a(hopera.o) (hcxy_)
/cern/99/lib/libpacklib.a(hdcofl.o)
                              /cern/99/lib/libpacklib.a(hgive.o) (hdcofl_)
/cern/99/lib/libpacklib.a(hf1.o)
                              /cern/99/lib/libpacklib.a(hfill.o) (hf1_)
/cern/99/lib/libpacklib.a(hf1aut.o)
                              /cern/99/lib/libpacklib.a(hf1.o) (hf1aut_)
/cern/99/lib/libpacklib.a(hf2.o)
                              /cern/99/lib/libpacklib.a(hfill.o) (hf2_)
/cern/99/lib/libpacklib.a(hfcx.o)
                              /cern/99/lib/libpacklib.a(hpak.o) (hfcx_)
/cern/99/lib/libpacklib.a(hfcxy.o)
                              /cern/99/lib/libpacklib.a(hopera.o) (hfcxy_)
/cern/99/lib/libpacklib.a(hfidp.o)
                              /cern/99/lib/libpacklib.a(hfill.o) (hfidp_)
/cern/99/lib/libpacklib.a(hfind.o)
                              /cern/99/lib/libpacklib.a(hgive.o) (hfind_)
/cern/99/lib/libpacklib.a(hi.o)
                              /cern/99/lib/libpacklib.a(hrebin.o) (hi_)
/cern/99/lib/libpacklib.a(hie.o)
                              /cern/99/lib/libpacklib.a(hrebin.o) (hie_)
/cern/99/lib/libpacklib.a(hix.o)
                              /cern/99/lib/libpacklib.a(hrebin.o) (hix_)
/cern/99/lib/libpacklib.a(hlabeq.o)
                              /cern/99/lib/libpacklib.a(hopera.o) (hlabeq_)
/cern/99/lib/libpacklib.a(hmdir.o)
                              /cern/99/lib/libpacklib.a(hrout.o) (hmdir_)
/cern/99/lib/libpacklib.a(hoper1.o)
                              /cern/99/lib/libpacklib.a(hopera.o) (hoper1_)
/cern/99/lib/libpacklib.a(hoper1a.o)
                              /cern/99/lib/libpacklib.a(hopera.o) (hoper1a_)
/cern/99/lib/libpacklib.a(hnbfwr.o)
                              /cern/99/lib/libpacklib.a(hrout.o) (hnbfwr_)
/cern/99/lib/libpacklib.a(hnbuff.o)
                              /cern/99/lib/libpacklib.a(hnbfwr.o) (hnbuff_)
/cern/99/lib/libpacklib.a(hnmset.o)
                              /cern/99/lib/libpacklib.a(hntrset.o) (hnmset_)
/cern/99/lib/libpacklib.a(hntdel.o)
                              /cern/99/lib/libpacklib.a(hrendc.o) (hntdel_)
/cern/99/lib/libpacklib.a(hntmpf.o)
                              /cern/99/lib/libpacklib.a(hnbuff.o) (hntmpf_)
/cern/99/lib/libpacklib.a(fzidia.o)
                              /cern/99/lib/libpacklib.a(fzin.o) (fzidia_)
/cern/99/lib/libpacklib.a(fziffn.o)
                              /cern/99/lib/libpacklib.a(fzin.o) (fziffn_)
/cern/99/lib/libpacklib.a(fziffx.o)
                              /cern/99/lib/libpacklib.a(fzin.o) (fziffx_)
/cern/99/lib/libpacklib.a(fzilin.o)
                              /cern/99/lib/libpacklib.a(fzirel.o) (fzilin_)
/cern/99/lib/libpacklib.a(fzimtb.o)
                              /cern/99/lib/libpacklib.a(fzin.o) (fzimtb_)
/cern/99/lib/libpacklib.a(fzirec.o)
                              /cern/99/lib/libpacklib.a(fziffx.o) (fzirec_)
/cern/99/lib/libpacklib.a(fzitrn.o)
                              /cern/99/lib/libpacklib.a(fziffx.o) (fzitrn_)
/cern/99/lib/libpacklib.a(fzout.o)
                              /cern/99/lib/libpacklib.a(hrzout.o) (fzout_)
/cern/99/lib/libpacklib.a(fzitrx.o)
                              /cern/99/lib/libpacklib.a(fziffx.o) (fzitrx_)
/cern/99/lib/libpacklib.a(mzcopy.o)
                              /cern/99/lib/libpacklib.a(hcopy.o) (mzcopy_)
/cern/99/lib/libpacklib.a(mzpudx.o)
                              /cern/99/lib/libpacklib.a(mzpush.o) (mzpudx_)
/cern/99/lib/libpacklib.a(mzfgap.o)
                              /cern/99/lib/libpacklib.a(fzimtb.o) (mzfgap_)
/cern/99/lib/libpacklib.a(mzgarb.o)
                              /cern/99/lib/libpacklib.a(fzimtb.o) (mzgarb_)
/cern/99/lib/libpacklib.a(mztabc.o)
                              /cern/99/lib/libpacklib.a(mztabr.o) (mztabc_)
/cern/99/lib/libpacklib.a(mztabh.o)
                              /cern/99/lib/libpacklib.a(mztabc.o) (mztabh_)
/cern/99/lib/libpacklib.a(mzdvac.o)
                              /cern/99/lib/libpacklib.a(mzgarb.o) (mzdvac_)
/cern/99/lib/libpacklib.a(mziocf.o)
                              /cern/99/lib/libpacklib.a(mzioch.o) (mziocf_)
/cern/99/lib/libpacklib.a(mziocr.o)
                              /cern/99/lib/libpacklib.a(fziffx.o) (mziocr_)
/cern/99/lib/libpacklib.a(mzixco.o)
                              /cern/99/lib/libpacklib.a(fzimtb.o) (mzixco_)
/cern/99/lib/libpacklib.a(zabend.o)
                              /cern/99/lib/libpacklib.a(zfatal.o) (zabend_)
/cern/99/lib/libpacklib.a(zend.o)
                              /cern/99/lib/libpacklib.a(ztell.o) (zend_)
/cern/99/lib/libpacklib.a(zphase.o)
                              /cern/99/lib/libpacklib.a(zend.o) (zphase_)
/cern/99/lib/libpacklib.a(zpostm.o)
                              /cern/99/lib/libpacklib.a(zabend.o) (zpostm_)
/cern/99/lib/libpacklib.a(zhtoi.o)
                              /cern/99/lib/libpacklib.a(rzfdir.o) (zhtoi_)
/cern/99/lib/libpacklib.a(rzclos.o)
                              /cern/99/lib/libpacklib.a(hrendc.o) (rzclos_)
/cern/99/lib/libpacklib.a(rzend.o)
                              /cern/99/lib/libpacklib.a(hropen.o) (rzend_)
/cern/99/lib/libpacklib.a(rzfree.o)
                              /cern/99/lib/libpacklib.a(rzend.o) (rzfree_)
/cern/99/lib/libpacklib.a(rzmdir.o)
                              /cern/99/lib/libpacklib.a(hmdir.o) (rzmdir_)
/cern/99/lib/libpacklib.a(rzmods.o)
                              /cern/99/lib/libpacklib.a(rzmdir.o) (rzmods_)
/cern/99/lib/libpacklib.a(rzopen.o)
                              /cern/99/lib/libpacklib.a(hropen.o) (rzopen_)
/cern/99/lib/libpacklib.a(rzout.o)
                              /cern/99/lib/libpacklib.a(hrzout.o) (rzout_)
/cern/99/lib/libpacklib.a(rzstrip.o)
                              /cern/99/lib/libpacklib.a(rzstrir.o) (rzstrip_)
/cern/99/lib/libpacklib.a(rzused.o)
                              /cern/99/lib/libpacklib.a(rzmdir.o) (rzused_)
/cern/99/lib/libpacklib.a(close.o)
                              /cern/99/lib/libpacklib.a(cfclos.o) (rfio_close)
/cern/99/lib/libpacklib.a(error.o)
                              /cern/99/lib/libpacklib.a(cfget.o) (rfio_errno)
/cern/99/lib/libpacklib.a(lseek.o)
                              /cern/99/lib/libpacklib.a(cfseek.o) (rfio_lseek)
/cern/99/lib/libpacklib.a(open.o)
                              /cern/99/lib/libpacklib.a(close.o) (rfio_cleanup)
/cern/99/lib/libpacklib.a(parse.o)
                              /cern/99/lib/libpacklib.a(open.o) (rfio_parse)
/cern/99/lib/libpacklib.a(read.o)
                              /cern/99/lib/libpacklib.a(cfget.o) (rfio_read)
/cern/99/lib/libpacklib.a(serror.o)
                              /cern/99/lib/libpacklib.a(error.o) (sstrerror)
/cern/99/lib/libpacklib.a(setopt.o)
                              /cern/99/lib/libpacklib.a(open.o) (rfiosetopt)
/cern/99/lib/libpacklib.a(socket.o)
                              /cern/99/lib/libpacklib.a(close.o) (recvfunc)
/cern/99/lib/libpacklib.a(stream.o)
                              /cern/99/lib/libpacklib.a(open.o) (rfio_open_v3)
/cern/99/lib/libpacklib.a(trace.o)
                              /cern/99/lib/libpacklib.a(close.o) (print_trace)
/cern/99/lib/libpacklib.a(write.o)
                              /cern/99/lib/libpacklib.a(cfput.o) (rfio_write)
/cern/99/lib/libpacklib.a(cfopei.o)
                              /cern/99/lib/libpacklib.a(cfopen.o) (cfopei_)
/cern/99/lib/libpacklib.a(cfstat.o)
                              /cern/99/lib/libpacklib.a(rzopen.o) (cfstat_)
/cern/99/lib/libpacklib.a(fchtak.o)
                              /cern/99/lib/libpacklib.a(cfopei.o) (fchtak)
/cern/99/lib/libpacklib.a(gshowf.o)
                              /cern/99/lib/libpacklib.a(kerngt.o) (gshowf_)
/cern/99/lib/libpacklib.a(icluns.o)
                              /cern/99/lib/libpacklib.a(rzmdir.o) (icluns_)
/cern/99/lib/libpacklib.a(traceq.o)
                              /cern/99/lib/libpacklib.a(zpostm.o) (traceq_)
/cern/99/lib/libpacklib.a(xinbf.o)
                              /cern/99/lib/libpacklib.a(fziffn.o) (xinbf_)
/cern/99/lib/libpacklib.a(xinbs.o)
                              /cern/99/lib/libpacklib.a(fziffn.o) (xinbs_)
/cern/99/lib/libpacklib.a(halloc.o)
                              /cern/99/lib/libpacklib.a(hrendc.o) (hbfree_)
/cern/99/lib/libpacklib.a(hrfile.o)
                              /cern/99/lib/libpacklib.a(hropen.o) (hrfile_)
/cern/99/lib/libpacklib.a(hfc1.o)
                              /cern/99/lib/libpacklib.a(hoper1a.o) (hfc1_)
/cern/99/lib/libpacklib.a(hlccmp.o)
                              /cern/99/lib/libpacklib.a(hfc1.o) (hlccmp_)
/cern/99/lib/libpacklib.a(hlgnxt.o)
                              /cern/99/lib/libpacklib.a(hoper1a.o) (hlgnxt_)
/cern/99/lib/libpacklib.a(hlhcmp.o)
                              /cern/99/lib/libpacklib.a(hlccmp.o) (hlhcmp_)
/cern/99/lib/libpacklib.a(hlpos.o)
                              /cern/99/lib/libpacklib.a(hoper1a.o) (hlpos_)
/cern/99/lib/libpacklib.a(dzsnap.o)
                              /cern/99/lib/libpacklib.a(zpostm.o) (dzsnap_)
/cern/99/lib/libpacklib.a(dztext.o)
                              /cern/99/lib/libpacklib.a(dzsnap.o) (dztext_)
/cern/99/lib/libpacklib.a(zpage.o)
                              /cern/99/lib/libpacklib.a(dztext.o) (zpage_)
/cern/99/lib/libpacklib.a(fzipha.o)
                              /cern/99/lib/libpacklib.a(fzirec.o) (fzipha_)
/cern/99/lib/libpacklib.a(fziphd.o)
                              /cern/99/lib/libpacklib.a(fzirec.o) (fziphd_)
/cern/99/lib/libpacklib.a(fziphm.o)
                              /cern/99/lib/libpacklib.a(fzirec.o) (fziphm_)
/cern/99/lib/libpacklib.a(fziphr.o)
                              /cern/99/lib/libpacklib.a(fzirec.o) (fziphr_)
/cern/99/lib/libpacklib.a(fziprl.o)
                              /cern/99/lib/libpacklib.a(fziphm.o) (fziprl_)
/cern/99/lib/libpacklib.a(fzoffn.o)
                              /cern/99/lib/libpacklib.a(fzout.o) (fzoffn_)
/cern/99/lib/libpacklib.a(fzoffx.o)
                              /cern/99/lib/libpacklib.a(fzout.o) (fzoffx_)
/cern/99/lib/libpacklib.a(fzon1.o)
                              /cern/99/lib/libpacklib.a(fzoffn.o) (fzon1_)
/cern/99/lib/libpacklib.a(fzon2.o)
                              /cern/99/lib/libpacklib.a(fzoffn.o) (fzon2_)
/cern/99/lib/libpacklib.a(fzon3.o)
                              /cern/99/lib/libpacklib.a(fzoffn.o) (fzon3_)
/cern/99/lib/libpacklib.a(fzon4.o)
                              /cern/99/lib/libpacklib.a(fzoffn.o) (fzon4_)
/cern/99/lib/libpacklib.a(fzon5.o)
                              /cern/99/lib/libpacklib.a(fzoffn.o) (fzon5_)
/cern/99/lib/libpacklib.a(fzon6.o)
                              /cern/99/lib/libpacklib.a(fzoffn.o) (fzon6_)
/cern/99/lib/libpacklib.a(fzorec.o)
                              /cern/99/lib/libpacklib.a(fzoffx.o) (fzorec_)
/cern/99/lib/libpacklib.a(fzotab.o)
                              /cern/99/lib/libpacklib.a(fzout.o) (fzotab_)
/cern/99/lib/libpacklib.a(fzotrn.o)
                              /cern/99/lib/libpacklib.a(fzoffx.o) (fzotrn_)
/cern/99/lib/libpacklib.a(fzotxt.o)
                              /cern/99/lib/libpacklib.a(fzout.o) (fzotxt_)
/cern/99/lib/libpacklib.a(fzicv.o)
                              /cern/99/lib/libpacklib.a(fzitrx.o) (fzicv_)
/cern/99/lib/libpacklib.a(fzotrx.o)
                              /cern/99/lib/libpacklib.a(fzoffx.o) (fzotrx_)
/cern/99/lib/libpacklib.a(mzend.o)
                              /cern/99/lib/libpacklib.a(zend.o) (mzend_)
/cern/99/lib/libpacklib.a(mzmaps.o)
                              /cern/99/lib/libpacklib.a(zpostm.o) (mzmaps_)
/cern/99/lib/libpacklib.a(mzmark.o)
                              /cern/99/lib/libpacklib.a(fzotab.o) (mzmark_)
/cern/99/lib/libpacklib.a(mzwork.o)
                              /cern/99/lib/libpacklib.a(zphase.o) (mzwork_)
/cern/99/lib/libpacklib.a(zitoh.o)
                              /cern/99/lib/libpacklib.a(rzclos.o) (zitoh_)
/cern/99/lib/libpacklib.a(rzallo.o)
                              /cern/99/lib/libpacklib.a(rzmdir.o) (rzallo_)
/cern/99/lib/libpacklib.a(rzdelk.o)
                              /cern/99/lib/libpacklib.a(rzout.o) (rzdelk_)
/cern/99/lib/libpacklib.a(rzexpd.o)
                              /cern/99/lib/libpacklib.a(rzmdir.o) (rzexpd_)
/cern/99/lib/libpacklib.a(rzfile.o)
                              /cern/99/lib/libpacklib.a(hrfile.o) (rzfile_)
/cern/99/lib/libpacklib.a(rzllok.o)
                              /cern/99/lib/libpacklib.a(rzfile.o) (rzllok_)
/cern/99/lib/libpacklib.a(rzlock.o)
                              /cern/99/lib/libpacklib.a(rzfile.o) (rzlock_)
/cern/99/lib/libpacklib.a(rzmake.o)
                              /cern/99/lib/libpacklib.a(hrfile.o) (rzmake_)
/cern/99/lib/libpacklib.a(rzobkn.o)
                              /cern/99/lib/libpacklib.a(rzout.o) (rzobkn_)
/cern/99/lib/libpacklib.a(rzpurf.o)
                              /cern/99/lib/libpacklib.a(rzdelk.o) (rzpurf_)
/cern/99/lib/libpacklib.a(rzveri.o)
                              /cern/99/lib/libpacklib.a(rzfile.o) (rzveri_)
/cern/99/lib/libpacklib.a(rzwrt.o)
                              /cern/99/lib/libpacklib.a(rzobkn.o) (rzwrt_)
/cern/99/lib/libpacklib.a(connect.o)
                              /cern/99/lib/libpacklib.a(error.o) (rfio_connect)
/cern/99/lib/libpacklib.a(getacct.o)
                              /cern/99/lib/libpacklib.a(open.o) (getacct)
/cern/99/lib/libpacklib.a(getacctent.o)
                              /cern/99/lib/libpacklib.a(getacct.o) (getacctent)
/cern/99/lib/libpacklib.a(getconfent.o)
                              /cern/99/lib/libpacklib.a(open.o) (getconfent)
/cern/99/lib/libpacklib.a(getifnam.o)
                              /cern/99/lib/libpacklib.a(read.o) (getifnam)
/cern/99/lib/libpacklib.a(log.o)
                              /cern/99/lib/libpacklib.a(socket.o) (logfunc)
/cern/99/lib/libpacklib.a(remote.o)
                              /cern/99/lib/libpacklib.a(stream.o) (isremote)
/cern/99/lib/libpacklib.a(setnetio.o)
                              /cern/99/lib/libpacklib.a(stream.o) (setnetio)
/cern/99/lib/libpacklib.a(vxinvc.o)
                              /cern/99/lib/libpacklib.a(fziphm.o) (vxinvc_)
/cern/99/lib/libpacklib.a(cfstati.o)
                              /cern/99/lib/libpacklib.a(cfstat.o) (cfstati_)
/cern/99/lib/libpacklib.a(dzare1.o)
                              /cern/99/lib/libpacklib.a(dzsnap.o) (dzare1_)
/cern/99/lib/libpacklib.a(dzbkup.o)
                              /cern/99/lib/libpacklib.a(dzsnap.o) (dzbkup_)
/cern/99/lib/libpacklib.a(dzbkxr.o)
                              /cern/99/lib/libpacklib.a(dzsnap.o) (dzbkxr_)
/cern/99/lib/libpacklib.a(dzdata.o)
                              /cern/99/lib/libpacklib.a(dzsnap.o) (dzdata_)
/cern/99/lib/libpacklib.a(dzmap.o)
                              /cern/99/lib/libpacklib.a(dzsnap.o) (dzmap_)
/cern/99/lib/libpacklib.a(dzopt.o)
                              /cern/99/lib/libpacklib.a(dzsnap.o) (dzopt_)
/cern/99/lib/libpacklib.a(dzshpr.o)
                              /cern/99/lib/libpacklib.a(dzmap.o) (dzshpr_)
/cern/99/lib/libpacklib.a(dztyp.o)
                              /cern/99/lib/libpacklib.a(dzdata.o) (dztyp_)
/cern/99/lib/libpacklib.a(fziasc.o)
                              /cern/99/lib/libpacklib.a(fzipha.o) (fziasc_)
/cern/99/lib/libpacklib.a(fzichh.o)
                              /cern/99/lib/libpacklib.a(fzipha.o) (fzichh_)
/cern/99/lib/libpacklib.a(fzidum.o)
                              /cern/99/lib/libpacklib.a(fzipha.o) (fzidum_)
/cern/99/lib/libpacklib.a(fzophr.o)
                              /cern/99/lib/libpacklib.a(fzorec.o) (fzophr_)
/cern/99/lib/libpacklib.a(fzocv.o)
                              /cern/99/lib/libpacklib.a(fzotrx.o) (fzocv_)
/cern/99/lib/libpacklib.a(izbcd.o)
                              /cern/99/lib/libpacklib.a(dztyp.o) (izbcd_)
/cern/99/lib/libpacklib.a(rzdlok.o)
                              /cern/99/lib/libpacklib.a(rzfile.o) (rzdlok_)
/cern/99/lib/libpacklib.a(rzver1.o)
                              /cern/99/lib/libpacklib.a(rzveri.o) (rzver1_)
/cern/99/lib/libpacklib.a(rzver2.o)
                              /cern/99/lib/libpacklib.a(rzver1.o) (rzver2_)
/cern/99/lib/libpacklib.a(stat.o)
                              /cern/99/lib/libpacklib.a(cfstati.o) (rfio_stat)
/cern/99/lib/libpacklib.a(cfweof.o)
                              /cern/99/lib/libpacklib.a(fzophr.o) (cfweof_)
/cern/99/lib/libpacklib.a(iumode.o)
                              /cern/99/lib/libpacklib.a(dztyp.o) (iumode_)
/cern/99/lib/libpacklib.a(iufind.o)
                              /cern/99/lib/libpacklib.a(rzver1.o) (iufind_)
/cern/99/lib/libpacklib.a(iusame.o)
                              /cern/99/lib/libpacklib.a(dzdata.o) (iusame_)
/cern/99/lib/libpacklib.a(jrsbyt.o)
                              /cern/99/lib/libpacklib.a(dzmap.o) (jrsbyt_)
/cern/99/lib/libpacklib.a(ucopiv.o)
                              /cern/99/lib/libpacklib.a(dzshpr.o) (ucopiv_)
/cern/99/lib/libpacklib.a(dzbkdv.o)
                              /cern/99/lib/libpacklib.a(dzbkup.o) (dzbkdv_)
/cern/99/lib/libpacklib.a(dzbkhd.o)
                              /cern/99/lib/libpacklib.a(dzmap.o) (dzbkhd_)
/cern/99/lib/libpacklib.a(dziopr.o)
                              /cern/99/lib/libpacklib.a(dzshpr.o) (dziopr_)
/cern/99/lib/libpacklib.a(fzialn.o)
                              /cern/99/lib/libpacklib.a(fziasc.o) (fzialn_)
/cern/99/lib/libpacklib.a(fzoasc.o)
                              /cern/99/lib/libpacklib.a(fzophr.o) (fzoasc_)
/cern/99/lib/libpacklib.a(izchav.o)
                              /cern/99/lib/libpacklib.a(fzialn.o) (izchav_)
/cern/99/lib/libpacklib.a(rzprnk.o)
                              /cern/99/lib/libpacklib.a(rzver1.o) (rzprnk_)
/cern/99/lib/libpacklib.a(mstat.o)
                              /cern/99/lib/libpacklib.a(stat.o) (rfio_smstat)
/cern/99/lib/libpacklib.a(dziopd.o)
                              /cern/99/lib/libpacklib.a(dziopr.o) (dziopd_)
/cern/99/lib/libpacklib.a(dzioph.o)
                              /cern/99/lib/libpacklib.a(dziopr.o) (dzioph_)
/cern/99/lib/libpacklib.a(fzoaln.o)
                              /cern/99/lib/libpacklib.a(fzoasc.o) (fzoaln_)
/cern/99/lib/libpacklib.a(fzoapk.o)
                              /cern/99/lib/libpacklib.a(fzoasc.o) (fzoapk_)
/cern/99/lib/libpacklib.a(uh1toc.o)
                              /cern/99/lib/libpacklib.a(fzoaln.o) (uh1toc_)
/cern/99/lib/libmathlib.a(dsyev.o)
                              /home/pcl2483/pedro/jadesoft/util/mcgen/Plib/libpx114.a(pxjsp3.o) (dsyev_)
/cern/99/lib/libmathlib.a(dsytrd.o)
                              /cern/99/lib/libmathlib.a(dsyev.o) (dsytrd_)
/cern/99/lib/libmathlib.a(ilaenv.o)
                              /cern/99/lib/libmathlib.a(dsytrd.o) (ilaenv_)
/cern/99/lib/libmathlib.a(lsame.o)
                              /cern/99/lib/libmathlib.a(dsyev.o) (lsame_)
/cern/99/lib/libmathlib.a(xerbla.o)
                              /cern/99/lib/libmathlib.a(dsyev.o) (xerbla_)
/cern/99/lib/libmathlib.a(dscal.o)
                              /cern/99/lib/libmathlib.a(dsyev.o) (dscal_)
/cern/99/lib/libmathlib.a(dsyr2k.o)
                              /cern/99/lib/libmathlib.a(dsytrd.o) (dsyr2k_)
/cern/99/lib/libmathlib.a(dlamch.o)
                              /cern/99/lib/libmathlib.a(dsyev.o) (dlamch_)
/cern/99/lib/libmathlib.a(dlansy.o)
                              /cern/99/lib/libmathlib.a(dsyev.o) (dlansy_)
/cern/99/lib/libmathlib.a(dlascl.o)
                              /cern/99/lib/libmathlib.a(dsyev.o) (dlascl_)
/cern/99/lib/libmathlib.a(dlassq.o)
                              /cern/99/lib/libmathlib.a(dlansy.o) (dlassq_)
/cern/99/lib/libmathlib.a(dlatrd.o)
                              /cern/99/lib/libmathlib.a(dsytrd.o) (dlatrd_)
/cern/99/lib/libmathlib.a(dorgtr.o)
                              /cern/99/lib/libmathlib.a(dsyev.o) (dorgtr_)
/cern/99/lib/libmathlib.a(dsteqr.o)
                              /cern/99/lib/libmathlib.a(dsyev.o) (dsteqr_)
/cern/99/lib/libmathlib.a(dsterf.o)
                              /cern/99/lib/libmathlib.a(dsyev.o) (dsterf_)
/cern/99/lib/libmathlib.a(dsytd2.o)
                              /cern/99/lib/libmathlib.a(dsytrd.o) (dsytd2_)
/cern/99/lib/libmathlib.a(daxpy.o)
                              /cern/99/lib/libmathlib.a(dlatrd.o) (daxpy_)
/cern/99/lib/libmathlib.a(ddot.o)
                              /cern/99/lib/libmathlib.a(dlatrd.o) (ddot_)
/cern/99/lib/libmathlib.a(dgemv.o)
                              /cern/99/lib/libmathlib.a(dlatrd.o) (dgemv_)
/cern/99/lib/libmathlib.a(dswap.o)
                              /cern/99/lib/libmathlib.a(dsteqr.o) (dswap_)
/cern/99/lib/libmathlib.a(dsymv.o)
                              /cern/99/lib/libmathlib.a(dlatrd.o) (dsymv_)
/cern/99/lib/libmathlib.a(dsyr2.o)
                              /cern/99/lib/libmathlib.a(dsytd2.o) (dsyr2_)
/cern/99/lib/libmathlib.a(dlae2.o)
                              /cern/99/lib/libmathlib.a(dsteqr.o) (dlae2_)
/cern/99/lib/libmathlib.a(dlaev2.o)
                              /cern/99/lib/libmathlib.a(dsteqr.o) (dlaev2_)
/cern/99/lib/libmathlib.a(dlanst.o)
                              /cern/99/lib/libmathlib.a(dsteqr.o) (dlanst_)
/cern/99/lib/libmathlib.a(dlapy2.o)
                              /cern/99/lib/libmathlib.a(dsteqr.o) (dlapy2_)
/cern/99/lib/libmathlib.a(dlarfg.o)
                              /cern/99/lib/libmathlib.a(dlatrd.o) (dlarfg_)
/cern/99/lib/libmathlib.a(dlartg.o)
                              /cern/99/lib/libmathlib.a(dsteqr.o) (dlartg_)
/cern/99/lib/libmathlib.a(dlaset.o)
                              /cern/99/lib/libmathlib.a(dsteqr.o) (dlaset_)
/cern/99/lib/libmathlib.a(dlasr.o)
                              /cern/99/lib/libmathlib.a(dsteqr.o) (dlasr_)
/cern/99/lib/libmathlib.a(dlasrt.o)
                              /cern/99/lib/libmathlib.a(dsteqr.o) (dlasrt_)
/cern/99/lib/libmathlib.a(dorgql.o)
                              /cern/99/lib/libmathlib.a(dorgtr.o) (dorgql_)
/cern/99/lib/libmathlib.a(dorgqr.o)
                              /cern/99/lib/libmathlib.a(dorgtr.o) (dorgqr_)
/cern/99/lib/libmathlib.a(dnrm2.o)
                              /cern/99/lib/libmathlib.a(dlarfg.o) (dnrm2_)
/cern/99/lib/libmathlib.a(dlarfb.o)
                              /cern/99/lib/libmathlib.a(dorgql.o) (dlarfb_)
/cern/99/lib/libmathlib.a(dlarft.o)
                              /cern/99/lib/libmathlib.a(dorgql.o) (dlarft_)
/cern/99/lib/libmathlib.a(dorg2l.o)
                              /cern/99/lib/libmathlib.a(dorgql.o) (dorg2l_)
/cern/99/lib/libmathlib.a(dorg2r.o)
                              /cern/99/lib/libmathlib.a(dorgqr.o) (dorg2r_)
/cern/99/lib/libmathlib.a(dcopy.o)
                              /cern/99/lib/libmathlib.a(dlarfb.o) (dcopy_)
/cern/99/lib/libmathlib.a(dgemm.o)
                              /cern/99/lib/libmathlib.a(dlarfb.o) (dgemm_)
/cern/99/lib/libmathlib.a(dtrmm.o)
                              /cern/99/lib/libmathlib.a(dlarfb.o) (dtrmm_)
/cern/99/lib/libmathlib.a(dtrmv.o)
                              /cern/99/lib/libmathlib.a(dlarft.o) (dtrmv_)
/cern/99/lib/libmathlib.a(dlarf.o)
                              /cern/99/lib/libmathlib.a(dorg2l.o) (dlarf_)
/cern/99/lib/libmathlib.a(dger.o)
                              /cern/99/lib/libmathlib.a(dlarf.o) (dger_)
/usr/lib/libc_nonshared.a(atexit.oS)
                              /lib/libnsl.so.1 (atexit)
/usr/lib/gcc-lib/i686-pc-linux-gnu/2.95.3/libg2c.a(close.o)
                              mchw59_105j.o (f_clos)
/usr/lib/gcc-lib/i686-pc-linux-gnu/2.95.3/libg2c.a(dolio.o)
                              mchw59_105j.o (do_lio)
/usr/lib/gcc-lib/i686-pc-linux-gnu/2.95.3/libg2c.a(due.o)
                              /cern/99/lib/libpacklib.a(rziodo.o) (s_rdue)
/usr/lib/gcc-lib/i686-pc-linux-gnu/2.95.3/libg2c.a(endfile.o)
                              /cern/99/lib/libpacklib.a(fzoffn.o) (f_end)
/usr/lib/gcc-lib/i686-pc-linux-gnu/2.95.3/libg2c.a(err.o)
                              /usr/lib/gcc-lib/i686-pc-linux-gnu/2.95.3/libg2c.a(close.o) (f__fatal)
/usr/lib/gcc-lib/i686-pc-linux-gnu/2.95.3/libg2c.a(fmt.o)
                              mchw59_105j.o (do_fio)
/usr/lib/gcc-lib/i686-pc-linux-gnu/2.95.3/libg2c.a(iio.o)
                              /cern/99/lib/libpacklib.a(hlogpf.o) (s_rsfi)
/usr/lib/gcc-lib/i686-pc-linux-gnu/2.95.3/libg2c.a(inquire.o)
                              /cern/99/lib/libpacklib.a(rzopen.o) (f_inqu)
/usr/lib/gcc-lib/i686-pc-linux-gnu/2.95.3/libg2c.a(lread.o)
                              /cern/99/lib/libpacklib.a(rzstrip.o) (e_rsle)
/usr/lib/gcc-lib/i686-pc-linux-gnu/2.95.3/libg2c.a(open.o)
                              /usr/lib/gcc-lib/i686-pc-linux-gnu/2.95.3/libg2c.a(endfile.o) (f__r_mode)
/usr/lib/gcc-lib/i686-pc-linux-gnu/2.95.3/libg2c.a(rdfmt.o)
                              /usr/lib/gcc-lib/i686-pc-linux-gnu/2.95.3/libg2c.a(iio.o) (rd_ed)
/usr/lib/gcc-lib/i686-pc-linux-gnu/2.95.3/libg2c.a(rewind.o)
                              /home/pcl2483/pedro/jadesoft/util/mcgen/Plib/libmc105j.a(mcrnst.o) (f_rew)
/usr/lib/gcc-lib/i686-pc-linux-gnu/2.95.3/libg2c.a(rsfe.o)
                              /usr/lib/gcc-lib/i686-pc-linux-gnu/2.95.3/libg2c.a(lread.o) (xrd_SL)
/usr/lib/gcc-lib/i686-pc-linux-gnu/2.95.3/libg2c.a(sfe.o)
                              /home/pcl2483/pedro/jadesoft/util/mcgen/Plib/libmc105j.a(mcrnst.o) (e_rsfe)
/usr/lib/gcc-lib/i686-pc-linux-gnu/2.95.3/libg2c.a(sue.o)
                              /home/pcl2483/pedro/jadesoft/util/mcgen/Plib/libherwig59.a(hwbsud.o) (s_rsue)
/usr/lib/gcc-lib/i686-pc-linux-gnu/2.95.3/libg2c.a(uio.o)
                              /usr/lib/gcc-lib/i686-pc-linux-gnu/2.95.3/libg2c.a(sue.o) (f__reclen)
/usr/lib/gcc-lib/i686-pc-linux-gnu/2.95.3/libg2c.a(util.o)
                              /usr/lib/gcc-lib/i686-pc-linux-gnu/2.95.3/libg2c.a(inquire.o) (g_char)
/usr/lib/gcc-lib/i686-pc-linux-gnu/2.95.3/libg2c.a(wrtfmt.o)
                              /usr/lib/gcc-lib/i686-pc-linux-gnu/2.95.3/libg2c.a(iio.o) (w_ed)
/usr/lib/gcc-lib/i686-pc-linux-gnu/2.95.3/libg2c.a(wsfe.o)
                              mchw59_105j.o (s_wsfe)
/usr/lib/gcc-lib/i686-pc-linux-gnu/2.95.3/libg2c.a(wsle.o)
                              mchw59_105j.o (s_wsle)
/usr/lib/gcc-lib/i686-pc-linux-gnu/2.95.3/libg2c.a(main.o)
                              /usr/lib/crt1.o (main)
/usr/lib/gcc-lib/i686-pc-linux-gnu/2.95.3/libg2c.a(s_stop.o)
                              mchw59_105j.o (s_stop)
/usr/lib/gcc-lib/i686-pc-linux-gnu/2.95.3/libg2c.a(sig_die.o)
                              /usr/lib/gcc-lib/i686-pc-linux-gnu/2.95.3/libg2c.a(err.o) (sig_die)
/usr/lib/gcc-lib/i686-pc-linux-gnu/2.95.3/libg2c.a(setarg.o)
                              /usr/lib/gcc-lib/i686-pc-linux-gnu/2.95.3/libg2c.a(main.o) (f_setarg)
/usr/lib/gcc-lib/i686-pc-linux-gnu/2.95.3/libg2c.a(setsig.o)
                              /usr/lib/gcc-lib/i686-pc-linux-gnu/2.95.3/libg2c.a(main.o) (f_setsig)
/usr/lib/gcc-lib/i686-pc-linux-gnu/2.95.3/libg2c.a(pow_dd.o)
                              mchw59_105j.o (pow_dd)
/usr/lib/gcc-lib/i686-pc-linux-gnu/2.95.3/libg2c.a(pow_zz.o)
                              /home/pcl2483/pedro/jadesoft/util/mcgen/Plib/libherwig59.a(hwbded.o) (pow_zz)
/usr/lib/gcc-lib/i686-pc-linux-gnu/2.95.3/libg2c.a(c_abs.o)
                              /home/pcl2483/pedro/jadesoft/util/mcgen/Plib/libjt74opal.a(dph5pi.o) (c_abs)
/usr/lib/gcc-lib/i686-pc-linux-gnu/2.95.3/libg2c.a(z_log.o)
                              /home/pcl2483/pedro/jadesoft/util/mcgen/Plib/libherwig59.a(hwhigb.o) (z_log)
/usr/lib/gcc-lib/i686-pc-linux-gnu/2.95.3/libg2c.a(z_sqrt.o)
                              /home/pcl2483/pedro/jadesoft/util/mcgen/Plib/libherwig59.a(hwhigy.o) (z_sqrt)
/usr/lib/gcc-lib/i686-pc-linux-gnu/2.95.3/libg2c.a(r_lg10.o)
                              mchw59_105j.o (r_lg10)
/usr/lib/gcc-lib/i686-pc-linux-gnu/2.95.3/libg2c.a(r_mod.o)
                              /cern/99/lib/libpacklib.a(hf1aut.o) (r_mod)
/usr/lib/gcc-lib/i686-pc-linux-gnu/2.95.3/libg2c.a(i_indx.o)
                              /home/pcl2483/pedro/jadesoft/util/mcgen/Plib/libmc105j.a(mcgetf.o) (i_indx)
/usr/lib/gcc-lib/i686-pc-linux-gnu/2.95.3/libg2c.a(l_gt.o)
                              /cern/99/lib/libpacklib.a(fffind.o) (l_gt)
/usr/lib/gcc-lib/i686-pc-linux-gnu/2.95.3/libg2c.a(l_lt.o)
                              /cern/99/lib/libpacklib.a(fffind.o) (l_lt)
/usr/lib/gcc-lib/i686-pc-linux-gnu/2.95.3/libg2c.a(s_cat.o)
                              mchw59_105j.o (s_cat)
/usr/lib/gcc-lib/i686-pc-linux-gnu/2.95.3/libg2c.a(s_cmp.o)
                              /home/pcl2483/pedro/jadesoft/util/mcgen/Plib/libherwig59.a(hwsfun.o) (s_cmp)
/usr/lib/gcc-lib/i686-pc-linux-gnu/2.95.3/libg2c.a(s_copy.o)
                              mchw59_105j.o (s_copy)
/usr/lib/gcc-lib/i686-pc-linux-gnu/2.95.3/libg2c.a(lnblnk_.o)
                              /cern/99/lib/libpacklib.a(cfopen.o) (G77_lnblnk_0)
/usr/lib/gcc-lib/i686-pc-linux-gnu/2.95.3/libg2c.a(fmtlib.o)
                              /usr/lib/gcc-lib/i686-pc-linux-gnu/2.95.3/libg2c.a(wrtfmt.o) (f__icvt)
/usr/lib/gcc-lib/i686-pc-linux-gnu/2.95.3/libg2c.a(lwrite.o)
                              /usr/lib/gcc-lib/i686-pc-linux-gnu/2.95.3/libg2c.a(wsle.o) (L_len)
/usr/lib/gcc-lib/i686-pc-linux-gnu/2.95.3/libg2c.a(wref.o)
                              /usr/lib/gcc-lib/i686-pc-linux-gnu/2.95.3/libg2c.a(wrtfmt.o) (wrt_E)
/usr/lib/gcc-lib/i686-pc-linux-gnu/2.95.3/libg2c.a(F77_aloc.o)
                              /usr/lib/gcc-lib/i686-pc-linux-gnu/2.95.3/libg2c.a(s_cat.o) (F77_aloc)
/usr/lib/gcc-lib/i686-pc-linux-gnu/2.95.3/libg2c.a(cabs.o)
                              /usr/lib/gcc-lib/i686-pc-linux-gnu/2.95.3/libg2c.a(pow_zz.o) (f__cabs)
/usr/lib/gcc-lib/i686-pc-linux-gnu/2.95.3/libg2c.a(exit_.o)
                              /usr/lib/gcc-lib/i686-pc-linux-gnu/2.95.3/libg2c.a(F77_aloc.o) (G77_exit_0)

Allocating common symbols
Common symbol       size              file

taubra_             0xf4              /home/pcl2483/pedro/jadesoft/util/mcgen/Plib/libjt74opal.a(initdk.o)
ffchar_             0x84              /cern/99/lib/libpacklib.a(ffgo.o)
hcpia1_             0x440             /cern/99/lib/libpacklib.a(hcdir.o)
zceta_              0x800             /cern/99/lib/libpacklib.a(mzebra.o)
hcset_              0x4               /cern/99/lib/libpacklib.a(hmachi.o)
hwbeam_             0x8               /home/pcl2483/pedro/jadesoft/util/mcgen/Plib/libherwig59.a(fxhlms.o)
hcform_             0x34              /cern/99/lib/libpacklib.a(hbook1.o)
pawc_               0xc3500           mchw59_105j.o
mzca_               0x1c8             /cern/99/lib/libpacklib.a(fzin.o)
f__ltype            0x4               /usr/lib/gcc-lib/i686-pc-linux-gnu/2.95.3/libg2c.a(lread.o)
zbcdch_             0x60              /cern/99/lib/libpacklib.a(mzebra.o)
idfc_               0x4               /home/pcl2483/pedro/jadesoft/util/mcgen/Plib/libjt74opal.a(dexay.o)
ztellc_             0x8               /cern/99/lib/libpacklib.a(ztell.o)
czsock_             0xe10             /cern/99/lib/libpacklib.a(czgeta.o)
f__recloc           0x4               /usr/lib/gcc-lib/i686-pc-linux-gnu/2.95.3/libg2c.a(sue.o)
rzcount_            0x8               /cern/99/lib/libpacklib.a(mzebra.o)
jaki_               0x14              /home/pcl2483/pedro/jadesoft/util/mcgen/Plib/libjt74opal.a(dexay.o)
hcmail_             0x80              /cern/99/lib/libpacklib.a(hbug.o)
f__icnum            0x4               /usr/lib/gcc-lib/i686-pc-linux-gnu/2.95.3/libg2c.a(iio.o)
f(short, void, int, char)
                    0x4               /usr/lib/gcc-lib/i686-pc-linux-gnu/2.95.3/libg2c.a(err.o)
f__hiwater          0x4               /usr/lib/gcc-lib/i686-pc-linux-gnu/2.95.3/libg2c.a(err.o)
cfread_             0x87c             /cern/99/lib/libpacklib.a(ffgo.o)
f(long double,  *)  0x4               /usr/lib/gcc-lib/i686-pc-linux-gnu/2.95.3/libg2c.a(fmt.o)
f__nonl             0x4               /usr/lib/gcc-lib/i686-pc-linux-gnu/2.95.3/libg2c.a(fmt.o)
mzioc_              0x350             /cern/99/lib/libpacklib.a(fziffx.o)
hcqcom_             0x2ff8            /cern/99/lib/libpacklib.a(hqputf.o)
goxtra_             0x194             /home/pcl2483/pedro/jadesoft/util/mcgen/Plib/libjt74opal.a(luzdis.o)
zkrakc_             0x508             /cern/99/lib/libpacklib.a(mzform.o)
hwhewr_             0x2440            /home/pcl2483/pedro/jadesoft/util/mcgen/Plib/libherwig59.a(hwheww.o)
f__putn             0x4               /usr/lib/gcc-lib/i686-pc-linux-gnu/2.95.3/libg2c.a(err.o)
gujets_             0x3a984           mchw59_105j.o
zheadp_             0x6c              /cern/99/lib/libpacklib.a(mzebra.o)
hwhewq_             0x498             /home/pcl2483/pedro/jadesoft/util/mcgen/Plib/libherwig59.a(hwheww.o)
zvfaut_             0x48              /cern/99/lib/libpacklib.a(fzin.o)
hwdist_             0x98              /home/pcl2483/pedro/jadesoft/util/mcgen/Plib/libherwig59.a(fxhlms.o)
f__fmtlen           0x4               /usr/lib/gcc-lib/i686-pc-linux-gnu/2.95.3/libg2c.a(err.o)
hwdbug_             0x4               /home/pcl2483/pedro/jadesoft/util/mcgen/Plib/libherwig59.a(hwufne.o)
hwcfrm_             0xfa00            /home/pcl2483/pedro/jadesoft/util/mcgen/Plib/libherwig59.a(hwcfor.o)
rzcl_               0x2c              /cern/99/lib/libpacklib.a(rzcdir.o)
mzct_               0xd4              /cern/99/lib/libpacklib.a(fzin.o)
dzc1ch_             0x55d             /cern/99/lib/libpacklib.a(dzsnap.o)
pypars_             0xc80             /home/pcl2483/pedro/jadesoft/util/mcgen/Plib/libjt74opal.a(lulogo.o)
hpevt_              0x260             /home/pcl2483/pedro/jadesoft/util/mcgen/Plib/libjt74opal.a(ludecy.o)
hcpiaf_             0x150             /cern/99/lib/libpacklib.a(hcdir.o)
taurad_             0xc               /home/pcl2483/pedro/jadesoft/util/mcgen/Plib/libjt74opal.a(initdk.o)
f__elist            0x4               /usr/lib/gcc-lib/i686-pc-linux-gnu/2.95.3/libg2c.a(err.o)
hcverc_             0xa               /cern/99/lib/libpacklib.a(hmachi.o)
hwuwts_             0x1028            /home/pcl2483/pedro/jadesoft/util/mcgen/Plib/libherwig59.a(fxhlms.o)
hcvers_             0x84              /cern/99/lib/libpacklib.a(hmachi.o)
hwhewp_             0x3c0             /home/pcl2483/pedro/jadesoft/util/mcgen/Plib/libherwig59.a(hwheww.o)
hwprch_             0x2c              /home/pcl2483/pedro/jadesoft/util/mcgen/Plib/libherwig59.a(fxhlms.o)
rzckey_             0x3f4             /cern/99/lib/libpacklib.a(rzopen.o)
rzcycle_            0x28              /cern/99/lib/libpacklib.a(rzfdir.o)
parmas_             0x40              /home/pcl2483/pedro/jadesoft/util/mcgen/Plib/libjt74opal.a(initdk.o)
mzcc_               0x694             /cern/99/lib/libpacklib.a(fzin.o)
f__sequential       0x4               /usr/lib/gcc-lib/i686-pc-linux-gnu/2.95.3/libg2c.a(err.o)
l_getc              0x4               /usr/lib/gcc-lib/i686-pc-linux-gnu/2.95.3/libg2c.a(lread.o)
hwarea_             0x2d8             /home/pcl2483/pedro/jadesoft/util/mcgen/Plib/libherwig59.a(hwhbgf.o)
rzbuff_             0x8800            /cern/99/lib/libpacklib.a(rziodo.o)
fzhci_              0x28              /cern/99/lib/libpacklib.a(fzipha.o)
chcprd_             0x3200            /home/pcl2483/pedro/jadesoft/util/mcgen/Plib/libmc105j.a(evwrtj.o)
serrno              0x4               /cern/99/lib/libpacklib.a(serror.o)
decpar_             0x18              /home/pcl2483/pedro/jadesoft/util/mcgen/Plib/libjt74opal.a(initdk.o)
f__fmtbuf           0x4               /usr/lib/gcc-lib/i686-pc-linux-gnu/2.95.3/libg2c.a(err.o)
hcnt_               0x10              /cern/99/lib/libpacklib.a(hmachi.o)
hcqcod_             0xfa0             /cern/99/lib/libpacklib.a(hqputf.o)
hcfile_             0xfa0             /cern/99/lib/libpacklib.a(hcdir.o)
hwqdks_             0x324             /home/pcl2483/pedro/jadesoft/util/mcgen/Plib/libherwig59.a(fxhlms.o)
rzdirc_             0x12c0            /cern/99/lib/libpacklib.a(rzcdir.o)
f__Aquote           0x4               /usr/lib/gcc-lib/i686-pc-linux-gnu/2.95.3/libg2c.a(lwrite.o)
jzuc_               0x40              /cern/99/lib/libpacklib.a(mzebra.o)
rzcstri_            0x604             /cern/99/lib/libpacklib.a(mzebra.o)
znatur_             0x10              /cern/99/lib/libpacklib.a(mzebra.o)
fzcx_               0x11c             /cern/99/lib/libpacklib.a(fzloc.o)
zstate_             0x40              /cern/99/lib/libpacklib.a(fzloc.o)
taukle_             0x10              /home/pcl2483/pedro/jadesoft/util/mcgen/Plib/libjt74opal.a(dwluks.o)
decmp2_             0x429             /home/pcl2483/pedro/jadesoft/util/mcgen/Plib/libjt74opal.a(dexay.o)
f__lioproc          0x4               /usr/lib/gcc-lib/i686-pc-linux-gnu/2.95.3/libg2c.a(lread.o)
fzcocc_             0xa4              /cern/99/lib/libpacklib.a(fzin.o)
f__parenlvl         0x4               /usr/lib/gcc-lib/i686-pc-linux-gnu/2.95.3/libg2c.a(fmt.o)
ckcom_              0x10b3c           /home/pcl2483/pedro/jadesoft/util/mcgen/Plib/libckern105.a(ckern.o)
l_ungetc            0x4               /usr/lib/gcc-lib/i686-pc-linux-gnu/2.95.3/libg2c.a(lread.o)
f__getn             0x4               /usr/lib/gcc-lib/i686-pc-linux-gnu/2.95.3/libg2c.a(err.o)
hwparc_             0x1f40            /home/pcl2483/pedro/jadesoft/util/mcgen/Plib/libherwig59.a(fxhlms.o)
gswprm_             0x30              /home/pcl2483/pedro/jadesoft/util/mcgen/Plib/libjt74opal.a(initdk.o)
l_eof               0x4               /usr/lib/gcc-lib/i686-pc-linux-gnu/2.95.3/libg2c.a(lread.o)
yint_               0x4e2c            /home/pcl2483/pedro/jadesoft/util/mcgen/Plib/libpx114.a(ykern.o)
hcrecv_             0x4               /cern/99/lib/libpacklib.a(hmachi.o)
zunitz_             0x10              /cern/99/lib/libpacklib.a(fzin.o)
f__curunit          0x4               /usr/lib/gcc-lib/i686-pc-linux-gnu/2.95.3/libg2c.a(err.o)
L_len               0x4               /usr/lib/gcc-lib/i686-pc-linux-gnu/2.95.3/libg2c.a(lwrite.o)
f__doned            0x4               /usr/lib/gcc-lib/i686-pc-linux-gnu/2.95.3/libg2c.a(err.o)
hcbook_             0xcc              /cern/99/lib/libpacklib.a(hbook1.o)
cprod_              0x7560            /home/pcl2483/pedro/jadesoft/util/mcgen/Plib/libmc105j.a(evwrtj.o)
f(char, float)      0x4               /usr/lib/gcc-lib/i686-pc-linux-gnu/2.95.3/libg2c.a(err.o)
f__external         0x4               /usr/lib/gcc-lib/i686-pc-linux-gnu/2.95.3/libg2c.a(err.o)
f__icend            0x4               /usr/lib/gcc-lib/i686-pc-linux-gnu/2.95.3/libg2c.a(iio.o)
hwtabc_             0x14              /home/pcl2483/pedro/jadesoft/util/mcgen/Plib/libherwig59.a(hwsbrn.o)
f__workdone         0x4               /usr/lib/gcc-lib/i686-pc-linux-gnu/2.95.3/libg2c.a(fmt.o)
f__reading          0x4               /usr/lib/gcc-lib/i686-pc-linux-gnu/2.95.3/libg2c.a(err.o)
hwbmch_             0x10              /home/pcl2483/pedro/jadesoft/util/mcgen/Plib/libherwig59.a(fxhlms.o)
f__icptr            0x4               /usr/lib/gcc-lib/i686-pc-linux-gnu/2.95.3/libg2c.a(err.o)
f__donewrec         0x4               /usr/lib/gcc-lib/i686-pc-linux-gnu/2.95.3/libg2c.a(err.o)
f__init             0x4               /usr/lib/gcc-lib/i686-pc-linux-gnu/2.95.3/libg2c.a(err.o)
rzclun_             0x2c              /cern/99/lib/libpacklib.a(mzebra.o)
cl1dec_             0x4               /home/pcl2483/pedro/jadesoft/util/mcgen/Plib/libherwig59.a(h59driv.o)
czbufc_             0x200             /cern/99/lib/libpacklib.a(hlogpf.o)
fzci_               0x138             /cern/99/lib/libpacklib.a(fzin.o)
hcprin_             0x1a0             /cern/99/lib/libpacklib.a(hbook1.o)
f__doed             0x4               /usr/lib/gcc-lib/i686-pc-linux-gnu/2.95.3/libg2c.a(err.o)
dg_                 0x4               /home/pcl2483/pedro/jadesoft/util/mcgen/Plib/libherwig59.a(hwsdgq.o)
hcdirc_             0x1900            /cern/99/lib/libpacklib.a(hcdir.o)
hcfitn_             0x118             /cern/99/lib/libpacklib.a(hsupis.o)
rfilefdt            0x400             /cern/99/lib/libpacklib.a(open.o)
f__revloc           0x4               /usr/lib/gcc-lib/i686-pc-linux-gnu/2.95.3/libg2c.a(fmt.o)
arbit_              0x8               /home/pcl2483/pedro/jadesoft/util/mcgen/Plib/libjt74opal.a(curr.o)
f__ret              0x28              /usr/lib/gcc-lib/i686-pc-linux-gnu/2.95.3/libg2c.a(fmt.o)
f(char, long *, short __restrict)
                    0x4               /usr/lib/gcc-lib/i686-pc-linux-gnu/2.95.3/libg2c.a(err.o)
nml_read            0x4               /usr/lib/gcc-lib/i686-pc-linux-gnu/2.95.3/libg2c.a(lread.o)
hwhard_             0x464             /home/pcl2483/pedro/jadesoft/util/mcgen/Plib/libherwig59.a(fxhlms.o)
mzcwk_              0x5000            /cern/99/lib/libpacklib.a(mzflag.o)
sascom_             0x104             /home/pcl2483/pedro/jadesoft/util/mcgen/Plib/libherwig59.a(hwsfun.o)
mzcl_               0x70              /cern/99/lib/libpacklib.a(mzbook.o)
quest_              0x190             /cern/99/lib/libpacklib.a(hcdir.o)
hcflag_             0x2c              /cern/99/lib/libpacklib.a(hbook1.o)
f__doend            0x4               /usr/lib/gcc-lib/i686-pc-linux-gnu/2.95.3/libg2c.a(err.o)
hcbits_             0x94              /cern/99/lib/libpacklib.a(hfill.o)
hwsint_             0x10              /home/pcl2483/pedro/jadesoft/util/mcgen/Plib/libherwig59.a(hwbsud.o)
hwumap_             0x1f44            /home/pcl2483/pedro/jadesoft/util/mcgen/Plib/libherwig59.a(hwuedt.o)
hwbrch_             0x94              /home/pcl2483/pedro/jadesoft/util/mcgen/Plib/libherwig59.a(fxhlms.o)
lujets_             0xdac4            /home/pcl2483/pedro/jadesoft/util/mcgen/Plib/libmc105j.a(mcgeth.o)
ffcomm_             0x194             /cern/99/lib/libpacklib.a(ffgo.o)
rzcout_             0x18              /cern/99/lib/libpacklib.a(rzout.o)
fzcf_               0x90              /cern/99/lib/libpacklib.a(fzloc.o)
zbcd_               0x32c             /cern/99/lib/libpacklib.a(fzin.o)
zebq_               0x1a0             /cern/99/lib/libpacklib.a(fzin.o)
f__cblank           0x4               /usr/lib/gcc-lib/i686-pc-linux-gnu/2.95.3/libg2c.a(err.o)
rzcstrc_            0x4a80            /cern/99/lib/libpacklib.a(mzebra.o)
cints_              0xe0              /home/pcl2483/pedro/jadesoft/util/mcgen/Plib/libherwig59.a(hwhiga.o)
slate_              0xa0              /cern/99/lib/libpacklib.a(hmachi.o)
f__cnt              0x28              /usr/lib/gcc-lib/i686-pc-linux-gnu/2.95.3/libg2c.a(fmt.o)
sasval_             0xd0              /home/pcl2483/pedro/jadesoft/util/mcgen/Plib/libherwig59.a(sasgam.o)
f__scale            0x4               /usr/lib/gcc-lib/i686-pc-linux-gnu/2.95.3/libg2c.a(err.o)
hcunit_             0xc               /cern/99/lib/libpacklib.a(hbug.o)
hwbosc_             0xbc68            /home/pcl2483/pedro/jadesoft/util/mcgen/Plib/libherwig59.a(fxhlms.o)
f__lchar            0x4               /usr/lib/gcc-lib/i686-pc-linux-gnu/2.95.3/libg2c.a(lread.o)
fzcseg_             0xfc              /cern/99/lib/libpacklib.a(fzin.o)
rfio_buf            0x2000            /cern/99/lib/libpacklib.a(open.o)
rzbmap_             0x24              /cern/99/lib/libpacklib.a(rzveri.o)
rzover_             0x194             /cern/99/lib/libpacklib.a(rzveri.o)
w50516_             0x4               /home/pcl2483/pedro/jadesoft/util/mcgen/Plib/libherwig59.a(hwuinc.o)
f(char *)           0x4               /usr/lib/gcc-lib/i686-pc-linux-gnu/2.95.3/libg2c.a(fmt.o)
zlimit_             0x8               /cern/99/lib/libpacklib.a(mzflag.o)
hcopt_              0x28              /cern/99/lib/libpacklib.a(hbook1.o)
hcminpu_            0xfa0             /cern/99/lib/libpacklib.a(hmachi.o)
hntcur_             0x4               /cern/99/lib/libpacklib.a(hntrset.o)
mcuffr_             0x74              mchw59_105j.o
inout_              0x8               /home/pcl2483/pedro/jadesoft/util/mcgen/Plib/libjt74opal.a(dexay.o)
mzcb_               0x70              /cern/99/lib/libpacklib.a(fzin.o)
f__recpos           0x4               /usr/lib/gcc-lib/i686-pc-linux-gnu/2.95.3/libg2c.a(err.o)
hcfitr_             0x14              /cern/99/lib/libpacklib.a(hmachi.o)
hwpart_             0xbb88            /home/pcl2483/pedro/jadesoft/util/mcgen/Plib/libherwig59.a(fxhlms.o)
f__dorevert         0x4               /usr/lib/gcc-lib/i686-pc-linux-gnu/2.95.3/libg2c.a(err.o)
hwrpin_             0x1c              /home/pcl2483/pedro/jadesoft/util/mcgen/Plib/libherwig59.a(hwrpow.o)
czcbuf_             0x4               /cern/99/lib/libpacklib.a(hmachi.o)
hcache_             0x194             /cern/99/lib/libpacklib.a(hdelet.o)
rzch_               0x1fe             /cern/99/lib/libpacklib.a(rzcdir.o)
testa1_             0x4               /home/pcl2483/pedro/jadesoft/util/mcgen/Plib/libjt74opal.a(dampog.o)
zmach_              0x24              /cern/99/lib/libpacklib.a(fzin.o)
hcminp1_            0x8               /cern/99/lib/libpacklib.a(hmachi.o)
f__lquit            0x4               /usr/lib/gcc-lib/i686-pc-linux-gnu/2.95.3/libg2c.a(lread.o)
rzdirn_             0xc               /cern/99/lib/libpacklib.a(rzcdir.o)
f__formatted        0x4               /usr/lib/gcc-lib/i686-pc-linux-gnu/2.95.3/libg2c.a(err.o)
small_              0x10              /home/pcl2483/pedro/jadesoft/util/mcgen/Plib/libherwig59.a(hwhiga.o)
mcffr_              0x1c4             mchw59_105j.o
ycl_                0x4e70            /home/pcl2483/pedro/jadesoft/util/mcgen/Plib/libpx114.a(ykern.o)
taubmc_             0x168             /home/pcl2483/pedro/jadesoft/util/mcgen/Plib/libjt74opal.a(dexay.o)
f__xargv            0x4               /usr/lib/gcc-lib/i686-pc-linux-gnu/2.95.3/libg2c.a(setarg.o)
f(char,  *)         0x4               /usr/lib/gcc-lib/i686-pc-linux-gnu/2.95.3/libg2c.a(fmt.o)
hcfits_             0x1b4             /cern/99/lib/libpacklib.a(hsupis.o)
mzcn_               0x24              /cern/99/lib/libpacklib.a(fzin.o)
hcdirn_             0x26c             /cern/99/lib/libpacklib.a(hcdir.o)
f__xargc            0x4               /usr/lib/gcc-lib/i686-pc-linux-gnu/2.95.3/libg2c.a(setarg.o)
f__ly               0x8               /usr/lib/gcc-lib/i686-pc-linux-gnu/2.95.3/libg2c.a(lread.o)
f__units            0x12c0            /usr/lib/gcc-lib/i686-pc-linux-gnu/2.95.3/libg2c.a(err.o)
f__cursor           0x4               /usr/lib/gcc-lib/i686-pc-linux-gnu/2.95.3/libg2c.a(err.o)
hwproc_             0x28              /home/pcl2483/pedro/jadesoft/util/mcgen/Plib/libherwig59.a(fxhlms.o)
hwevnt_             0x1fb0            /home/pcl2483/pedro/jadesoft/util/mcgen/Plib/libherwig59.a(fxhlms.o)
hwuclu_             0xcb4c            /home/pcl2483/pedro/jadesoft/util/mcgen/Plib/libherwig59.a(fxhlms.o)
ludat1_             0x1e0             /home/pcl2483/pedro/jadesoft/util/mcgen/Plib/libmc105j.a(jtconv.o)
qedprm_             0x18              /home/pcl2483/pedro/jadesoft/util/mcgen/Plib/libjt74opal.a(initdk.o)
hwusud_             0x18018           /home/pcl2483/pedro/jadesoft/util/mcgen/Plib/libherwig59.a(fxhlms.o)
phoqed_             0x28              /home/pcl2483/pedro/jadesoft/util/mcgen/Plib/libjt74opal.a(filhep.o)
hepevt_             0x2ee08           mchw59_105j.o
f(long, long long)  0x8               /usr/lib/gcc-lib/i686-pc-linux-gnu/2.95.3/libg2c.a(lread.o)
f__reclen           0x4               /usr/lib/gcc-lib/i686-pc-linux-gnu/2.95.3/libg2c.a(uio.o)
dzc1_               0xa0              /cern/99/lib/libpacklib.a(dzsnap.o)
zunit_              0x1c              /cern/99/lib/libpacklib.a(fzin.o)
f__lcount           0x4               /usr/lib/gcc-lib/i686-pc-linux-gnu/2.95.3/libg2c.a(lread.o)
hcpar0_             0x24              /cern/99/lib/libpacklib.a(hmachi.o)
hwpram_             0x4a8             /home/pcl2483/pedro/jadesoft/util/mcgen/Plib/libherwig59.a(fxhlms.o)
hwparp_             0x6590            /home/pcl2483/pedro/jadesoft/util/mcgen/Plib/libherwig59.a(fxhlms.o)
hcpiac_             0x150             /cern/99/lib/libpacklib.a(hcdir.o)

Memory Configuration

Name             Origin             Length             Attributes
*default*        0x00000000         0xffffffff

Linker script and memory map

LOAD /usr/lib/crt1.o
LOAD /usr/lib/crti.o
LOAD /usr/lib/gcc-lib/i686-pc-linux-gnu/2.95.3/crtbegin.o
LOAD mchw59_105j.o
LOAD /home/pcl2483/pedro/jadesoft/util/mcgen/Plib/libmc105j.a
LOAD /home/pcl2483/pedro/jadesoft/util/mcgen/Plib/libherwig59.a
LOAD /home/pcl2483/pedro/jadesoft/util/mcgen/Plib/libjt74opal.a
LOAD /home/pcl2483/pedro/jadesoft/util/mcgen/Plib/libckern105.a
LOAD /home/pcl2483/pedro/jadesoft/util/mcgen/Plib/libpx114.a
LOAD /cern/99/lib/libgraflib.a
LOAD /cern/99/lib/libgrafX11.a
LOAD /cern/99/lib/libpacklib.a
LOAD /cern/99/lib/libmathlib.a
LOAD /cern/99/lib/libkernlib.a
LOAD /lib/libnsl.so.1
LOAD /usr/lib/libc.so
START GROUP
LOAD /lib/libc.so.6
LOAD /usr/lib/libc_nonshared.a
END GROUP
LOAD /usr/lib/gcc-lib/i686-pc-linux-gnu/2.95.3/libg2c.a
LOAD /usr/lib/libm.so
LOAD /usr/lib/gcc-lib/i686-pc-linux-gnu/2.95.3/libgcc.a
LOAD /usr/lib/libc.so
START GROUP
LOAD /lib/libc.so.6
LOAD /usr/lib/libc_nonshared.a
END GROUP
LOAD /usr/lib/gcc-lib/i686-pc-linux-gnu/2.95.3/libgcc.a
LOAD /usr/lib/gcc-lib/i686-pc-linux-gnu/2.95.3/crtend.o
LOAD /usr/lib/crtn.o
                0x080480f4                . = (0x8048000 + SIZEOF_HEADERS)

.interp         0x080480f4       0x13
 *(.interp)
 .interp        0x080480f4       0x13 /usr/lib/crt1.o

.note.ABI-tag   0x08048108       0x20
 .note.ABI-tag  0x08048108       0x20 /usr/lib/crt1.o

.hash           0x08048128      0x394
 *(.hash)
 .hash          0x08048128      0x394 /usr/lib/crt1.o

.dynsym         0x080484bc      0x820
 *(.dynsym)
 .dynsym        0x080484bc      0x820 /usr/lib/crt1.o

.dynstr         0x08048cdc      0x415
 *(.dynstr)
 .dynstr        0x08048cdc      0x415 /usr/lib/crt1.o

.gnu.version    0x080490f2      0x104
 *(.gnu.version)
 .gnu.version   0x080490f2      0x104 /usr/lib/crt1.o

.gnu.version_d
 *(.gnu.version_d)

.gnu.version_r  0x080491f8       0x60
 *(.gnu.version_r)
 .gnu.version_r
                0x080491f8       0x60 /usr/lib/crt1.o

.rel.dyn        0x08049258       0x58
 *(.rel.init)
 *(.rel.text .rel.text.* .rel.gnu.linkonce.t.*)
 *(.rel.fini)
 *(.rel.rodata .rel.rodata.* .rel.gnu.linkonce.r.*)
 *(.rel.data .rel.data.* .rel.gnu.linkonce.d.*)
 *(.rel.tdata .rel.tdata.* .rel.gnu.linkonce.td.*)
 *(.rel.tbss .rel.tbss.* .rel.gnu.linkonce.tb.*)
 *(.rel.ctors)
 *(.rel.dtors)
 *(.rel.got)
 .rel.got       0x08049258       0x10 /usr/lib/crt1.o
 *(.rel.bss .rel.bss.* .rel.gnu.linkonce.b.*)
 .rel.bss       0x08049268       0x48 /usr/lib/crt1.o

.rela.dyn
 *(.rela.init)
 *(.rela.text .rela.text.* .rela.gnu.linkonce.t.*)
 *(.rela.fini)
 *(.rela.rodata .rela.rodata.* .rela.gnu.linkonce.r.*)
 *(.rela.data .rela.data.* .rela.gnu.linkonce.d.*)
 *(.rela.tdata .rela.tdata.* .rela.gnu.linkonce.td.*)
 *(.rela.tbss .rela.tbss.* .rela.gnu.linkonce.tb.*)
 *(.rela.ctors)
 *(.rela.dtors)
 *(.rela.got)
 *(.rela.bss .rela.bss.* .rela.gnu.linkonce.b.*)

.rel.plt        0x080492b0      0x3a0
 *(.rel.plt)
 .rel.plt       0x080492b0      0x3a0 /usr/lib/crt1.o

.rela.plt
 *(.rela.plt)

.init           0x08049650       0x25
 *(.init)
 .init          0x08049650       0x18 /usr/lib/crti.o
                0x08049650                _init
 .init          0x08049668        0x5 /usr/lib/gcc-lib/i686-pc-linux-gnu/2.95.3/crtbegin.o
 .init          0x0804966d        0x5 /usr/lib/gcc-lib/i686-pc-linux-gnu/2.95.3/crtend.o
 .init          0x08049672        0x3 /usr/lib/crtn.o

.plt            0x08049678      0x750
 *(.plt)
 .plt           0x08049678      0x750 /usr/lib/crt1.o
                0x08049688                __umoddi3@@GLIBC_2.0
                0x08049698                readlink@@GLIBC_2.0
                0x080496a8                cos@@GLIBC_2.0
                0x080496b8                ntohl@@GLIBC_2.0
                0x080496c8                inet_netof@@GLIBC_2.0
                0x080496d8                __strtod_internal@@GLIBC_2.0
                0x080496e8                ferror@@GLIBC_2.0
                0x080496f8                vsprintf@@GLIBC_2.0
                0x08049708                strchr@@GLIBC_2.0
                0x08049718                feof@@GLIBC_2.0
                0x08049728                atan@@GLIBC_2.0
                0x08049738                ungetc@@GLIBC_2.0
                0x08049748                getpid@@GLIBC_2.0
                0x08049758                __register_frame_info@@GLIBC_2.0
                0x08049768                write@@GLIBC_2.0
                0x08049778                localtime@@GLIBC_2.0
                0x08049788                fileno@@GLIBC_2.0
                0x08049798                strcmp@@GLIBC_2.0
                0x080497a8                close@@GLIBC_2.0
                0x080497b8                asin@@GLIBC_2.0
                0x080497c8                perror@@GLIBC_2.0
                0x080497d8                fprintf@@GLIBC_2.0
                0x080497e8                tmpfile@@GLIBC_2.1
                0x080497f8                tempnam@@GLIBC_2.0
                0x08049808                getenv@@GLIBC_2.0
                0x08049818                umask@@GLIBC_2.0
                0x08049828                signal@@GLIBC_2.0
                0x08049838                fflush@@GLIBC_2.0
                0x08049848                getservbyname@@GLIBC_2.0
                0x08049858                unlink@@GLIBC_2.0
                0x08049868                freopen@@GLIBC_2.0
                0x08049878                select@@GLIBC_2.0
                0x08049888                htonl@@GLIBC_2.0
                0x08049898                __cxa_atexit@@GLIBC_2.1.3
                0x080498a8                getpwuid@@GLIBC_2.0
                0x080498b8                __errno_location@@GLIBC_2.0
                0x080498c8                pow@@GLIBC_2.0
                0x080498d8                rewind@@GLIBC_2.0
                0x080498e8                ftell@@GLIBC_2.0
                0x080498f8                gethostbyaddr@@GLIBC_2.0
                0x08049908                chmod@@GLIBC_2.0
                0x08049918                access@@GLIBC_2.0
                0x08049928                inet_ntoa@@GLIBC_2.0
                0x08049938                malloc@@GLIBC_2.0
                0x08049948                fread@@GLIBC_2.0
                0x08049958                memmove@@GLIBC_2.0
                0x08049968                clearerr@@GLIBC_2.0
                0x08049978                __deregister_frame_info@@GLIBC_2.0
                0x08049988                syslog@@GLIBC_2.0
                0x08049998                getsockopt@@GLIBC_2.0
                0x080499a8                abort@@GLIBC_2.0
                0x080499b8                __sigsetjmp@@GLIBC_2.0
                0x080499c8                __xstat@@GLIBC_2.0
                0x080499d8                setsockopt@@GLIBC_2.0
                0x080499e8                getpeername@@GLIBC_2.0
                0x080499f8                vfprintf@@GLIBC_2.0
                0x08049a08                fseek@@GLIBC_2.0
                0x08049a18                time@@GLIBC_2.0
                0x08049a28                fgets@@GLIBC_2.0
                0x08049a38                ntohs@@GLIBC_2.0
                0x08049a48                __fxstat@@GLIBC_2.0
                0x08049a58                fputs@@GLIBC_2.0
                0x08049a68                strstr@@GLIBC_2.0
                0x08049a78                longjmp@@GLIBC_2.0
                0x08049a88                sleep@@GLIBC_2.0
                0x08049a98                __strtol_internal@@GLIBC_2.0
                0x08049aa8                __udivdi3@@GLIBC_2.0
                0x08049ab8                atan2@@GLIBC_2.0
                0x08049ac8                strncmp@@GLIBC_2.0
                0x08049ad8                inet_addr@@GLIBC_2.0
                0x08049ae8                floor@@GLIBC_2.0
                0x08049af8                __libc_start_main@@GLIBC_2.0
                0x08049b08                exp@@GLIBC_2.0
                0x08049b18                realloc@@GLIBC_2.0
                0x08049b28                tan@@GLIBC_2.0
                0x08049b38                printf@@GLIBC_2.0
                0x08049b48                getuid@@GLIBC_2.0
                0x08049b58                lseek@@GLIBC_2.0
                0x08049b68                memcpy@@GLIBC_2.0
                0x08049b78                sqrt@@GLIBC_2.0
                0x08049b88                fclose@@GLIBC_2.1
                0x08049b98                getsockname@@GLIBC_2.0
                0x08049ba8                strrchr@@GLIBC_2.0
                0x08049bb8                ctime@@GLIBC_2.0
                0x08049bc8                isdigit@@GLIBC_2.0
                0x08049bd8                gethostname@@GLIBC_2.0
                0x08049be8                open@@GLIBC_2.0
                0x08049bf8                gethostbyname@@GLIBC_2.0
                0x08049c08                exit@@GLIBC_2.0
                0x08049c18                atoi@@GLIBC_2.0
                0x08049c28                getegid@@GLIBC_2.0
                0x08049c38                calloc@@GLIBC_2.0
                0x08049c48                sscanf@@GLIBC_2.0
                0x08049c58                _IO_putc@@GLIBC_2.0
                0x08049c68                free@@GLIBC_2.0
                0x08049c78                send@@GLIBC_2.0
                0x08049c88                ioctl@@GLIBC_2.0
                0x08049c98                htons@@GLIBC_2.0
                0x08049ca8                isatty@@GLIBC_2.0
                0x08049cb8                acos@@GLIBC_2.0
                0x08049cc8                memset@@GLIBC_2.0
                0x08049cd8                connect@@GLIBC_2.0
                0x08049ce8                strncpy@@GLIBC_2.0
                0x08049cf8                drem@@GLIBC_2.0
                0x08049d08                fopen@@GLIBC_2.1
                0x08049d18                strtok@@GLIBC_2.0
                0x08049d28                recv@@GLIBC_2.0
                0x08049d38                sprintf@@GLIBC_2.0
                0x08049d48                fwrite@@GLIBC_2.0
                0x08049d58                sin@@GLIBC_2.0
                0x08049d68                socket@@GLIBC_2.0
                0x08049d78                _IO_getc@@GLIBC_2.0
                0x08049d88                log@@GLIBC_2.0
                0x08049d98                read@@GLIBC_2.0
                0x08049da8                geteuid@@GLIBC_2.0
                0x08049db8                strcpy@@GLIBC_2.0

.text           0x08049dd0   0x146ac0
 *(.text .stub .text.* .gnu.linkonce.t.*)
 .text          0x08049dd0       0x24 /usr/lib/crt1.o
                0x08049dd0                _start
 .text          0x08049df4       0x24 /usr/lib/crti.o
 *fill*         0x08049e18        0x8 90909090
 .text          0x08049e20       0xa0 /usr/lib/gcc-lib/i686-pc-linux-gnu/2.95.3/crtbegin.o
 .text          0x08049ec0     0xbdfc mchw59_105j.o
                0x0804ee68                mcusev_
                0x08054cc8                meanjet_
                0x0804a230                mcevbl_
                0x08050644                fin3out_
                0x0804a238                mcpobl_
                0x0804a448                mcusin_
                0x08053298                jtfill_
                0x08052c20                mcanal_
                0x0805255c                qqctrk_
                0x08049ec0                MAIN__
                0x08052460                qqboos_
                0x08052784                mcfima_
                0x08054818                ytest_
                0x08050790                mcfill_
                0x0804fbbc                mcusfi_
                0x0804a240                mcusff_
 *fill*         0x08055cbc        0x4 90909090
 .text          0x08055cc0      0x1e9 /home/pcl2483/pedro/jadesoft/util/mcgen/Plib/libmc105j.a(mcgetf.o)
                0x08055cc0                mcgetf_
 *fill*         0x08055ea9        0x7 90909090
 .text          0x08055eb0      0x6ac /home/pcl2483/pedro/jadesoft/util/mcgen/Plib/libmc105j.a(mcgeth.o)
                0x08055eb0                mcgeth_
 *fill*         0x0805655c        0x4 90909090
 .text          0x08056560      0x69f /home/pcl2483/pedro/jadesoft/util/mcgen/Plib/libmc105j.a(mcgetp.o)
                0x08056560                mcgetp_
 *fill*         0x08056bff        0x1 90909090
 .text          0x08056c00      0x504 /home/pcl2483/pedro/jadesoft/util/mcgen/Plib/libmc105j.a(mcinit.o)
                0x08056c00                mcinit_
 *fill*         0x08057104        0xc 90909090
 .text          0x08057110      0x243 /home/pcl2483/pedro/jadesoft/util/mcgen/Plib/libmc105j.a(mcstbl.o)
                0x08057110                mcstbl_
 *fill*         0x08057353        0xd 90909090
 .text          0x08057360      0x8db /home/pcl2483/pedro/jadesoft/util/mcgen/Plib/libmc105j.a(mcwrit.o)
                0x08057360                mcwrit_
 *fill*         0x08057c3b        0x5 90909090
 .text          0x08057c40      0xd64 /home/pcl2483/pedro/jadesoft/util/mcgen/Plib/libmc105j.a(pxeecb.o)
                0x08057c40                pxeecb_
 *fill*         0x080589a4        0xc 90909090
 .text          0x080589b0      0xe91 /home/pcl2483/pedro/jadesoft/util/mcgen/Plib/libmc105j.a(evwrtj.o)
                0x080589b0                evwrtj_
 *fill*         0x08059841        0xf 90909090
 .text          0x08059850      0x166 /home/pcl2483/pedro/jadesoft/util/mcgen/Plib/libmc105j.a(incprd.o)
                0x08059850                incprd_
 *fill*         0x080599b6        0xa 90909090
 .text          0x080599c0      0x16b /home/pcl2483/pedro/jadesoft/util/mcgen/Plib/libmc105j.a(jadeco.o)
                0x080599c0                jadeco_
 *fill*         0x08059b2b        0x5 90909090
 .text          0x08059b30      0xcd0 /home/pcl2483/pedro/jadesoft/util/mcgen/Plib/libmc105j.a(jtconv.o)
                0x08059b30                jtconv_
 .text          0x0805a800      0x539 /home/pcl2483/pedro/jadesoft/util/mcgen/Plib/libmc105j.a(mcrnst.o)
                0x0805a800                mcrnst_
 *fill*         0x0805ad39        0x7 90909090
 .text          0x0805ad40        0x9 /home/pcl2483/pedro/jadesoft/util/mcgen/Plib/libmc105j.a(ntcprd.o)
                0x0805ad40                ntcprd_
 *fill*         0x0805ad49        0x7 90909090
 .text          0x0805ad50      0x81b /home/pcl2483/pedro/jadesoft/util/mcgen/Plib/libmc105j.a(prcprd.o)
                0x0805ad50                prcprd_
 *fill*         0x0805b56b        0x5 90909090
 .text          0x0805b570      0x6c4 /home/pcl2483/pedro/jadesoft/util/mcgen/Plib/libmc105j.a(wrcprd.o)
                0x0805b570                wrcprd_
 *fill*         0x0805bc34        0xc 90909090
 .text          0x0805bc40      0x2da /home/pcl2483/pedro/jadesoft/util/mcgen/Plib/libherwig59.a(fxhlms.o)
                0x0805bc40                fxhlms_
 *fill*         0x0805bf1a        0x6 90909090
 .text          0x0805bf20      0x8df /home/pcl2483/pedro/jadesoft/util/mcgen/Plib/libherwig59.a(h59driv.o)
                0x0805bf20                h59driv_
 *fill*         0x0805c7ff        0x1 90909090
 .text          0x0805c800      0xda3 /home/pcl2483/pedro/jadesoft/util/mcgen/Plib/libherwig59.a(hwbgen.o)
                0x0805c800                hwbgen_
 *fill*         0x0805d5a3        0xd 90909090
 .text          0x0805d5b0     0x3a87 /home/pcl2483/pedro/jadesoft/util/mcgen/Plib/libherwig59.a(hwbjco.o)
                0x0805d5b0                hwbjco_
 *fill*         0x08061037        0x9 90909090
 .text          0x08061040      0x6b7 /home/pcl2483/pedro/jadesoft/util/mcgen/Plib/libherwig59.a(hwbmas.o)
                0x08061040                hwbmas_
 *fill*         0x080616f7        0x9 90909090
 .text          0x08061700     0x2e73 /home/pcl2483/pedro/jadesoft/util/mcgen/Plib/libherwig59.a(hwbran.o)
                0x08061700                hwbran_
 *fill*         0x08064573        0xd 90909090
 .text          0x08064580      0xbf6 /home/pcl2483/pedro/jadesoft/util/mcgen/Plib/libherwig59.a(hwbspa.o)
                0x08064580                hwbspa_
 *fill*         0x08065176        0xa 90909090
 .text          0x08065180      0x3c4 /home/pcl2483/pedro/jadesoft/util/mcgen/Plib/libherwig59.a(hwbspn.o)
                0x08065180                hwbspn_
 *fill*         0x08065544        0xc 90909090
 .text          0x08065550      0xdc9 /home/pcl2483/pedro/jadesoft/util/mcgen/Plib/libherwig59.a(hwbtim.o)
                0x08065550                hwbtim_
 *fill*         0x08066319        0x7 90909090
 .text          0x08066320       0xb4 /home/pcl2483/pedro/jadesoft/util/mcgen/Plib/libherwig59.a(hwbvmc.o)
                0x08066320                hwbvmc_
 *fill*         0x080663d4        0xc 90909090
 .text          0x080663e0      0x344 /home/pcl2483/pedro/jadesoft/util/mcgen/Plib/libherwig59.a(hwcdec.o)
                0x080663e0                hwcdec_
 *fill*         0x08066724        0xc 90909090
 .text          0x08066730       0x7a /home/pcl2483/pedro/jadesoft/util/mcgen/Plib/libherwig59.a(hwcfla.o)
                0x08066730                hwcfla_
 *fill*         0x080667aa        0x6 90909090
 .text          0x080667b0     0x2170 /home/pcl2483/pedro/jadesoft/util/mcgen/Plib/libherwig59.a(hwcfor.o)
                0x080667b0                hwcfor_
 .text          0x08068920      0xb78 /home/pcl2483/pedro/jadesoft/util/mcgen/Plib/libherwig59.a(hwcgsp.o)
                0x08068920                hwcgsp_
 *fill*         0x08069498        0x8 90909090
 .text          0x080694a0     0x1339 /home/pcl2483/pedro/jadesoft/util/mcgen/Plib/libherwig59.a(hwchad.o)
                0x080694c8                hwchad_
 *fill*         0x0806a7d9        0x7 90909090
 .text          0x0806a7e0      0x706 /home/pcl2483/pedro/jadesoft/util/mcgen/Plib/libherwig59.a(hwconv.o)
                0x0806a7e0                hwconv_
 *fill*         0x0806aee6        0xa 90909090
 .text          0x0806aef0      0xcfc /home/pcl2483/pedro/jadesoft/util/mcgen/Plib/libherwig59.a(hwdhqk.o)
                0x0806aef0                hwdhqk_
 *fill*         0x0806bbec        0x4 90909090
 .text          0x0806bbf0       0x24 /home/pcl2483/pedro/jadesoft/util/mcgen/Plib/libherwig59.a(hwdpwt.o)
                0x0806bbf0                hwdpwt_
 *fill*         0x0806bc14        0xc 90909090
 .text          0x0806bc20      0x2f0 /home/pcl2483/pedro/jadesoft/util/mcgen/Plib/libherwig59.a(hwdthr.o)
                0x0806bc20                hwdthr_
 .text          0x0806bf10      0x16c /home/pcl2483/pedro/jadesoft/util/mcgen/Plib/libherwig59.a(hwdtwo.o)
                0x0806bf10                hwdtwo_
 *fill*         0x0806c07c        0x4 90909090
 .text          0x0806c080       0x34 /home/pcl2483/pedro/jadesoft/util/mcgen/Plib/libherwig59.a(hwdwwt.o)
                0x0806c080                hwdwwt_
 *fill*         0x0806c0b4        0xc 90909090
 .text          0x0806c0c0      0x243 /home/pcl2483/pedro/jadesoft/util/mcgen/Plib/libherwig59.a(hwefin.o)
                0x0806c0c0                hwefin_
 *fill*         0x0806c303        0xd 90909090
 .text          0x0806c310      0x259 /home/pcl2483/pedro/jadesoft/util/mcgen/Plib/libherwig59.a(hweini.o)
                0x0806c310                hweini_
 *fill*         0x0806c569        0x7 90909090
 .text          0x0806c570      0xd32 /home/pcl2483/pedro/jadesoft/util/mcgen/Plib/libherwig59.a(hwepro.o)
                0x0806c570                hwepro_
 *fill*         0x0806d2a2        0xe 90909090
 .text          0x0806d2b0     0x176e /home/pcl2483/pedro/jadesoft/util/mcgen/Plib/libherwig59.a(hwhbgf.o)
                0x0806d2b0                hwhbgf_
 *fill*         0x0806ea1e        0x2 90909090
 .text          0x0806ea20     0x15e3 /home/pcl2483/pedro/jadesoft/util/mcgen/Plib/libherwig59.a(hwhbki.o)
                0x0806ea20                hwhbki_
 *fill*         0x08070003        0xd 90909090
 .text          0x08070010     0x2d1c /home/pcl2483/pedro/jadesoft/util/mcgen/Plib/libherwig59.a(hwhbrn.o)
                0x08070010                hwhbrn_
 *fill*         0x08072d2c        0x4 90909090
 .text          0x08072d30     0x19e2 /home/pcl2483/pedro/jadesoft/util/mcgen/Plib/libherwig59.a(hwhbsg.o)
                0x08072d30                hwhbsg_
 *fill*         0x08074712        0xe 90909090
 .text          0x08074720     0x1cfa /home/pcl2483/pedro/jadesoft/util/mcgen/Plib/libherwig59.a(hwhdis.o)
                0x08074720                hwhdis_
 *fill*         0x0807641a        0x6 90909090
 .text          0x08076420     0x10f9 /home/pcl2483/pedro/jadesoft/util/mcgen/Plib/libherwig59.a(hwhdyp.o)
                0x08076420                hwhdyp_
 *fill*         0x08077519        0x7 90909090
 .text          0x08077520     0x2167 /home/pcl2483/pedro/jadesoft/util/mcgen/Plib/libherwig59.a(hwhegg.o)
                0x08077520                hwhegg_
 *fill*         0x08079687        0x9 90909090
 .text          0x08079690      0xdf4 /home/pcl2483/pedro/jadesoft/util/mcgen/Plib/libherwig59.a(hwhegw.o)
                0x08079690                hwhegw_
 *fill*         0x0807a484        0xc 90909090
 .text          0x0807a490     0x15b0 /home/pcl2483/pedro/jadesoft/util/mcgen/Plib/libherwig59.a(hwhegx.o)
                0x0807a490                hwhegx_
 .text          0x0807ba40      0xd88 /home/pcl2483/pedro/jadesoft/util/mcgen/Plib/libherwig59.a(hwhepa.o)
                0x0807ba40                hwhepa_
 *fill*         0x0807c7c8        0x8 90909090
 .text          0x0807c7d0     0x14ed /home/pcl2483/pedro/jadesoft/util/mcgen/Plib/libherwig59.a(hwhepg.o)
                0x0807c7d0                hwhepg_
 *fill*         0x0807dcbd        0x3 90909090
 .text          0x0807dcc0     0x17eb /home/pcl2483/pedro/jadesoft/util/mcgen/Plib/libherwig59.a(hwheww.o)
                0x0807dcc0                hwheww_
 *fill*         0x0807f4ab        0x5 90909090
 .text          0x0807f4b0     0x1602 /home/pcl2483/pedro/jadesoft/util/mcgen/Plib/libherwig59.a(hwhhvy.o)
                0x0807f4b0                hwhhvy_
 *fill*         0x08080ab2        0xe 90909090
 .text          0x08080ac0      0xc00 /home/pcl2483/pedro/jadesoft/util/mcgen/Plib/libherwig59.a(hwhigj.o)
                0x08080ac0                hwhigj_
 .text          0x080816c0      0x953 /home/pcl2483/pedro/jadesoft/util/mcgen/Plib/libherwig59.a(hwhigm.o)
                0x08081724                hwhigm_
 *fill*         0x08082013        0xd 90909090
 .text          0x08082020      0x8ad /home/pcl2483/pedro/jadesoft/util/mcgen/Plib/libherwig59.a(hwhigs.o)
                0x08082020                hwhigs_
 *fill*         0x080828cd        0x3 90909090
 .text          0x080828d0      0x1f5 /home/pcl2483/pedro/jadesoft/util/mcgen/Plib/libherwig59.a(hwhigt.o)
                0x080828d0                hwhigt_
 *fill*         0x08082ac5        0xb 90909090
 .text          0x08082ad0     0x2425 /home/pcl2483/pedro/jadesoft/util/mcgen/Plib/libherwig59.a(hwhigw.o)
                0x08082ad0                hwhigw_
 *fill*         0x08084ef5        0xb 90909090
 .text          0x08084f00     0x1778 /home/pcl2483/pedro/jadesoft/util/mcgen/Plib/libherwig59.a(hwhigz.o)
                0x08084f00                hwhigz_
 *fill*         0x08086678        0x8 90909090
 .text          0x08086680      0x8b9 /home/pcl2483/pedro/jadesoft/util/mcgen/Plib/libherwig59.a(hwhph2.o)
                0x08086680                hwhph2_
 *fill*         0x08086f39        0x7 90909090
 .text          0x08086f40      0xbd9 /home/pcl2483/pedro/jadesoft/util/mcgen/Plib/libherwig59.a(hwhpho.o)
                0x08086f40                hwhpho_
 *fill*         0x08087b19        0x3 90909090
 .text          0x08087b1c      0x2e0 /home/pcl2483/pedro/jadesoft/util/mcgen/Plib/libherwig59.a(hwhppb.o)
                0x08087b1c                hwhppb_
 *fill*         0x08087dfc        0x4 90909090
 .text          0x08087e00      0x76e /home/pcl2483/pedro/jadesoft/util/mcgen/Plib/libherwig59.a(hwhppe.o)
                0x08087e00                hwhppe_
 *fill*         0x0808856e        0x2 90909090
 .text          0x08088570      0x5ba /home/pcl2483/pedro/jadesoft/util/mcgen/Plib/libherwig59.a(hwhpph.o)
                0x08088570                hwhpph_
 *fill*         0x08088b2a        0x6 90909090
 .text          0x08088b30     0x18fd /home/pcl2483/pedro/jadesoft/util/mcgen/Plib/libherwig59.a(hwhppm.o)
                0x08088b30                hwhppm_
 *fill*         0x0808a42d        0x3 90909090
 .text          0x0808a430      0x750 /home/pcl2483/pedro/jadesoft/util/mcgen/Plib/libherwig59.a(hwhppt.o)
                0x0808a430                hwhppt_
 .text          0x0808ab80      0x624 /home/pcl2483/pedro/jadesoft/util/mcgen/Plib/libherwig59.a(hwhpqs.o)
                0x0808ab80                hwhpqs_
 *fill*         0x0808b1a4        0xc 90909090
 .text          0x0808b1b0     0x1a32 /home/pcl2483/pedro/jadesoft/util/mcgen/Plib/libherwig59.a(hwhqcd.o)
                0x0808b1b0                hwhqcd_
 *fill*         0x0808cbe2        0xe 90909090
 .text          0x0808cbf0      0x1cb /home/pcl2483/pedro/jadesoft/util/mcgen/Plib/libherwig59.a(hwhqcp.o)
                0x0808cbf0                hwhqcp_
 *fill*         0x0808cdbb        0x5 90909090
 .text          0x0808cdc0      0x5c9 /home/pcl2483/pedro/jadesoft/util/mcgen/Plib/libherwig59.a(hwhsng.o)
                0x0808cdc0                hwhsng_
 *fill*         0x0808d389        0x7 90909090
 .text          0x0808d390      0x62c /home/pcl2483/pedro/jadesoft/util/mcgen/Plib/libherwig59.a(hwhsnm.o)
                0x0808d390                hwhsnm_
 *fill*         0x0808d9bc        0x4 90909090
 .text          0x0808d9c0     0x1334 /home/pcl2483/pedro/jadesoft/util/mcgen/Plib/libherwig59.a(hwhv1j.o)
                0x0808d9c0                hwhv1j_
 *fill*         0x0808ecf4        0xc 90909090
 .text          0x0808ed00      0x7d0 /home/pcl2483/pedro/jadesoft/util/mcgen/Plib/libherwig59.a(hwhwex.o)
                0x0808ed00                hwhwex_
 .text          0x0808f4d0      0xac1 /home/pcl2483/pedro/jadesoft/util/mcgen/Plib/libherwig59.a(hwhwpr.o)
                0x0808f4d0                hwhwpr_
 *fill*         0x0808ff91        0xf 90909090
 .text          0x0808ffa0      0xe54 /home/pcl2483/pedro/jadesoft/util/mcgen/Plib/libherwig59.a(hwigin.o)
                0x0808ffa0                hwigin_
 *fill*         0x08090df4        0xc 90909090
 .text          0x08090e00      0x36b /home/pcl2483/pedro/jadesoft/util/mcgen/Plib/libherwig59.a(hwmwgt.o)
                0x08090e00                hwmwgt_
 *fill*         0x0809116b        0x5 90909090
 .text          0x08091170       0xfc /home/pcl2483/pedro/jadesoft/util/mcgen/Plib/libherwig59.a(hwrazm.o)
                0x08091170                hwrazm_
 *fill*         0x0809126c        0x4 90909090
 .text          0x08091270       0xfa /home/pcl2483/pedro/jadesoft/util/mcgen/Plib/libherwig59.a(hwrgau.o)
                0x08091270                hwrgau_
 *fill*         0x0809136a        0x6 90909090
 .text          0x08091370      0x114 /home/pcl2483/pedro/jadesoft/util/mcgen/Plib/libherwig59.a(hwrgen.o)
                0x08091444                hwrset_
                0x08091424                hwrgen_
                0x08091464                hwrget_
 *fill*         0x08091484        0xc 90909090
 .text          0x08091490       0x94 /home/pcl2483/pedro/jadesoft/util/mcgen/Plib/libherwig59.a(hwrint.o)
                0x08091490                hwrint_
 *fill*         0x08091524        0xc 90909090
 .text          0x08091530       0x54 /home/pcl2483/pedro/jadesoft/util/mcgen/Plib/libherwig59.a(hwrlog.o)
                0x08091530                hwrlog_
 *fill*         0x08091584        0xc 90909090
 .text          0x08091590       0x94 /home/pcl2483/pedro/jadesoft/util/mcgen/Plib/libherwig59.a(hwrpip.o)
                0x08091590                hwrpip_
 *fill*         0x08091624        0xc 90909090
 .text          0x08091630      0x124 /home/pcl2483/pedro/jadesoft/util/mcgen/Plib/libherwig59.a(hwrpow.o)
                0x08091630                hwrpow_
 *fill*         0x08091754        0xc 90909090
 .text          0x08091760       0x44 /home/pcl2483/pedro/jadesoft/util/mcgen/Plib/libherwig59.a(hwruni.o)
                0x08091760                hwruni_
 *fill*         0x080917a4        0xc 90909090
 .text          0x080917b0     0x21b4 /home/pcl2483/pedro/jadesoft/util/mcgen/Plib/libherwig59.a(hwsbrn.o)
                0x080917b0                hwsbrn_
 *fill*         0x08093964        0xc 90909090
 .text          0x08093970      0xac9 /home/pcl2483/pedro/jadesoft/util/mcgen/Plib/libherwig59.a(hwsfbr.o)
                0x08093970                hwsfbr_
 *fill*         0x08094439        0x7 90909090
 .text          0x08094440     0x2a40 /home/pcl2483/pedro/jadesoft/util/mcgen/Plib/libherwig59.a(hwsfun.o)
                0x08094440                hwsfun_
 .text          0x08096e80      0x14c /home/pcl2483/pedro/jadesoft/util/mcgen/Plib/libherwig59.a(hwsgam.o)
                0x08096e80                hwsgam_
 *fill*         0x08096fcc        0x4 90909090
 .text          0x08096fd0      0x1c6 /home/pcl2483/pedro/jadesoft/util/mcgen/Plib/libherwig59.a(hwsgen.o)
                0x08096fd0                hwsgen_
 *fill*         0x08097196        0xa 90909090
 .text          0x080971a0      0x123 /home/pcl2483/pedro/jadesoft/util/mcgen/Plib/libherwig59.a(hwsgqq.o)
                0x080971a0                hwsgqq_
 *fill*         0x080972c3        0xd 90909090
 .text          0x080972d0      0x7d2 /home/pcl2483/pedro/jadesoft/util/mcgen/Plib/libherwig59.a(hwsspc.o)
                0x080972d0                hwsspc_
 *fill*         0x08097aa2        0xe 90909090
 .text          0x08097ab0      0x157 /home/pcl2483/pedro/jadesoft/util/mcgen/Plib/libherwig59.a(hwssud.o)
                0x08097ab0                hwssud_
 *fill*         0x08097c07        0x9 90909090
 .text          0x08097c10      0x68b /home/pcl2483/pedro/jadesoft/util/mcgen/Plib/libherwig59.a(hwstab.o)
                0x08097c10                hwstab_
 *fill*         0x0809829b        0x5 90909090
 .text          0x080982a0      0x174 /home/pcl2483/pedro/jadesoft/util/mcgen/Plib/libherwig59.a(hwsval.o)
                0x080982a0                hwsval_
 *fill*         0x08098414        0xc 90909090
 .text          0x08098420      0x2be /home/pcl2483/pedro/jadesoft/util/mcgen/Plib/libherwig59.a(hwuaem.o)
                0x08098420                hwuaem_
 *fill*         0x080986de        0x2 90909090
 .text          0x080986e0      0x199 /home/pcl2483/pedro/jadesoft/util/mcgen/Plib/libherwig59.a(hwuaer.o)
                0x080986e0                hwuaer_
 *fill*         0x08098879        0x7 90909090
 .text          0x08098880      0x95d /home/pcl2483/pedro/jadesoft/util/mcgen/Plib/libherwig59.a(hwualf.o)
                0x08098880                hwualf_
 *fill*         0x080991dd        0x3 90909090
 .text          0x080991e0      0x3f6 /home/pcl2483/pedro/jadesoft/util/mcgen/Plib/libherwig59.a(hwubst.o)
                0x080991e0                hwubst_
 *fill*         0x080995d6        0x2 90909090
 .text          0x080995d8     0x196d /home/pcl2483/pedro/jadesoft/util/mcgen/Plib/libherwig59.a(hwucff.o)
                0x080995d8                hwucff_
 *fill*         0x0809af45        0x3 90909090
 .text          0x0809af48        0x7 /home/pcl2483/pedro/jadesoft/util/mcgen/Plib/libherwig59.a(hwudat.o)
                0x0809af48                hwudat_
 *fill*         0x0809af4f        0x1 90909090
 .text          0x0809af50      0x105 /home/pcl2483/pedro/jadesoft/util/mcgen/Plib/libherwig59.a(hwudkl.o)
                0x0809af50                hwudkl_
 *fill*         0x0809b055        0x3 90909090
 .text          0x0809b058       0x48 /home/pcl2483/pedro/jadesoft/util/mcgen/Plib/libherwig59.a(hwuecm.o)
                0x0809b058                hwuecm_
 .text          0x0809b0a0      0x169 /home/pcl2483/pedro/jadesoft/util/mcgen/Plib/libherwig59.a(hwueec.o)
                0x0809b0a0                hwueec_
 *fill*         0x0809b209        0x7 90909090
 .text          0x0809b210     0x1377 /home/pcl2483/pedro/jadesoft/util/mcgen/Plib/libherwig59.a(hwuepr.o)
                0x0809b210                hwuepr_
 *fill*         0x0809c587        0x9 90909090
 .text          0x0809c590       0x99 /home/pcl2483/pedro/jadesoft/util/mcgen/Plib/libherwig59.a(hwufne.o)
                0x0809c590                hwufne_
 *fill*         0x0809c629        0x7 90909090
 .text          0x0809c630     0x2f7a /home/pcl2483/pedro/jadesoft/util/mcgen/Plib/libherwig59.a(hwuinc.o)
                0x0809c630                hwuinc_
 *fill*         0x0809f5aa        0x6 90909090
 .text          0x0809f5b0      0x1dc /home/pcl2483/pedro/jadesoft/util/mcgen/Plib/libherwig59.a(hwuine.o)
                0x0809f5b0                hwuine_
 *fill*         0x0809f78c        0x4 90909090
 .text          0x0809f790      0x114 /home/pcl2483/pedro/jadesoft/util/mcgen/Plib/libherwig59.a(hwulb4.o)
                0x0809f790                hwulb4_
 *fill*         0x0809f8a4        0xc 90909090
 .text          0x0809f8b0       0x46 /home/pcl2483/pedro/jadesoft/util/mcgen/Plib/libherwig59.a(hwuldo.o)
                0x0809f8b0                hwuldo_
 *fill*         0x0809f8f6        0xa 90909090
 .text          0x0809f900       0x34 /home/pcl2483/pedro/jadesoft/util/mcgen/Plib/libherwig59.a(hwulob.o)
                0x0809f900                hwulob_
 *fill*         0x0809f934        0xc 90909090
 .text          0x0809f940       0x34 /home/pcl2483/pedro/jadesoft/util/mcgen/Plib/libherwig59.a(hwulof.o)
                0x0809f940                hwulof_
 .text          0x0809f974       0x5f /home/pcl2483/pedro/jadesoft/util/mcgen/Plib/libherwig59.a(hwumas.o)
                0x0809f974                hwumas_
 *fill*         0x0809f9d3        0xd 90909090
 .text          0x0809f9e0      0x104 /home/pcl2483/pedro/jadesoft/util/mcgen/Plib/libherwig59.a(hwupcm.o)
                0x0809f9e0                hwupcm_
 *fill*         0x0809fae4        0xc 90909090
 .text          0x0809faf0     0x2021 /home/pcl2483/pedro/jadesoft/util/mcgen/Plib/libherwig59.a(hwures.o)
                0x0809faf0                hwures_
 *fill*         0x080a1b11        0xf 90909090
 .text          0x080a1b20       0xb4 /home/pcl2483/pedro/jadesoft/util/mcgen/Plib/libherwig59.a(hwurob.o)
                0x080a1b20                hwurob_
 *fill*         0x080a1bd4        0xc 90909090
 .text          0x080a1be0       0xb4 /home/pcl2483/pedro/jadesoft/util/mcgen/Plib/libherwig59.a(hwurof.o)
                0x080a1be0                hwurof_
 *fill*         0x080a1c94        0xc 90909090
 .text          0x080a1ca0      0x241 /home/pcl2483/pedro/jadesoft/util/mcgen/Plib/libherwig59.a(hwurot.o)
                0x080a1ca0                hwurot_
 *fill*         0x080a1ee1        0x3 90909090
 .text          0x080a1ee4       0x4f /home/pcl2483/pedro/jadesoft/util/mcgen/Plib/libherwig59.a(hwusqr.o)
                0x080a1ee4                hwusqr_
 *fill*         0x080a1f33        0xd 90909090
 .text          0x080a1f40      0xa7c /home/pcl2483/pedro/jadesoft/util/mcgen/Plib/libherwig59.a(hwutab.o)
                0x080a1f40                hwutab_
 *fill*         0x080a29bc        0x4 90909090
 .text          0x080a29c0       0x14 /home/pcl2483/pedro/jadesoft/util/mcgen/Plib/libherwig59.a(hwutim.o)
                0x080a29c0                hwutim_
 *fill*         0x080a29d4        0xc 90909090
 .text          0x080a29e0      0x13f /home/pcl2483/pedro/jadesoft/util/mcgen/Plib/libherwig59.a(hwvdif.o)
                0x080a29e0                hwvdif_
 *fill*         0x080a2b1f        0x1 90909090
 .text          0x080a2b20      0x10b /home/pcl2483/pedro/jadesoft/util/mcgen/Plib/libherwig59.a(hwvdot.o)
                0x080a2b20                hwvdot_
 *fill*         0x080a2c2b        0x5 90909090
 .text          0x080a2c30       0xe1 /home/pcl2483/pedro/jadesoft/util/mcgen/Plib/libherwig59.a(hwvequ.o)
                0x080a2c30                hwvequ_
 *fill*         0x080a2d11        0xf 90909090
 .text          0x080a2d20       0xec /home/pcl2483/pedro/jadesoft/util/mcgen/Plib/libherwig59.a(hwvsca.o)
                0x080a2d20                hwvsca_
 *fill*         0x080a2e0c        0x4 90909090
 .text          0x080a2e10      0x13f /home/pcl2483/pedro/jadesoft/util/mcgen/Plib/libherwig59.a(hwvsum.o)
                0x080a2e10                hwvsum_
 *fill*         0x080a2f4f        0x1 90909090
 .text          0x080a2f50       0x7c /home/pcl2483/pedro/jadesoft/util/mcgen/Plib/libherwig59.a(hwvzro.o)
                0x080a2f50                hwvzro_
 *fill*         0x080a2fcc        0x4 90909090
 .text          0x080a2fd0      0x284 /home/pcl2483/pedro/jadesoft/util/mcgen/Plib/libherwig59.a(hwwarn.o)
                0x080a2fd0                hwwarn_
 *fill*         0x080a3254        0xc 90909090
 .text          0x080a3260       0x34 /home/pcl2483/pedro/jadesoft/util/mcgen/Plib/libherwig59.a(pdfset.o)
                0x080a3260                pdfset_
 *fill*         0x080a3294        0xc 90909090
 .text          0x080a32a0     0x133f /home/pcl2483/pedro/jadesoft/util/mcgen/Plib/libherwig59.a(sasgam.o)
                0x080a32a0                sasgam_
 *fill*         0x080a45df        0x1 90909090
 .text          0x080a45e0     0x278e /home/pcl2483/pedro/jadesoft/util/mcgen/Plib/libherwig59.a(sasvmd.o)
                0x080a45e0                sasvmd_
 *fill*         0x080a6d6e        0x2 90909090
 .text          0x080a6d70       0x34 /home/pcl2483/pedro/jadesoft/util/mcgen/Plib/libherwig59.a(structm.o)
                0x080a6d70                structm_
 *fill*         0x080a6da4        0xc 90909090
 .text          0x080a6db0       0x34 /home/pcl2483/pedro/jadesoft/util/mcgen/Plib/libherwig59.a(hvcbvi.o)
                0x080a6db0                hvcbvi_
 *fill*         0x080a6de4        0xc 90909090
 .text          0x080a6df0       0x34 /home/pcl2483/pedro/jadesoft/util/mcgen/Plib/libherwig59.a(hvhbvi.o)
                0x080a6df0                hvhbvi_
 *fill*         0x080a6e24        0xc 90909090
 .text          0x080a6e30       0x3a /home/pcl2483/pedro/jadesoft/util/mcgen/Plib/libherwig59.a(hwaend.o)
                0x080a6e30                hwaend_
 *fill*         0x080a6e6a        0x6 90909090
 .text          0x080a6e70      0x468 /home/pcl2483/pedro/jadesoft/util/mcgen/Plib/libherwig59.a(hwbazf.o)
                0x080a6e70                hwbazf_
 *fill*         0x080a72d8        0x8 90909090
 .text          0x080a72e0      0x57d /home/pcl2483/pedro/jadesoft/util/mcgen/Plib/libherwig59.a(hwbcon.o)
                0x080a72e0                hwbcon_
 *fill*         0x080a785d        0x3 90909090
 .text          0x080a7860     0x2275 /home/pcl2483/pedro/jadesoft/util/mcgen/Plib/libherwig59.a(hwbded.o)
                0x080a78ac                hwbded_
 *fill*         0x080a9ad5        0xb 90909090
 .text          0x080a9ae0     0x4c92 /home/pcl2483/pedro/jadesoft/util/mcgen/Plib/libherwig59.a(hwbdis.o)
                0x080a9ae0                hwbdis_
 *fill*         0x080ae772        0xe 90909090
 .text          0x080ae780      0x7a0 /home/pcl2483/pedro/jadesoft/util/mcgen/Plib/libherwig59.a(hwbfin.o)
                0x080ae780                hwbfin_
 .text          0x080aef20     0x11c2 /home/pcl2483/pedro/jadesoft/util/mcgen/Plib/libherwig59.a(hwbsud.o)
                0x080aef20                hwbsud_
 *fill*         0x080b00e2        0xe 90909090
 .text          0x080b00f0       0x74 /home/pcl2483/pedro/jadesoft/util/mcgen/Plib/libherwig59.a(hwbsug.o)
                0x080b00f0                hwbsug_
 *fill*         0x080b0164        0xc 90909090
 .text          0x080b0170      0x5e7 /home/pcl2483/pedro/jadesoft/util/mcgen/Plib/libherwig59.a(hwbsul.o)
                0x080b01f0                hwbsul_
 *fill*         0x080b0757        0x9 90909090
 .text          0x080b0760      0xe4d /home/pcl2483/pedro/jadesoft/util/mcgen/Plib/libherwig59.a(hwccut.o)
                0x080b0760                hwccut_
 *fill*         0x080b15ad        0x3 90909090
 .text          0x080b15b0      0x809 /home/pcl2483/pedro/jadesoft/util/mcgen/Plib/libherwig59.a(hwdboz.o)
                0x080b15b0                hwdboz_
 *fill*         0x080b1db9        0x7 90909090
 .text          0x080b1dc0     0x185f /home/pcl2483/pedro/jadesoft/util/mcgen/Plib/libherwig59.a(hwdhig.o)
                0x080b1dc0                hwdhig_
 *fill*         0x080b361f        0x1 90909090
 .text          0x080b3620     0x12fd /home/pcl2483/pedro/jadesoft/util/mcgen/Plib/libherwig59.a(hwegam.o)
                0x080b3620                hwegam_
 *fill*         0x080b491d        0x3 90909090
 .text          0x080b4920     0x2119 /home/pcl2483/pedro/jadesoft/util/mcgen/Plib/libherwig59.a(hweisr.o)
                0x080b4920                hweisr_
 *fill*         0x080b6a39        0x7 90909090
 .text          0x080b6a40      0x5fc /home/pcl2483/pedro/jadesoft/util/mcgen/Plib/libherwig59.a(hweone.o)
                0x080b6a40                hweone_
 *fill*         0x080b703c        0x4 90909090
 .text          0x080b7040      0xa93 /home/pcl2483/pedro/jadesoft/util/mcgen/Plib/libherwig59.a(hwetwo.o)
                0x080b7040                hwetwo_
 *fill*         0x080b7ad3        0xd 90909090
 .text          0x080b7ae0      0x446 /home/pcl2483/pedro/jadesoft/util/mcgen/Plib/libherwig59.a(hwhew0.o)
                0x080b7ae0                hwhew0_
 *fill*         0x080b7f26        0xa 90909090
 .text          0x080b7f30      0x240 /home/pcl2483/pedro/jadesoft/util/mcgen/Plib/libherwig59.a(hwhew1.o)
                0x080b7f30                hwhew1_
 .text          0x080b8170      0xd9f /home/pcl2483/pedro/jadesoft/util/mcgen/Plib/libherwig59.a(hwhew2.o)
                0x080b8170                hwhew2_
 *fill*         0x080b8f0f        0x1 90909090
 .text          0x080b8f10      0x844 /home/pcl2483/pedro/jadesoft/util/mcgen/Plib/libherwig59.a(hwhew3.o)
                0x080b8f10                hwhew3_
 *fill*         0x080b9754        0xc 90909090
 .text          0x080b9760      0x1da /home/pcl2483/pedro/jadesoft/util/mcgen/Plib/libherwig59.a(hwhew4.o)
                0x080b9760                hwhew4_
 *fill*         0x080b993a        0x6 90909090
 .text          0x080b9940     0x11b1 /home/pcl2483/pedro/jadesoft/util/mcgen/Plib/libherwig59.a(hwhew5.o)
                0x080b9940                hwhew5_
 *fill*         0x080baaf1        0xf 90909090
 .text          0x080bab00     0x1037 /home/pcl2483/pedro/jadesoft/util/mcgen/Plib/libherwig59.a(hwhiga.o)
                0x080bab00                hwhiga_
 *fill*         0x080bbb37        0x9 90909090
 .text          0x080bbb40     0x1287 /home/pcl2483/pedro/jadesoft/util/mcgen/Plib/libherwig59.a(hwhigb.o)
                0x080bcd48                hwhigc_
                0x080bcd88                hwhigd_
                0x080bcd08                hwhigb_
 *fill*         0x080bcdc7        0x9 90909090
 .text          0x080bcdd0     0x1deb /home/pcl2483/pedro/jadesoft/util/mcgen/Plib/libherwig59.a(hwhigy.o)
                0x080be860                hwhigy_
 *fill*         0x080bebbb        0x5 90909090
 .text          0x080bebc0      0x11b /home/pcl2483/pedro/jadesoft/util/mcgen/Plib/libherwig59.a(hwrexq.o)
                0x080bebc0                hwrexq_
 *fill*         0x080becdb        0x5 90909090
 .text          0x080bece0      0x270 /home/pcl2483/pedro/jadesoft/util/mcgen/Plib/libherwig59.a(hwsdgg.o)
                0x080bece0                hwsdgg_
 .text          0x080bef50      0x655 /home/pcl2483/pedro/jadesoft/util/mcgen/Plib/libherwig59.a(hwsdgq.o)
                0x080bef50                hwsdgq_
 *fill*         0x080bf5a5        0xb 90909090
 .text          0x080bf5b0      0x29f /home/pcl2483/pedro/jadesoft/util/mcgen/Plib/libherwig59.a(hwuant.o)
                0x080bf5b0                hwuant_
 *fill*         0x080bf84f        0x1 90909090
 .text          0x080bf850      0x486 /home/pcl2483/pedro/jadesoft/util/mcgen/Plib/libherwig59.a(hwubpr.o)
                0x080bf850                hwubpr_
 *fill*         0x080bfcd6        0xa 90909090
 .text          0x080bfce0      0x3e9 /home/pcl2483/pedro/jadesoft/util/mcgen/Plib/libherwig59.a(hwuci2.o)
                0x080bfce0                hwuci2_
 *fill*         0x080c00c9        0x7 90909090
 .text          0x080c00d0     0x231f /home/pcl2483/pedro/jadesoft/util/mcgen/Plib/libherwig59.a(hwudks.o)
                0x080c01f8                hwudks_
 *fill*         0x080c23ef        0x1 90909090
 .text          0x080c23f0      0x609 /home/pcl2483/pedro/jadesoft/util/mcgen/Plib/libherwig59.a(hwudpr.o)
                0x080c23f0                hwudpr_
 *fill*         0x080c29f9        0x7 90909090
 .text          0x080c2a00      0x881 /home/pcl2483/pedro/jadesoft/util/mcgen/Plib/libherwig59.a(hwuedt.o)
                0x080c2a00                hwuedt_
 *fill*         0x080c3281        0xf 90909090
 .text          0x080c3290      0x407 /home/pcl2483/pedro/jadesoft/util/mcgen/Plib/libherwig59.a(hwuemv.o)
                0x080c3290                hwuemv_
 *fill*         0x080c3697        0x9 90909090
 .text          0x080c36a0      0x30d /home/pcl2483/pedro/jadesoft/util/mcgen/Plib/libherwig59.a(hwugau.o)
                0x080c36a0                hwugau_
 *fill*         0x080c39ad        0x3 90909090
 .text          0x080c39b0      0x314 /home/pcl2483/pedro/jadesoft/util/mcgen/Plib/libherwig59.a(hwuidt.o)
                0x080c39b0                hwuidt_
 *fill*         0x080c3cc4        0xc 90909090
 .text          0x080c3cd0      0x114 /home/pcl2483/pedro/jadesoft/util/mcgen/Plib/libherwig59.a(hwulf4.o)
                0x080c3cd0                hwulf4_
 *fill*         0x080c3de4        0xc 90909090
 .text          0x080c3df0      0xfef /home/pcl2483/pedro/jadesoft/util/mcgen/Plib/libherwig59.a(hwuli2.o)
                0x080c46e4                hwuli2_
 *fill*         0x080c4ddf        0x1 90909090
 .text          0x080c4de0      0x40c /home/pcl2483/pedro/jadesoft/util/mcgen/Plib/libherwig59.a(hwusor.o)
                0x080c4de0                hwusor_
 *fill*         0x080c51ec        0x4 90909090
 .text          0x080c51f0     0x1803 /home/pcl2483/pedro/jadesoft/util/mcgen/Plib/libherwig59.a(sasano.o)
                0x080c51f0                sasano_
 *fill*         0x080c69f3        0xd 90909090
 .text          0x080c6a00      0x4c8 /home/pcl2483/pedro/jadesoft/util/mcgen/Plib/libherwig59.a(sasbeh.o)
                0x080c6a00                sasbeh_
 *fill*         0x080c6ec8        0x8 90909090
 .text          0x080c6ed0      0x191 /home/pcl2483/pedro/jadesoft/util/mcgen/Plib/libherwig59.a(sasdir.o)
                0x080c6ed0                sasdir_
 *fill*         0x080c7061        0xf 90909090
 .text          0x080c7070       0x64 /home/pcl2483/pedro/jadesoft/util/mcgen/Plib/libherwig59.a(hwbsu1.o)
                0x080c7070                hwbsu1_
 *fill*         0x080c70d4        0xc 90909090
 .text          0x080c70e0       0x44 /home/pcl2483/pedro/jadesoft/util/mcgen/Plib/libherwig59.a(hwbsu2.o)
                0x080c70e0                hwbsu2_
 *fill*         0x080c7124        0xc 90909090
 .text          0x080c7130      0x781 /home/pcl2483/pedro/jadesoft/util/mcgen/Plib/libherwig59.a(hwdchk.o)
                0x080c7130                hwdchk_
 *fill*         0x080c78b1        0xf 90909090
 .text          0x080c78c0      0x121 /home/pcl2483/pedro/jadesoft/util/mcgen/Plib/libherwig59.a(hwdhgc.o)
                0x080c78c0                hwdhgc_
 *fill*         0x080c79e1        0xf 90909090
 .text          0x080c79f0      0x5a9 /home/pcl2483/pedro/jadesoft/util/mcgen/Plib/libherwig59.a(hwdhgf.o)
                0x080c79f0                hwdhgf_
 *fill*         0x080c7f99        0x7 90909090
 .text          0x080c7fa0       0x34 /home/pcl2483/pedro/jadesoft/util/mcgen/Plib/libherwig59.a(hwdtop.o)
                0x080c7fa0                hwdtop_
 *fill*         0x080c7fd4        0xc 90909090
 .text          0x080c7fe0     0x203b /home/pcl2483/pedro/jadesoft/util/mcgen/Plib/libherwig59.a(hwhig1.o)
                0x080c9fc4                hwhig5_
                0x080c9f68                hwhig2_
                0x080c9f10                hwhig1_
 *fill*         0x080ca01b        0x5 90909090
 .text          0x080ca020      0x552 /home/pcl2483/pedro/jadesoft/util/mcgen/Plib/libjt74opal.a(luchge.o)
                0x080ca020                luchge_
 *fill*         0x080ca572        0xe 90909090
 .text          0x080ca580      0x957 /home/pcl2483/pedro/jadesoft/util/mcgen/Plib/libjt74opal.a(lucomp.o)
                0x080ca580                lucomp_
 *fill*         0x080caed7        0x1 90909090
 .text          0x080caed8        0x7 /home/pcl2483/pedro/jadesoft/util/mcgen/Plib/libjt74opal.a(ludata.o)
                0x080caed8                ludata_
 *fill*         0x080caedf        0x1 90909090
 .text          0x080caee0     0x2a61 /home/pcl2483/pedro/jadesoft/util/mcgen/Plib/libjt74opal.a(luedit.o)
                0x080caee0                luedit_
 *fill*         0x080cd941        0xf 90909090
 .text          0x080cd950      0x2c2 /home/pcl2483/pedro/jadesoft/util/mcgen/Plib/libjt74opal.a(luerrm.o)
                0x080cd950                luerrm_
 *fill*         0x080cdc12        0xe 90909090
 .text          0x080cdc20      0xa45 /home/pcl2483/pedro/jadesoft/util/mcgen/Plib/libjt74opal.a(luexec.o)
                0x080cdc20                luexec_
 *fill*         0x080ce665        0xb 90909090
 .text          0x080ce670     0x14ee /home/pcl2483/pedro/jadesoft/util/mcgen/Plib/libjt74opal.a(luhepc.o)
                0x080ce670                luhepc_
 *fill*         0x080cfb5e        0x2 90909090
 .text          0x080cfb60     0x4bef /home/pcl2483/pedro/jadesoft/util/mcgen/Plib/libjt74opal.a(luindf.o)
                0x080cfb60                luindf_
 *fill*         0x080d474f        0x1 90909090
 .text          0x080d4750     0x31f6 /home/pcl2483/pedro/jadesoft/util/mcgen/Plib/libjt74opal.a(lukfdi.o)
                0x080d4750                lukfdi_
 *fill*         0x080d7946        0xa 90909090
 .text          0x080d7950     0x2766 /home/pcl2483/pedro/jadesoft/util/mcgen/Plib/libjt74opal.a(lulist.o)
                0x080d7950                lulist_
 *fill*         0x080da0b6        0xa 90909090
 .text          0x080da0c0      0x69a /home/pcl2483/pedro/jadesoft/util/mcgen/Plib/libjt74opal.a(lulogo.o)
                0x080da0c0                lulogo_
 *fill*         0x080da75a        0x6 90909090
 .text          0x080da760      0xdd4 /home/pcl2483/pedro/jadesoft/util/mcgen/Plib/libjt74opal.a(luname.o)
                0x080da760                luname_
 *fill*         0x080db534        0xc 90909090
 .text          0x080db540     0x39ef /home/pcl2483/pedro/jadesoft/util/mcgen/Plib/libjt74opal.a(luprep.o)
                0x080db540                luprep_
 *fill*         0x080def2f        0x1 90909090
 .text          0x080def30      0x177 /home/pcl2483/pedro/jadesoft/util/mcgen/Plib/libjt74opal.a(luptdi.o)
                0x080def30                luptdi_
 *fill*         0x080df0a7        0x9 90909090
 .text          0x080df0b0      0xc9b /home/pcl2483/pedro/jadesoft/util/mcgen/Plib/libjt74opal.a(lurobo.o)
                0x080dfcd0                lurobo_
                0x080dfd0c                ludbrb_
 *fill*         0x080dfd4b        0x5 90909090
 .text          0x080dfd50     0x9eb1 /home/pcl2483/pedro/jadesoft/util/mcgen/Plib/libjt74opal.a(lushow.o)
                0x080dfd50                lushow_
 *fill*         0x080e9c01        0xf 90909090
 .text          0x080e9c10     0xb76f /home/pcl2483/pedro/jadesoft/util/mcgen/Plib/libjt74opal.a(lustrf.o)
                0x080e9d78                lustrf_
 *fill*         0x080f537f        0x1 90909090
 .text          0x080f5380     0x60f3 /home/pcl2483/pedro/jadesoft/util/mcgen/Plib/libjt74opal.a(lutabu.o)
                0x080f5380                lutabu_
 *fill*         0x080fb473        0xd 90909090
 .text          0x080fb480      0xc5b /home/pcl2483/pedro/jadesoft/util/mcgen/Plib/libjt74opal.a(luzdis.o)
                0x080fb480                luzdis_
 *fill*         0x080fc0db        0x5 90909090
 .text          0x080fc0e0      0xa80 /home/pcl2483/pedro/jadesoft/util/mcgen/Plib/libjt74opal.a(plu.o)
                0x080fc0e0                plu_
 .text          0x080fcb60      0x597 /home/pcl2483/pedro/jadesoft/util/mcgen/Plib/libjt74opal.a(rlu.o)
                0x080fcb60                rlu_
 *fill*         0x080fd0f7        0x9 90909090
 .text          0x080fd100      0x139 /home/pcl2483/pedro/jadesoft/util/mcgen/Plib/libjt74opal.a(ulangl.o)
                0x080fd100                ulangl_
 *fill*         0x080fd239        0x7 90909090
 .text          0x080fd240      0x92a /home/pcl2483/pedro/jadesoft/util/mcgen/Plib/libjt74opal.a(ulmass.o)
                0x080fd240                ulmass_
 *fill*         0x080fdb6a        0x6 90909090
 .text          0x080fdb70     0x1e4f /home/pcl2483/pedro/jadesoft/util/mcgen/Plib/libjt74opal.a(luboei.o)
                0x080fdb70                luboei_
 *fill*         0x080ff9bf        0x1 90909090
 .text          0x080ff9c0     0x7150 /home/pcl2483/pedro/jadesoft/util/mcgen/Plib/libjt74opal.a(ludecy.o)
                0x080ffb78                ludecy_
 .text          0x08106b10     0x123c /home/pcl2483/pedro/jadesoft/util/mcgen/Plib/libjt74opal.a(lutaud.o)
                0x08106b10                lutaud_
 *fill*         0x08107d4c        0x4 90909090
 .text          0x08107d50      0x205 /home/pcl2483/pedro/jadesoft/util/mcgen/Plib/libjt74opal.a(taupol.o)
                0x08107d50                taupol_
 *fill*         0x08107f55        0xb 90909090
 .text          0x08107f60      0x776 /home/pcl2483/pedro/jadesoft/util/mcgen/Plib/libjt74opal.a(dexay.o)
                0x08107f60                dexay_
 *fill*         0x081086d6        0xa 90909090
 .text          0x081086e0      0x42c /home/pcl2483/pedro/jadesoft/util/mcgen/Plib/libjt74opal.a(dexay1.o)
                0x081086e0                dexay1_
 *fill*         0x08108b0c        0x4 90909090
 .text          0x08108b10      0x154 /home/pcl2483/pedro/jadesoft/util/mcgen/Plib/libjt74opal.a(dexel.o)
                0x08108b10                dexel_
 *fill*         0x08108c64        0xc 90909090
 .text          0x08108c70      0x104 /home/pcl2483/pedro/jadesoft/util/mcgen/Plib/libjt74opal.a(dexkk.o)
                0x08108c70                dexkk_
 *fill*         0x08108d74        0xc 90909090
 .text          0x08108d80      0x164 /home/pcl2483/pedro/jadesoft/util/mcgen/Plib/libjt74opal.a(dexks.o)
                0x08108d80                dexks_
 *fill*         0x08108ee4        0xc 90909090
 .text          0x08108ef0      0x164 /home/pcl2483/pedro/jadesoft/util/mcgen/Plib/libjt74opal.a(dexmu.o)
                0x08108ef0                dexmu_
 *fill*         0x08109054        0xc 90909090
 .text          0x08109060      0x15c /home/pcl2483/pedro/jadesoft/util/mcgen/Plib/libjt74opal.a(dexnew.o)
                0x08109060                dexnew_
 *fill*         0x081091bc        0x4 90909090
 .text          0x081091c0      0x104 /home/pcl2483/pedro/jadesoft/util/mcgen/Plib/libjt74opal.a(dexpi.o)
                0x081091c0                dexpi_
 *fill*         0x081092c4        0xc 90909090
 .text          0x081092d0      0x15a /home/pcl2483/pedro/jadesoft/util/mcgen/Plib/libjt74opal.a(dexro.o)
                0x081092d0                dexro_
 *fill*         0x0810942a        0x6 90909090
 .text          0x08109430      0x1bc /home/pcl2483/pedro/jadesoft/util/mcgen/Plib/libjt74opal.a(dwlnew.o)
                0x08109430                dwlnew_
 *fill*         0x081095ec        0x4 90909090
 .text          0x081095f0      0x268 /home/pcl2483/pedro/jadesoft/util/mcgen/Plib/libjt74opal.a(dwluaa.o)
                0x081095f0                dwluaa_
 *fill*         0x08109858        0x8 90909090
 .text          0x08109860      0x104 /home/pcl2483/pedro/jadesoft/util/mcgen/Plib/libjt74opal.a(dwluel.o)
                0x08109860                dwluel_
 *fill*         0x08109964        0xc 90909090
 .text          0x08109970       0xb5 /home/pcl2483/pedro/jadesoft/util/mcgen/Plib/libjt74opal.a(dwlukk.o)
                0x08109970                dwlukk_
 *fill*         0x08109a25        0xb 90909090
 .text          0x08109a30      0x244 /home/pcl2483/pedro/jadesoft/util/mcgen/Plib/libjt74opal.a(dwluks.o)
                0x08109a30                dwluks_
 *fill*         0x08109c74        0xc 90909090
 .text          0x08109c80      0x104 /home/pcl2483/pedro/jadesoft/util/mcgen/Plib/libjt74opal.a(dwlumu.o)
                0x08109c80                dwlumu_
 *fill*         0x08109d84        0xc 90909090
 .text          0x08109d90       0xab /home/pcl2483/pedro/jadesoft/util/mcgen/Plib/libjt74opal.a(dwlupi.o)
                0x08109d90                dwlupi_
 *fill*         0x08109e3b        0x5 90909090
 .text          0x08109e40      0x134 /home/pcl2483/pedro/jadesoft/util/mcgen/Plib/libjt74opal.a(dwluro.o)
                0x08109e40                dwluro_
 *fill*         0x08109f74        0xc 90909090
 .text          0x08109f80       0xda /home/pcl2483/pedro/jadesoft/util/mcgen/Plib/libjt74opal.a(dwrph.o)
                0x08109f80                dwrph_
 *fill*         0x0810a05a        0x6 90909090
 .text          0x0810a060      0x391 /home/pcl2483/pedro/jadesoft/util/mcgen/Plib/libjt74opal.a(filhep.o)
                0x0810a060                filhep_
 *fill*         0x0810a3f1        0xf 90909090
 .text          0x0810a400      0xd35 /home/pcl2483/pedro/jadesoft/util/mcgen/Plib/libjt74opal.a(initdk.o)
                0x0810a400                initdk_
 *fill*         0x0810b135        0xb 90909090
 .text          0x0810b140      0x170 /home/pcl2483/pedro/jadesoft/util/mcgen/Plib/libjt74opal.a(jaker.o)
                0x0810b140                jaker_
 .text          0x0810b2b0      0x214 /home/pcl2483/pedro/jadesoft/util/mcgen/Plib/libjt74opal.a(lunpik.o)
                0x0810b2b0                lunpik_
 *fill*         0x0810b4c4        0xc 90909090
 .text          0x0810b4d0      0x5a8 /home/pcl2483/pedro/jadesoft/util/mcgen/Plib/libjt74opal.a(dadmel.o)
                0x0810b4d0                dadmel_
 *fill*         0x0810ba78        0x8 90909090
 .text          0x0810ba80      0x577 /home/pcl2483/pedro/jadesoft/util/mcgen/Plib/libjt74opal.a(dadmkk.o)
                0x0810ba80                dadmkk_
 *fill*         0x0810bff7        0x9 90909090
 .text          0x0810c000      0x5b8 /home/pcl2483/pedro/jadesoft/util/mcgen/Plib/libjt74opal.a(dadmks.o)
                0x0810c000                dadmks_
 *fill*         0x0810c5b8        0x8 90909090
 .text          0x0810c5c0      0x598 /home/pcl2483/pedro/jadesoft/util/mcgen/Plib/libjt74opal.a(dadmmu.o)
                0x0810c5c0                dadmmu_
 *fill*         0x0810cb58        0x8 90909090
 .text          0x0810cb60      0x56d /home/pcl2483/pedro/jadesoft/util/mcgen/Plib/libjt74opal.a(dadmpi.o)
                0x0810cb60                dadmpi_
 *fill*         0x0810d0cd        0x3 90909090
 .text          0x0810d0d0      0x558 /home/pcl2483/pedro/jadesoft/util/mcgen/Plib/libjt74opal.a(dadmro.o)
                0x0810d0d0                dadmro_
 *fill*         0x0810d628        0x8 90909090
 .text          0x0810d630      0xace /home/pcl2483/pedro/jadesoft/util/mcgen/Plib/libjt74opal.a(dadnew.o)
                0x0810d630                dadnew_
 *fill*         0x0810e0fe        0x2 90909090
 .text          0x0810e100      0x185 /home/pcl2483/pedro/jadesoft/util/mcgen/Plib/libjt74opal.a(dexaa.o)
                0x0810e100                dexaa_
 *fill*         0x0810e285        0xb 90909090
 .text          0x0810e290     0x1f8c /home/pcl2483/pedro/jadesoft/util/mcgen/Plib/libjt74opal.a(dph4pi.o)
                0x0810e2e4                dph4pi_
 *fill*         0x0811021c        0x4 90909090
 .text          0x08110220     0x17fc /home/pcl2483/pedro/jadesoft/util/mcgen/Plib/libjt74opal.a(dph5pi.o)
                0x08110354                dph5pi_
 *fill*         0x08111a1c        0x4 90909090
 .text          0x08111a20     0x192f /home/pcl2483/pedro/jadesoft/util/mcgen/Plib/libjt74opal.a(dphnpi.o)
                0x08111ae0                dphnpi_
 *fill*         0x0811334f        0x1 90909090
 .text          0x08113350      0x17b /home/pcl2483/pedro/jadesoft/util/mcgen/Plib/libjt74opal.a(dphsel.o)
                0x08113350                dphsel_
 *fill*         0x081134cb        0x5 90909090
 .text          0x081134d0     0x138f /home/pcl2483/pedro/jadesoft/util/mcgen/Plib/libjt74opal.a(dphsks.o)
                0x081134d0                dphsks_
 *fill*         0x0811485f        0x1 90909090
 .text          0x08114860      0x17b /home/pcl2483/pedro/jadesoft/util/mcgen/Plib/libjt74opal.a(dphsmu.o)
                0x08114860                dphsmu_
 *fill*         0x081149db        0x5 90909090
 .text          0x081149e0      0x1b9 /home/pcl2483/pedro/jadesoft/util/mcgen/Plib/libjt74opal.a(dphspk.o)
                0x081149e0                dphspk_
 *fill*         0x08114b99        0x7 90909090
 .text          0x08114ba0      0x870 /home/pcl2483/pedro/jadesoft/util/mcgen/Plib/libjt74opal.a(dphsrk.o)
                0x08114ba0                dphsrk_
 .text          0x08115410      0x85f /home/pcl2483/pedro/jadesoft/util/mcgen/Plib/libjt74opal.a(dphsro.o)
                0x08115410                dphsro_
 *fill*         0x08115c6f        0x1 90909090
 .text          0x08115c70     0x13cd /home/pcl2483/pedro/jadesoft/util/mcgen/Plib/libjt74opal.a(dphtre.o)
                0x08115cc4                dphtre_
 *fill*         0x0811703d        0x3 90909090
 .text          0x08117040      0xcee /home/pcl2483/pedro/jadesoft/util/mcgen/Plib/libjt74opal.a(drcmu.o)
                0x08117040                drcmu_
 *fill*         0x08117d2e        0x2 90909090
 .text          0x08117d30       0x87 /home/pcl2483/pedro/jadesoft/util/mcgen/Plib/libjt74opal.a(dwluph.o)
                0x08117d30                dwluph_
 *fill*         0x08117db7        0x1 90909090
 .text          0x08117db8       0x3d /home/pcl2483/pedro/jadesoft/util/mcgen/Plib/libjt74opal.a(fpirho.o)
                0x08117db8                fpirho_
 *fill*         0x08117df5        0x3 90909090
 .text          0x08117df8       0x44 /home/pcl2483/pedro/jadesoft/util/mcgen/Plib/libjt74opal.a(fpirk.o)
                0x08117df8                fpirk_
 *fill*         0x08117e3c        0x4 90909090
 .text          0x08117e40      0x109 /home/pcl2483/pedro/jadesoft/util/mcgen/Plib/libjt74opal.a(rotor2.o)
                0x08117e40                rotor2_
 *fill*         0x08117f49        0x7 90909090
 .text          0x08117f50       0xf9 /home/pcl2483/pedro/jadesoft/util/mcgen/Plib/libjt74opal.a(rotor3.o)
                0x08117f50                rotor3_
 *fill*         0x08118049        0x7 90909090
 .text          0x08118050       0x3a /home/pcl2483/pedro/jadesoft/util/mcgen/Plib/libjt74opal.a(rotpol.o)
                0x08118050                rotpol_
 *fill*         0x0811808a        0x6 90909090
 .text          0x08118090       0x3a /home/pcl2483/pedro/jadesoft/util/mcgen/Plib/libjt74opal.a(rotpox.o)
                0x08118090                rotpox_
 *fill*         0x081180ca        0x6 90909090
 .text          0x081180d0      0x67c /home/pcl2483/pedro/jadesoft/util/mcgen/Plib/libjt74opal.a(sigee.o)
                0x081180d0                sigee_
 .text          0x0811874c      0x11d /home/pcl2483/pedro/jadesoft/util/mcgen/Plib/libjt74opal.a(sphera.o)
                0x0811874c                sphera_
 *fill*         0x08118869        0x3 90909090
 .text          0x0811886c      0x115 /home/pcl2483/pedro/jadesoft/util/mcgen/Plib/libjt74opal.a(spherd.o)
                0x0811886c                spherd_
 *fill*         0x08118981        0xf 90909090
 .text          0x08118990       0xff /home/pcl2483/pedro/jadesoft/util/mcgen/Plib/libjt74opal.a(bostd3.o)
                0x08118990                bostd3_
 *fill*         0x08118a8f        0x1 90909090
 .text          0x08118a90       0xff /home/pcl2483/pedro/jadesoft/util/mcgen/Plib/libjt74opal.a(bostr3.o)
                0x08118a90                bostr3_
 *fill*         0x08118b8f        0x1 90909090
 .text          0x08118b90      0x267 /home/pcl2483/pedro/jadesoft/util/mcgen/Plib/libjt74opal.a(bwigs.o)
                0x08118c34                bwigs_
 *fill*         0x08118df7        0x9 90909090
 .text          0x08118e00      0x5b8 /home/pcl2483/pedro/jadesoft/util/mcgen/Plib/libjt74opal.a(choice.o)
                0x08118e00                choice_
 *fill*         0x081193b8        0x8 90909090
 .text          0x081193c0      0x508 /home/pcl2483/pedro/jadesoft/util/mcgen/Plib/libjt74opal.a(dadmaa.o)
                0x081193c0                dadmaa_
 *fill*         0x081198c8        0x8 90909090
 .text          0x081198d0      0x27e /home/pcl2483/pedro/jadesoft/util/mcgen/Plib/libjt74opal.a(dam4pi.o)
                0x081198d0                dam4pi_
 *fill*         0x08119b4e        0x2 90909090
 .text          0x08119b50      0xb17 /home/pcl2483/pedro/jadesoft/util/mcgen/Plib/libjt74opal.a(dampog.o)
                0x08119b50                dampog_
 *fill*         0x0811a667        0x9 90909090
 .text          0x0811a670     0x1aaf /home/pcl2483/pedro/jadesoft/util/mcgen/Plib/libjt74opal.a(damppk.o)
                0x0811a670                damppk_
 *fill*         0x0811c11f        0x1 90909090
 .text          0x0811c120       0xa8 /home/pcl2483/pedro/jadesoft/util/mcgen/Plib/libjt74opal.a(dampry.o)
                0x0811c120                dampry_
 *fill*         0x0811c1c8        0x8 90909090
 .text          0x0811c1d0      0x1da /home/pcl2483/pedro/jadesoft/util/mcgen/Plib/libjt74opal.a(dcdmas.o)
                0x0811c1d0                dcdmas_
 *fill*         0x0811c3aa        0x6 90909090
 .text          0x0811c3b0       0xe5 /home/pcl2483/pedro/jadesoft/util/mcgen/Plib/libjt74opal.a(dphsaa.o)
                0x0811c3b0                dphsaa_
 *fill*         0x0811c495        0xb 90909090
 .text          0x0811c4a0      0x6d8 /home/pcl2483/pedro/jadesoft/util/mcgen/Plib/libjt74opal.a(form1.o)
                0x0811c578                form1_
 *fill*         0x0811cb78        0x8 90909090
 .text          0x0811cb80      0x7c8 /home/pcl2483/pedro/jadesoft/util/mcgen/Plib/libjt74opal.a(form2.o)
                0x0811cc58                form2_
 *fill*         0x0811d348        0x8 90909090
 .text          0x0811d350       0x54 /home/pcl2483/pedro/jadesoft/util/mcgen/Plib/libjt74opal.a(form3.o)
                0x0811d350                form3_
 *fill*         0x0811d3a4        0xc 90909090
 .text          0x0811d3b0      0x966 /home/pcl2483/pedro/jadesoft/util/mcgen/Plib/libjt74opal.a(form4.o)
                0x0811d488                form4_
 *fill*         0x0811dd16        0xa 90909090
 .text          0x0811dd20      0x69b /home/pcl2483/pedro/jadesoft/util/mcgen/Plib/libjt74opal.a(form5.o)
                0x0811dd20                form5_
 *fill*         0x0811e3bb        0x5 90909090
 .text          0x0811e3c0      0x371 /home/pcl2483/pedro/jadesoft/util/mcgen/Plib/libjt74opal.a(formom.o)
                0x0811e4a4                formom_
 *fill*         0x0811e731        0xf 90909090
 .text          0x0811e740      0x153 /home/pcl2483/pedro/jadesoft/util/mcgen/Plib/libjt74opal.a(fpik.o)
                0x0811e740                fpik_
 *fill*         0x0811e893        0xd 90909090
 .text          0x0811e8a0      0x16c /home/pcl2483/pedro/jadesoft/util/mcgen/Plib/libjt74opal.a(fpikm.o)
                0x0811e8a0                fpikm_
 *fill*         0x0811ea0c        0x4 90909090
 .text          0x0811ea10      0x1ec /home/pcl2483/pedro/jadesoft/util/mcgen/Plib/libjt74opal.a(fpikmd.o)
                0x0811ea10                fpikmd_
 *fill*         0x0811ebfc        0x4 90909090
 .text          0x0811ec00      0x1ba /home/pcl2483/pedro/jadesoft/util/mcgen/Plib/libjt74opal.a(gfun.o)
                0x0811ec00                gfun_
 *fill*         0x0811edba        0x6 90909090
 .text          0x0811edc0      0x369 /home/pcl2483/pedro/jadesoft/util/mcgen/Plib/libjt74opal.a(prod5.o)
                0x0811ee58                prod5_
 *fill*         0x0811f129        0x7 90909090
 .text          0x0811f130      0x109 /home/pcl2483/pedro/jadesoft/util/mcgen/Plib/libjt74opal.a(rotod2.o)
                0x0811f130                rotod2_
 *fill*         0x0811f239        0x7 90909090
 .text          0x0811f240      0x109 /home/pcl2483/pedro/jadesoft/util/mcgen/Plib/libjt74opal.a(rotod3.o)
                0x0811f240                rotod3_
 *fill*         0x0811f349        0x7 90909090
 .text          0x0811f350      0xe1b /home/pcl2483/pedro/jadesoft/util/mcgen/Plib/libjt74opal.a(sqm2.o)
                0x0811f350                sqm2_
 *fill*         0x0812016b        0x5 90909090
 .text          0x08120170      0xc54 /home/pcl2483/pedro/jadesoft/util/mcgen/Plib/libjt74opal.a(thb.o)
                0x08120170                thb_
 *fill*         0x08120dc4        0xc 90909090
 .text          0x08120dd0       0xe4 /home/pcl2483/pedro/jadesoft/util/mcgen/Plib/libjt74opal.a(wigfor.o)
                0x08120dd0                wigfor_
 *fill*         0x08120eb4        0xc 90909090
 .text          0x08120ec0      0x1ff /home/pcl2483/pedro/jadesoft/util/mcgen/Plib/libjt74opal.a(bwig.o)
                0x08120ec0                bwig_
 *fill*         0x081210bf        0x1 90909090
 .text          0x081210c0      0x250 /home/pcl2483/pedro/jadesoft/util/mcgen/Plib/libjt74opal.a(bwigm.o)
                0x081210c0                bwigm_
 .text          0x08121310      0x36b /home/pcl2483/pedro/jadesoft/util/mcgen/Plib/libjt74opal.a(claxi.o)
                0x081213d4                claxi_
 *fill*         0x0812167b        0x5 90909090
 .text          0x08121680       0xc4 /home/pcl2483/pedro/jadesoft/util/mcgen/Plib/libjt74opal.a(clnut.o)
                0x08121680                clnut_
 *fill*         0x08121744        0xc 90909090
 .text          0x08121750      0x1c0 /home/pcl2483/pedro/jadesoft/util/mcgen/Plib/libjt74opal.a(clvec.o)
                0x08121750                clvec_
 .text          0x08121910     0x194f /home/pcl2483/pedro/jadesoft/util/mcgen/Plib/libjt74opal.a(curr.o)
                0x081219e8                curr_
 *fill*         0x0812325f        0x1 90909090
 .text          0x08123260      0x50d /home/pcl2483/pedro/jadesoft/util/mcgen/Plib/libjt74opal.a(dilog.o)
                0x08123260                dilog_
 *fill*         0x0812376d        0x3 90909090
 .text          0x08123770     0x1786 /home/pcl2483/pedro/jadesoft/util/mcgen/Plib/libckern105.a(ckern.o)
                0x08123770                ckern_
 *fill*         0x08124ef6        0xa 90909090
 .text          0x08124f00      0x42f /home/pcl2483/pedro/jadesoft/util/mcgen/Plib/libckern105.a(cksord.o)
                0x08124f00                cksord_
 *fill*         0x0812532f        0x1 90909090
 .text          0x08125330      0x1b5 /home/pcl2483/pedro/jadesoft/util/mcgen/Plib/libckern105.a(cnjet.o)
                0x08125330                cnjet_
 *fill*         0x081254e5        0xb 90909090
 .text          0x081254f0      0x217 /home/pcl2483/pedro/jadesoft/util/mcgen/Plib/libpx114.a(pxang3.o)
                0x081254f0                pxang3_
 *fill*         0x08125707        0x9 90909090
 .text          0x08125710      0x17f /home/pcl2483/pedro/jadesoft/util/mcgen/Plib/libpx114.a(pxanxy.o)
                0x08125710                pxanxy_
 *fill*         0x0812588f        0x1 90909090
 .text          0x08125890      0xa8f /home/pcl2483/pedro/jadesoft/util/mcgen/Plib/libpx114.a(pxcone.o)
                0x08125890                pxcone_
 *fill*         0x0812631f        0x1 90909090
 .text          0x08126320       0x6b /home/pcl2483/pedro/jadesoft/util/mcgen/Plib/libpx114.a(pxcopv.o)
                0x08126320                pxcopv_
 *fill*         0x0812638b        0x5 90909090
 .text          0x08126390      0x322 /home/pcl2483/pedro/jadesoft/util/mcgen/Plib/libpx114.a(pxjpdg.o)
                0x08126390                pxjpdg_
 *fill*         0x081266b2        0xe 90909090
 .text          0x081266c0      0x70f /home/pcl2483/pedro/jadesoft/util/mcgen/Plib/libpx114.a(pxjsp3.o)
                0x081266c0                pxjsp3_
 *fill*         0x08126dcf        0x1 90909090
 .text          0x08126dd0      0x835 /home/pcl2483/pedro/jadesoft/util/mcgen/Plib/libpx114.a(pxlsp3.o)
                0x08126dd0                pxlsp3_
 *fill*         0x08127605        0xb 90909090
 .text          0x08127610      0x3f2 /home/pcl2483/pedro/jadesoft/util/mcgen/Plib/libpx114.a(pxlth4.o)
                0x08127610                pxlth4_
 *fill*         0x08127a02        0xe 90909090
 .text          0x08127a10     0x2507 /home/pcl2483/pedro/jadesoft/util/mcgen/Plib/libpx114.a(pxlut3.o)
                0x08127a10                pxlut3_
 *fill*         0x08129f17        0x9 90909090
 .text          0x08129f20      0x11a /home/pcl2483/pedro/jadesoft/util/mcgen/Plib/libpx114.a(pxlzf5.o)
                0x08129f20                pxlzf5_
 *fill*         0x0812a03a        0x6 90909090
 .text          0x0812a040      0x4b2 /home/pcl2483/pedro/jadesoft/util/mcgen/Plib/libpx114.a(pxmmbb.o)
                0x0812a040                pxmmbb_
 *fill*         0x0812a4f2        0xe 90909090
 .text          0x0812a500      0x131 /home/pcl2483/pedro/jadesoft/util/mcgen/Plib/libpx114.a(pxnorv.o)
                0x0812a500                pxnorv_
 *fill*         0x0812a631        0xf 90909090
 .text          0x0812a640      0x63c /home/pcl2483/pedro/jadesoft/util/mcgen/Plib/libpx114.a(pxolap.o)
                0x0812a640                pxolap_
 *fill*         0x0812ac7c        0x4 90909090
 .text          0x0812ac80      0x361 /home/pcl2483/pedro/jadesoft/util/mcgen/Plib/libpx114.a(pxord.o)
                0x0812ac80                pxord_
 *fill*         0x0812afe1        0xf 90909090
 .text          0x0812aff0      0x1dd /home/pcl2483/pedro/jadesoft/util/mcgen/Plib/libpx114.a(pxplt3.o)
                0x0812aff0                pxplt3_
 *fill*         0x0812b1cd        0x3 90909090
 .text          0x0812b1d0      0x12c /home/pcl2483/pedro/jadesoft/util/mcgen/Plib/libpx114.a(pxplu3.o)
                0x0812b1d0                pxplu3_
 *fill*         0x0812b2fc        0x4 90909090
 .text          0x0812b300      0x301 /home/pcl2483/pedro/jadesoft/util/mcgen/Plib/libpx114.a(pxprcv.o)
                0x0812b300                pxprcv_
 *fill*         0x0812b601        0xf 90909090
 .text          0x0812b610      0x2ed /home/pcl2483/pedro/jadesoft/util/mcgen/Plib/libpx114.a(pxprrv.o)
                0x0812b610                pxprrv_
 *fill*         0x0812b8fd        0x3 90909090
 .text          0x0812b900      0x1e9 /home/pcl2483/pedro/jadesoft/util/mcgen/Plib/libpx114.a(pxrap4.o)
                0x0812b900                pxrap4_
 *fill*         0x0812bae9        0x7 90909090
 .text          0x0812baf0      0x22d /home/pcl2483/pedro/jadesoft/util/mcgen/Plib/libpx114.a(pxrmx3.o)
                0x0812baf0                pxrmx3_
 *fill*         0x0812bd1d        0x3 90909090
 .text          0x0812bd20       0xb5 /home/pcl2483/pedro/jadesoft/util/mcgen/Plib/libpx114.a(pxrob3.o)
                0x0812bd20                pxrob3_
 *fill*         0x0812bdd5        0xb 90909090
 .text          0x0812bde0       0xb5 /home/pcl2483/pedro/jadesoft/util/mcgen/Plib/libpx114.a(pxrof3.o)
                0x0812bde0                pxrof3_
 *fill*         0x0812be95        0xb 90909090
 .text          0x0812bea0      0x329 /home/pcl2483/pedro/jadesoft/util/mcgen/Plib/libpx114.a(pxsear.o)
                0x0812bea0                pxsear_
 *fill*         0x0812c1c9        0x7 90909090
 .text          0x0812c1d0      0x37f /home/pcl2483/pedro/jadesoft/util/mcgen/Plib/libpx114.a(pxsorv.o)
                0x0812c1d0                pxsorv_
 *fill*         0x0812c54f        0x1 90909090
 .text          0x0812c550      0x2d2 /home/pcl2483/pedro/jadesoft/util/mcgen/Plib/libpx114.a(pxtry.o)
                0x0812c550                pxtry_
 *fill*         0x0812c822        0xe 90909090
 .text          0x0812c830      0x1ac /home/pcl2483/pedro/jadesoft/util/mcgen/Plib/libpx114.a(pxuvec.o)
                0x0812c830                pxuvec_
 *fill*         0x0812c9dc        0x4 90909090
 .text          0x0812c9e0       0x49 /home/pcl2483/pedro/jadesoft/util/mcgen/Plib/libpx114.a(pxzerv.o)
                0x0812c9e0                pxzerv_
 *fill*         0x0812ca29        0x7 90909090
 .text          0x0812ca30     0x1dee /home/pcl2483/pedro/jadesoft/util/mcgen/Plib/libpx114.a(ykern.o)
                0x0812d038                ykern_
 *fill*         0x0812e81e        0x2 90909090
 .text          0x0812e820      0x134 /home/pcl2483/pedro/jadesoft/util/mcgen/Plib/libpx114.a(ynjet.o)
                0x0812e820                ynjet_
 *fill*         0x0812e954        0xc 90909090
 .text          0x0812e960      0x175 /home/pcl2483/pedro/jadesoft/util/mcgen/Plib/libpx114.a(yyjet.o)
                0x0812e960                yyjet_
 *fill*         0x0812ead5        0xb 90909090
 .text          0x0812eae0       0x8b /home/pcl2483/pedro/jadesoft/util/mcgen/Plib/libpx114.a(pxaddv.o)
                0x0812eae0                pxaddv_
 *fill*         0x0812eb6b        0x5 90909090
 .text          0x0812eb70      0xcdc /home/pcl2483/pedro/jadesoft/util/mcgen/Plib/libpx114.a(pxdiam.o)
                0x0812eb70                pxdiam_
 *fill*         0x0812f84c        0x4 90909090
 .text          0x0812f850      0x3cf /home/pcl2483/pedro/jadesoft/util/mcgen/Plib/libpx114.a(pxmulm.o)
                0x0812f850                pxmulm_
 *fill*         0x0812fc1f        0x1 90909090
 .text          0x0812fc20       0xea /home/pcl2483/pedro/jadesoft/util/mcgen/Plib/libpx114.a(pxnew.o)
                0x0812fc20                pxnew_
 *fill*         0x0812fd0a        0x6 90909090
 .text          0x0812fd10       0x81 /home/pcl2483/pedro/jadesoft/util/mcgen/Plib/libpx114.a(pxsame.o)
                0x0812fd10                pxsame_
 *fill*         0x0812fd91        0xf 90909090
 .text          0x0812fda0      0x1ff /home/pcl2483/pedro/jadesoft/util/mcgen/Plib/libpx114.a(pxunim.o)
                0x0812fda0                pxunim_
 *fill*         0x0812ff9f        0x1 90909090
 .text          0x0812ffa0     0x175a /cern/99/lib/libpacklib.a(ffgo.o)
                0x0812ffa0                ffgo_
 *fill*         0x081316fa        0x2 90909090
 .text          0x081316fc      0x267 /cern/99/lib/libpacklib.a(ffinit.o)
                0x081316fc                ffinit_
 *fill*         0x08131963        0x1 90909090
 .text          0x08131964      0x270 /cern/99/lib/libpacklib.a(ffkey.o)
                0x08131964                ffkey_
 .text          0x08131bd4      0x21c /cern/99/lib/libpacklib.a(ffset.o)
                0x08131bd4                ffset_
 .text          0x08131df0       0x54 /cern/99/lib/libpacklib.a(ffskip.o)
                0x08131df0                ffskip_
 .text          0x08131e44       0x6f /cern/99/lib/libpacklib.a(ffupca.o)
                0x08131e44                ffupca_
 *fill*         0x08131eb3        0x1 90909090
 .text          0x08131eb4        0x7 /cern/99/lib/libpacklib.a(ffuser.o)
                0x08131eb4                ffuser_
 *fill*         0x08131ebb        0x1 90909090
 .text          0x08131ebc       0x15 /cern/99/lib/libpacklib.a(ffuset.o)
                0x08131ebc                ffuset_
 *fill*         0x08131ed1        0x3 90909090
 .text          0x08131ed4      0x19b /cern/99/lib/libpacklib.a(hrput.o)
                0x08131ed4                hrput_
 *fill*         0x0813206f        0x1 90909090
 .text          0x08132070      0x5eb /cern/99/lib/libpacklib.a(hbook1.o)
                0x08132070                hbook1_
 *fill*         0x0813265b        0x1 90909090
 .text          0x0813265c      0x680 /cern/99/lib/libpacklib.a(hbook2.o)
                0x0813265c                hbook2_
 .text          0x08132cdc      0x5bb /cern/99/lib/libpacklib.a(hbookb.o)
                0x08132cdc                hbookb_
 *fill*         0x08133297        0x1 90909090
 .text          0x08133298       0x5d /cern/99/lib/libpacklib.a(hbtit.o)
                0x08133298                hbtit_
 *fill*         0x081332f5        0x3 90909090
 .text          0x081332f8      0x1cb /cern/99/lib/libpacklib.a(hbug.o)
                0x081332f8                hbug_
 *fill*         0x081334c3        0x1 90909090
 .text          0x081334c4      0x634 /cern/99/lib/libpacklib.a(hcdir.o)
                0x081334c4                hcdir_
 .text          0x08133af8      0x158 /cern/99/lib/libpacklib.a(hchnam.o)
                0x08133af8                hchnam_
 .text          0x08133c50      0x30a /cern/99/lib/libpacklib.a(hdelet.o)
                0x08133c50                hdelet_
 *fill*         0x08133f5a        0x2 90909090
 .text          0x08133f5c      0x1a8 /cern/99/lib/libpacklib.a(hfill.o)
                0x08133f5c                hfill_
 .text          0x08134104      0x369 /cern/99/lib/libpacklib.a(hfilpf.o)
                0x08134104                hfilpf_
 *fill*         0x0813446d        0x3 90909090
 .text          0x08134470      0x244 /cern/99/lib/libpacklib.a(hgive.o)
                0x08134470                hgive_
 .text          0x081346b4      0xa55 /cern/99/lib/libpacklib.a(hidopt.o)
                0x081346b4                hidopt_
 *fill*         0x08135109        0x3 90909090
 .text          0x0813510c      0x2e4 /cern/99/lib/libpacklib.a(hlimit.o)
                0x0813510c                hlimit_
 .text          0x081353f0       0xff /cern/99/lib/libpacklib.a(hloop.o)
                0x081353f0                hloop_
 *fill*         0x081354ef        0x1 90909090
 .text          0x081354f0      0x543 /cern/99/lib/libpacklib.a(hmachi.o)
                0x081354f0                hmachi_
 *fill*         0x08135a33        0x1 90909090
 .text          0x08135a34       0x5e /cern/99/lib/libpacklib.a(hnoent.o)
                0x08135a34                hnoent_
 *fill*         0x08135a92        0x2 90909090
 .text          0x08135a94      0xfc5 /cern/99/lib/libpacklib.a(hopera.o)
                0x08135a94                hopera_
 *fill*         0x08136a59        0x3 90909090
 .text          0x08136a5c      0x1b3 /cern/99/lib/libpacklib.a(hpaff.o)
                0x08136a5c                hpaff_
 *fill*         0x08136c0f        0x1 90909090
 .text          0x08136c10      0x283 /cern/99/lib/libpacklib.a(hpak.o)
                0x08136c10                hpak_
 *fill*         0x08136e93        0x1 90909090
 .text          0x08136e94      0x175 /cern/99/lib/libpacklib.a(hpake.o)
                0x08136e94                hpake_
 *fill*         0x08137009        0x3 90909090
 .text          0x0813700c      0x61e /cern/99/lib/libpacklib.a(hpath.o)
                0x0813700c                hpath_
 *fill*         0x0813762a        0x2 90909090
 .text          0x0813762c      0x4ce /cern/99/lib/libpacklib.a(hrebin.o)
                0x0813762c                hrebin_
 *fill*         0x08137afa        0x2 90909090
 .text          0x08137afc      0x64a /cern/99/lib/libpacklib.a(hreset.o)
                0x08137afc                hreset_
 *fill*         0x08138146        0x2 90909090
 .text          0x08138148       0xca /cern/99/lib/libpacklib.a(hrez0.o)
                0x08138148                hrez0_
 *fill*         0x08138212        0x2 90909090
 .text          0x08138214       0x90 /cern/99/lib/libpacklib.a(hsifla.o)
                0x08138214                hsifla_
 .text          0x081382a4       0x8a /cern/99/lib/libpacklib.a(hspace.o)
                0x081382a4                hspace_
 *fill*         0x0813832e        0x2 90909090
 .text          0x08138330       0x5f /cern/99/lib/libpacklib.a(hstaf.o)
                0x08138330                hstaf_
 *fill*         0x0813838f        0x1 90909090
 .text          0x08138390      0xbf4 /cern/99/lib/libpacklib.a(hsupis.o)
                0x08138390                hsupis_
 .text          0x08138f84       0x48 /cern/99/lib/libpacklib.a(huoptc.o)
                0x08138f84                huoptc_
 .text          0x08138fcc      0x1d6 /cern/99/lib/libpacklib.a(hlogpf.o)
                0x08138fcc                hlogpf_
 *fill*         0x081391a2        0x2 90909090
 .text          0x081391a4       0x7f /cern/99/lib/libpacklib.a(hoptpf.o)
                0x081391a4                hoptpf_
 *fill*         0x08139223        0x1 90909090
 .text          0x08139224      0x130 /cern/99/lib/libpacklib.a(hitoc.o)
                0x08139224                hitoc_
 .text          0x08139354       0xdf /cern/99/lib/libpacklib.a(hnbufd.o)
                0x08139354                hnbufd_
 *fill*         0x08139433        0x1 90909090
 .text          0x08139434       0xd1 /cern/99/lib/libpacklib.a(hntmpd.o)
                0x08139434                hntmpd_
 *fill*         0x08139505        0x3 90909090
 .text          0x08139508      0x2ef /cern/99/lib/libpacklib.a(hntrset.o)
                0x08139508                hntrset_
 *fill*         0x081397f7        0x1 90909090
 .text          0x081397f8      0xa4e /cern/99/lib/libpacklib.a(fzin.o)
                0x081397f8                fzin_
 *fill*         0x0813a246        0x2 90909090
 .text          0x0813a248      0x2e2 /cern/99/lib/libpacklib.a(fzirel.o)
                0x0813a248                fzirel_
 *fill*         0x0813a52a        0x2 90909090
 .text          0x0813a52c      0x5e6 /cern/99/lib/libpacklib.a(fzloc.o)
                0x0813a52c                fzloc_
 *fill*         0x0813ab12        0x2 90909090
 .text          0x0813ab14      0x132 /cern/99/lib/libpacklib.a(mzbook.o)
                0x0813ab14                mzbook_
 *fill*         0x0813ac46        0x2 90909090
 .text          0x0813ac48      0x2ea /cern/99/lib/libpacklib.a(mzdrop.o)
                0x0813ac48                mzdrop_
 *fill*         0x0813af32        0x2 90909090
 .text          0x0813af34      0x11a /cern/99/lib/libpacklib.a(mzebra.o)
                0x0813af34                mzebra_
 *fill*         0x0813b04e        0x2 90909090
 .text          0x0813b050      0x532 /cern/99/lib/libpacklib.a(mzflag.o)
                0x0813b050                mzflag_
 *fill*         0x0813b582        0x2 90909090
 .text          0x0813b584      0x42c /cern/99/lib/libpacklib.a(mzinco.o)
                0x0813b584                mzinco_
 .text          0x0813b9b0      0xd0e /cern/99/lib/libpacklib.a(mzlift.o)
                0x0813b9b0                mzlift_
 *fill*         0x0813c6be        0x2 90909090
 .text          0x0813c6c0      0x5ef /cern/99/lib/libpacklib.a(mzlink.o)
                0x0813c6c0                mzlink_
 *fill*         0x0813ccaf        0x1 90909090
 .text          0x0813ccb0      0x1ea /cern/99/lib/libpacklib.a(mzneed.o)
                0x0813ccb0                mzneed_
 *fill*         0x0813ce9a        0x2 90909090
 .text          0x0813ce9c       0xb0 /cern/99/lib/libpacklib.a(mzpaw.o)
                0x0813ce9c                mzpaw_
 .text          0x0813cf4c      0xf06 /cern/99/lib/libpacklib.a(mzpush.o)
                0x0813cf4c                mzpush_
 *fill*         0x0813de52        0x2 90909090
 .text          0x0813de54      0x9fe /cern/99/lib/libpacklib.a(mzstor.o)
                0x0813de54                mzstor_
 *fill*         0x0813e852        0x2 90909090
 .text          0x0813e854      0x100 /cern/99/lib/libpacklib.a(mzvers.o)
                0x0813e854                mzvers_
 .text          0x0813e954      0x503 /cern/99/lib/libpacklib.a(mzgar1.o)
                0x0813e954                mzgar1_
 *fill*         0x0813ee57        0x1 90909090
 .text          0x0813ee58       0x71 /cern/99/lib/libpacklib.a(mzgsta.o)
                0x0813ee58                mzgsta_
 *fill*         0x0813eec9        0x3 90909090
 .text          0x0813eecc      0x33b /cern/99/lib/libpacklib.a(mzmove.o)
                0x0813eecc                mzmove_
 *fill*         0x0813f207        0x1 90909090
 .text          0x0813f208      0x673 /cern/99/lib/libpacklib.a(mzrelb.o)
                0x0813f208                mzrelb_
 *fill*         0x0813f87b        0x1 90909090
 .text          0x0813f87c      0x4f9 /cern/99/lib/libpacklib.a(mzrell.o)
                0x0813f87c                mzrell_
 *fill*         0x0813fd75        0x3 90909090
 .text          0x0813fd78       0x8c /cern/99/lib/libpacklib.a(mzrelx.o)
                0x0813fd78                mzrelx_
 .text          0x0813fe04      0x3ac /cern/99/lib/libpacklib.a(mztabf.o)
                0x0813fe04                mztabf_
 .text          0x081401b0      0x2d0 /cern/99/lib/libpacklib.a(mztabm.o)
                0x081401b0                mztabm_
 .text          0x08140480      0x3e5 /cern/99/lib/libpacklib.a(mztabr.o)
                0x08140480                mztabr_
 *fill*         0x08140865        0x3 90909090
 .text          0x08140868       0x79 /cern/99/lib/libpacklib.a(mztabs.o)
                0x08140868                mztabs_
 *fill*         0x081408e1        0x3 90909090
 .text          0x081408e4      0x13d /cern/99/lib/libpacklib.a(mztabx.o)
                0x081408e4                mztabx_
 *fill*         0x08140a21        0x3 90909090
 .text          0x08140a24      0x29c /cern/99/lib/libpacklib.a(mzchln.o)
                0x08140a24                mzchln_
 .text          0x08140cc0      0x1f0 /cern/99/lib/libpacklib.a(mzchls.o)
                0x08140cc0                mzchls_
 .text          0x08140eb0       0xa4 /cern/99/lib/libpacklib.a(mzchnb.o)
                0x08140eb0                mzchnb_
 .text          0x08140f54      0x12c /cern/99/lib/libpacklib.a(mzfdiv.o)
                0x08140f54                mzfdiv_
 .text          0x08141080      0x35a /cern/99/lib/libpacklib.a(mzform.o)
                0x08141080                mzform_
 *fill*         0x081413da        0x2 90909090
 .text          0x081413dc     0x1613 /cern/99/lib/libpacklib.a(mzioch.o)
                0x081413dc                mzioch_
 *fill*         0x081429ef        0x1 90909090
 .text          0x081429f0      0x388 /cern/99/lib/libpacklib.a(mzresv.o)
                0x081429f0                mzresv_
 .text          0x08142d78      0x295 /cern/99/lib/libpacklib.a(mzsdiv.o)
                0x08142d78                mzsdiv_
 *fill*         0x0814300d        0x3 90909090
 .text          0x08143010        0x7 /cern/99/lib/libpacklib.a(zvautx.o)
                0x08143010                zvautx_
 *fill*         0x08143017        0x1 90909090
 .text          0x08143018      0x402 /cern/99/lib/libpacklib.a(zfatal.o)
                0x08143018                zfatal_
 *fill*         0x0814341a        0x2 90909090
 .text          0x0814341c       0x9c /cern/99/lib/libpacklib.a(zfatam.o)
                0x0814341c                zfatam_
 .text          0x081434b8      0x1c0 /cern/99/lib/libpacklib.a(ztell.o)
                0x081434b8                ztell_
 .text          0x08143678        0x7 /cern/99/lib/libpacklib.a(ztelus.o)
                0x08143678                ztelus_
 *fill*         0x0814367f        0x1 90909090
 .text          0x08143680       0xbd /cern/99/lib/libpacklib.a(izbcdt.o)
                0x08143680                izbcdt_
 *fill*         0x0814373d        0x3 90909090
 .text          0x08143740       0x48 /cern/99/lib/libpacklib.a(izhnum.o)
                0x08143740                izhnum_
 .text          0x08143788      0x5b5 /cern/99/lib/libpacklib.a(zshunt.o)
                0x08143788                zshunt_
 *fill*         0x08143d3d        0x3 90909090
 .text          0x08143d40      0x597 /cern/99/lib/libpacklib.a(rzcdir.o)
                0x08143d40                rzcdir_
 *fill*         0x081442d7        0x1 90909090
 .text          0x081442d8      0x340 /cern/99/lib/libpacklib.a(rzdate.o)
                0x081442d8                rzdate_
 .text          0x08144618      0x77d /cern/99/lib/libpacklib.a(rzfdir.o)
                0x08144618                rzfdir_
 *fill*         0x08144d95        0x3 90909090
 .text          0x08144d98      0x412 /cern/99/lib/libpacklib.a(rziodo.o)
                0x08144d98                rziodo_
 *fill*         0x081451aa        0x2 90909090
 .text          0x081451ac      0x1df /cern/99/lib/libpacklib.a(rzpaff.o)
                0x081451ac                rzpaff_
 *fill*         0x0814538b        0x1 90909090
 .text          0x0814538c      0x660 /cern/99/lib/libpacklib.a(rzpath.o)
                0x0814538c                rzpath_
 .text          0x081459ec      0x24b /cern/99/lib/libpacklib.a(rzrtop.o)
                0x081459ec                rzrtop_
 *fill*         0x08145c37        0x1 90909090
 .text          0x08145c38       0x57 /cern/99/lib/libpacklib.a(rzsame.o)
                0x08145c38                rzsame_
 *fill*         0x08145c8f        0x1 90909090
 .text          0x08145c90      0x593 /cern/99/lib/libpacklib.a(rzsave.o)
                0x08145c90                rzsave_
 *fill*         0x08146223        0x1 90909090
 .text          0x08146224      0x189 /cern/99/lib/libpacklib.a(rzstrir.o)
                0x08146224                rzstrir_
 *fill*         0x081463ad        0x3 90909090
 .text          0x081463b0       0xf0 /cern/99/lib/libpacklib.a(rzvcyc.o)
                0x081463b0                rzvcyc_
 .text          0x081464a0        0x7 /cern/99/lib/libpacklib.a(abend.o)
                0x081464a0                abend_
 *fill*         0x081464a7        0x9 90909090
 .text          0x081464b0       0xfe /cern/99/lib/libpacklib.a(datime.o)
                0x081464b0                datime_
 *fill*         0x081465ae        0x2 90909090
 .text          0x081465b0      0x2f7 /cern/99/lib/libpacklib.a(datimh.o)
                0x081465b0                datimh_
 *fill*         0x081468a7        0x9 90909090
 .text          0x081468b0      0x1d0 /cern/99/lib/libpacklib.a(jumpxn.o)
                0x081469c0                jumpx7_
                0x081468e0                jumpx1_
                0x081468b0                jumpad_
                0x08146a00                jumpx8_
                0x08146990                jumpx6_
                0x08146a40                jumpx9_
                0x081468c0                jumpst_
                0x081468d0                jumpx0_
                0x08146960                jumpx5_
                0x08146910                jumpx3_
                0x081468f0                jumpx2_
                0x08146930                jumpx4_
 .text          0x08146a80        0x8 /cern/99/lib/libpacklib.a(locf.o)
                0x08146a80                locf_
 *fill*         0x08146a88        0x8 90909090
 .text          0x08146a90       0x3f /cern/99/lib/libpacklib.a(qnexte.o)
                0x08146a90                qnexte_
 *fill*         0x08146acf        0x1 90909090
 .text          0x08146ad0       0x7d /cern/99/lib/libpacklib.a(lenocc.o)
                0x08146ad0                lenocc_
 *fill*         0x08146b4d        0x3 90909090
 .text          0x08146b50       0x45 /cern/99/lib/libpacklib.a(vxinvb.o)
                0x08146b50                vxinvb_
 *fill*         0x08146b95        0xb 90909090
 .text          0x08146ba0       0x10 /cern/99/lib/libpacklib.a(cfclos.o)
                0x08146ba0                cfclos_
 .text          0x08146bb0       0x8b /cern/99/lib/libpacklib.a(cfget.o)
                0x08146bb0                cfget_
 *fill*         0x08146c3b        0x5 90909090
 .text          0x08146c40       0x5f /cern/99/lib/libpacklib.a(cfput.o)
                0x08146c40                cfput_
 *fill*         0x08146c9f        0x1 90909090
 .text          0x08146ca0       0x55 /cern/99/lib/libpacklib.a(cfseek.o)
                0x08146ca0                cfseek_
 *fill*         0x08146cf5        0x3 90909090
 .text          0x08146cf8      0x150 /cern/99/lib/libpacklib.a(cfopen.o)
                0x08146cf8                cfopen_
 .text          0x08146e48       0xfe /cern/99/lib/libpacklib.a(cleft.o)
                0x08146e48                cleft_
 *fill*         0x08146f46        0x2 90909090
 .text          0x08146f48       0x75 /cern/99/lib/libpacklib.a(cltou.o)
                0x08146f48                cltou_
 *fill*         0x08146fbd        0x3 90909090
 .text          0x08146fc0       0x75 /cern/99/lib/libpacklib.a(cutol.o)
                0x08146fc0                cutol_
 *fill*         0x08147035        0x3 90909090
 .text          0x08147038       0x52 /cern/99/lib/libpacklib.a(floarg.o)
                0x08147038                floarg_
 *fill*         0x0814708a        0x2 90909090
 .text          0x0814708c       0x69 /cern/99/lib/libpacklib.a(intarg.o)
                0x0814708c                intarg_
 *fill*         0x081470f5        0x3 90909090
 .text          0x081470f8       0x2a /cern/99/lib/libpacklib.a(kerngt.o)
                0x081470f8                kerngt_
 *fill*         0x08147122        0x2 90909090
 .text          0x08147124       0x6e /cern/99/lib/libpacklib.a(uoptc.o)
                0x08147124                uoptc_
 *fill*         0x08147192        0x2 90909090
 .text          0x08147194      0x2b1 /cern/99/lib/libpacklib.a(utrans.o)
                0x08147194                utrans_
 *fill*         0x08147445        0xb 90909090
 .text          0x08147450        0xf /cern/99/lib/libpacklib.a(ishftr.o)
                0x08147450                ishftr_
 *fill*         0x0814745f        0x1 90909090
 .text          0x08147460        0x7 /cern/99/lib/libpacklib.a(qnext.o)
                0x08147460                qnext_
 *fill*         0x08147467        0x9 90909090
 .text          0x08147470       0x3a /cern/99/lib/libpacklib.a(ucopy2c.o)
                0x08147470                ucopy2_
 *fill*         0x081474aa        0x2 90909090
 .text          0x081474ac       0x50 /cern/99/lib/libpacklib.a(iucomp.o)
                0x081474ac                iucomp_
 .text          0x081474fc        0x7 /cern/99/lib/libpacklib.a(noarg.o)
                0x081474fc                noarg_
 *fill*         0x08147503        0x1 90909090
 .text          0x08147504       0x19 /cern/99/lib/libpacklib.a(sbit0.o)
                0x08147504                sbit0_
 *fill*         0x0814751d        0x3 90909090
 .text          0x08147520       0x1d /cern/99/lib/libpacklib.a(sbit1.o)
                0x08147520                sbit1_
 *fill*         0x0814753d        0x3 90909090
 .text          0x08147540      0x1b3 /cern/99/lib/libpacklib.a(ublow.o)
                0x08147540                ublow_
 *fill*         0x081476f3        0x1 90909090
 .text          0x081476f4      0x14b /cern/99/lib/libpacklib.a(ubunch.o)
                0x081476f4                ubunch_
 *fill*         0x0814783f        0x1 90909090
 .text          0x08147840       0x4b /cern/99/lib/libpacklib.a(ucopy.o)
                0x08147840                ucopy_
 *fill*         0x0814788b        0x1 90909090
 .text          0x0814788c      0x22b /cern/99/lib/libpacklib.a(uctoh.o)
                0x0814788c                uctoh_
 *fill*         0x08147ab7        0x1 90909090
 .text          0x08147ab8       0x6f /cern/99/lib/libpacklib.a(uctoh1.o)
                0x08147ab8                uctoh1_
 *fill*         0x08147b27        0x1 90909090
 .text          0x08147b28      0x20f /cern/99/lib/libpacklib.a(uhtoc.o)
                0x08147b28                uhtoc_
 *fill*         0x08147d37        0x1 90909090
 .text          0x08147d38       0x3d /cern/99/lib/libpacklib.a(vblank.o)
                0x08147d38                vblank_
 *fill*         0x08147d75        0x3 90909090
 .text          0x08147d78       0x3d /cern/99/lib/libpacklib.a(vfill.o)
                0x08147d78                vfill_
 *fill*         0x08147db5        0x3 90909090
 .text          0x08147db8       0x3a /cern/99/lib/libpacklib.a(vzero.o)
                0x08147db8                vzero_
 *fill*         0x08147df2        0x2 90909090
 .text          0x08147df4       0x23 /cern/99/lib/libpacklib.a(jbit.o)
                0x08147df4                jbit_
 *fill*         0x08147e17        0x1 90909090
 .text          0x08147e18       0x45 /cern/99/lib/libpacklib.a(jbyt.o)
                0x08147e18                jbyt_
 *fill*         0x08147e5d        0x3 90909090
 .text          0x08147e60       0x57 /cern/99/lib/libpacklib.a(sbyt.o)
                0x08147e60                sbyt_
 *fill*         0x08147eb7        0x1 90909090
 .text          0x08147eb8       0x8d /cern/99/lib/libpacklib.a(locati.o)
                0x08147eb8                locati_
 *fill*         0x08147f45        0x3 90909090
 .text          0x08147f48       0x86 /cern/99/lib/libpacklib.a(czgeta.o)
                0x08147f48                czgeta_
 *fill*         0x08147fce        0x2 90909090
 .text          0x08147fd0       0x86 /cern/99/lib/libpacklib.a(czputa.o)
                0x08147fd0                czputa_
 *fill*         0x08148056        0x2 90909090
 .text          0x08148058      0x7cb /cern/99/lib/libpacklib.a(ffcard.o)
                0x08148058                ffcard_
 *fill*         0x08148823        0x1 90909090
 .text          0x08148824       0xc6 /cern/99/lib/libpacklib.a(fffind.o)
                0x08148824                fffind_
 *fill*         0x081488ea        0x2 90909090
 .text          0x081488ec      0x395 /cern/99/lib/libpacklib.a(hqputf.o)
                0x081488ec                hqputf_
 *fill*         0x08148c81        0xf 90909090
 .text          0x08148c90      0x52c /cern/99/lib/libpacklib.a(hbpqry.o)
                0x08148f20                GetPiafVersion
                0x08148f00                SetVers
                0x08148fe0                greppqry_
                0x08148f10                setpiafver_
                0x08148f30                igetpiafver_
                0x08148f40                GrepPqryStr
 .text          0x081491bc      0x1ba /cern/99/lib/libpacklib.a(hrendc.o)
                0x08149360                hrend_
                0x08149348                hrendc_
 *fill*         0x08149376        0x2 90909090
 .text          0x08149378      0x23a /cern/99/lib/libpacklib.a(hropen.o)
                0x08149378                hropen_
 *fill*         0x081495b2        0x2 90909090
 .text          0x081495b4      0x7d4 /cern/99/lib/libpacklib.a(hrout.o)
                0x081495b4                hrout_
 .text          0x08149d88       0x94 /cern/99/lib/libpacklib.a(hrzcd.o)
                0x08149d88                hrzcd_
 .text          0x08149e1c      0x180 /cern/99/lib/libpacklib.a(hrzout.o)
                0x08149e1c                hrzout_
 .text          0x08149f9c      0x1ea /cern/99/lib/libpacklib.a(hbar2.o)
                0x08149f9c                hbar2_
 *fill*         0x0814a186        0x2 90909090
 .text          0x0814a188      0x512 /cern/99/lib/libpacklib.a(hbarx.o)
                0x0814a188                hbarx_
 *fill*         0x0814a69a        0x2 90909090
 .text          0x0814a69c      0x416 /cern/99/lib/libpacklib.a(hbary.o)
                0x0814a69c                hbary_
 *fill*         0x0814aab2        0x2 90909090
 .text          0x0814aab4      0x3b1 /cern/99/lib/libpacklib.a(hbin.o)
                0x0814aab4                hbin_
 *fill*         0x0814ae65        0x3 90909090
 .text          0x0814ae68      0x3c6 /cern/99/lib/libpacklib.a(hcopy.o)
                0x0814ae68                hcopy_
 *fill*         0x0814b22e        0x2 90909090
 .text          0x0814b230      0x435 /cern/99/lib/libpacklib.a(hcx.o)
                0x0814b230                hcx_
 *fill*         0x0814b665        0x3 90909090
 .text          0x0814b668      0x153 /cern/99/lib/libpacklib.a(hcxy.o)
                0x0814b668                hcxy_
 *fill*         0x0814b7bb        0x1 90909090
 .text          0x0814b7bc       0x95 /cern/99/lib/libpacklib.a(hdcofl.o)
                0x0814b7bc                hdcofl_
 *fill*         0x0814b851        0x3 90909090
 .text          0x0814b854      0x46c /cern/99/lib/libpacklib.a(hf1.o)
                0x0814b854                hf1_
 .text          0x0814bcc0      0x710 /cern/99/lib/libpacklib.a(hf1aut.o)
                0x0814bcc0                hf1aut_
 .text          0x0814c3d0      0x39b /cern/99/lib/libpacklib.a(hf2.o)
                0x0814c3d0                hf2_
 *fill*         0x0814c76b        0x1 90909090
 .text          0x0814c76c      0x2bd /cern/99/lib/libpacklib.a(hfcx.o)
                0x0814c76c                hfcx_
 *fill*         0x0814ca29        0x3 90909090
 .text          0x0814ca2c      0x191 /cern/99/lib/libpacklib.a(hfcxy.o)
                0x0814ca2c                hfcxy_
 *fill*         0x0814cbbd        0x3 90909090
 .text          0x0814cbc0      0x2ab /cern/99/lib/libpacklib.a(hfidp.o)
                0x0814cbc0                hfidp_
 *fill*         0x0814ce6b        0x1 90909090
 .text          0x0814ce6c       0xff /cern/99/lib/libpacklib.a(hfind.o)
                0x0814ce6c                hfind_
 *fill*         0x0814cf6b        0x1 90909090
 .text          0x0814cf6c       0x32 /cern/99/lib/libpacklib.a(hi.o)
                0x0814cf6c                hi_
 *fill*         0x0814cf9e        0x2 90909090
 .text          0x0814cfa0       0x8f /cern/99/lib/libpacklib.a(hie.o)
                0x0814cfa0                hie_
 *fill*         0x0814d02f        0x1 90909090
 .text          0x0814d030       0x88 /cern/99/lib/libpacklib.a(hix.o)
                0x0814d030                hix_
 .text          0x0814d0b8      0x1a9 /cern/99/lib/libpacklib.a(hlabeq.o)
                0x0814d0b8                hlabeq_
 *fill*         0x0814d261        0x3 90909090
 .text          0x0814d264      0x3e6 /cern/99/lib/libpacklib.a(hmdir.o)
                0x0814d264                hmdir_
 *fill*         0x0814d64a        0x2 90909090
 .text          0x0814d64c      0x9a3 /cern/99/lib/libpacklib.a(hoper1.o)
                0x0814d64c                hoper1_
 *fill*         0x0814dfef        0x1 90909090
 .text          0x0814dff0       0xc4 /cern/99/lib/libpacklib.a(hoper1a.o)
                0x0814dff0                hoper1a_
 .text          0x0814e0b4      0x313 /cern/99/lib/libpacklib.a(hnbfwr.o)
                0x0814e0b4                hnbfwr_
 *fill*         0x0814e3c7        0x1 90909090
 .text          0x0814e3c8       0xbc /cern/99/lib/libpacklib.a(hnbuff.o)
                0x0814e3c8                hnbuff_
 .text          0x0814e484      0x13d /cern/99/lib/libpacklib.a(hnmset.o)
                0x0814e484                hnmset_
 *fill*         0x0814e5c1        0x3 90909090
 .text          0x0814e5c4      0x165 /cern/99/lib/libpacklib.a(hntdel.o)
                0x0814e5c4                hntdel_
 *fill*         0x0814e729        0x3 90909090
 .text          0x0814e72c       0xc6 /cern/99/lib/libpacklib.a(hntmpf.o)
                0x0814e72c                hntmpf_
 *fill*         0x0814e7f2        0x2 90909090
 .text          0x0814e7f4      0x5ea /cern/99/lib/libpacklib.a(fzidia.o)
                0x0814e7f4                fzidia_
 *fill*         0x0814edde        0x2 90909090
 .text          0x0814ede0      0xf4c /cern/99/lib/libpacklib.a(fziffn.o)
                0x0814ede0                fziffn_
 .text          0x0814fd2c     0x1315 /cern/99/lib/libpacklib.a(fziffx.o)
                0x0814fd2c                fziffx_
 *fill*         0x08151041        0x3 90909090
 .text          0x08151044      0x16b /cern/99/lib/libpacklib.a(fzilin.o)
                0x08151044                fzilin_
 *fill*         0x081511af        0x1 90909090
 .text          0x081511b0      0xb22 /cern/99/lib/libpacklib.a(fzimtb.o)
                0x081511b0                fzimtb_
 *fill*         0x08151cd2        0x2 90909090
 .text          0x08151cd4      0xa42 /cern/99/lib/libpacklib.a(fzirec.o)
                0x08151cd4                fzirec_
 *fill*         0x08152716        0x2 90909090
 .text          0x08152718      0x13e /cern/99/lib/libpacklib.a(fzitrn.o)
                0x08152718                fzitrn_
 *fill*         0x08152856        0x2 90909090
 .text          0x08152858      0xd51 /cern/99/lib/libpacklib.a(fzout.o)
                0x08152858                fzout_
 *fill*         0x081535a9        0x3 90909090
 .text          0x081535ac      0x16e /cern/99/lib/libpacklib.a(fzitrx.o)
                0x081535ac                fzitrx_
 *fill*         0x0815371a        0x2 90909090
 .text          0x0815371c      0xa62 /cern/99/lib/libpacklib.a(mzcopy.o)
                0x0815371c                mzcopy_
 *fill*         0x0815417e        0x2 90909090
 .text          0x08154180      0x136 /cern/99/lib/libpacklib.a(mzpudx.o)
                0x08154180                mzpudx_
 *fill*         0x081542b6        0x2 90909090
 .text          0x081542b8      0x4cc /cern/99/lib/libpacklib.a(mzfgap.o)
                0x081542b8                mzfgap_
 .text          0x08154784      0x229 /cern/99/lib/libpacklib.a(mzgarb.o)
                0x08154784                mzgarb_
 *fill*         0x081549ad        0x3 90909090
 .text          0x081549b0      0x279 /cern/99/lib/libpacklib.a(mztabc.o)
                0x081549b0                mztabc_
 *fill*         0x08154c29        0x3 90909090
 .text          0x08154c2c      0x2d5 /cern/99/lib/libpacklib.a(mztabh.o)
                0x08154c2c                mztabh_
 *fill*         0x08154f01        0x3 90909090
 .text          0x08154f04      0x1fa /cern/99/lib/libpacklib.a(mzdvac.o)
                0x08154f04                mzdvac_
 *fill*         0x081550fe        0x2 90909090
 .text          0x08155100       0x9b /cern/99/lib/libpacklib.a(mziocf.o)
                0x08155100                mziocf_
 *fill*         0x0815519b        0x1 90909090
 .text          0x0815519c      0x6d2 /cern/99/lib/libpacklib.a(mziocr.o)
                0x0815519c                mziocr_
 *fill*         0x0815586e        0x2 90909090
 .text          0x08155870      0x2c0 /cern/99/lib/libpacklib.a(mzixco.o)
                0x08155870                mzixco_
 .text          0x08155b30       0x33 /cern/99/lib/libpacklib.a(zabend.o)
                0x08155b30                zabend_
 *fill*         0x08155b63        0x1 90909090
 .text          0x08155b64       0x2f /cern/99/lib/libpacklib.a(zend.o)
                0x08155b64                zend_
 *fill*         0x08155b93        0x1 90909090
 .text          0x08155b94      0x21d /cern/99/lib/libpacklib.a(zphase.o)
                0x08155b94                zphase_
 *fill*         0x08155db1        0x3 90909090
 .text          0x08155db4      0x1e8 /cern/99/lib/libpacklib.a(zpostm.o)
                0x08155db4                zpostm_
 .text          0x08155f9c       0xc5 /cern/99/lib/libpacklib.a(zhtoi.o)
                0x08155f9c                zhtoi_
 *fill*         0x08156061        0x3 90909090
 .text          0x08156064      0x2ee /cern/99/lib/libpacklib.a(rzclos.o)
                0x08156064                rzclos_
 *fill*         0x08156352        0x2 90909090
 .text          0x08156354      0x1e7 /cern/99/lib/libpacklib.a(rzend.o)
                0x08156354                rzend_
 *fill*         0x0815653b        0x1 90909090
 .text          0x0815653c      0x446 /cern/99/lib/libpacklib.a(rzfree.o)
                0x0815653c                rzfree_
 *fill*         0x08156982        0x2 90909090
 .text          0x08156984      0x8df /cern/99/lib/libpacklib.a(rzmdir.o)
                0x08156984                rzmdir_
 *fill*         0x08157263        0x1 90909090
 .text          0x08157264      0x1bc /cern/99/lib/libpacklib.a(rzmods.o)
                0x08157264                rzmods_
 .text          0x08157420      0xc44 /cern/99/lib/libpacklib.a(rzopen.o)
                0x08157420                rzopen_
 .text          0x08158064     0x12ab /cern/99/lib/libpacklib.a(rzout.o)
                0x08158064                rzout_
 *fill*         0x0815930f        0x1 90909090
 .text          0x08159310      0x238 /cern/99/lib/libpacklib.a(rzstrip.o)
                0x08159310                rzstrip_
 .text          0x08159548      0x419 /cern/99/lib/libpacklib.a(rzused.o)
                0x08159548                rzused_
 *fill*         0x08159961        0x3 90909090
 .text          0x08159964      0x39f /cern/99/lib/libpacklib.a(close.o)
                0x081599a4                rfio_close_v2
                0x08159964                rfio_close
 *fill*         0x08159d03        0x1 90909090
 .text          0x08159d04      0x2cd /cern/99/lib/libpacklib.a(error.o)
                0x08159d04                rfio_errmsg
                0x08159f98                rfio_perror
                0x08159e94                rfio_serror
 *fill*         0x08159fd1        0x3 90909090
 .text          0x08159fd4      0xa11 /cern/99/lib/libpacklib.a(lseek.o)
                0x08159fd4                rfio_lseek
 *fill*         0x0815a9e5        0x3 90909090
 .text          0x0815a9e8      0xc87 /cern/99/lib/libpacklib.a(open.o)
                0x0815addc                rfio_open_ext
                0x0815adb4                rfio_open_v2
                0x0815ace0                rfio_open
                0x0815b65c                rfio_setup
                0x0815abe0                rfio_cleanup
 *fill*         0x0815b66f        0x1 90909090
 .text          0x0815b670      0x381 /cern/99/lib/libpacklib.a(parse.o)
                0x0815b670                rfio_parseln
                0x0815b9dc                rfio_parse
 *fill*         0x0815b9f1        0x3 90909090
 .text          0x0815b9f4      0xcb8 /cern/99/lib/libpacklib.a(read.o)
                0x0815ba40                rfio_read_v2
                0x0815c2a0                rfio_filbuf
                0x0815b9f4                rfio_read
 .text          0x0815c6ac       0xc7 /cern/99/lib/libpacklib.a(serror.o)
                0x0815c6ac                sstrerror
                0x0815c700                sperror
 *fill*         0x0815c773        0x1 90909090
 .text          0x0815c774       0xba /cern/99/lib/libpacklib.a(setopt.o)
                0x0815c7dc                rfioreadopt
                0x0815c774                rfiosetopt
 *fill*         0x0815c82e        0x2 90909090
 .text          0x0815c830      0x207 /cern/99/lib/libpacklib.a(socket.o)
                0x0815c934                s_send
                0x0815c9c4                s_ioctl
                0x0815ca10                getiostat
                0x0815c9b0                s_errmsg
                0x0815c9f0                setrtimo
                0x0815c9d8                s_nrecv
                0x0815c8c4                s_recv
                0x0815c9a0                s_close
 *fill*         0x0815ca37        0x1 90909090
 .text          0x0815ca38     0x23a1 /cern/99/lib/libpacklib.a(stream.o)
                0x0815cd58                rfio_open_ext_v3
                0x0815cd30                rfio_open_v3
                0x0815cc30                rfio_cleanup_v3
                0x0815dda0                rfio_write_v3
                0x0815d680                rfio_setup_v3
                0x0815e160                rfio_close_v3
                0x0815ed84                set_snd_sockparam
                0x0815d694                rfio_read_v3
                0x0815ed2c                set_rcv_sockparam
 *fill*         0x0815edd9        0x3 90909090
 .text          0x0815eddc       0xfc /cern/99/lib/libpacklib.a(trace.o)
                0x0815ee68                init_trace
                0x0815eddc                print_trace
                0x0815eec4                end_trace
 .text          0x0815eed8      0x58d /cern/99/lib/libpacklib.a(write.o)
                0x0815eed8                rfio_write
                0x0815ef24                rfio_write_v2
 *fill*         0x0815f465        0xb 90909090
 .text          0x0815f470      0x147 /cern/99/lib/libpacklib.a(cfopei.o)
                0x0815f470                cfopei_
 *fill*         0x0815f5b7        0x1 90909090
 .text          0x0815f5b8       0x32 /cern/99/lib/libpacklib.a(cfstat.o)
                0x0815f5b8                cfstat_
 *fill*         0x0815f5ea        0x6 90909090
 .text          0x0815f5f0       0x3c /cern/99/lib/libpacklib.a(fchtak.o)
                0x0815f5f0                fchtak
 .text          0x0815f62c       0x5f /cern/99/lib/libpacklib.a(gshowf.o)
                0x0815f62c                gshowf_
 *fill*         0x0815f68b        0x1 90909090
 .text          0x0815f68c       0x52 /cern/99/lib/libpacklib.a(icluns.o)
                0x0815f68c                icluns_
 *fill*         0x0815f6de        0x2 90909090
 .text          0x0815f6e0       0x38 /cern/99/lib/libpacklib.a(traceq.o)
                0x0815f6e0                traceq_
 .text          0x0815f718       0x83 /cern/99/lib/libpacklib.a(xinbf.o)
                0x0815f718                xinbf_
 *fill*         0x0815f79b        0x1 90909090
 .text          0x0815f79c      0x114 /cern/99/lib/libpacklib.a(xinbs.o)
                0x0815f79c                xinbs_
 .text          0x0815f8b0      0xa5c /cern/99/lib/libpacklib.a(halloc.o)
                0x0815fdc0                hbprnt_
                0x0815fd40                hbfreec_
                0x0815fd80                hbsmax_
                0x0815fd70                hbvm_
                0x08160200                hballo1_
                0x0815ff10                hbinit1_
                0x0815fcc0                hbfree_
                0x0815fdb0                hbgmax_
 .text          0x0816030c      0x4d0 /cern/99/lib/libpacklib.a(hrfile.o)
                0x0816030c                hrfile_
 .text          0x081607dc      0x8b5 /cern/99/lib/libpacklib.a(hfc1.o)
                0x081607dc                hfc1_
 *fill*         0x08161091        0x3 90909090
 .text          0x08161094       0x38 /cern/99/lib/libpacklib.a(hlccmp.o)
                0x08161094                hlccmp_
 .text          0x081610cc      0x151 /cern/99/lib/libpacklib.a(hlgnxt.o)
                0x081610cc                hlgnxt_
 *fill*         0x0816121d        0x3 90909090
 .text          0x08161220       0x7e /cern/99/lib/libpacklib.a(hlhcmp.o)
                0x08161220                hlhcmp_
 *fill*         0x0816129e        0x2 90909090
 .text          0x081612a0      0x364 /cern/99/lib/libpacklib.a(hlpos.o)
                0x081612a0                hlpos_
 .text          0x08161604      0xd10 /cern/99/lib/libpacklib.a(dzsnap.o)
                0x08161604                dzsnap_
 .text          0x08162314      0x28b /cern/99/lib/libpacklib.a(dztext.o)
                0x08162314                dztext_
 *fill*         0x0816259f        0x1 90909090
 .text          0x081625a0       0xe9 /cern/99/lib/libpacklib.a(zpage.o)
                0x081625a0                zpage_
 *fill*         0x08162689        0x3 90909090
 .text          0x0816268c      0x551 /cern/99/lib/libpacklib.a(fzipha.o)
                0x0816268c                fzipha_
 *fill*         0x08162bdd        0x3 90909090
 .text          0x08162be0      0x93f /cern/99/lib/libpacklib.a(fziphd.o)
                0x08162be0                fziphd_
 *fill*         0x0816351f        0x1 90909090
 .text          0x08163520      0x425 /cern/99/lib/libpacklib.a(fziphm.o)
                0x08163520                fziphm_
 *fill*         0x08163945        0x3 90909090
 .text          0x08163948      0x8fa /cern/99/lib/libpacklib.a(fziphr.o)
                0x08163948                fziphr_
 *fill*         0x08164242        0x2 90909090
 .text          0x08164244      0x111 /cern/99/lib/libpacklib.a(fziprl.o)
                0x08164244                fziprl_
 *fill*         0x08164355        0x3 90909090
 .text          0x08164358      0xb9d /cern/99/lib/libpacklib.a(fzoffn.o)
                0x08164358                fzoffn_
 *fill*         0x08164ef5        0x3 90909090
 .text          0x08164ef8      0x602 /cern/99/lib/libpacklib.a(fzoffx.o)
                0x08164ef8                fzoffx_
 *fill*         0x081654fa        0x2 90909090
 .text          0x081654fc       0x84 /cern/99/lib/libpacklib.a(fzon1.o)
                0x081654fc                fzon1_
 .text          0x08165580       0xa8 /cern/99/lib/libpacklib.a(fzon2.o)
                0x08165580                fzon2_
 .text          0x08165628       0xd1 /cern/99/lib/libpacklib.a(fzon3.o)
                0x08165628                fzon3_
 *fill*         0x081656f9        0x3 90909090
 .text          0x081656fc       0xf5 /cern/99/lib/libpacklib.a(fzon4.o)
                0x081656fc                fzon4_
 *fill*         0x081657f1        0x3 90909090
 .text          0x081657f4      0x122 /cern/99/lib/libpacklib.a(fzon5.o)
                0x081657f4                fzon5_
 *fill*         0x08165916        0x2 90909090
 .text          0x08165918      0x148 /cern/99/lib/libpacklib.a(fzon6.o)
                0x08165918                fzon6_
 .text          0x08165a60      0x75c /cern/99/lib/libpacklib.a(fzorec.o)
                0x08165a60                fzorec_
 .text          0x081661bc      0xa3e /cern/99/lib/libpacklib.a(fzotab.o)
                0x081661bc                fzotab_
 *fill*         0x08166bfa        0x2 90909090
 .text          0x08166bfc       0xf6 /cern/99/lib/libpacklib.a(fzotrn.o)
                0x08166bfc                fzotrn_
 *fill*         0x08166cf2        0x2 90909090
 .text          0x08166cf4       0x98 /cern/99/lib/libpacklib.a(fzotxt.o)
                0x08166cf4                fzotxt_
 .text          0x08166d8c      0x402 /cern/99/lib/libpacklib.a(fzicv.o)
                0x08166d8c                fzicv_
 *fill*         0x0816718e        0x2 90909090
 .text          0x08167190      0x13a /cern/99/lib/libpacklib.a(fzotrx.o)
                0x08167190                fzotrx_
 *fill*         0x081672ca        0x2 90909090
 .text          0x081672cc       0x8e /cern/99/lib/libpacklib.a(mzend.o)
                0x081672cc                mzend_
 *fill*         0x0816735a        0x2 90909090
 .text          0x0816735c      0x379 /cern/99/lib/libpacklib.a(mzmaps.o)
                0x0816735c                mzmaps_
 *fill*         0x081676d5        0x3 90909090
 .text          0x081676d8      0x5fe /cern/99/lib/libpacklib.a(mzmark.o)
                0x081676d8                mzmark_
 *fill*         0x08167cd6        0x2 90909090
 .text          0x08167cd8      0x436 /cern/99/lib/libpacklib.a(mzwork.o)
                0x08167cd8                mzwork_
 *fill*         0x0816810e        0x2 90909090
 .text          0x08168110       0xb2 /cern/99/lib/libpacklib.a(zitoh.o)
                0x08168110                zitoh_
 *fill*         0x081681c2        0x2 90909090
 .text          0x081681c4      0x221 /cern/99/lib/libpacklib.a(rzallo.o)
                0x081681c4                rzallo_
 *fill*         0x081683e5        0x3 90909090
 .text          0x081683e8     0x19c1 /cern/99/lib/libpacklib.a(rzdelk.o)
                0x081683e8                rzdelk_
 *fill*         0x08169da9        0x3 90909090
 .text          0x08169dac      0x455 /cern/99/lib/libpacklib.a(rzexpd.o)
                0x08169dac                rzexpd_
 *fill*         0x0816a201        0x3 90909090
 .text          0x0816a204      0xb3a /cern/99/lib/libpacklib.a(rzfile.o)
                0x0816a204                rzfile_
 *fill*         0x0816ad3e        0x2 90909090
 .text          0x0816ad40      0x3fd /cern/99/lib/libpacklib.a(rzllok.o)
                0x0816ad40                rzllok_
 *fill*         0x0816b13d        0x3 90909090
 .text          0x0816b140      0x9ae /cern/99/lib/libpacklib.a(rzlock.o)
                0x0816b140                rzlock_
 *fill*         0x0816baee        0x2 90909090
 .text          0x0816baf0      0xd0b /cern/99/lib/libpacklib.a(rzmake.o)
                0x0816baf0                rzmake_
 *fill*         0x0816c7fb        0x1 90909090
 .text          0x0816c7fc      0x318 /cern/99/lib/libpacklib.a(rzobkn.o)
                0x0816c7fc                rzobkn_
 .text          0x0816cb14      0x499 /cern/99/lib/libpacklib.a(rzpurf.o)
                0x0816cb14                rzpurf_
 *fill*         0x0816cfad        0x3 90909090
 .text          0x0816cfb0      0x5dd /cern/99/lib/libpacklib.a(rzveri.o)
                0x0816cfb0                rzveri_
 *fill*         0x0816d58d        0x3 90909090
 .text          0x0816d590      0x4eb /cern/99/lib/libpacklib.a(rzwrt.o)
                0x0816d590                rzwrt_
 *fill*         0x0816da7b        0x1 90909090
 .text          0x0816da7c      0x6da /cern/99/lib/libpacklib.a(connect.o)
                0x0816e14c                rfio_lasthost
                0x0816da7c                rfio_connect
 *fill*         0x0816e156        0x2 90909090
 .text          0x0816e158       0xa9 /cern/99/lib/libpacklib.a(getacct.o)
                0x0816e158                getacct
 *fill*         0x0816e201        0x3 90909090
 .text          0x0816e204      0x19b /cern/99/lib/libpacklib.a(getacctent.o)
                0x0816e204                getacctent
 *fill*         0x0816e39f        0x1 90909090
 .text          0x0816e3a0      0x129 /cern/99/lib/libpacklib.a(getconfent.o)
                0x0816e3a0                getconfent
 *fill*         0x0816e4c9        0x3 90909090
 .text          0x0816e4cc      0x22b /cern/99/lib/libpacklib.a(getifnam.o)
                0x0816e4cc                getifnam
 *fill*         0x0816e6f7        0x1 90909090
 .text          0x0816e6f8      0x256 /cern/99/lib/libpacklib.a(log.o)
                0x0816e7a8                logit
                0x0816e6f8                initlog
                0x0816e944                getloglv
 *fill*         0x0816e94e        0x2 90909090
 .text          0x0816e950      0x5ad /cern/99/lib/libpacklib.a(remote.o)
                0x0816e950                isremote
 *fill*         0x0816eefd        0x3 90909090
 .text          0x0816ef00       0x20 /cern/99/lib/libpacklib.a(setnetio.o)
                0x0816ef00                setnetio
 .text          0x0816ef20       0x4b /cern/99/lib/libpacklib.a(vxinvc.o)
                0x0816ef20                vxinvc_
 *fill*         0x0816ef6b        0x5 90909090
 .text          0x0816ef70       0xa9 /cern/99/lib/libpacklib.a(cfstati.o)
                0x0816ef70                cfstati_
 *fill*         0x0816f019        0x3 90909090
 .text          0x0816f01c      0xb4f /cern/99/lib/libpacklib.a(dzare1.o)
                0x0816f01c                dzare1_
 *fill*         0x0816fb6b        0x1 90909090
 .text          0x0816fb6c      0x5a5 /cern/99/lib/libpacklib.a(dzbkup.o)
                0x0816fb6c                dzbkup_
 *fill*         0x08170111        0x3 90909090
 .text          0x08170114      0x6e0 /cern/99/lib/libpacklib.a(dzbkxr.o)
                0x08170114                dzbkxr_
 .text          0x081707f4      0x9e3 /cern/99/lib/libpacklib.a(dzdata.o)
                0x081707f4                dzdata_
 *fill*         0x081711d7        0x1 90909090
 .text          0x081711d8      0x5c9 /cern/99/lib/libpacklib.a(dzmap.o)
                0x081711d8                dzmap_
 *fill*         0x081717a1        0x3 90909090
 .text          0x081717a4       0xac /cern/99/lib/libpacklib.a(dzopt.o)
                0x081717a4                dzopt_
 .text          0x08171850      0x546 /cern/99/lib/libpacklib.a(dzshpr.o)
                0x08171850                dzshpr_
 *fill*         0x08171d96        0x2 90909090
 .text          0x08171d98      0x33f /cern/99/lib/libpacklib.a(dztyp.o)
                0x08171d98                dztyp_
 *fill*         0x081720d7        0x1 90909090
 .text          0x081720d8      0x7a6 /cern/99/lib/libpacklib.a(fziasc.o)
                0x081720d8                fziasc_
 *fill*         0x0817287e        0x2 90909090
 .text          0x08172880      0x262 /cern/99/lib/libpacklib.a(fzichh.o)
                0x08172880                fzichh_
 *fill*         0x08172ae2        0x2 90909090
 .text          0x08172ae4      0x101 /cern/99/lib/libpacklib.a(fzidum.o)
                0x08172ae4                fzidum_
 *fill*         0x08172be5        0x3 90909090
 .text          0x08172be8      0x615 /cern/99/lib/libpacklib.a(fzophr.o)
                0x08172be8                fzophr_
 *fill*         0x081731fd        0x3 90909090
 .text          0x08173200      0x3e6 /cern/99/lib/libpacklib.a(fzocv.o)
                0x08173200                fzocv_
 *fill*         0x081735e6        0x2 90909090
 .text          0x081735e8       0x19 /cern/99/lib/libpacklib.a(izbcd.o)
                0x081735e8                izbcd_
 *fill*         0x08173601        0x3 90909090
 .text          0x08173604      0x180 /cern/99/lib/libpacklib.a(rzdlok.o)
                0x08173604                rzdlok_
 .text          0x08173784      0xea5 /cern/99/lib/libpacklib.a(rzver1.o)
                0x08173784                rzver1_
 *fill*         0x08174629        0x3 90909090
 .text          0x0817462c      0x267 /cern/99/lib/libpacklib.a(rzver2.o)
                0x0817462c                rzver2_
 *fill*         0x08174893        0x1 90909090
 .text          0x08174894       0xf8 /cern/99/lib/libpacklib.a(stat.o)
                0x08174894                rfio_stat
 .text          0x0817498c       0x10 /cern/99/lib/libpacklib.a(cfweof.o)
                0x0817498c                cfweof_
 .text          0x0817499c       0x41 /cern/99/lib/libpacklib.a(iumode.o)
                0x0817499c                iumode_
 *fill*         0x081749dd        0x3 90909090
 .text          0x081749e0       0x50 /cern/99/lib/libpacklib.a(iufind.o)
                0x081749e0                iufind_
 .text          0x08174a30       0x98 /cern/99/lib/libpacklib.a(iusame.o)
                0x08174a30                iusame_
 .text          0x08174ac8       0x5d /cern/99/lib/libpacklib.a(jrsbyt.o)
                0x08174ac8                jrsbyt_
 *fill*         0x08174b25        0x3 90909090
 .text          0x08174b28       0x58 /cern/99/lib/libpacklib.a(ucopiv.o)
                0x08174b28                ucopiv_
 .text          0x08174b80      0x149 /cern/99/lib/libpacklib.a(dzbkdv.o)
                0x08174b80                dzbkdv_
 *fill*         0x08174cc9        0x3 90909090
 .text          0x08174ccc      0x3de /cern/99/lib/libpacklib.a(dzbkhd.o)
                0x08174ccc                dzbkhd_
 *fill*         0x081750aa        0x2 90909090
 .text          0x081750ac      0x166 /cern/99/lib/libpacklib.a(dziopr.o)
                0x081750ac                dziopr_
 *fill*         0x08175212        0x2 90909090
 .text          0x08175214      0x247 /cern/99/lib/libpacklib.a(fzialn.o)
                0x08175214                fzialn_
 *fill*         0x0817545b        0x1 90909090
 .text          0x0817545c      0x5a0 /cern/99/lib/libpacklib.a(fzoasc.o)
                0x0817545c                fzoasc_
 .text          0x081759fc       0x5f /cern/99/lib/libpacklib.a(izchav.o)
                0x081759fc                izchav_
 *fill*         0x08175a5b        0x1 90909090
 .text          0x08175a5c      0x429 /cern/99/lib/libpacklib.a(rzprnk.o)
                0x08175a5c                rzprnk_
 *fill*         0x08175e85        0x3 90909090
 .text          0x08175e88      0x74b /cern/99/lib/libpacklib.a(mstat.o)
                0x081764e8                rfio_end
                0x08175e88                rfio_mstat
                0x08176044                rfio_smstat
 *fill*         0x081765d3        0x1 90909090
 .text          0x081765d4      0x983 /cern/99/lib/libpacklib.a(dziopd.o)
                0x081765d4                dziopd_
 *fill*         0x08176f57        0x1 90909090
 .text          0x08176f58      0x6b8 /cern/99/lib/libpacklib.a(dzioph.o)
                0x08176f58                dzioph_
 .text          0x08177610      0x1ca /cern/99/lib/libpacklib.a(fzoaln.o)
                0x08177610                fzoaln_
 *fill*         0x081777da        0x2 90909090
 .text          0x081777dc      0x3e2 /cern/99/lib/libpacklib.a(fzoapk.o)
                0x081777dc                fzoapk_
 *fill*         0x08177bbe        0x2 90909090
 .text          0x08177bc0       0x6b /cern/99/lib/libpacklib.a(uh1toc.o)
                0x08177bc0                uh1toc_
 *fill*         0x08177c2b        0x1 90909090
 .text          0x08177c2c      0x450 /cern/99/lib/libmathlib.a(dsyev.o)
                0x08177c2c                dsyev_
 .text          0x0817807c      0x5e9 /cern/99/lib/libmathlib.a(dsytrd.o)
                0x0817807c                dsytrd_
 *fill*         0x08178665        0x3 90909090
 .text          0x08178668      0xb97 /cern/99/lib/libmathlib.a(ilaenv.o)
                0x08178668                ilaenv_
 *fill*         0x081791ff        0x1 90909090
 .text          0x08179200       0x78 /cern/99/lib/libmathlib.a(lsame.o)
                0x08179200                lsame_
 .text          0x08179278       0x40 /cern/99/lib/libmathlib.a(xerbla.o)
                0x08179278                xerbla_
 .text          0x081792b8      0x195 /cern/99/lib/libmathlib.a(dscal.o)
                0x081792b8                dscal_
 *fill*         0x0817944d        0x3 90909090
 .text          0x08179450      0xb9f /cern/99/lib/libmathlib.a(dsyr2k.o)
                0x08179450                dsyr2k_
 *fill*         0x08179fef        0x1 90909090
 .text          0x08179ff0     0x17fd /cern/99/lib/libmathlib.a(dlamch.o)
                0x0817b218                dlamc3_
                0x0817a960                dlamc2_
                0x0817a4c0                dlamc1_
                0x0817b4ec                dlamc5_
                0x08179ff0                dlamch_
                0x0817b234                dlamc4_
 *fill*         0x0817b7ed        0x3 90909090
 .text          0x0817b7f0      0x5c8 /cern/99/lib/libmathlib.a(dlansy.o)
                0x0817b7f0                dlansy_
 .text          0x0817bdb8      0x7ff /cern/99/lib/libmathlib.a(dlascl.o)
                0x0817bdb8                dlascl_
 *fill*         0x0817c5b7        0x1 90909090
 .text          0x0817c5b8       0xb4 /cern/99/lib/libmathlib.a(dlassq.o)
                0x0817c5b8                dlassq_
 .text          0x0817c66c      0x8eb /cern/99/lib/libmathlib.a(dlatrd.o)
                0x0817c66c                dlatrd_
 *fill*         0x0817cf57        0x1 90909090
 .text          0x0817cf58      0x377 /cern/99/lib/libmathlib.a(dorgtr.o)
                0x0817cf58                dorgtr_
 *fill*         0x0817d2cf        0x1 90909090
 .text          0x0817d2d0     0x123e /cern/99/lib/libmathlib.a(dsteqr.o)
                0x0817d2d0                dsteqr_
 *fill*         0x0817e50e        0x2 90909090
 .text          0x0817e510      0xd63 /cern/99/lib/libmathlib.a(dsterf.o)
                0x0817e510                dsterf_
 *fill*         0x0817f273        0x1 90909090
 .text          0x0817f274      0x561 /cern/99/lib/libmathlib.a(dsytd2.o)
                0x0817f274                dsytd2_
 *fill*         0x0817f7d5        0x3 90909090
 .text          0x0817f7d8      0x1ec /cern/99/lib/libmathlib.a(daxpy.o)
                0x0817f7d8                daxpy_
 .text          0x0817f9c4      0x1eb /cern/99/lib/libmathlib.a(ddot.o)
                0x0817f9c4                ddot_
 *fill*         0x0817fbaf        0x1 90909090
 .text          0x0817fbb0      0x6ec /cern/99/lib/libmathlib.a(dgemv.o)
                0x0817fbb0                dgemv_
 .text          0x0818029c      0x201 /cern/99/lib/libmathlib.a(dswap.o)
                0x0818029c                dswap_
 *fill*         0x0818049d        0x3 90909090
 .text          0x081804a0      0x848 /cern/99/lib/libmathlib.a(dsymv.o)
                0x081804a0                dsymv_
 .text          0x08180ce8      0x658 /cern/99/lib/libmathlib.a(dsyr2.o)
                0x08180ce8                dsyr2_
 .text          0x08181340      0x1a0 /cern/99/lib/libmathlib.a(dlae2.o)
                0x08181340                dlae2_
 .text          0x081814e0      0x331 /cern/99/lib/libmathlib.a(dlaev2.o)
                0x081814e0                dlaev2_
 *fill*         0x08181811        0x3 90909090
 .text          0x08181814      0x2b4 /cern/99/lib/libmathlib.a(dlanst.o)
                0x08181814                dlanst_
 .text          0x08181ac8       0xb3 /cern/99/lib/libmathlib.a(dlapy2.o)
                0x08181ac8                dlapy2_
 *fill*         0x08181b7b        0x1 90909090
 .text          0x08181b7c      0x237 /cern/99/lib/libmathlib.a(dlarfg.o)
                0x08181b7c                dlarfg_
 *fill*         0x08181db3        0x1 90909090
 .text          0x08181db4      0x3fc /cern/99/lib/libmathlib.a(dlartg.o)
                0x08181db4                dlartg_
 .text          0x081821b0      0x1d8 /cern/99/lib/libmathlib.a(dlaset.o)
                0x081821b0                dlaset_
 .text          0x08182388      0xf86 /cern/99/lib/libmathlib.a(dlasr.o)
                0x08182388                dlasr_
 *fill*         0x0818330e        0x2 90909090
 .text          0x08183310      0x583 /cern/99/lib/libmathlib.a(dlasrt.o)
                0x08183310                dlasrt_
 *fill*         0x08183893        0x1 90909090
 .text          0x08183894      0x5eb /cern/99/lib/libmathlib.a(dorgql.o)
                0x08183894                dorgql_
 *fill*         0x08183e7f        0x1 90909090
 .text          0x08183e80      0x59e /cern/99/lib/libmathlib.a(dorgqr.o)
                0x08183e80                dorgqr_
 *fill*         0x0818441e        0x2 90909090
 .text          0x08184420      0x14f /cern/99/lib/libmathlib.a(dnrm2.o)
                0x08184420                dnrm2_
 *fill*         0x0818456f        0x1 90909090
 .text          0x08184570     0x1586 /cern/99/lib/libmathlib.a(dlarfb.o)
                0x08184570                dlarfb_
 *fill*         0x08185af6        0x2 90909090
 .text          0x08185af8      0x5c3 /cern/99/lib/libmathlib.a(dlarft.o)
                0x08185af8                dlarft_
 *fill*         0x081860bb        0x1 90909090
 .text          0x081860bc      0x317 /cern/99/lib/libmathlib.a(dorg2l.o)
                0x081860bc                dorg2l_
 *fill*         0x081863d3        0x1 90909090
 .text          0x081863d4      0x2cb /cern/99/lib/libmathlib.a(dorg2r.o)
                0x081863d4                dorg2r_
 *fill*         0x0818669f        0x1 90909090
 .text          0x081866a0      0x1eb /cern/99/lib/libmathlib.a(dcopy.o)
                0x081866a0                dcopy_
 *fill*         0x0818688b        0x1 90909090
 .text          0x0818688c      0x94b /cern/99/lib/libmathlib.a(dgemm.o)
                0x0818688c                dgemm_
 *fill*         0x081871d7        0x1 90909090
 .text          0x081871d8      0xd56 /cern/99/lib/libmathlib.a(dtrmm.o)
                0x081871d8                dtrmm_
 *fill*         0x08187f2e        0x2 90909090
 .text          0x08187f30      0x9e2 /cern/99/lib/libmathlib.a(dtrmv.o)
                0x08187f30                dtrmv_
 *fill*         0x08188912        0x2 90909090
 .text          0x08188914      0x101 /cern/99/lib/libmathlib.a(dlarf.o)
                0x08188914                dlarf_
 *fill*         0x08188a15        0x3 90909090
 .text          0x08188a18      0x2d4 /cern/99/lib/libmathlib.a(dger.o)
                0x08188a18                dger_
 *fill*         0x08188cec        0x4 90909090
 .text          0x08188cf0       0x40 /usr/lib/libc_nonshared.a(atexit.oS)
                0x08188cf0                atexit
 .text          0x08188d30      0x1a0 /usr/lib/gcc-lib/i686-pc-linux-gnu/2.95.3/libg2c.a(close.o)
                0x08188e20                f_exit
                0x08188e7c                G77_flush_0
                0x08188d30                f_clos
 .text          0x08188ed0       0x28 /usr/lib/gcc-lib/i686-pc-linux-gnu/2.95.3/libg2c.a(dolio.o)
                0x08188ed0                do_lio
 *fill*         0x08188ef8        0x8 90909090
 .text          0x08188f00      0x3f0 /usr/lib/gcc-lib/i686-pc-linux-gnu/2.95.3/libg2c.a(due.o)
                0x0818919c                s_wdue
                0x0818911c                s_rdue
                0x081892c8                e_wdue
                0x08188f00                c_due
                0x0818921c                e_rdue
 .text          0x081892f0      0x340 /usr/lib/gcc-lib/i686-pc-linux-gnu/2.95.3/libg2c.a(endfile.o)
                0x08189438                t_runc
                0x081892f0                f_end
 .text          0x08189630      0x4c0 /usr/lib/gcc-lib/i686-pc-linux-gnu/2.95.3/libg2c.a(err.o)
                0x081899dc                f__nowwriting
                0x08189630                f__canseek
                0x0818986c                f_init
                0x081896bc                f__fatal
                0x08189920                f__nowreading
                0x08189aa8                err(float, long)
 .text          0x08189af0      0xc50 /usr/lib/gcc-lib/i686-pc-linux-gnu/2.95.3/libg2c.a(fmt.o)
                0x0818a6e4                fmt_bg
                0x0818a3cc                do_fio
                0x0818a6c0                en_fio
                0x0818a2f0                pars_f
 .text          0x0818a740      0x4d0 /usr/lib/gcc-lib/i686-pc-linux-gnu/2.95.3/libg2c.a(iio.o)
                0x0818a974                iw_rev
                0x0818aa1c                z_wnew
                0x0818a7bc                z_putc
                0x0818aafc                e_rsfi
                0x0818a854                c_si
                0x0818a7f4                z_rnew
                0x0818a740                z_getc
                0x0818a9b8                s_rsfi
                0x0818ab1c                e_wsfi
                0x0818aa98                s_wsfi
 .text          0x0818ac10      0x3d0 /usr/lib/gcc-lib/i686-pc-linux-gnu/2.95.3/libg2c.a(inquire.o)
                0x0818ac10                f_inqu
 .text          0x0818afe0     0x1340 /usr/lib/gcc-lib/i686-pc-linux-gnu/2.95.3/libg2c.a(lread.o)
                0x0818afe0                t_getc
                0x0818c1f8                s_rsle
                0x0818be90                l_read
                0x0818b040                e_rsle
                0x0818bd40                c_le
 .text          0x0818c320      0x930 /usr/lib/gcc-lib/i686-pc-linux-gnu/2.95.3/libg2c.a(open.o)
                0x0818c3c8                f__putbuf
                0x0818c498                x_putc
                0x0818c538                f_open
                0x0818cb74                fk_open
 .text          0x0818cc50      0xc60 /usr/lib/gcc-lib/i686-pc-linux-gnu/2.95.3/libg2c.a(rdfmt.o)
                0x0818d604                rd_ed
                0x0818d7dc                rd_ned
 .text          0x0818d8b0      0x100 /usr/lib/gcc-lib/i686-pc-linux-gnu/2.95.3/libg2c.a(rewind.o)
                0x0818d8b0                f_rew
 .text          0x0818d9b0      0x300 /usr/lib/gcc-lib/i686-pc-linux-gnu/2.95.3/libg2c.a(rsfe.o)
                0x0818da08                x_getc
                0x0818da9c                x_endp
                0x0818dad4                s_rsfe
                0x0818dac0                x_rev
                0x0818d9b0                xrd_SL
 .text          0x0818dcb0      0x140 /usr/lib/gcc-lib/i686-pc-linux-gnu/2.95.3/libg2c.a(sfe.o)
                0x0818dcd4                c_sfe
                0x0818ddc4                e_wsfe
                0x0818dcb0                e_rsfe
 .text          0x0818ddf0      0x400 /usr/lib/gcc-lib/i686-pc-linux-gnu/2.95.3/libg2c.a(sue.o)
                0x0818ddf0                c_sue
                0x0818e1b4                e_rsue
                0x0818e06c                s_wsue
                0x0818e134                e_wsue
                0x0818df2c                s_rsue
 .text          0x0818e1f0      0x230 /usr/lib/gcc-lib/i686-pc-linux-gnu/2.95.3/libg2c.a(uio.o)
                0x0818e3e4                do_uio
                0x0818e1f0                do_us
                0x0818e2d4                do_ud
 .text          0x0818e420       0xc0 /usr/lib/gcc-lib/i686-pc-linux-gnu/2.95.3/libg2c.a(util.o)
                0x0818e420                g_char
                0x0818e464                b_char
                0x0818e4a0                f__inode
 .text          0x0818e4e0      0xab0 /usr/lib/gcc-lib/i686-pc-linux-gnu/2.95.3/libg2c.a(wrtfmt.o)
                0x0818ed68                w_ed
                0x0818eec0                w_ned
                0x0818eb58                wrt_L
 .text          0x0818ef90      0x2a0 /usr/lib/gcc-lib/i686-pc-linux-gnu/2.95.3/libg2c.a(wsfe.o)
                0x0818ef90                x_wSL
                0x0818f074                s_wsfe
 .text          0x0818f230       0xf0 /usr/lib/gcc-lib/i686-pc-linux-gnu/2.95.3/libg2c.a(wsle.o)
                0x0818f2ec                e_wsle
                0x0818f230                s_wsle
 .text          0x0818f320       0x40 /usr/lib/gcc-lib/i686-pc-linux-gnu/2.95.3/libg2c.a(main.o)
                0x0818f320                main
 .text          0x0818f360       0x70 /usr/lib/gcc-lib/i686-pc-linux-gnu/2.95.3/libg2c.a(s_stop.o)
                0x0818f360                s_stop
 .text          0x0818f3d0       0x70 /usr/lib/gcc-lib/i686-pc-linux-gnu/2.95.3/libg2c.a(sig_die.o)
                0x0818f3d0                sig_die
 .text          0x0818f440       0x18 /usr/lib/gcc-lib/i686-pc-linux-gnu/2.95.3/libg2c.a(setarg.o)
                0x0818f440                f_setarg
 .text          0x0818f458      0x140 /usr/lib/gcc-lib/i686-pc-linux-gnu/2.95.3/libg2c.a(setsig.o)
                0x0818f500                f_setsig
 .text          0x0818f598       0x28 /usr/lib/gcc-lib/i686-pc-linux-gnu/2.95.3/libg2c.a(pow_dd.o)
                0x0818f598                pow_dd
 .text          0x0818f5c0       0xb8 /usr/lib/gcc-lib/i686-pc-linux-gnu/2.95.3/libg2c.a(pow_zz.o)
                0x0818f5c0                pow_zz
 .text          0x0818f678       0x24 /usr/lib/gcc-lib/i686-pc-linux-gnu/2.95.3/libg2c.a(c_abs.o)
                0x0818f678                c_abs
 .text          0x0818f69c       0x48 /usr/lib/gcc-lib/i686-pc-linux-gnu/2.95.3/libg2c.a(z_log.o)
                0x0818f69c                z_log
 *fill*         0x0818f6e4        0xc 90909090
 .text          0x0818f6f0       0xc0 /usr/lib/gcc-lib/i686-pc-linux-gnu/2.95.3/libg2c.a(z_sqrt.o)
                0x0818f6f0                z_sqrt
 .text          0x0818f7b0       0x24 /usr/lib/gcc-lib/i686-pc-linux-gnu/2.95.3/libg2c.a(r_lg10.o)
                0x0818f7b0                r_lg10
 *fill*         0x0818f7d4        0xc 90909090
 .text          0x0818f7e0       0x80 /usr/lib/gcc-lib/i686-pc-linux-gnu/2.95.3/libg2c.a(r_mod.o)
                0x0818f7e0                r_mod
 .text          0x0818f860       0x60 /usr/lib/gcc-lib/i686-pc-linux-gnu/2.95.3/libg2c.a(i_indx.o)
                0x0818f860                i_indx
 .text          0x0818f8c0       0x2c /usr/lib/gcc-lib/i686-pc-linux-gnu/2.95.3/libg2c.a(l_gt.o)
                0x0818f8c0                l_gt
 .text          0x0818f8ec       0x28 /usr/lib/gcc-lib/i686-pc-linux-gnu/2.95.3/libg2c.a(l_lt.o)
                0x0818f8ec                l_lt
 *fill*         0x0818f914        0xc 90909090
 .text          0x0818f920       0xf0 /usr/lib/gcc-lib/i686-pc-linux-gnu/2.95.3/libg2c.a(s_cat.o)
                0x0818f920                s_cat
 .text          0x0818fa10       0x90 /usr/lib/gcc-lib/i686-pc-linux-gnu/2.95.3/libg2c.a(s_cmp.o)
                0x0818fa10                s_cmp
 .text          0x0818faa0       0xa0 /usr/lib/gcc-lib/i686-pc-linux-gnu/2.95.3/libg2c.a(s_copy.o)
                0x0818faa0                s_copy
 .text          0x0818fb40       0x20 /usr/lib/gcc-lib/i686-pc-linux-gnu/2.95.3/libg2c.a(lnblnk_.o)
                0x0818fb40                G77_lnblnk_0
 .text          0x0818fb60       0xc0 /usr/lib/gcc-lib/i686-pc-linux-gnu/2.95.3/libg2c.a(fmtlib.o)
                0x0818fb60                f__icvt
 .text          0x0818fc20      0x4f0 /usr/lib/gcc-lib/i686-pc-linux-gnu/2.95.3/libg2c.a(lwrite.o)
                0x08190030                l_write
 .text          0x08190110      0x670 /usr/lib/gcc-lib/i686-pc-linux-gnu/2.95.3/libg2c.a(wref.o)
                0x08190110                wrt_E
                0x08190578                wrt_F
 .text          0x08190780       0x4c /usr/lib/gcc-lib/i686-pc-linux-gnu/2.95.3/libg2c.a(F77_aloc.o)
                0x08190780                F77_aloc
 .text          0x081907cc       0x68 /usr/lib/gcc-lib/i686-pc-linux-gnu/2.95.3/libg2c.a(cabs.o)
                0x081907cc                f__cabs
 .text          0x08190834       0x14 /usr/lib/gcc-lib/i686-pc-linux-gnu/2.95.3/libg2c.a(exit_.o)
                0x08190834                G77_exit_0
 *fill*         0x08190848        0x8 90909090
 .text          0x08190850       0x40 /usr/lib/gcc-lib/i686-pc-linux-gnu/2.95.3/crtend.o
 *(.gnu.warning)

.fini           0x08190890       0x1c
 *(.fini)
 .fini          0x08190890       0x14 /usr/lib/crti.o
                0x08190890                _fini
 .fini          0x081908a4        0x5 /usr/lib/gcc-lib/i686-pc-linux-gnu/2.95.3/crtbegin.o
 .fini          0x081908a9        0x3 /usr/lib/crtn.o
                0x081908ac                PROVIDE (__etext, .)
                0x081908ac                PROVIDE (_etext, .)
                0x081908ac                PROVIDE (etext, .)

.rodata         0x081908c0     0xeca2
 *(.rodata .rodata.* .gnu.linkonce.r.*)
 .rodata        0x081908c0        0x8 /usr/lib/crt1.o
                0x081908c0                _fp_hw
                0x081908c4                _IO_stdin_used
 *fill*         0x081908c8       0x18 00
 .rodata        0x081908e0     0x1298 mchw59_105j.o
 .rodata        0x08191b78       0x14 /home/pcl2483/pedro/jadesoft/util/mcgen/Plib/libmc105j.a(mcgetf.o)
 .rodata        0x08191b8c       0x2c /home/pcl2483/pedro/jadesoft/util/mcgen/Plib/libmc105j.a(mcgeth.o)
 .rodata        0x08191bb8       0x12 /home/pcl2483/pedro/jadesoft/util/mcgen/Plib/libmc105j.a(mcgetp.o)
 *fill*         0x08191bca        0x2 00
 .rodata        0x08191bcc      0x110 /home/pcl2483/pedro/jadesoft/util/mcgen/Plib/libmc105j.a(mcinit.o)
 *fill*         0x08191cdc        0x4 00
 .rodata        0x08191ce0       0xf8 /home/pcl2483/pedro/jadesoft/util/mcgen/Plib/libmc105j.a(mcstbl.o)
 *fill*         0x08191dd8        0x8 00
 .rodata        0x08191de0      0x20c /home/pcl2483/pedro/jadesoft/util/mcgen/Plib/libmc105j.a(mcwrit.o)
 *fill*         0x08191fec       0x14 00
 .rodata        0x08192000      0x168 /home/pcl2483/pedro/jadesoft/util/mcgen/Plib/libmc105j.a(pxeecb.o)
 *fill*         0x08192168       0x18 00
 .rodata        0x08192180      0x23c /home/pcl2483/pedro/jadesoft/util/mcgen/Plib/libmc105j.a(evwrtj.o)
 .rodata        0x081923bc       0x1c /home/pcl2483/pedro/jadesoft/util/mcgen/Plib/libmc105j.a(incprd.o)
 *fill*         0x081923d8        0x8 00
 .rodata        0x081923e0      0x24c /home/pcl2483/pedro/jadesoft/util/mcgen/Plib/libmc105j.a(jtconv.o)
 *fill*         0x0819262c       0x14 00
 .rodata        0x08192640       0x58 /home/pcl2483/pedro/jadesoft/util/mcgen/Plib/libmc105j.a(mcrnst.o)
 *fill*         0x08192698        0x8 00
 .rodata        0x081926a0      0x1a8 /home/pcl2483/pedro/jadesoft/util/mcgen/Plib/libmc105j.a(prcprd.o)
 *fill*         0x08192848       0x18 00
 .rodata        0x08192860       0x48 /home/pcl2483/pedro/jadesoft/util/mcgen/Plib/libmc105j.a(wrcprd.o)
 *fill*         0x081928a8       0x18 00
 .rodata        0x081928c0       0xdc /home/pcl2483/pedro/jadesoft/util/mcgen/Plib/libherwig59.a(fxhlms.o)
 *fill*         0x0819299c        0x4 00
 .rodata        0x081929a0      0x344 /home/pcl2483/pedro/jadesoft/util/mcgen/Plib/libherwig59.a(h59driv.o)
 *fill*         0x08192ce4        0x4 00
 .rodata        0x08192ce8       0x34 /home/pcl2483/pedro/jadesoft/util/mcgen/Plib/libherwig59.a(hwbgen.o)
 *fill*         0x08192d1c        0x4 00
 .rodata        0x08192d20       0x7c /home/pcl2483/pedro/jadesoft/util/mcgen/Plib/libherwig59.a(hwbjco.o)
 *fill*         0x08192d9c        0x4 00
 .rodata        0x08192da0        0x8 /home/pcl2483/pedro/jadesoft/util/mcgen/Plib/libherwig59.a(hwbmas.o)
 .rodata        0x08192da8       0xa4 /home/pcl2483/pedro/jadesoft/util/mcgen/Plib/libherwig59.a(hwbran.o)
 *fill*         0x08192e4c        0x4 00
 .rodata        0x08192e50       0x28 /home/pcl2483/pedro/jadesoft/util/mcgen/Plib/libherwig59.a(hwbspa.o)
 .rodata        0x08192e78        0x4 /home/pcl2483/pedro/jadesoft/util/mcgen/Plib/libherwig59.a(hwbspn.o)
 *fill*         0x08192e7c        0x4 00
 .rodata        0x08192e80       0x2c /home/pcl2483/pedro/jadesoft/util/mcgen/Plib/libherwig59.a(hwbtim.o)
 .rodata        0x08192eac        0xc /home/pcl2483/pedro/jadesoft/util/mcgen/Plib/libherwig59.a(hwcdec.o)
 .rodata        0x08192eb8       0x64 /home/pcl2483/pedro/jadesoft/util/mcgen/Plib/libherwig59.a(hwcfor.o)
 *fill*         0x08192f1c        0x4 00
 .rodata        0x08192f20       0x34 /home/pcl2483/pedro/jadesoft/util/mcgen/Plib/libherwig59.a(hwcgsp.o)
 *fill*         0x08192f54        0x4 00
 .rodata        0x08192f58       0x60 /home/pcl2483/pedro/jadesoft/util/mcgen/Plib/libherwig59.a(hwchad.o)
 *fill*         0x08192fb8        0x8 00
 .rodata        0x08192fc0       0x9c /home/pcl2483/pedro/jadesoft/util/mcgen/Plib/libherwig59.a(hwconv.o)
 .rodata        0x0819305c       0x2c /home/pcl2483/pedro/jadesoft/util/mcgen/Plib/libherwig59.a(hwdhqk.o)
 .rodata        0x08193088       0x30 /home/pcl2483/pedro/jadesoft/util/mcgen/Plib/libherwig59.a(hwdthr.o)
 .rodata        0x081930b8       0x24 /home/pcl2483/pedro/jadesoft/util/mcgen/Plib/libherwig59.a(hwdtwo.o)
 *fill*         0x081930dc        0x4 00
 .rodata        0x081930e0       0x18 /home/pcl2483/pedro/jadesoft/util/mcgen/Plib/libherwig59.a(hwefin.o)
 .rodata        0x081930f8       0x10 /home/pcl2483/pedro/jadesoft/util/mcgen/Plib/libherwig59.a(hweini.o)
 .rodata        0x08193108       0x4c /home/pcl2483/pedro/jadesoft/util/mcgen/Plib/libherwig59.a(hwepro.o)
 *fill*         0x08193154        0x4 00
 .rodata        0x08193158       0x34 /home/pcl2483/pedro/jadesoft/util/mcgen/Plib/libherwig59.a(hwhbgf.o)
 *fill*         0x0819318c        0x4 00
 .rodata        0x08193190       0x28 /home/pcl2483/pedro/jadesoft/util/mcgen/Plib/libherwig59.a(hwhbki.o)
 .rodata        0x081931b8       0x70 /home/pcl2483/pedro/jadesoft/util/mcgen/Plib/libherwig59.a(hwhbrn.o)
 .rodata        0x08193228       0x70 /home/pcl2483/pedro/jadesoft/util/mcgen/Plib/libherwig59.a(hwhbsg.o)
 .rodata        0x08193298       0x40 /home/pcl2483/pedro/jadesoft/util/mcgen/Plib/libherwig59.a(hwhdis.o)
 .rodata        0x081932d8       0x60 /home/pcl2483/pedro/jadesoft/util/mcgen/Plib/libherwig59.a(hwhdyp.o)
 .rodata        0x08193338       0x98 /home/pcl2483/pedro/jadesoft/util/mcgen/Plib/libherwig59.a(hwhegg.o)
 .rodata        0x081933d0       0x48 /home/pcl2483/pedro/jadesoft/util/mcgen/Plib/libherwig59.a(hwhegw.o)
 .rodata        0x08193418       0x30 /home/pcl2483/pedro/jadesoft/util/mcgen/Plib/libherwig59.a(hwhegx.o)
 .rodata        0x08193448       0x3c /home/pcl2483/pedro/jadesoft/util/mcgen/Plib/libherwig59.a(hwhepa.o)
 *fill*         0x08193484        0x4 00
 .rodata        0x08193488       0x58 /home/pcl2483/pedro/jadesoft/util/mcgen/Plib/libherwig59.a(hwhepg.o)
 .rodata        0x081934e0       0x70 /home/pcl2483/pedro/jadesoft/util/mcgen/Plib/libherwig59.a(hwheww.o)
 .rodata        0x08193550       0x9c /home/pcl2483/pedro/jadesoft/util/mcgen/Plib/libherwig59.a(hwhhvy.o)
 *fill*         0x081935ec        0x4 00
 .rodata        0x081935f0       0x64 /home/pcl2483/pedro/jadesoft/util/mcgen/Plib/libherwig59.a(hwhigj.o)
 *fill*         0x08193654        0x4 00
 .rodata        0x08193658       0x2c /home/pcl2483/pedro/jadesoft/util/mcgen/Plib/libherwig59.a(hwhigm.o)
 *fill*         0x08193684        0x4 00
 .rodata        0x08193688       0x38 /home/pcl2483/pedro/jadesoft/util/mcgen/Plib/libherwig59.a(hwhigs.o)
 .rodata        0x081936c0       0x38 /home/pcl2483/pedro/jadesoft/util/mcgen/Plib/libherwig59.a(hwhigt.o)
 .rodata        0x081936f8       0x64 /home/pcl2483/pedro/jadesoft/util/mcgen/Plib/libherwig59.a(hwhigw.o)
 *fill*         0x0819375c        0x4 00
 .rodata        0x08193760       0x80 /home/pcl2483/pedro/jadesoft/util/mcgen/Plib/libherwig59.a(hwhigz.o)
 .rodata        0x081937e0       0x44 /home/pcl2483/pedro/jadesoft/util/mcgen/Plib/libherwig59.a(hwhph2.o)
 *fill*         0x08193824        0x4 00
 .rodata        0x08193828       0x64 /home/pcl2483/pedro/jadesoft/util/mcgen/Plib/libherwig59.a(hwhpho.o)
 *fill*         0x0819388c        0x4 00
 .rodata        0x08193890       0x18 /home/pcl2483/pedro/jadesoft/util/mcgen/Plib/libherwig59.a(hwhppb.o)
 .rodata        0x081938a8       0x34 /home/pcl2483/pedro/jadesoft/util/mcgen/Plib/libherwig59.a(hwhppe.o)
 *fill*         0x081938dc        0x4 00
 .rodata        0x081938e0       0x28 /home/pcl2483/pedro/jadesoft/util/mcgen/Plib/libherwig59.a(hwhpph.o)
 .rodata        0x08193908       0x74 /home/pcl2483/pedro/jadesoft/util/mcgen/Plib/libherwig59.a(hwhppm.o)
 *fill*         0x0819397c        0x4 00
 .rodata        0x08193980       0x38 /home/pcl2483/pedro/jadesoft/util/mcgen/Plib/libherwig59.a(hwhppt.o)
 .rodata        0x081939b8       0x30 /home/pcl2483/pedro/jadesoft/util/mcgen/Plib/libherwig59.a(hwhpqs.o)
 .rodata        0x081939e8       0xd0 /home/pcl2483/pedro/jadesoft/util/mcgen/Plib/libherwig59.a(hwhqcd.o)
 .rodata        0x08193ab8        0x4 /home/pcl2483/pedro/jadesoft/util/mcgen/Plib/libherwig59.a(hwhqcp.o)
 *fill*         0x08193abc        0x4 00
 .rodata        0x08193ac0       0x38 /home/pcl2483/pedro/jadesoft/util/mcgen/Plib/libherwig59.a(hwhsng.o)
 .rodata        0x08193af8       0x24 /home/pcl2483/pedro/jadesoft/util/mcgen/Plib/libherwig59.a(hwhsnm.o)
 *fill*         0x08193b1c        0x4 00
 .rodata        0x08193b20       0x50 /home/pcl2483/pedro/jadesoft/util/mcgen/Plib/libherwig59.a(hwhv1j.o)
 .rodata        0x08193b70       0x48 /home/pcl2483/pedro/jadesoft/util/mcgen/Plib/libherwig59.a(hwhwex.o)
 .rodata        0x08193bb8       0x48 /home/pcl2483/pedro/jadesoft/util/mcgen/Plib/libherwig59.a(hwhwpr.o)
 .rodata        0x08193c00      0x1d0 /home/pcl2483/pedro/jadesoft/util/mcgen/Plib/libherwig59.a(hwigin.o)
 .rodata        0x08193dd0       0xb0 /home/pcl2483/pedro/jadesoft/util/mcgen/Plib/libherwig59.a(hwmwgt.o)
 .rodata        0x08193e80        0x8 /home/pcl2483/pedro/jadesoft/util/mcgen/Plib/libherwig59.a(hwrazm.o)
 .rodata        0x08193e88       0x10 /home/pcl2483/pedro/jadesoft/util/mcgen/Plib/libherwig59.a(hwrgen.o)
 .rodata        0x08193e98        0x4 /home/pcl2483/pedro/jadesoft/util/mcgen/Plib/libherwig59.a(hwrint.o)
 .rodata        0x08193e9c        0x4 /home/pcl2483/pedro/jadesoft/util/mcgen/Plib/libherwig59.a(hwrlog.o)
 .rodata        0x08193ea0       0x10 /home/pcl2483/pedro/jadesoft/util/mcgen/Plib/libherwig59.a(hwrpow.o)
 .rodata        0x08193eb0       0x70 /home/pcl2483/pedro/jadesoft/util/mcgen/Plib/libherwig59.a(hwsbrn.o)
 .rodata        0x08193f20       0x1c /home/pcl2483/pedro/jadesoft/util/mcgen/Plib/libherwig59.a(hwsfbr.o)
 *fill*         0x08193f3c        0x4 00
 .rodata        0x08193f40       0xd8 /home/pcl2483/pedro/jadesoft/util/mcgen/Plib/libherwig59.a(hwsfun.o)
 .rodata        0x08194018       0x10 /home/pcl2483/pedro/jadesoft/util/mcgen/Plib/libherwig59.a(hwsgam.o)
 .rodata        0x08194028        0xc /home/pcl2483/pedro/jadesoft/util/mcgen/Plib/libherwig59.a(hwsgen.o)
 .rodata        0x08194034        0x4 /home/pcl2483/pedro/jadesoft/util/mcgen/Plib/libherwig59.a(hwsgqq.o)
 .rodata        0x08194038       0x28 /home/pcl2483/pedro/jadesoft/util/mcgen/Plib/libherwig59.a(hwsspc.o)
 .rodata        0x08194060       0x10 /home/pcl2483/pedro/jadesoft/util/mcgen/Plib/libherwig59.a(hwstab.o)
 .rodata        0x08194070        0xc /home/pcl2483/pedro/jadesoft/util/mcgen/Plib/libherwig59.a(hwsval.o)
 *fill*         0x0819407c        0x4 00
 .rodata        0x08194080       0x28 /home/pcl2483/pedro/jadesoft/util/mcgen/Plib/libherwig59.a(hwuaem.o)
 .rodata        0x081940a8       0x38 /home/pcl2483/pedro/jadesoft/util/mcgen/Plib/libherwig59.a(hwuaer.o)
 .rodata        0x081940e0       0x88 /home/pcl2483/pedro/jadesoft/util/mcgen/Plib/libherwig59.a(hwualf.o)
 .rodata        0x08194168       0x18 /home/pcl2483/pedro/jadesoft/util/mcgen/Plib/libherwig59.a(hwubst.o)
 .rodata        0x08194180        0x8 /home/pcl2483/pedro/jadesoft/util/mcgen/Plib/libherwig59.a(hwucff.o)
 .rodata        0x08194188        0x8 /home/pcl2483/pedro/jadesoft/util/mcgen/Plib/libherwig59.a(hwudkl.o)
 .rodata        0x08194190        0xc /home/pcl2483/pedro/jadesoft/util/mcgen/Plib/libherwig59.a(hwueec.o)
 .rodata        0x0819419c        0x8 /home/pcl2483/pedro/jadesoft/util/mcgen/Plib/libherwig59.a(hwuepr.o)
 .rodata        0x081941a4       0x10 /home/pcl2483/pedro/jadesoft/util/mcgen/Plib/libherwig59.a(hwufne.o)
 *fill*         0x081941b4        0xc 00
 .rodata        0x081941c0      0x37c /home/pcl2483/pedro/jadesoft/util/mcgen/Plib/libherwig59.a(hwuinc.o)
 .rodata        0x0819453c       0x20 /home/pcl2483/pedro/jadesoft/util/mcgen/Plib/libherwig59.a(hwuine.o)
 *fill*         0x0819455c        0x4 00
 .rodata        0x08194560       0x10 /home/pcl2483/pedro/jadesoft/util/mcgen/Plib/libherwig59.a(hwupcm.o)
 .rodata        0x08194570       0x68 /home/pcl2483/pedro/jadesoft/util/mcgen/Plib/libherwig59.a(hwures.o)
 .rodata        0x081945d8        0x8 /home/pcl2483/pedro/jadesoft/util/mcgen/Plib/libherwig59.a(hwutab.o)
 .rodata        0x081945e0        0x4 /home/pcl2483/pedro/jadesoft/util/mcgen/Plib/libherwig59.a(hwutim.o)
 .rodata        0x081945e4        0x8 /home/pcl2483/pedro/jadesoft/util/mcgen/Plib/libherwig59.a(hwwarn.o)
 *fill*         0x081945ec       0x14 00
 .rodata        0x08194600       0xac /home/pcl2483/pedro/jadesoft/util/mcgen/Plib/libherwig59.a(sasgam.o)
 *fill*         0x081946ac        0x4 00
 .rodata        0x081946b0      0x2d8 /home/pcl2483/pedro/jadesoft/util/mcgen/Plib/libherwig59.a(sasvmd.o)
 .rodata        0x08194988       0x1c /home/pcl2483/pedro/jadesoft/util/mcgen/Plib/libherwig59.a(hwaend.o)
 *fill*         0x081949a4        0x4 00
 .rodata        0x081949a8        0x8 /home/pcl2483/pedro/jadesoft/util/mcgen/Plib/libherwig59.a(hwbazf.o)
 .rodata        0x081949b0        0xc /home/pcl2483/pedro/jadesoft/util/mcgen/Plib/libherwig59.a(hwbcon.o)
 *fill*         0x081949bc        0x4 00
 .rodata        0x081949c0       0xb4 /home/pcl2483/pedro/jadesoft/util/mcgen/Plib/libherwig59.a(hwbded.o)
 *fill*         0x08194a74        0x4 00
 .rodata        0x08194a78       0xf4 /home/pcl2483/pedro/jadesoft/util/mcgen/Plib/libherwig59.a(hwbdis.o)
 .rodata        0x08194b6c       0x14 /home/pcl2483/pedro/jadesoft/util/mcgen/Plib/libherwig59.a(hwbfin.o)
 .rodata        0x08194b80       0x74 /home/pcl2483/pedro/jadesoft/util/mcgen/Plib/libherwig59.a(hwbsud.o)
 *fill*         0x08194bf4        0x4 00
 .rodata        0x08194bf8        0x8 /home/pcl2483/pedro/jadesoft/util/mcgen/Plib/libherwig59.a(hwbsug.o)
 .rodata        0x08194c00       0x3c /home/pcl2483/pedro/jadesoft/util/mcgen/Plib/libherwig59.a(hwbsul.o)
 *fill*         0x08194c3c        0x4 00
 .rodata        0x08194c40       0x30 /home/pcl2483/pedro/jadesoft/util/mcgen/Plib/libherwig59.a(hwccut.o)
 .rodata        0x08194c70       0x2c /home/pcl2483/pedro/jadesoft/util/mcgen/Plib/libherwig59.a(hwdboz.o)
 *fill*         0x08194c9c        0x4 00
 .rodata        0x08194ca0       0xc0 /home/pcl2483/pedro/jadesoft/util/mcgen/Plib/libherwig59.a(hwdhig.o)
 .rodata        0x08194d60       0x44 /home/pcl2483/pedro/jadesoft/util/mcgen/Plib/libherwig59.a(hwegam.o)
 *fill*         0x08194da4        0x4 00
 .rodata        0x08194da8       0x74 /home/pcl2483/pedro/jadesoft/util/mcgen/Plib/libherwig59.a(hweisr.o)
 *fill*         0x08194e1c        0x4 00
 .rodata        0x08194e20       0x14 /home/pcl2483/pedro/jadesoft/util/mcgen/Plib/libherwig59.a(hweone.o)
 *fill*         0x08194e34        0x4 00
 .rodata        0x08194e38       0x20 /home/pcl2483/pedro/jadesoft/util/mcgen/Plib/libherwig59.a(hwetwo.o)
 .rodata        0x08194e58       0x28 /home/pcl2483/pedro/jadesoft/util/mcgen/Plib/libherwig59.a(hwhew0.o)
 .rodata        0x08194e80       0x28 /home/pcl2483/pedro/jadesoft/util/mcgen/Plib/libherwig59.a(hwhew2.o)
 .rodata        0x08194ea8       0x10 /home/pcl2483/pedro/jadesoft/util/mcgen/Plib/libherwig59.a(hwhew3.o)
 .rodata        0x08194eb8        0x8 /home/pcl2483/pedro/jadesoft/util/mcgen/Plib/libherwig59.a(hwhew4.o)
 .rodata        0x08194ec0       0x60 /home/pcl2483/pedro/jadesoft/util/mcgen/Plib/libherwig59.a(hwhiga.o)
 .rodata        0x08194f20       0x40 /home/pcl2483/pedro/jadesoft/util/mcgen/Plib/libherwig59.a(hwhigb.o)
 .rodata        0x08194f60       0x98 /home/pcl2483/pedro/jadesoft/util/mcgen/Plib/libherwig59.a(hwhigy.o)
 .rodata        0x08194ff8       0x18 /home/pcl2483/pedro/jadesoft/util/mcgen/Plib/libherwig59.a(hwrexq.o)
 .rodata        0x08195010        0x8 /home/pcl2483/pedro/jadesoft/util/mcgen/Plib/libherwig59.a(hwsdgg.o)
 .rodata        0x08195018       0x3c /home/pcl2483/pedro/jadesoft/util/mcgen/Plib/libherwig59.a(hwsdgq.o)
 .rodata        0x08195054        0x4 /home/pcl2483/pedro/jadesoft/util/mcgen/Plib/libherwig59.a(hwuant.o)
 .rodata        0x08195058        0x4 /home/pcl2483/pedro/jadesoft/util/mcgen/Plib/libherwig59.a(hwubpr.o)
 .rodata        0x0819505c       0x40 /home/pcl2483/pedro/jadesoft/util/mcgen/Plib/libherwig59.a(hwuci2.o)
 *fill*         0x0819509c        0x4 00
 .rodata        0x081950a0       0x38 /home/pcl2483/pedro/jadesoft/util/mcgen/Plib/libherwig59.a(hwudks.o)
 .rodata        0x081950d8        0x8 /home/pcl2483/pedro/jadesoft/util/mcgen/Plib/libherwig59.a(hwudpr.o)
 .rodata        0x081950e0        0x8 /home/pcl2483/pedro/jadesoft/util/mcgen/Plib/libherwig59.a(hwuedt.o)
 .rodata        0x081950e8        0x8 /home/pcl2483/pedro/jadesoft/util/mcgen/Plib/libherwig59.a(hwuemv.o)
 .rodata        0x081950f0       0x1c /home/pcl2483/pedro/jadesoft/util/mcgen/Plib/libherwig59.a(hwugau.o)
 .rodata        0x0819510c       0x1c /home/pcl2483/pedro/jadesoft/util/mcgen/Plib/libherwig59.a(hwuidt.o)
 .rodata        0x08195128       0x28 /home/pcl2483/pedro/jadesoft/util/mcgen/Plib/libherwig59.a(hwuli2.o)
 .rodata        0x08195150        0xc /home/pcl2483/pedro/jadesoft/util/mcgen/Plib/libherwig59.a(hwusor.o)
 *fill*         0x0819515c        0x4 00
 .rodata        0x08195160       0x94 /home/pcl2483/pedro/jadesoft/util/mcgen/Plib/libherwig59.a(sasano.o)
 .rodata        0x081951f4       0x2c /home/pcl2483/pedro/jadesoft/util/mcgen/Plib/libherwig59.a(sasbeh.o)
 .rodata        0x08195220       0x10 /home/pcl2483/pedro/jadesoft/util/mcgen/Plib/libherwig59.a(sasdir.o)
 .rodata        0x08195230       0x18 /home/pcl2483/pedro/jadesoft/util/mcgen/Plib/libherwig59.a(hwdchk.o)
 .rodata        0x08195248       0x20 /home/pcl2483/pedro/jadesoft/util/mcgen/Plib/libherwig59.a(hwdhgc.o)
 .rodata        0x08195268       0x18 /home/pcl2483/pedro/jadesoft/util/mcgen/Plib/libherwig59.a(hwdhgf.o)
 .rodata        0x08195280        0x8 /home/pcl2483/pedro/jadesoft/util/mcgen/Plib/libherwig59.a(hwdtop.o)
 .rodata        0x08195288       0x40 /home/pcl2483/pedro/jadesoft/util/mcgen/Plib/libherwig59.a(hwhig1.o)
 *fill*         0x081952c8       0x18 00
 .rodata        0x081952e0       0x44 /home/pcl2483/pedro/jadesoft/util/mcgen/Plib/libjt74opal.a(luedit.o)
 .rodata        0x08195324        0x8 /home/pcl2483/pedro/jadesoft/util/mcgen/Plib/libjt74opal.a(luerrm.o)
 *fill*         0x0819532c       0x14 00
 .rodata        0x08195340       0xbc /home/pcl2483/pedro/jadesoft/util/mcgen/Plib/libjt74opal.a(luexec.o)
 *fill*         0x081953fc        0x4 00
 .rodata        0x08195400       0xfc /home/pcl2483/pedro/jadesoft/util/mcgen/Plib/libjt74opal.a(luhepc.o)
 *fill*         0x081954fc        0x4 00
 .rodata        0x08195500      0x130 /home/pcl2483/pedro/jadesoft/util/mcgen/Plib/libjt74opal.a(luindf.o)
 *fill*         0x08195630       0x10 00
 .rodata        0x08195640       0x90 /home/pcl2483/pedro/jadesoft/util/mcgen/Plib/libjt74opal.a(lukfdi.o)
 .rodata        0x081956d0       0x30 /home/pcl2483/pedro/jadesoft/util/mcgen/Plib/libjt74opal.a(lulist.o)
 .rodata        0x08195700      0x1dc /home/pcl2483/pedro/jadesoft/util/mcgen/Plib/libjt74opal.a(lulogo.o)
 .rodata        0x081958dc       0xc0 /home/pcl2483/pedro/jadesoft/util/mcgen/Plib/libjt74opal.a(luname.o)
 *fill*         0x0819599c        0x4 00
 .rodata        0x081959a0      0x1a8 /home/pcl2483/pedro/jadesoft/util/mcgen/Plib/libjt74opal.a(luprep.o)
 .rodata        0x08195b48        0x8 /home/pcl2483/pedro/jadesoft/util/mcgen/Plib/libjt74opal.a(luptdi.o)
 *fill*         0x08195b50       0x10 00
 .rodata        0x08195b60       0x7c /home/pcl2483/pedro/jadesoft/util/mcgen/Plib/libjt74opal.a(lurobo.o)
 *fill*         0x08195bdc        0x4 00
 .rodata        0x08195be0      0x11c /home/pcl2483/pedro/jadesoft/util/mcgen/Plib/libjt74opal.a(lushow.o)
 *fill*         0x08195cfc        0x4 00
 .rodata        0x08195d00      0x160 /home/pcl2483/pedro/jadesoft/util/mcgen/Plib/libjt74opal.a(lustrf.o)
 .rodata        0x08195e60       0x74 /home/pcl2483/pedro/jadesoft/util/mcgen/Plib/libjt74opal.a(lutabu.o)
 *fill*         0x08195ed4        0x4 00
 .rodata        0x08195ed8       0x3c /home/pcl2483/pedro/jadesoft/util/mcgen/Plib/libjt74opal.a(luzdis.o)
 .rodata        0x08195f14       0x14 /home/pcl2483/pedro/jadesoft/util/mcgen/Plib/libjt74opal.a(plu.o)
 .rodata        0x08195f28       0x10 /home/pcl2483/pedro/jadesoft/util/mcgen/Plib/libjt74opal.a(rlu.o)
 .rodata        0x08195f38        0x8 /home/pcl2483/pedro/jadesoft/util/mcgen/Plib/libjt74opal.a(ulangl.o)
 .rodata        0x08195f40       0x14 /home/pcl2483/pedro/jadesoft/util/mcgen/Plib/libjt74opal.a(ulmass.o)
 *fill*         0x08195f54        0xc 00
 .rodata        0x08195f60       0x68 /home/pcl2483/pedro/jadesoft/util/mcgen/Plib/libjt74opal.a(luboei.o)
 *fill*         0x08195fc8       0x18 00
 .rodata        0x08195fe0       0xf8 /home/pcl2483/pedro/jadesoft/util/mcgen/Plib/libjt74opal.a(ludecy.o)
 .rodata        0x081960d8       0x1c /home/pcl2483/pedro/jadesoft/util/mcgen/Plib/libjt74opal.a(lutaud.o)
 .rodata        0x081960f4       0x28 /home/pcl2483/pedro/jadesoft/util/mcgen/Plib/libjt74opal.a(taupol.o)
 .rodata        0x0819611c        0x8 /home/pcl2483/pedro/jadesoft/util/mcgen/Plib/libjt74opal.a(dexay.o)
 .rodata        0x08196124        0x4 /home/pcl2483/pedro/jadesoft/util/mcgen/Plib/libjt74opal.a(dexay1.o)
 .rodata        0x08196128       0x10 /home/pcl2483/pedro/jadesoft/util/mcgen/Plib/libjt74opal.a(dexel.o)
 .rodata        0x08196138       0x10 /home/pcl2483/pedro/jadesoft/util/mcgen/Plib/libjt74opal.a(dexkk.o)
 .rodata        0x08196148       0x10 /home/pcl2483/pedro/jadesoft/util/mcgen/Plib/libjt74opal.a(dexks.o)
 .rodata        0x08196158       0x10 /home/pcl2483/pedro/jadesoft/util/mcgen/Plib/libjt74opal.a(dexmu.o)
 .rodata        0x08196168       0x10 /home/pcl2483/pedro/jadesoft/util/mcgen/Plib/libjt74opal.a(dexnew.o)
 .rodata        0x08196178       0x10 /home/pcl2483/pedro/jadesoft/util/mcgen/Plib/libjt74opal.a(dexpi.o)
 .rodata        0x08196188       0x10 /home/pcl2483/pedro/jadesoft/util/mcgen/Plib/libjt74opal.a(dexro.o)
 .rodata        0x08196198        0x8 /home/pcl2483/pedro/jadesoft/util/mcgen/Plib/libjt74opal.a(dwlnew.o)
 .rodata        0x081961a0       0x18 /home/pcl2483/pedro/jadesoft/util/mcgen/Plib/libjt74opal.a(dwluaa.o)
 .rodata        0x081961b8        0x8 /home/pcl2483/pedro/jadesoft/util/mcgen/Plib/libjt74opal.a(dwluel.o)
 .rodata        0x081961c0        0x8 /home/pcl2483/pedro/jadesoft/util/mcgen/Plib/libjt74opal.a(dwlukk.o)
 .rodata        0x081961c8       0x14 /home/pcl2483/pedro/jadesoft/util/mcgen/Plib/libjt74opal.a(dwluks.o)
 .rodata        0x081961dc        0x8 /home/pcl2483/pedro/jadesoft/util/mcgen/Plib/libjt74opal.a(dwlumu.o)
 .rodata        0x081961e4        0x8 /home/pcl2483/pedro/jadesoft/util/mcgen/Plib/libjt74opal.a(dwlupi.o)
 .rodata        0x081961ec       0x18 /home/pcl2483/pedro/jadesoft/util/mcgen/Plib/libjt74opal.a(dwluro.o)
 .rodata        0x08196204        0x4 /home/pcl2483/pedro/jadesoft/util/mcgen/Plib/libjt74opal.a(dwrph.o)
 *fill*         0x08196208       0x18 00
 .rodata        0x08196220      0x2d0 /home/pcl2483/pedro/jadesoft/util/mcgen/Plib/libjt74opal.a(initdk.o)
 .rodata        0x081964f0       0x28 /home/pcl2483/pedro/jadesoft/util/mcgen/Plib/libjt74opal.a(lunpik.o)
 .rodata        0x08196518       0x10 /home/pcl2483/pedro/jadesoft/util/mcgen/Plib/libjt74opal.a(dadmel.o)
 .rodata        0x08196528       0x10 /home/pcl2483/pedro/jadesoft/util/mcgen/Plib/libjt74opal.a(dadmkk.o)
 .rodata        0x08196538       0x10 /home/pcl2483/pedro/jadesoft/util/mcgen/Plib/libjt74opal.a(dadmks.o)
 .rodata        0x08196548       0x10 /home/pcl2483/pedro/jadesoft/util/mcgen/Plib/libjt74opal.a(dadmmu.o)
 .rodata        0x08196558       0x10 /home/pcl2483/pedro/jadesoft/util/mcgen/Plib/libjt74opal.a(dadmpi.o)
 .rodata        0x08196568       0x10 /home/pcl2483/pedro/jadesoft/util/mcgen/Plib/libjt74opal.a(dadmro.o)
 .rodata        0x08196578        0xc /home/pcl2483/pedro/jadesoft/util/mcgen/Plib/libjt74opal.a(dadnew.o)
 .rodata        0x08196584       0x10 /home/pcl2483/pedro/jadesoft/util/mcgen/Plib/libjt74opal.a(dexaa.o)
 *fill*         0x08196594        0x4 00
 .rodata        0x08196598       0x44 /home/pcl2483/pedro/jadesoft/util/mcgen/Plib/libjt74opal.a(dph4pi.o)
 *fill*         0x081965dc        0x4 00
 .rodata        0x081965e0       0x24 /home/pcl2483/pedro/jadesoft/util/mcgen/Plib/libjt74opal.a(dph5pi.o)
 .rodata        0x08196604       0x10 /home/pcl2483/pedro/jadesoft/util/mcgen/Plib/libjt74opal.a(dphnpi.o)
 .rodata        0x08196614        0x8 /home/pcl2483/pedro/jadesoft/util/mcgen/Plib/libjt74opal.a(dphsks.o)
 .rodata        0x0819661c        0x8 /home/pcl2483/pedro/jadesoft/util/mcgen/Plib/libjt74opal.a(dphsrk.o)
 .rodata        0x08196624        0x8 /home/pcl2483/pedro/jadesoft/util/mcgen/Plib/libjt74opal.a(dphsro.o)
 .rodata        0x0819662c       0x14 /home/pcl2483/pedro/jadesoft/util/mcgen/Plib/libjt74opal.a(dphtre.o)
 .rodata        0x08196640       0x60 /home/pcl2483/pedro/jadesoft/util/mcgen/Plib/libjt74opal.a(drcmu.o)
 .rodata        0x081966a0       0x10 /home/pcl2483/pedro/jadesoft/util/mcgen/Plib/libjt74opal.a(dwluph.o)
 .rodata        0x081966b0       0x1c /home/pcl2483/pedro/jadesoft/util/mcgen/Plib/libjt74opal.a(sigee.o)
 .rodata        0x081966cc        0x4 /home/pcl2483/pedro/jadesoft/util/mcgen/Plib/libjt74opal.a(sphera.o)
 .rodata        0x081966d0        0x4 /home/pcl2483/pedro/jadesoft/util/mcgen/Plib/libjt74opal.a(spherd.o)
 *fill*         0x081966d4        0x4 00
 .rodata        0x081966d8        0x8 /home/pcl2483/pedro/jadesoft/util/mcgen/Plib/libjt74opal.a(bostd3.o)
 .rodata        0x081966e0        0x4 /home/pcl2483/pedro/jadesoft/util/mcgen/Plib/libjt74opal.a(bostr3.o)
 .rodata        0x081966e4       0x14 /home/pcl2483/pedro/jadesoft/util/mcgen/Plib/libjt74opal.a(bwigs.o)
 .rodata        0x081966f8       0x3c /home/pcl2483/pedro/jadesoft/util/mcgen/Plib/libjt74opal.a(choice.o)
 .rodata        0x08196734       0x10 /home/pcl2483/pedro/jadesoft/util/mcgen/Plib/libjt74opal.a(dadmaa.o)
 .rodata        0x08196744        0x4 /home/pcl2483/pedro/jadesoft/util/mcgen/Plib/libjt74opal.a(dam4pi.o)
 .rodata        0x08196748        0xc /home/pcl2483/pedro/jadesoft/util/mcgen/Plib/libjt74opal.a(dampog.o)
 *fill*         0x08196754        0xc 00
 .rodata        0x08196760       0xa4 /home/pcl2483/pedro/jadesoft/util/mcgen/Plib/libjt74opal.a(damppk.o)
 *fill*         0x08196804        0x4 00
 .rodata        0x08196808        0x8 /home/pcl2483/pedro/jadesoft/util/mcgen/Plib/libjt74opal.a(dampry.o)
 .rodata        0x08196810       0x30 /home/pcl2483/pedro/jadesoft/util/mcgen/Plib/libjt74opal.a(dcdmas.o)
 .rodata        0x08196840       0x18 /home/pcl2483/pedro/jadesoft/util/mcgen/Plib/libjt74opal.a(form1.o)
 .rodata        0x08196858       0x18 /home/pcl2483/pedro/jadesoft/util/mcgen/Plib/libjt74opal.a(form2.o)
 .rodata        0x08196870        0x8 /home/pcl2483/pedro/jadesoft/util/mcgen/Plib/libjt74opal.a(form3.o)
 .rodata        0x08196878       0x24 /home/pcl2483/pedro/jadesoft/util/mcgen/Plib/libjt74opal.a(form4.o)
 .rodata        0x0819689c       0x14 /home/pcl2483/pedro/jadesoft/util/mcgen/Plib/libjt74opal.a(form5.o)
 .rodata        0x081968b0       0x38 /home/pcl2483/pedro/jadesoft/util/mcgen/Plib/libjt74opal.a(formom.o)
 .rodata        0x081968e8       0x1c /home/pcl2483/pedro/jadesoft/util/mcgen/Plib/libjt74opal.a(fpik.o)
 .rodata        0x08196904       0x1c /home/pcl2483/pedro/jadesoft/util/mcgen/Plib/libjt74opal.a(fpikm.o)
 .rodata        0x08196920       0x28 /home/pcl2483/pedro/jadesoft/util/mcgen/Plib/libjt74opal.a(fpikmd.o)
 .rodata        0x08196948       0x20 /home/pcl2483/pedro/jadesoft/util/mcgen/Plib/libjt74opal.a(gfun.o)
 .rodata        0x08196968       0x20 /home/pcl2483/pedro/jadesoft/util/mcgen/Plib/libjt74opal.a(prod5.o)
 .rodata        0x08196988       0x10 /home/pcl2483/pedro/jadesoft/util/mcgen/Plib/libjt74opal.a(sqm2.o)
 .rodata        0x08196998       0x54 /home/pcl2483/pedro/jadesoft/util/mcgen/Plib/libjt74opal.a(thb.o)
 .rodata        0x081969ec       0x10 /home/pcl2483/pedro/jadesoft/util/mcgen/Plib/libjt74opal.a(bwig.o)
 .rodata        0x081969fc        0x4 /home/pcl2483/pedro/jadesoft/util/mcgen/Plib/libjt74opal.a(bwigm.o)
 .rodata        0x08196a00       0x20 /home/pcl2483/pedro/jadesoft/util/mcgen/Plib/libjt74opal.a(claxi.o)
 .rodata        0x08196a20        0x4 /home/pcl2483/pedro/jadesoft/util/mcgen/Plib/libjt74opal.a(clvec.o)
 *fill*         0x08196a24        0x4 00
 .rodata        0x08196a28       0x40 /home/pcl2483/pedro/jadesoft/util/mcgen/Plib/libjt74opal.a(curr.o)
 .rodata        0x08196a68      0x120 /home/pcl2483/pedro/jadesoft/util/mcgen/Plib/libjt74opal.a(dilog.o)
 *fill*         0x08196b88       0x18 00
 .rodata        0x08196ba0      0x168 /home/pcl2483/pedro/jadesoft/util/mcgen/Plib/libckern105.a(ckern.o)
 *fill*         0x08196d08       0x18 00
 .rodata        0x08196d20       0x5c /home/pcl2483/pedro/jadesoft/util/mcgen/Plib/libckern105.a(cksord.o)
 *fill*         0x08196d7c        0x4 00
 .rodata        0x08196d80       0xb8 /home/pcl2483/pedro/jadesoft/util/mcgen/Plib/libckern105.a(cnjet.o)
 .rodata        0x08196e38       0x24 /home/pcl2483/pedro/jadesoft/util/mcgen/Plib/libpx114.a(pxang3.o)
 *fill*         0x08196e5c        0x4 00
 .rodata        0x08196e60       0x20 /home/pcl2483/pedro/jadesoft/util/mcgen/Plib/libpx114.a(pxanxy.o)
 .rodata        0x08196e80      0x178 /home/pcl2483/pedro/jadesoft/util/mcgen/Plib/libpx114.a(pxcone.o)
 *fill*         0x08196ff8        0x8 00
 .rodata        0x08197000       0x3c /home/pcl2483/pedro/jadesoft/util/mcgen/Plib/libpx114.a(pxjpdg.o)
 *fill*         0x0819703c        0x4 00
 .rodata        0x08197040       0x98 /home/pcl2483/pedro/jadesoft/util/mcgen/Plib/libpx114.a(pxjsp3.o)
 *fill*         0x081970d8        0x8 00
 .rodata        0x081970e0       0x88 /home/pcl2483/pedro/jadesoft/util/mcgen/Plib/libpx114.a(pxlsp3.o)
 *fill*         0x08197168       0x18 00
 .rodata        0x08197180       0xec /home/pcl2483/pedro/jadesoft/util/mcgen/Plib/libpx114.a(pxlth4.o)
 *fill*         0x0819726c       0x14 00
 .rodata        0x08197280       0x68 /home/pcl2483/pedro/jadesoft/util/mcgen/Plib/libpx114.a(pxlut3.o)
 .rodata        0x081972e8       0x2c /home/pcl2483/pedro/jadesoft/util/mcgen/Plib/libpx114.a(pxmmbb.o)
 .rodata        0x08197314        0x4 /home/pcl2483/pedro/jadesoft/util/mcgen/Plib/libpx114.a(pxolap.o)
 .rodata        0x08197318        0x1 /home/pcl2483/pedro/jadesoft/util/mcgen/Plib/libpx114.a(pxord.o)
 *fill*         0x08197319        0x3 00
 .rodata        0x0819731c       0x38 /home/pcl2483/pedro/jadesoft/util/mcgen/Plib/libpx114.a(pxprcv.o)
 .rodata        0x08197354       0x2c /home/pcl2483/pedro/jadesoft/util/mcgen/Plib/libpx114.a(pxprrv.o)
 .rodata        0x08197380       0x10 /home/pcl2483/pedro/jadesoft/util/mcgen/Plib/libpx114.a(pxrap4.o)
 *fill*         0x08197390       0x10 00
 .rodata        0x081973a0       0x34 /home/pcl2483/pedro/jadesoft/util/mcgen/Plib/libpx114.a(pxsear.o)
 *fill*         0x081973d4        0xc 00
 .rodata        0x081973e0       0x5c /home/pcl2483/pedro/jadesoft/util/mcgen/Plib/libpx114.a(pxsorv.o)
 *fill*         0x0819743c        0x4 00
 .rodata        0x08197440       0x34 /home/pcl2483/pedro/jadesoft/util/mcgen/Plib/libpx114.a(pxuvec.o)
 .rodata        0x08197474       0x40 /home/pcl2483/pedro/jadesoft/util/mcgen/Plib/libpx114.a(ykern.o)
 .rodata        0x081974b4        0x4 /home/pcl2483/pedro/jadesoft/util/mcgen/Plib/libpx114.a(ynjet.o)
 .rodata        0x081974b8        0x8 /home/pcl2483/pedro/jadesoft/util/mcgen/Plib/libpx114.a(yyjet.o)
 .rodata        0x081974c0      0x288 /home/pcl2483/pedro/jadesoft/util/mcgen/Plib/libpx114.a(pxdiam.o)
 *fill*         0x08197748       0x18 00
 .rodata        0x08197760      0x2d0 /cern/99/lib/libpacklib.a(ffgo.o)
 .rodata        0x08197a30       0x3c /cern/99/lib/libpacklib.a(ffinit.o)
 .rodata        0x08197a6c        0xc /cern/99/lib/libpacklib.a(ffkey.o)
 .rodata        0x08197a78       0x14 /cern/99/lib/libpacklib.a(ffset.o)
 .rodata        0x08197a8c        0x1 /cern/99/lib/libpacklib.a(ffskip.o)
 *fill*         0x08197a8d        0x3 00
 .rodata        0x08197a90       0x18 /cern/99/lib/libpacklib.a(hrput.o)
 *fill*         0x08197aa8       0x18 00
 .rodata        0x08197ac0       0xa4 /cern/99/lib/libpacklib.a(hbook1.o)
 *fill*         0x08197b64       0x1c 00
 .rodata        0x08197b80       0xb0 /cern/99/lib/libpacklib.a(hbook2.o)
 *fill*         0x08197c30       0x10 00
 .rodata        0x08197c40       0xb0 /cern/99/lib/libpacklib.a(hbookb.o)
 .rodata        0x08197cf0        0x1 /cern/99/lib/libpacklib.a(hbtit.o)
 *fill*         0x08197cf1        0x3 00
 .rodata        0x08197cf4       0x34 /cern/99/lib/libpacklib.a(hbug.o)
 *fill*         0x08197d28       0x18 00
 .rodata        0x08197d40       0xb8 /cern/99/lib/libpacklib.a(hcdir.o)
 .rodata        0x08197df8       0x10 /cern/99/lib/libpacklib.a(hchnam.o)
 .rodata        0x08197e08       0x24 /cern/99/lib/libpacklib.a(hdelet.o)
 .rodata        0x08197e2c       0x14 /cern/99/lib/libpacklib.a(hfill.o)
 .rodata        0x08197e40        0xc /cern/99/lib/libpacklib.a(hfilpf.o)
 .rodata        0x08197e4c        0xc /cern/99/lib/libpacklib.a(hgive.o)
 .rodata        0x08197e58      0x100 /cern/99/lib/libpacklib.a(hidopt.o)
 *fill*         0x08197f58        0x8 00
 .rodata        0x08197f60      0x138 /cern/99/lib/libpacklib.a(hlimit.o)
 .rodata        0x08198098       0x11 /cern/99/lib/libpacklib.a(hloop.o)
 *fill*         0x081980a9        0x3 00
 .rodata        0x081980ac       0x60 /cern/99/lib/libpacklib.a(hmachi.o)
 .rodata        0x0819810c        0xc /cern/99/lib/libpacklib.a(hnoent.o)
 *fill*         0x08198118        0x8 00
 .rodata        0x08198120       0x58 /cern/99/lib/libpacklib.a(hopera.o)
 .rodata        0x08198178       0x14 /cern/99/lib/libpacklib.a(hpaff.o)
 .rodata        0x0819818c       0x14 /cern/99/lib/libpacklib.a(hpak.o)
 .rodata        0x081981a0        0xc /cern/99/lib/libpacklib.a(hpake.o)
 .rodata        0x081981ac        0x8 /cern/99/lib/libpacklib.a(hpath.o)
 *fill*         0x081981b4        0x4 00
 .rodata        0x081981b8       0x10 /cern/99/lib/libpacklib.a(hrebin.o)
 *fill*         0x081981c8       0x18 00
 .rodata        0x081981e0       0x88 /cern/99/lib/libpacklib.a(hreset.o)
 .rodata        0x08198268        0x4 /cern/99/lib/libpacklib.a(hsifla.o)
 .rodata        0x0819826c       0x1c /cern/99/lib/libpacklib.a(hspace.o)
 .rodata        0x08198288        0x3 /cern/99/lib/libpacklib.a(hstaf.o)
 *fill*         0x0819828b        0x1 00
 .rodata        0x0819828c       0x64 /cern/99/lib/libpacklib.a(hsupis.o)
 .rodata        0x081982f0       0x1c /cern/99/lib/libpacklib.a(hlogpf.o)
 .rodata        0x0819830c       0x14 /cern/99/lib/libpacklib.a(hoptpf.o)
 .rodata        0x08198320        0xc /cern/99/lib/libpacklib.a(hitoc.o)
 .rodata        0x0819832c        0x2 /cern/99/lib/libpacklib.a(hnbufd.o)
 .rodata        0x0819832e        0x2 /cern/99/lib/libpacklib.a(hntmpd.o)
 *fill*         0x08198330       0x10 00
 .rodata        0x08198340       0x9c /cern/99/lib/libpacklib.a(hntrset.o)
 .rodata        0x081983dc       0x20 /cern/99/lib/libpacklib.a(fzin.o)
 .rodata        0x081983fc        0x8 /cern/99/lib/libpacklib.a(fzloc.o)
 .rodata        0x08198404        0x8 /cern/99/lib/libpacklib.a(mzbook.o)
 .rodata        0x0819840c       0x14 /cern/99/lib/libpacklib.a(mzdrop.o)
 .rodata        0x08198420       0x34 /cern/99/lib/libpacklib.a(mzebra.o)
 .rodata        0x08198454        0x8 /cern/99/lib/libpacklib.a(mzflag.o)
 *fill*         0x0819845c        0x4 00
 .rodata        0x08198460       0xc8 /cern/99/lib/libpacklib.a(mzinco.o)
 .rodata        0x08198528       0x10 /cern/99/lib/libpacklib.a(mzlift.o)
 .rodata        0x08198538       0x1c /cern/99/lib/libpacklib.a(mzlink.o)
 .rodata        0x08198554        0xc /cern/99/lib/libpacklib.a(mzneed.o)
 .rodata        0x08198560        0xc /cern/99/lib/libpacklib.a(mzpaw.o)
 .rodata        0x0819856c       0x18 /cern/99/lib/libpacklib.a(mzpush.o)
 .rodata        0x08198584       0x2c /cern/99/lib/libpacklib.a(mzstor.o)
 .rodata        0x081985b0        0x8 /cern/99/lib/libpacklib.a(mzvers.o)
 .rodata        0x081985b8        0x8 /cern/99/lib/libpacklib.a(mzgar1.o)
 .rodata        0x081985c0        0x4 /cern/99/lib/libpacklib.a(mzrelb.o)
 .rodata        0x081985c4        0x4 /cern/99/lib/libpacklib.a(mzrell.o)
 .rodata        0x081985c8        0x4 /cern/99/lib/libpacklib.a(mzchln.o)
 .rodata        0x081985cc        0x4 /cern/99/lib/libpacklib.a(mzchls.o)
 .rodata        0x081985d0        0x4 /cern/99/lib/libpacklib.a(mzfdiv.o)
 .rodata        0x081985d4       0x24 /cern/99/lib/libpacklib.a(mzform.o)
 .rodata        0x081985f8       0x10 /cern/99/lib/libpacklib.a(mzioch.o)
 .rodata        0x08198608        0xc /cern/99/lib/libpacklib.a(zfatal.o)
 .rodata        0x08198614        0x4 /cern/99/lib/libpacklib.a(zfatam.o)
 .rodata        0x08198618       0x18 /cern/99/lib/libpacklib.a(ztell.o)
 .rodata        0x08198630        0x8 /cern/99/lib/libpacklib.a(zshunt.o)
 .rodata        0x08198638       0x14 /cern/99/lib/libpacklib.a(rzcdir.o)
 .rodata        0x0819864c        0x8 /cern/99/lib/libpacklib.a(rzdate.o)
 *fill*         0x08198654        0xc 00
 .rodata        0x08198660      0x144 /cern/99/lib/libpacklib.a(rzfdir.o)
 .rodata        0x081987a4        0x8 /cern/99/lib/libpacklib.a(rziodo.o)
 .rodata        0x081987ac       0x14 /cern/99/lib/libpacklib.a(rzpaff.o)
 .rodata        0x081987c0        0x4 /cern/99/lib/libpacklib.a(rzpath.o)
 .rodata        0x081987c4       0x10 /cern/99/lib/libpacklib.a(rzrtop.o)
 .rodata        0x081987d4        0x4 /cern/99/lib/libpacklib.a(rzsave.o)
 .rodata        0x081987d8       0x1c /cern/99/lib/libpacklib.a(rzstrir.o)
 .rodata        0x081987f4       0x10 /cern/99/lib/libpacklib.a(cfget.o)
 .rodata        0x08198804       0x10 /cern/99/lib/libpacklib.a(cfput.o)
 .rodata        0x08198814       0x11 /cern/99/lib/libpacklib.a(cfseek.o)
 *fill*         0x08198825        0x3 00
 .rodata        0x08198828        0xc /cern/99/lib/libpacklib.a(cfopen.o)
 .rodata        0x08198834        0x1 /cern/99/lib/libpacklib.a(cleft.o)
 *fill*         0x08198835        0xb 00
 .rodata        0x08198840       0x30 /cern/99/lib/libpacklib.a(kerngt.o)
 .rodata        0x08198870       0x10 /cern/99/lib/libpacklib.a(ublow.o)
 .rodata        0x08198880        0x4 /cern/99/lib/libpacklib.a(ubunch.o)
 .rodata        0x08198884        0x4 /cern/99/lib/libpacklib.a(uctoh.o)
 .rodata        0x08198888        0x4 /cern/99/lib/libpacklib.a(uctoh1.o)
 .rodata        0x0819888c        0x4 /cern/99/lib/libpacklib.a(sbyt.o)
 .rodata        0x08198890        0x8 /cern/99/lib/libpacklib.a(czgeta.o)
 .rodata        0x08198898        0x8 /cern/99/lib/libpacklib.a(czputa.o)
 .rodata        0x081988a0       0xcc /cern/99/lib/libpacklib.a(ffcard.o)
 .rodata        0x0819896c        0x4 /cern/99/lib/libpacklib.a(fffind.o)
 *fill*         0x08198970       0x10 00
 .rodata        0x08198980       0x4c /cern/99/lib/libpacklib.a(hqputf.o)
 .rodata        0x081989cc       0x1b /cern/99/lib/libpacklib.a(hbpqry.o)
 .rodata        0x081989e7        0x7 /cern/99/lib/libpacklib.a(hrendc.o)
 *fill*         0x081989ee        0x2 00
 .rodata        0x081989f0       0x34 /cern/99/lib/libpacklib.a(hropen.o)
 *fill*         0x08198a24       0x1c 00
 .rodata        0x08198a40      0x108 /cern/99/lib/libpacklib.a(hrout.o)
 *fill*         0x08198b48       0x18 00
 .rodata        0x08198b60       0x5c /cern/99/lib/libpacklib.a(hrzout.o)
 .rodata        0x08198bbc       0x1c /cern/99/lib/libpacklib.a(hbar2.o)
 .rodata        0x08198bd8       0x2c /cern/99/lib/libpacklib.a(hbarx.o)
 .rodata        0x08198c04       0x28 /cern/99/lib/libpacklib.a(hbary.o)
 .rodata        0x08198c2c       0x20 /cern/99/lib/libpacklib.a(hbin.o)
 *fill*         0x08198c4c       0x14 00
 .rodata        0x08198c60       0x64 /cern/99/lib/libpacklib.a(hcopy.o)
 *fill*         0x08198cc4        0x4 00
 .rodata        0x08198cc8       0x30 /cern/99/lib/libpacklib.a(hcx.o)
 .rodata        0x08198cf8        0x4 /cern/99/lib/libpacklib.a(hdcofl.o)
 .rodata        0x08198cfc       0x14 /cern/99/lib/libpacklib.a(hf1.o)
 .rodata        0x08198d10       0x20 /cern/99/lib/libpacklib.a(hf1aut.o)
 .rodata        0x08198d30        0x4 /cern/99/lib/libpacklib.a(hf2.o)
 .rodata        0x08198d34       0x18 /cern/99/lib/libpacklib.a(hfcx.o)
 .rodata        0x08198d4c        0xc /cern/99/lib/libpacklib.a(hfcxy.o)
 .rodata        0x08198d58       0x18 /cern/99/lib/libpacklib.a(hfind.o)
 .rodata        0x08198d70        0xc /cern/99/lib/libpacklib.a(hi.o)
 .rodata        0x08198d7c       0x14 /cern/99/lib/libpacklib.a(hie.o)
 .rodata        0x08198d90        0x6 /cern/99/lib/libpacklib.a(hix.o)
 *fill*         0x08198d96        0xa 00
 .rodata        0x08198da0       0x73 /cern/99/lib/libpacklib.a(hlabeq.o)
 *fill*         0x08198e13        0xd 00
 .rodata        0x08198e20       0x98 /cern/99/lib/libpacklib.a(hmdir.o)
 .rodata        0x08198eb8       0x18 /cern/99/lib/libpacklib.a(hoper1.o)
 .rodata        0x08198ed0        0x1 /cern/99/lib/libpacklib.a(hoper1a.o)
 *fill*         0x08198ed1        0xf 00
 .rodata        0x08198ee0       0xb0 /cern/99/lib/libpacklib.a(hnbfwr.o)
 *fill*         0x08198f90       0x10 00
 .rodata        0x08198fa0       0x5c /cern/99/lib/libpacklib.a(hnbuff.o)
 .rodata        0x08198ffc       0x15 /cern/99/lib/libpacklib.a(hnmset.o)
 *fill*         0x08199011        0xf 00
 .rodata        0x08199020       0x84 /cern/99/lib/libpacklib.a(hntdel.o)
 .rodata        0x081990a4       0x3c /cern/99/lib/libpacklib.a(hntmpf.o)
 .rodata        0x081990e0       0xec /cern/99/lib/libpacklib.a(fzidia.o)
 .rodata        0x081991cc       0x18 /cern/99/lib/libpacklib.a(fziffn.o)
 .rodata        0x081991e4       0x18 /cern/99/lib/libpacklib.a(fziffx.o)
 .rodata        0x081991fc        0x4 /cern/99/lib/libpacklib.a(fzilin.o)
 .rodata        0x08199200       0x1c /cern/99/lib/libpacklib.a(fzimtb.o)
 .rodata        0x0819921c        0xc /cern/99/lib/libpacklib.a(fzirec.o)
 *fill*         0x08199228       0x18 00
 .rodata        0x08199240       0xd0 /cern/99/lib/libpacklib.a(fzout.o)
 .rodata        0x08199310        0x8 /cern/99/lib/libpacklib.a(fzitrx.o)
 .rodata        0x08199318       0x2c /cern/99/lib/libpacklib.a(mzcopy.o)
 .rodata        0x08199344        0x4 /cern/99/lib/libpacklib.a(mzpudx.o)
 .rodata        0x08199348        0x4 /cern/99/lib/libpacklib.a(mzfgap.o)
 .rodata        0x0819934c        0x4 /cern/99/lib/libpacklib.a(mzgarb.o)
 .rodata        0x08199350        0x4 /cern/99/lib/libpacklib.a(mztabc.o)
 .rodata        0x08199354        0x8 /cern/99/lib/libpacklib.a(mzdvac.o)
 .rodata        0x0819935c       0x1c /cern/99/lib/libpacklib.a(mziocr.o)
 .rodata        0x08199378        0x4 /cern/99/lib/libpacklib.a(mzixco.o)
 .rodata        0x0819937c        0x5 /cern/99/lib/libpacklib.a(zabend.o)
 *fill*         0x08199381        0x3 00
 .rodata        0x08199384        0x4 /cern/99/lib/libpacklib.a(zend.o)
 .rodata        0x08199388       0x18 /cern/99/lib/libpacklib.a(zphase.o)
 .rodata        0x081993a0       0x20 /cern/99/lib/libpacklib.a(zpostm.o)
 .rodata        0x081993c0       0x3c /cern/99/lib/libpacklib.a(rzclos.o)
 .rodata        0x081993fc       0x10 /cern/99/lib/libpacklib.a(rzend.o)
 .rodata        0x0819940c       0x1c /cern/99/lib/libpacklib.a(rzfree.o)
 .rodata        0x08199428       0x3c /cern/99/lib/libpacklib.a(rzmdir.o)
 .rodata        0x08199464       0x10 /cern/99/lib/libpacklib.a(rzmods.o)
 *fill*         0x08199474        0xc 00
 .rodata        0x08199480       0xc8 /cern/99/lib/libpacklib.a(rzopen.o)
 .rodata        0x08199548       0x40 /cern/99/lib/libpacklib.a(rzout.o)
 .rodata        0x08199588       0x1c /cern/99/lib/libpacklib.a(rzstrip.o)
 .rodata        0x081995a4        0xc /cern/99/lib/libpacklib.a(rzused.o)
 .rodata        0x081995b0      0x188 /cern/99/lib/libpacklib.a(close.o)
 .rodata        0x08199738      0x165 /cern/99/lib/libpacklib.a(error.o)
 .rodata        0x0819989d      0x2ac /cern/99/lib/libpacklib.a(lseek.o)
 .rodata        0x08199b49      0x452 /cern/99/lib/libpacklib.a(open.o)
 .rodata        0x08199f9b       0x5d /cern/99/lib/libpacklib.a(parse.o)
 .rodata        0x08199ff8      0x3ac /cern/99/lib/libpacklib.a(read.o)
 .rodata        0x0819a3a4      0x31e /cern/99/lib/libpacklib.a(serror.o)
 .rodata        0x0819a6c2       0x17 /cern/99/lib/libpacklib.a(socket.o)
 .rodata        0x0819a6d9     0x122f /cern/99/lib/libpacklib.a(stream.o)
 .rodata        0x0819b908       0x29 /cern/99/lib/libpacklib.a(trace.o)
 .rodata        0x0819b931      0x215 /cern/99/lib/libpacklib.a(write.o)
 .rodata        0x0819bb46       0x11 /cern/99/lib/libpacklib.a(cfopei.o)
 *fill*         0x0819bb57        0x9 00
 .rodata        0x0819bb60       0x3c /cern/99/lib/libpacklib.a(gshowf.o)
 .rodata        0x0819bb9c        0x4 /cern/99/lib/libpacklib.a(xinbs.o)
 .rodata        0x0819bba0      0x1f0 /cern/99/lib/libpacklib.a(halloc.o)
 .rodata        0x0819bd90       0x68 /cern/99/lib/libpacklib.a(hrfile.o)
 .rodata        0x0819bdf8       0x80 /cern/99/lib/libpacklib.a(hfc1.o)
 .rodata        0x0819be78        0x4 /cern/99/lib/libpacklib.a(hlccmp.o)
 .rodata        0x0819be7c       0x24 /cern/99/lib/libpacklib.a(hlgnxt.o)
 .rodata        0x0819bea0        0x4 /cern/99/lib/libpacklib.a(hlhcmp.o)
 .rodata        0x0819bea4       0x48 /cern/99/lib/libpacklib.a(hlpos.o)
 *fill*         0x0819beec       0x14 00
 .rodata        0x0819bf00      0x39c /cern/99/lib/libpacklib.a(dzsnap.o)
 .rodata        0x0819c29c       0x28 /cern/99/lib/libpacklib.a(dztext.o)
 *fill*         0x0819c2c4       0x1c 00
 .rodata        0x0819c2e0       0x34 /cern/99/lib/libpacklib.a(zpage.o)
 .rodata        0x0819c314        0x8 /cern/99/lib/libpacklib.a(fzipha.o)
 .rodata        0x0819c31c        0xc /cern/99/lib/libpacklib.a(fziphd.o)
 .rodata        0x0819c328        0x8 /cern/99/lib/libpacklib.a(fziphm.o)
 .rodata        0x0819c330        0x8 /cern/99/lib/libpacklib.a(fziphr.o)
 .rodata        0x0819c338        0x4 /cern/99/lib/libpacklib.a(fziprl.o)
 .rodata        0x0819c33c       0x44 /cern/99/lib/libpacklib.a(fzoffn.o)
 .rodata        0x0819c380        0x4 /cern/99/lib/libpacklib.a(fzoffx.o)
 .rodata        0x0819c384        0x4 /cern/99/lib/libpacklib.a(fzon1.o)
 .rodata        0x0819c388        0x4 /cern/99/lib/libpacklib.a(fzon2.o)
 .rodata        0x0819c38c        0x4 /cern/99/lib/libpacklib.a(fzon3.o)
 .rodata        0x0819c390        0x4 /cern/99/lib/libpacklib.a(fzon4.o)
 .rodata        0x0819c394        0x4 /cern/99/lib/libpacklib.a(fzon5.o)
 .rodata        0x0819c398        0x4 /cern/99/lib/libpacklib.a(fzon6.o)
 .rodata        0x0819c39c       0x20 /cern/99/lib/libpacklib.a(fzotab.o)
 .rodata        0x0819c3bc       0x1c /cern/99/lib/libpacklib.a(fzicv.o)
 .rodata        0x0819c3d8        0x8 /cern/99/lib/libpacklib.a(fzotrx.o)
 .rodata        0x0819c3e0        0x8 /cern/99/lib/libpacklib.a(mzend.o)
 .rodata        0x0819c3e8        0x4 /cern/99/lib/libpacklib.a(mzmaps.o)
 .rodata        0x0819c3ec        0x8 /cern/99/lib/libpacklib.a(mzmark.o)
 .rodata        0x0819c3f4        0x8 /cern/99/lib/libpacklib.a(mzwork.o)
 .rodata        0x0819c3fc        0x4 /cern/99/lib/libpacklib.a(rzallo.o)
 .rodata        0x0819c400       0x1c /cern/99/lib/libpacklib.a(rzdelk.o)
 .rodata        0x0819c41c       0x10 /cern/99/lib/libpacklib.a(rzexpd.o)
 .rodata        0x0819c42c       0x70 /cern/99/lib/libpacklib.a(rzfile.o)
 .rodata        0x0819c49c       0x24 /cern/99/lib/libpacklib.a(rzllok.o)
 .rodata        0x0819c4c0       0x24 /cern/99/lib/libpacklib.a(rzlock.o)
 .rodata        0x0819c4e4       0x5c /cern/99/lib/libpacklib.a(rzmake.o)
 .rodata        0x0819c540       0x18 /cern/99/lib/libpacklib.a(rzobkn.o)
 .rodata        0x0819c558       0x1c /cern/99/lib/libpacklib.a(rzpurf.o)
 *fill*         0x0819c574        0xc 00
 .rodata        0x0819c580       0xa0 /cern/99/lib/libpacklib.a(rzveri.o)
 .rodata        0x0819c620       0x10 /cern/99/lib/libpacklib.a(rzwrt.o)
 .rodata        0x0819c630      0x4ab /cern/99/lib/libpacklib.a(connect.o)
 .rodata        0x0819cadb        0xb /cern/99/lib/libpacklib.a(getacct.o)
 .rodata        0x0819cae6       0x11 /cern/99/lib/libpacklib.a(getacctent.o)
 .rodata        0x0819caf7       0x29 /cern/99/lib/libpacklib.a(getconfent.o)
 .rodata        0x0819cb20       0xd0 /cern/99/lib/libpacklib.a(getifnam.o)
 .rodata        0x0819cbf0       0x2d /cern/99/lib/libpacklib.a(log.o)
 .rodata        0x0819cc1d      0x2d6 /cern/99/lib/libpacklib.a(remote.o)
 *fill*         0x0819cef3        0xd 00
 .rodata        0x0819cf00      0x288 /cern/99/lib/libpacklib.a(dzare1.o)
 .rodata        0x0819d188       0xa0 /cern/99/lib/libpacklib.a(dzbkup.o)
 .rodata        0x0819d228       0x34 /cern/99/lib/libpacklib.a(dzbkxr.o)
 *fill*         0x0819d25c        0x4 00
 .rodata        0x0819d260       0xfc /cern/99/lib/libpacklib.a(dzdata.o)
 *fill*         0x0819d35c        0x4 00
 .rodata        0x0819d360      0x130 /cern/99/lib/libpacklib.a(dzmap.o)
 *fill*         0x0819d490       0x10 00
 .rodata        0x0819d4a0       0x34 /cern/99/lib/libpacklib.a(dzopt.o)
 *fill*         0x0819d4d4        0xc 00
 .rodata        0x0819d4e0      0x148 /cern/99/lib/libpacklib.a(dzshpr.o)
 .rodata        0x0819d628       0x10 /cern/99/lib/libpacklib.a(dztyp.o)
 .rodata        0x0819d638       0x30 /cern/99/lib/libpacklib.a(fziasc.o)
 .rodata        0x0819d668        0xc /cern/99/lib/libpacklib.a(fzichh.o)
 .rodata        0x0819d674        0x4 /cern/99/lib/libpacklib.a(fzidum.o)
 .rodata        0x0819d678        0xc /cern/99/lib/libpacklib.a(fzophr.o)
 .rodata        0x0819d684       0x1c /cern/99/lib/libpacklib.a(fzocv.o)
 .rodata        0x0819d6a0       0x18 /cern/99/lib/libpacklib.a(rzdlok.o)
 *fill*         0x0819d6b8        0x8 00
 .rodata        0x0819d6c0       0xb0 /cern/99/lib/libpacklib.a(rzver1.o)
 .rodata        0x0819d770        0x8 /cern/99/lib/libpacklib.a(rzver2.o)
 .rodata        0x0819d778       0x47 /cern/99/lib/libpacklib.a(stat.o)
 *fill*         0x0819d7bf        0x1 00
 .rodata        0x0819d7c0       0x18 /cern/99/lib/libpacklib.a(dzbkdv.o)
 *fill*         0x0819d7d8        0x8 00
 .rodata        0x0819d7e0       0xb4 /cern/99/lib/libpacklib.a(dzbkhd.o)
 .rodata        0x0819d894       0x2c /cern/99/lib/libpacklib.a(dziopr.o)
 .rodata        0x0819d8c0        0x8 /cern/99/lib/libpacklib.a(fzialn.o)
 *fill*         0x0819d8c8       0x18 00
 .rodata        0x0819d8e0       0x6c /cern/99/lib/libpacklib.a(rzprnk.o)
 .rodata        0x0819d94c      0x15a /cern/99/lib/libpacklib.a(mstat.o)
 *fill*         0x0819daa6       0x1a 00
 .rodata        0x0819dac0      0x1f0 /cern/99/lib/libpacklib.a(dziopd.o)
 *fill*         0x0819dcb0       0x10 00
 .rodata        0x0819dcc0      0x130 /cern/99/lib/libpacklib.a(dzioph.o)
 .rodata        0x0819ddf0        0xc /cern/99/lib/libpacklib.a(fzoaln.o)
 *fill*         0x0819ddfc        0x4 00
 .rodata        0x0819de00       0x30 /cern/99/lib/libmathlib.a(dsyev.o)
 .rodata        0x0819de30       0x38 /cern/99/lib/libmathlib.a(dsytrd.o)
 .rodata        0x0819de68       0x6c /cern/99/lib/libmathlib.a(ilaenv.o)
 .rodata        0x0819ded4        0x4 /cern/99/lib/libmathlib.a(xerbla.o)
 .rodata        0x0819ded8        0xb /cern/99/lib/libmathlib.a(dsyr2k.o)
 *fill*         0x0819dee3        0x5 00
 .rodata        0x0819dee8       0x50 /cern/99/lib/libmathlib.a(dlamch.o)
 .rodata        0x0819df38        0xc /cern/99/lib/libmathlib.a(dlansy.o)
 .rodata        0x0819df44        0xe /cern/99/lib/libmathlib.a(dlascl.o)
 *fill*         0x0819df52        0x6 00
 .rodata        0x0819df58       0x48 /cern/99/lib/libmathlib.a(dlatrd.o)
 .rodata        0x0819dfa0        0x8 /cern/99/lib/libmathlib.a(dorgtr.o)
 .rodata        0x0819dfa8       0x3c /cern/99/lib/libmathlib.a(dsteqr.o)
 *fill*         0x0819dfe4        0x4 00
 .rodata        0x0819dfe8       0x30 /cern/99/lib/libmathlib.a(dsterf.o)
 .rodata        0x0819e018       0x28 /cern/99/lib/libmathlib.a(dsytd2.o)
 .rodata        0x0819e040        0x9 /cern/99/lib/libmathlib.a(dgemv.o)
 .rodata        0x0819e049        0x8 /cern/99/lib/libmathlib.a(dsymv.o)
 .rodata        0x0819e051        0x8 /cern/99/lib/libmathlib.a(dsyr2.o)
 *fill*         0x0819e059        0x7 00
 .rodata        0x0819e060       0x10 /cern/99/lib/libmathlib.a(dlae2.o)
 .rodata        0x0819e070       0x10 /cern/99/lib/libmathlib.a(dlaev2.o)
 .rodata        0x0819e080        0xc /cern/99/lib/libmathlib.a(dlanst.o)
 .rodata        0x0819e08c        0x2 /cern/99/lib/libmathlib.a(dlarfg.o)
 *fill*         0x0819e08e        0x2 00
 .rodata        0x0819e090       0x10 /cern/99/lib/libmathlib.a(dlartg.o)
 .rodata        0x0819e0a0        0x2 /cern/99/lib/libmathlib.a(dlaset.o)
 .rodata        0x0819e0a2        0xc /cern/99/lib/libmathlib.a(dlasr.o)
 .rodata        0x0819e0ae        0x8 /cern/99/lib/libmathlib.a(dlasrt.o)
 *fill*         0x0819e0b6        0x2 00
 .rodata        0x0819e0b8       0x3c /cern/99/lib/libmathlib.a(dorgql.o)
 .rodata        0x0819e0f4       0x38 /cern/99/lib/libmathlib.a(dorgqr.o)
 *fill*         0x0819e12c        0x4 00
 .rodata        0x0819e130       0x50 /cern/99/lib/libmathlib.a(dlarfb.o)
 .rodata        0x0819e180       0x38 /cern/99/lib/libmathlib.a(dlarft.o)
 .rodata        0x0819e1b8       0x18 /cern/99/lib/libmathlib.a(dorg2l.o)
 .rodata        0x0819e1d0       0x18 /cern/99/lib/libmathlib.a(dorg2r.o)
 .rodata        0x0819e1e8        0x9 /cern/99/lib/libmathlib.a(dgemm.o)
 .rodata        0x0819e1f1        0xc /cern/99/lib/libmathlib.a(dtrmm.o)
 .rodata        0x0819e1fd        0xb /cern/99/lib/libmathlib.a(dtrmv.o)
 .rodata        0x0819e208       0x30 /cern/99/lib/libmathlib.a(dlarf.o)
 .rodata        0x0819e238        0x6 /cern/99/lib/libmathlib.a(dger.o)
 .rodata        0x0819e23e        0xe /usr/lib/gcc-lib/i686-pc-linux-gnu/2.95.3/libg2c.a(close.o)
 .rodata        0x0819e24c       0x2f /usr/lib/gcc-lib/i686-pc-linux-gnu/2.95.3/libg2c.a(due.o)
 .rodata        0x0819e27b       0x1f /usr/lib/gcc-lib/i686-pc-linux-gnu/2.95.3/libg2c.a(endfile.o)
 *fill*         0x0819e29a        0x6 00
 .rodata        0x0819e2a0      0x440 /usr/lib/gcc-lib/i686-pc-linux-gnu/2.95.3/libg2c.a(err.o)
 .rodata        0x0819e6e0      0x500 /usr/lib/gcc-lib/i686-pc-linux-gnu/2.95.3/libg2c.a(fmt.o)
 .rodata        0x0819ebe0       0x2e /usr/lib/gcc-lib/i686-pc-linux-gnu/2.95.3/libg2c.a(iio.o)
 .rodata        0x0819ec0e       0x4f /usr/lib/gcc-lib/i686-pc-linux-gnu/2.95.3/libg2c.a(inquire.o)
 *fill*         0x0819ec5d        0x3 00
 .rodata        0x0819ec60      0x39c /usr/lib/gcc-lib/i686-pc-linux-gnu/2.95.3/libg2c.a(lread.o)
 .rodata        0x0819effc       0xd0 /usr/lib/gcc-lib/i686-pc-linux-gnu/2.95.3/libg2c.a(open.o)
 .rodata        0x0819f0cc      0x1ec /usr/lib/gcc-lib/i686-pc-linux-gnu/2.95.3/libg2c.a(rdfmt.o)
 .rodata        0x0819f2b8       0x15 /usr/lib/gcc-lib/i686-pc-linux-gnu/2.95.3/libg2c.a(rewind.o)
 .rodata        0x0819f2cd       0x13 /usr/lib/gcc-lib/i686-pc-linux-gnu/2.95.3/libg2c.a(rsfe.o)
 .rodata        0x0819f2e0        0xc /usr/lib/gcc-lib/i686-pc-linux-gnu/2.95.3/libg2c.a(sfe.o)
 .rodata        0x0819f2ec       0x29 /usr/lib/gcc-lib/i686-pc-linux-gnu/2.95.3/libg2c.a(sue.o)
 .rodata        0x0819f315        0xc /usr/lib/gcc-lib/i686-pc-linux-gnu/2.95.3/libg2c.a(uio.o)
 *fill*         0x0819f321        0x7 00
 .rodata        0x0819f328      0x100 /usr/lib/gcc-lib/i686-pc-linux-gnu/2.95.3/libg2c.a(wrtfmt.o)
 .rodata        0x0819f428       0x14 /usr/lib/gcc-lib/i686-pc-linux-gnu/2.95.3/libg2c.a(wsfe.o)
 .rodata        0x0819f43c       0x12 /usr/lib/gcc-lib/i686-pc-linux-gnu/2.95.3/libg2c.a(wsle.o)
 .rodata        0x0819f44e       0x1b /usr/lib/gcc-lib/i686-pc-linux-gnu/2.95.3/libg2c.a(s_stop.o)
 .rodata        0x0819f469        0x4 /usr/lib/gcc-lib/i686-pc-linux-gnu/2.95.3/libg2c.a(sig_die.o)
 .rodata        0x0819f46d       0x44 /usr/lib/gcc-lib/i686-pc-linux-gnu/2.95.3/libg2c.a(setsig.o)
 *fill*         0x0819f4b1        0x7 00
 .rodata        0x0819f4b8        0x8 /usr/lib/gcc-lib/i686-pc-linux-gnu/2.95.3/libg2c.a(z_sqrt.o)
 .rodata        0x0819f4c0        0x8 /usr/lib/gcc-lib/i686-pc-linux-gnu/2.95.3/libg2c.a(r_lg10.o)
 .rodata        0x0819f4c8        0x6 /usr/lib/gcc-lib/i686-pc-linux-gnu/2.95.3/libg2c.a(s_cat.o)
 *fill*         0x0819f4ce        0x2 00
 .rodata        0x0819f4d0       0x50 /usr/lib/gcc-lib/i686-pc-linux-gnu/2.95.3/libg2c.a(lwrite.o)
 .rodata        0x0819f520       0x28 /usr/lib/gcc-lib/i686-pc-linux-gnu/2.95.3/libg2c.a(wref.o)
 .rodata        0x0819f548       0x1a /usr/lib/gcc-lib/i686-pc-linux-gnu/2.95.3/libg2c.a(F77_aloc.o)

.rodata1
 *(.rodata1)

.eh_frame_hdr
 *(.eh_frame_hdr)
                0x081a0562                . = (0x1000 DATA_SEGMENT_ALIGN 0x1000)
                0x081a0564                . = ALIGN (0x4)
                0x081a0564                PROVIDE (__preinit_array_start, .)

.preinit_array
 *(.preinit_array)
                0x081a0564                PROVIDE (__preinit_array_end, .)
                0x081a0564                PROVIDE (__init_array_start, .)

.init_array
 *(.init_array)
                0x081a0564                PROVIDE (__init_array_end, .)
                0x081a0564                PROVIDE (__fini_array_start, .)

.fini_array
 *(.fini_array)
                0x081a0564                PROVIDE (__fini_array_end, .)

.data           0x081a0580   0x2a2440
 *(.data .data.* .gnu.linkonce.d.*)
 .data          0x081a0580        0x4 /usr/lib/crt1.o
                0x081a0580                data_start
                0x081a0580                __data_start
 .data          0x081a0584        0x8 /usr/lib/gcc-lib/i686-pc-linux-gnu/2.95.3/crtbegin.o
 *fill*         0x081a058c       0x14 00
 .data          0x081a05a0    0x20334 mchw59_105j.o
                0x081a0b00                npower_
                0x081a0600                mcevsh_
 .data          0x081c08d4        0x4 /home/pcl2483/pedro/jadesoft/util/mcgen/Plib/libmc105j.a(mcgetf.o)
 .data          0x081c08d8       0x2c /home/pcl2483/pedro/jadesoft/util/mcgen/Plib/libmc105j.a(mcgeth.o)
 .data          0x081c0904       0x10 /home/pcl2483/pedro/jadesoft/util/mcgen/Plib/libmc105j.a(mcgetp.o)
 *fill*         0x081c0914        0xc 00
 .data          0x081c0920       0x80 /home/pcl2483/pedro/jadesoft/util/mcgen/Plib/libmc105j.a(mcinit.o)
 .data          0x081c09a0      0x318 /home/pcl2483/pedro/jadesoft/util/mcgen/Plib/libmc105j.a(mcstbl.o)
 *fill*         0x081c0cb8        0x8 00
 .data          0x081c0cc0    0x272e4 /home/pcl2483/pedro/jadesoft/util/mcgen/Plib/libmc105j.a(mcwrit.o)
 *fill*         0x081e7fa4       0x1c 00
 .data          0x081e7fc0    0x4e624 /home/pcl2483/pedro/jadesoft/util/mcgen/Plib/libmc105j.a(pxeecb.o)
 *fill*         0x082365e4       0x1c 00
 .data          0x08236600      0x144 /home/pcl2483/pedro/jadesoft/util/mcgen/Plib/libmc105j.a(evwrtj.o)
 .data          0x08236744        0x8 /home/pcl2483/pedro/jadesoft/util/mcgen/Plib/libmc105j.a(jadeco.o)
 .data          0x0823674c       0xb4 /home/pcl2483/pedro/jadesoft/util/mcgen/Plib/libmc105j.a(jtconv.o)
 .data          0x08236800      0x3aa /home/pcl2483/pedro/jadesoft/util/mcgen/Plib/libmc105j.a(mcrnst.o)
 *fill*         0x08236baa        0x2 00
 .data          0x08236bac       0xd0 /home/pcl2483/pedro/jadesoft/util/mcgen/Plib/libmc105j.a(prcprd.o)
 .data          0x08236c7c       0x44 /home/pcl2483/pedro/jadesoft/util/mcgen/Plib/libmc105j.a(wrcprd.o)
 .data          0x08236cc0       0x34 /home/pcl2483/pedro/jadesoft/util/mcgen/Plib/libherwig59.a(fxhlms.o)
 .data          0x08236cf4      0x140 /home/pcl2483/pedro/jadesoft/util/mcgen/Plib/libherwig59.a(h59driv.o)
 *fill*         0x08236e34        0xc 00
 .data          0x08236e40      0x6a0 /home/pcl2483/pedro/jadesoft/util/mcgen/Plib/libherwig59.a(hwbgen.o)
 .data          0x082374e0     0x16f0 /home/pcl2483/pedro/jadesoft/util/mcgen/Plib/libherwig59.a(hwbjco.o)
 .data          0x08238bd0       0x38 /home/pcl2483/pedro/jadesoft/util/mcgen/Plib/libherwig59.a(hwbmas.o)
 *fill*         0x08238c08       0x18 00
 .data          0x08238c20      0x270 /home/pcl2483/pedro/jadesoft/util/mcgen/Plib/libherwig59.a(hwbran.o)
 *fill*         0x08238e90       0x10 00
 .data          0x08238ea0      0x10c /home/pcl2483/pedro/jadesoft/util/mcgen/Plib/libherwig59.a(hwbspa.o)
 *fill*         0x08238fac        0x4 00
 .data          0x08238fb0       0x64 /home/pcl2483/pedro/jadesoft/util/mcgen/Plib/libherwig59.a(hwbspn.o)
 *fill*         0x08239014        0xc 00
 .data          0x08239020      0x11c /home/pcl2483/pedro/jadesoft/util/mcgen/Plib/libherwig59.a(hwbtim.o)
 .data          0x0823913c       0x24 /home/pcl2483/pedro/jadesoft/util/mcgen/Plib/libherwig59.a(hwcdec.o)
 .data          0x08239160       0x50 /home/pcl2483/pedro/jadesoft/util/mcgen/Plib/libherwig59.a(hwcfla.o)
 *fill*         0x082391b0       0x10 00
 .data          0x082391c0     0x1004 /home/pcl2483/pedro/jadesoft/util/mcgen/Plib/libherwig59.a(hwcfor.o)
 *fill*         0x0823a1c4        0x4 00
 .data          0x0823a1c8       0x28 /home/pcl2483/pedro/jadesoft/util/mcgen/Plib/libherwig59.a(hwcgsp.o)
 *fill*         0x0823a1f0       0x10 00
 .data          0x0823a200      0x134 /home/pcl2483/pedro/jadesoft/util/mcgen/Plib/libherwig59.a(hwchad.o)
 .data          0x0823a334       0x8c /home/pcl2483/pedro/jadesoft/util/mcgen/Plib/libherwig59.a(hwconv.o)
 .data          0x0823a3c0       0x94 /home/pcl2483/pedro/jadesoft/util/mcgen/Plib/libherwig59.a(hwdhqk.o)
 *fill*         0x0823a454        0xc 00
 .data          0x0823a460       0xa8 /home/pcl2483/pedro/jadesoft/util/mcgen/Plib/libherwig59.a(hwdthr.o)
 *fill*         0x0823a508       0x18 00
 .data          0x0823a520       0xa8 /home/pcl2483/pedro/jadesoft/util/mcgen/Plib/libherwig59.a(hwdtwo.o)
 *fill*         0x0823a5c8       0x18 00
 .data          0x0823a5e0      0x21f /home/pcl2483/pedro/jadesoft/util/mcgen/Plib/libherwig59.a(hwefin.o)
 *fill*         0x0823a7ff        0x1 00
 .data          0x0823a800      0x1aa /home/pcl2483/pedro/jadesoft/util/mcgen/Plib/libherwig59.a(hweini.o)
 *fill*         0x0823a9aa       0x16 00
 .data          0x0823a9c0       0xc6 /home/pcl2483/pedro/jadesoft/util/mcgen/Plib/libherwig59.a(hwepro.o)
 *fill*         0x0823aa86       0x1a 00
 .data          0x0823aaa0       0xfc /home/pcl2483/pedro/jadesoft/util/mcgen/Plib/libherwig59.a(hwhbgf.o)
 *fill*         0x0823ab9c        0x4 00
 .data          0x0823aba0      0x224 /home/pcl2483/pedro/jadesoft/util/mcgen/Plib/libherwig59.a(hwhbki.o)
 *fill*         0x0823adc4       0x1c 00
 .data          0x0823ade0      0x6b8 /home/pcl2483/pedro/jadesoft/util/mcgen/Plib/libherwig59.a(hwhbrn.o)
 *fill*         0x0823b498        0x8 00
 .data          0x0823b4a0      0x218 /home/pcl2483/pedro/jadesoft/util/mcgen/Plib/libherwig59.a(hwhbsg.o)
 *fill*         0x0823b6b8        0x8 00
 .data          0x0823b6c0      0x4ca /home/pcl2483/pedro/jadesoft/util/mcgen/Plib/libherwig59.a(hwhdis.o)
 *fill*         0x0823bb8a       0x16 00
 .data          0x0823bba0     0x1628 /home/pcl2483/pedro/jadesoft/util/mcgen/Plib/libherwig59.a(hwhdyp.o)
 *fill*         0x0823d1c8       0x18 00
 .data          0x0823d1e0      0x210 /home/pcl2483/pedro/jadesoft/util/mcgen/Plib/libherwig59.a(hwhegg.o)
 .data          0x0823d3f0       0x38 /home/pcl2483/pedro/jadesoft/util/mcgen/Plib/libherwig59.a(hwhegw.o)
 *fill*         0x0823d428       0x18 00
 .data          0x0823d440      0x248 /home/pcl2483/pedro/jadesoft/util/mcgen/Plib/libherwig59.a(hwhegx.o)
 *fill*         0x0823d688       0x18 00
 .data          0x0823d6a0      0x128 /home/pcl2483/pedro/jadesoft/util/mcgen/Plib/libherwig59.a(hwhepa.o)
 *fill*         0x0823d7c8       0x18 00
 .data          0x0823d7e0      0x15c /home/pcl2483/pedro/jadesoft/util/mcgen/Plib/libherwig59.a(hwhepg.o)
 *fill*         0x0823d93c        0x4 00
 .data          0x0823d940      0x36c /home/pcl2483/pedro/jadesoft/util/mcgen/Plib/libherwig59.a(hwheww.o)
 *fill*         0x0823dcac        0x4 00
 .data          0x0823dcb0      0x150 /home/pcl2483/pedro/jadesoft/util/mcgen/Plib/libherwig59.a(hwhhvy.o)
 .data          0x0823de00      0x108 /home/pcl2483/pedro/jadesoft/util/mcgen/Plib/libherwig59.a(hwhigj.o)
 .data          0x0823df08       0x8c /home/pcl2483/pedro/jadesoft/util/mcgen/Plib/libherwig59.a(hwhigm.o)
 *fill*         0x0823df94        0xc 00
 .data          0x0823dfa0      0x164 /home/pcl2483/pedro/jadesoft/util/mcgen/Plib/libherwig59.a(hwhigs.o)
 *fill*         0x0823e104        0x4 00
 .data          0x0823e108       0x30 /home/pcl2483/pedro/jadesoft/util/mcgen/Plib/libherwig59.a(hwhigt.o)
 *fill*         0x0823e138        0x8 00
 .data          0x0823e140      0x364 /home/pcl2483/pedro/jadesoft/util/mcgen/Plib/libherwig59.a(hwhigw.o)
 *fill*         0x0823e4a4       0x1c 00
 .data          0x0823e4c0      0x1e3 /home/pcl2483/pedro/jadesoft/util/mcgen/Plib/libherwig59.a(hwhigz.o)
 *fill*         0x0823e6a3        0x5 00
 .data          0x0823e6a8       0xb4 /home/pcl2483/pedro/jadesoft/util/mcgen/Plib/libherwig59.a(hwhph2.o)
 *fill*         0x0823e75c        0x4 00
 .data          0x0823e760       0xdc /home/pcl2483/pedro/jadesoft/util/mcgen/Plib/libherwig59.a(hwhpho.o)
 *fill*         0x0823e83c        0x4 00
 .data          0x0823e840       0x38 /home/pcl2483/pedro/jadesoft/util/mcgen/Plib/libherwig59.a(hwhppb.o)
 .data          0x0823e878       0xa8 /home/pcl2483/pedro/jadesoft/util/mcgen/Plib/libherwig59.a(hwhppe.o)
 .data          0x0823e920       0x74 /home/pcl2483/pedro/jadesoft/util/mcgen/Plib/libherwig59.a(hwhpph.o)
 *fill*         0x0823e994        0xc 00
 .data          0x0823e9a0      0x204 /home/pcl2483/pedro/jadesoft/util/mcgen/Plib/libherwig59.a(hwhppm.o)
 *fill*         0x0823eba4        0x4 00
 .data          0x0823eba8       0x90 /home/pcl2483/pedro/jadesoft/util/mcgen/Plib/libherwig59.a(hwhppt.o)
 .data          0x0823ec38       0x80 /home/pcl2483/pedro/jadesoft/util/mcgen/Plib/libherwig59.a(hwhpqs.o)
 .data          0x0823ecb8      0x18c /home/pcl2483/pedro/jadesoft/util/mcgen/Plib/libherwig59.a(hwhqcd.o)
 .data          0x0823ee44        0x4 /home/pcl2483/pedro/jadesoft/util/mcgen/Plib/libherwig59.a(hwhqcp.o)
 .data          0x0823ee48       0x88 /home/pcl2483/pedro/jadesoft/util/mcgen/Plib/libherwig59.a(hwhsng.o)
 *fill*         0x0823eed0       0x10 00
 .data          0x0823eee0      0x58c /home/pcl2483/pedro/jadesoft/util/mcgen/Plib/libherwig59.a(hwhsnm.o)
 *fill*         0x0823f46c       0x14 00
 .data          0x0823f480      0x368 /home/pcl2483/pedro/jadesoft/util/mcgen/Plib/libherwig59.a(hwhv1j.o)
 *fill*         0x0823f7e8       0x18 00
 .data          0x0823f800      0x164 /home/pcl2483/pedro/jadesoft/util/mcgen/Plib/libherwig59.a(hwhwex.o)
 *fill*         0x0823f964       0x1c 00
 .data          0x0823f980      0x120 /home/pcl2483/pedro/jadesoft/util/mcgen/Plib/libherwig59.a(hwhwpr.o)
 .data          0x0823faa0      0x113 /home/pcl2483/pedro/jadesoft/util/mcgen/Plib/libherwig59.a(hwigin.o)
 *fill*         0x0823fbb3        0x5 00
 .data          0x0823fbb8       0x38 /home/pcl2483/pedro/jadesoft/util/mcgen/Plib/libherwig59.a(hwmwgt.o)
 .data          0x0823fbf0       0x20 /home/pcl2483/pedro/jadesoft/util/mcgen/Plib/libherwig59.a(hwrazm.o)
 .data          0x0823fc10       0x18 /home/pcl2483/pedro/jadesoft/util/mcgen/Plib/libherwig59.a(hwrgau.o)
 .data          0x0823fc28       0x10 /home/pcl2483/pedro/jadesoft/util/mcgen/Plib/libherwig59.a(hwrgen.o)
 .data          0x0823fc38        0x8 /home/pcl2483/pedro/jadesoft/util/mcgen/Plib/libherwig59.a(hwrint.o)
 .data          0x0823fc40        0x8 /home/pcl2483/pedro/jadesoft/util/mcgen/Plib/libherwig59.a(hwrlog.o)
 .data          0x0823fc48       0x34 /home/pcl2483/pedro/jadesoft/util/mcgen/Plib/libherwig59.a(hwrpip.o)
 *fill*         0x0823fc7c        0x4 00
 .data          0x0823fc80       0x30 /home/pcl2483/pedro/jadesoft/util/mcgen/Plib/libherwig59.a(hwrpow.o)
 .data          0x0823fcb0        0x8 /home/pcl2483/pedro/jadesoft/util/mcgen/Plib/libherwig59.a(hwruni.o)
 *fill*         0x0823fcb8        0x8 00
 .data          0x0823fcc0      0x1c8 /home/pcl2483/pedro/jadesoft/util/mcgen/Plib/libherwig59.a(hwsbrn.o)
 *fill*         0x0823fe88       0x18 00
 .data          0x0823fea0     0x2a04 /home/pcl2483/pedro/jadesoft/util/mcgen/Plib/libherwig59.a(hwsfbr.o)
 *fill*         0x082428a4       0x1c 00
 .data          0x082428c0     0x3a84 /home/pcl2483/pedro/jadesoft/util/mcgen/Plib/libherwig59.a(hwsfun.o)
 *fill*         0x08246344       0x1c 00
 .data          0x08246360       0x84 /home/pcl2483/pedro/jadesoft/util/mcgen/Plib/libherwig59.a(hwsgam.o)
 *fill*         0x082463e4        0x4 00
 .data          0x082463e8       0x18 /home/pcl2483/pedro/jadesoft/util/mcgen/Plib/libherwig59.a(hwsgen.o)
 .data          0x08246400        0x8 /home/pcl2483/pedro/jadesoft/util/mcgen/Plib/libherwig59.a(hwsgqq.o)
 .data          0x08246408       0x44 /home/pcl2483/pedro/jadesoft/util/mcgen/Plib/libherwig59.a(hwsspc.o)
 *fill*         0x0824644c       0x14 00
 .data          0x08246460       0x88 /home/pcl2483/pedro/jadesoft/util/mcgen/Plib/libherwig59.a(hwssud.o)
 *fill*         0x082464e8       0x18 00
 .data          0x08246500      0x198 /home/pcl2483/pedro/jadesoft/util/mcgen/Plib/libherwig59.a(hwstab.o)
 .data          0x08246698        0x4 /home/pcl2483/pedro/jadesoft/util/mcgen/Plib/libherwig59.a(hwsval.o)
 *fill*         0x0824669c        0x4 00
 .data          0x082466a0       0x9c /home/pcl2483/pedro/jadesoft/util/mcgen/Plib/libherwig59.a(hwuaem.o)
 *fill*         0x0824673c        0x4 00
 .data          0x08246740        0x8 /home/pcl2483/pedro/jadesoft/util/mcgen/Plib/libherwig59.a(hwuaer.o)
 .data          0x08246748       0x94 /home/pcl2483/pedro/jadesoft/util/mcgen/Plib/libherwig59.a(hwualf.o)
 *fill*         0x082467dc        0x4 00
 .data          0x082467e0       0x94 /home/pcl2483/pedro/jadesoft/util/mcgen/Plib/libherwig59.a(hwubst.o)
 *fill*         0x08246874        0x4 00
 .data          0x08246878       0xe0 /home/pcl2483/pedro/jadesoft/util/mcgen/Plib/libherwig59.a(hwucff.o)
 *fill*         0x08246958        0x8 00
 .data          0x08246960    0x39d70 /home/pcl2483/pedro/jadesoft/util/mcgen/Plib/libherwig59.a(hwudat.o)
                0x08246960                hwupdt_
                0x0827b540                hwunam_
                0x0827c1e0                hwprop_
 .data          0x082806d0       0x10 /home/pcl2483/pedro/jadesoft/util/mcgen/Plib/libherwig59.a(hwudkl.o)
 .data          0x082806e0       0x10 /home/pcl2483/pedro/jadesoft/util/mcgen/Plib/libherwig59.a(hwueec.o)
 *fill*         0x082806f0       0x10 00
 .data          0x08280700      0x49e /home/pcl2483/pedro/jadesoft/util/mcgen/Plib/libherwig59.a(hwuepr.o)
 *fill*         0x08280b9e        0x2 00
 .data          0x08280ba0     0x1b47 /home/pcl2483/pedro/jadesoft/util/mcgen/Plib/libherwig59.a(hwuinc.o)
 *fill*         0x082826e7       0x19 00
 .data          0x08282700       0x95 /home/pcl2483/pedro/jadesoft/util/mcgen/Plib/libherwig59.a(hwuine.o)
 *fill*         0x08282795        0x3 00
 .data          0x08282798       0x10 /home/pcl2483/pedro/jadesoft/util/mcgen/Plib/libherwig59.a(hwulb4.o)
 .data          0x082827a8       0x10 /home/pcl2483/pedro/jadesoft/util/mcgen/Plib/libherwig59.a(hwupcm.o)
 *fill*         0x082827b8        0x8 00
 .data          0x082827c0      0xca8 /home/pcl2483/pedro/jadesoft/util/mcgen/Plib/libherwig59.a(hwures.o)
 .data          0x08283468       0x18 /home/pcl2483/pedro/jadesoft/util/mcgen/Plib/libherwig59.a(hwurob.o)
 .data          0x08283480       0x18 /home/pcl2483/pedro/jadesoft/util/mcgen/Plib/libherwig59.a(hwurof.o)
 .data          0x08283498       0x40 /home/pcl2483/pedro/jadesoft/util/mcgen/Plib/libherwig59.a(hwurot.o)
 *fill*         0x082834d8        0x8 00
 .data          0x082834e0      0x198 /home/pcl2483/pedro/jadesoft/util/mcgen/Plib/libherwig59.a(hwutab.o)
 .data          0x08283678        0x4 /home/pcl2483/pedro/jadesoft/util/mcgen/Plib/libherwig59.a(hwvdif.o)
 *fill*         0x0828367c        0x4 00
 .data          0x08283680        0xc /home/pcl2483/pedro/jadesoft/util/mcgen/Plib/libherwig59.a(hwvdot.o)
 .data          0x0828368c        0x4 /home/pcl2483/pedro/jadesoft/util/mcgen/Plib/libherwig59.a(hwvequ.o)
 .data          0x08283690        0x4 /home/pcl2483/pedro/jadesoft/util/mcgen/Plib/libherwig59.a(hwvsca.o)
 .data          0x08283694        0x4 /home/pcl2483/pedro/jadesoft/util/mcgen/Plib/libherwig59.a(hwvsum.o)
 .data          0x08283698        0x4 /home/pcl2483/pedro/jadesoft/util/mcgen/Plib/libherwig59.a(hwvzro.o)
 *fill*         0x0828369c        0x4 00
 .data          0x082836a0      0x27c /home/pcl2483/pedro/jadesoft/util/mcgen/Plib/libherwig59.a(hwwarn.o)
 *fill*         0x0828391c        0x4 00
 .data          0x08283920       0x46 /home/pcl2483/pedro/jadesoft/util/mcgen/Plib/libherwig59.a(pdfset.o)
 *fill*         0x08283966       0x1a 00
 .data          0x08283980      0x13c /home/pcl2483/pedro/jadesoft/util/mcgen/Plib/libherwig59.a(sasgam.o)
 .data          0x08283abc       0x6c /home/pcl2483/pedro/jadesoft/util/mcgen/Plib/libherwig59.a(sasvmd.o)
 *fill*         0x08283b28       0x18 00
 .data          0x08283b40       0x47 /home/pcl2483/pedro/jadesoft/util/mcgen/Plib/libherwig59.a(structm.o)
 *fill*         0x08283b87       0x19 00
 .data          0x08283ba0       0x46 /home/pcl2483/pedro/jadesoft/util/mcgen/Plib/libherwig59.a(hvcbvi.o)
 *fill*         0x08283be6       0x1a 00
 .data          0x08283c00       0x46 /home/pcl2483/pedro/jadesoft/util/mcgen/Plib/libherwig59.a(hvhbvi.o)
 *fill*         0x08283c46        0x2 00
 .data          0x08283c48       0x14 /home/pcl2483/pedro/jadesoft/util/mcgen/Plib/libherwig59.a(hwaend.o)
 *fill*         0x08283c5c        0x4 00
 .data          0x08283c60       0x80 /home/pcl2483/pedro/jadesoft/util/mcgen/Plib/libherwig59.a(hwbazf.o)
 .data          0x08283ce0       0x1c /home/pcl2483/pedro/jadesoft/util/mcgen/Plib/libherwig59.a(hwbcon.o)
 *fill*         0x08283cfc        0x4 00
 .data          0x08283d00      0x224 /home/pcl2483/pedro/jadesoft/util/mcgen/Plib/libherwig59.a(hwbded.o)
 *fill*         0x08283f24       0x1c 00
 .data          0x08283f40      0x4a4 /home/pcl2483/pedro/jadesoft/util/mcgen/Plib/libherwig59.a(hwbdis.o)
 .data          0x082843e4       0x20 /home/pcl2483/pedro/jadesoft/util/mcgen/Plib/libherwig59.a(hwbfin.o)
 *fill*         0x08284404       0x1c 00
 .data          0x08284420      0x391 /home/pcl2483/pedro/jadesoft/util/mcgen/Plib/libherwig59.a(hwbsud.o)
 *fill*         0x082847b1        0x7 00
 .data          0x082847b8       0x10 /home/pcl2483/pedro/jadesoft/util/mcgen/Plib/libherwig59.a(hwbsug.o)
 *fill*         0x082847c8       0x18 00
 .data          0x082847e0      0x21c /home/pcl2483/pedro/jadesoft/util/mcgen/Plib/libherwig59.a(hwbsul.o)
 *fill*         0x082849fc        0x4 00
 .data          0x08284a00      0x1a4 /home/pcl2483/pedro/jadesoft/util/mcgen/Plib/libherwig59.a(hwccut.o)
 *fill*         0x08284ba4       0x1c 00
 .data          0x08284bc0      0x2a8 /home/pcl2483/pedro/jadesoft/util/mcgen/Plib/libherwig59.a(hwdboz.o)
 *fill*         0x08284e68       0x18 00
 .data          0x08284e80      0x7c4 /home/pcl2483/pedro/jadesoft/util/mcgen/Plib/libherwig59.a(hwdhig.o)
 *fill*         0x08285644        0x4 00
 .data          0x08285648       0x70 /home/pcl2483/pedro/jadesoft/util/mcgen/Plib/libherwig59.a(hwegam.o)
 .data          0x082856b8       0xd8 /home/pcl2483/pedro/jadesoft/util/mcgen/Plib/libherwig59.a(hweisr.o)
 .data          0x08285790       0x18 /home/pcl2483/pedro/jadesoft/util/mcgen/Plib/libherwig59.a(hweone.o)
 .data          0x082857a8       0x28 /home/pcl2483/pedro/jadesoft/util/mcgen/Plib/libherwig59.a(hwetwo.o)
 .data          0x082857d0       0x6c /home/pcl2483/pedro/jadesoft/util/mcgen/Plib/libherwig59.a(hwhew0.o)
 *fill*         0x0828583c        0x4 00
 .data          0x08285840       0xec /home/pcl2483/pedro/jadesoft/util/mcgen/Plib/libherwig59.a(hwhew1.o)
 *fill*         0x0828592c       0x14 00
 .data          0x08285940      0x250 /home/pcl2483/pedro/jadesoft/util/mcgen/Plib/libherwig59.a(hwhew2.o)
 *fill*         0x08285b90       0x10 00
 .data          0x08285ba0       0xc4 /home/pcl2483/pedro/jadesoft/util/mcgen/Plib/libherwig59.a(hwhew3.o)
 *fill*         0x08285c64       0x1c 00
 .data          0x08285c80       0x74 /home/pcl2483/pedro/jadesoft/util/mcgen/Plib/libherwig59.a(hwhew5.o)
 *fill*         0x08285cf4        0xc 00
 .data          0x08285d00      0x140 /home/pcl2483/pedro/jadesoft/util/mcgen/Plib/libherwig59.a(hwhiga.o)
 .data          0x08285e40       0x90 /home/pcl2483/pedro/jadesoft/util/mcgen/Plib/libherwig59.a(hwhigb.o)
 .data          0x08285ed0       0x38 /home/pcl2483/pedro/jadesoft/util/mcgen/Plib/libherwig59.a(hwhigy.o)
 .data          0x08285f08       0x30 /home/pcl2483/pedro/jadesoft/util/mcgen/Plib/libherwig59.a(hwrexq.o)
 *fill*         0x08285f38        0x8 00
 .data          0x08285f40      0x197 /home/pcl2483/pedro/jadesoft/util/mcgen/Plib/libherwig59.a(hwsdgg.o)
 *fill*         0x082860d7        0x9 00
 .data          0x082860e0      0x3a7 /home/pcl2483/pedro/jadesoft/util/mcgen/Plib/libherwig59.a(hwsdgq.o)
 *fill*         0x08286487        0x1 00
 .data          0x08286488       0x46 /home/pcl2483/pedro/jadesoft/util/mcgen/Plib/libherwig59.a(hwuant.o)
 *fill*         0x082864ce       0x12 00
 .data          0x082864e0      0x210 /home/pcl2483/pedro/jadesoft/util/mcgen/Plib/libherwig59.a(hwubpr.o)
 .data          0x082866f0       0x60 /home/pcl2483/pedro/jadesoft/util/mcgen/Plib/libherwig59.a(hwuci2.o)
 *fill*         0x08286750       0x10 00
 .data          0x08286760     0x162e /home/pcl2483/pedro/jadesoft/util/mcgen/Plib/libherwig59.a(hwudks.o)
 *fill*         0x08287d8e       0x12 00
 .data          0x08287da0      0x1dd /home/pcl2483/pedro/jadesoft/util/mcgen/Plib/libherwig59.a(hwudpr.o)
 *fill*         0x08287f7d        0x3 00
 .data          0x08287f80       0x14 /home/pcl2483/pedro/jadesoft/util/mcgen/Plib/libherwig59.a(hwuedt.o)
 *fill*         0x08287f94        0xc 00
 .data          0x08287fa0     0x1f6c /home/pcl2483/pedro/jadesoft/util/mcgen/Plib/libherwig59.a(hwuemv.o)
 *fill*         0x08289f0c       0x14 00
 .data          0x08289f20      0x104 /home/pcl2483/pedro/jadesoft/util/mcgen/Plib/libherwig59.a(hwugau.o)
 *fill*         0x0828a024       0x1c 00
 .data          0x0828a040      0x110 /home/pcl2483/pedro/jadesoft/util/mcgen/Plib/libherwig59.a(hwuidt.o)
 .data          0x0828a150       0x10 /home/pcl2483/pedro/jadesoft/util/mcgen/Plib/libherwig59.a(hwulf4.o)
 .data          0x0828a160       0xa0 /home/pcl2483/pedro/jadesoft/util/mcgen/Plib/libherwig59.a(hwuli2.o)
 .data          0x0828a200     0x1f70 /home/pcl2483/pedro/jadesoft/util/mcgen/Plib/libherwig59.a(hwusor.o)
 .data          0x0828c170       0x80 /home/pcl2483/pedro/jadesoft/util/mcgen/Plib/libherwig59.a(sasano.o)
 .data          0x0828c1f0       0x30 /home/pcl2483/pedro/jadesoft/util/mcgen/Plib/libherwig59.a(sasbeh.o)
 .data          0x0828c220       0x14 /home/pcl2483/pedro/jadesoft/util/mcgen/Plib/libherwig59.a(sasdir.o)
 *fill*         0x0828c234        0x4 00
 .data          0x0828c238       0x10 /home/pcl2483/pedro/jadesoft/util/mcgen/Plib/libherwig59.a(hwbsu1.o)
 .data          0x0828c248        0x8 /home/pcl2483/pedro/jadesoft/util/mcgen/Plib/libherwig59.a(hwbsu2.o)
 *fill*         0x0828c250       0x10 00
 .data          0x0828c260      0x288 /home/pcl2483/pedro/jadesoft/util/mcgen/Plib/libherwig59.a(hwdchk.o)
 .data          0x0828c4e8       0x10 /home/pcl2483/pedro/jadesoft/util/mcgen/Plib/libherwig59.a(hwdhgc.o)
 .data          0x0828c4f8       0x74 /home/pcl2483/pedro/jadesoft/util/mcgen/Plib/libherwig59.a(hwdhgf.o)
 *fill*         0x0828c56c        0x4 00
 .data          0x0828c570       0x18 /home/pcl2483/pedro/jadesoft/util/mcgen/Plib/libherwig59.a(hwhig1.o)
 .data          0x0828c588        0x8 /home/pcl2483/pedro/jadesoft/util/mcgen/Plib/libjt74opal.a(luchge.o)
 *fill*         0x0828c590       0x10 00
 .data          0x0828c5a0      0x100 /home/pcl2483/pedro/jadesoft/util/mcgen/Plib/libjt74opal.a(lucomp.o)
 .data          0x0828c6a0    0x185a0 /home/pcl2483/pedro/jadesoft/util/mcgen/Plib/libjt74opal.a(ludata.o)
                0x082a3fc0                gudat1_
                0x0828d800                gudat3_
                0x0828c6a0                gudatr_
                0x0829e980                gudat2_
                0x0828c860                gudat4_
 .data          0x082a4c40       0x54 /home/pcl2483/pedro/jadesoft/util/mcgen/Plib/libjt74opal.a(luedit.o)
 *fill*         0x082a4c94        0xc 00
 .data          0x082a4ca0      0x1f2 /home/pcl2483/pedro/jadesoft/util/mcgen/Plib/libjt74opal.a(luerrm.o)
 *fill*         0x082a4e92        0xe 00
 .data          0x082a4ea0       0x64 /home/pcl2483/pedro/jadesoft/util/mcgen/Plib/libjt74opal.a(luexec.o)
 .data          0x082a4f04       0x2c /home/pcl2483/pedro/jadesoft/util/mcgen/Plib/libjt74opal.a(luhepc.o)
 *fill*         0x082a4f30       0x10 00
 .data          0x082a4f40      0x170 /home/pcl2483/pedro/jadesoft/util/mcgen/Plib/libjt74opal.a(luindf.o)
 .data          0x082a50b0       0xd4 /home/pcl2483/pedro/jadesoft/util/mcgen/Plib/libjt74opal.a(lukfdi.o)
 *fill*         0x082a5184       0x1c 00
 .data          0x082a51a0      0xa8e /home/pcl2483/pedro/jadesoft/util/mcgen/Plib/libjt74opal.a(lulist.o)
 *fill*         0x082a5c2e       0x12 00
 .data          0x082a5c40      0xad4 /home/pcl2483/pedro/jadesoft/util/mcgen/Plib/libjt74opal.a(lulogo.o)
 .data          0x082a6714       0x28 /home/pcl2483/pedro/jadesoft/util/mcgen/Plib/libjt74opal.a(luname.o)
 *fill*         0x082a673c        0x4 00
 .data          0x082a6740      0x134 /home/pcl2483/pedro/jadesoft/util/mcgen/Plib/libjt74opal.a(luprep.o)
 .data          0x082a6874        0xc /home/pcl2483/pedro/jadesoft/util/mcgen/Plib/libjt74opal.a(luptdi.o)
 .data          0x082a6880      0x108 /home/pcl2483/pedro/jadesoft/util/mcgen/Plib/libjt74opal.a(lurobo.o)
 *fill*         0x082a6988       0x18 00
 .data          0x082a69a0      0x868 /home/pcl2483/pedro/jadesoft/util/mcgen/Plib/libjt74opal.a(lushow.o)
 *fill*         0x082a7208       0x18 00
 .data          0x082a7220      0x4f0 /home/pcl2483/pedro/jadesoft/util/mcgen/Plib/libjt74opal.a(lustrf.o)
 *fill*         0x082a7710       0x10 00
 .data          0x082a7720     0x646f /home/pcl2483/pedro/jadesoft/util/mcgen/Plib/libjt74opal.a(lutabu.o)
 *fill*         0x082adb8f        0x1 00
 .data          0x082adb90       0x50 /home/pcl2483/pedro/jadesoft/util/mcgen/Plib/libjt74opal.a(luzdis.o)
 .data          0x082adbe0       0x20 /home/pcl2483/pedro/jadesoft/util/mcgen/Plib/libjt74opal.a(plu.o)
 .data          0x082adc00       0x38 /home/pcl2483/pedro/jadesoft/util/mcgen/Plib/libjt74opal.a(rlu.o)
 .data          0x082adc38        0x4 /home/pcl2483/pedro/jadesoft/util/mcgen/Plib/libjt74opal.a(ulangl.o)
 .data          0x082adc3c       0x3c /home/pcl2483/pedro/jadesoft/util/mcgen/Plib/libjt74opal.a(ulmass.o)
 *fill*         0x082adc78        0x8 00
 .data          0x082adc80      0x2ac /home/pcl2483/pedro/jadesoft/util/mcgen/Plib/libjt74opal.a(luboei.o)
 *fill*         0x082adf2c       0x14 00
 .data          0x082adf40      0x3c8 /home/pcl2483/pedro/jadesoft/util/mcgen/Plib/libjt74opal.a(ludecy.o)
 .data          0x082ae308       0x80 /home/pcl2483/pedro/jadesoft/util/mcgen/Plib/libjt74opal.a(lutaud.o)
 .data          0x082ae388       0x18 /home/pcl2483/pedro/jadesoft/util/mcgen/Plib/libjt74opal.a(taupol.o)
 .data          0x082ae3a0      0xb05 /home/pcl2483/pedro/jadesoft/util/mcgen/Plib/libjt74opal.a(dexay.o)
 *fill*         0x082aeea5       0x1b 00
 .data          0x082aeec0      0x1c0 /home/pcl2483/pedro/jadesoft/util/mcgen/Plib/libjt74opal.a(dexay1.o)
 .data          0x082af080       0x68 /home/pcl2483/pedro/jadesoft/util/mcgen/Plib/libjt74opal.a(dexel.o)
 .data          0x082af0e8       0x1c /home/pcl2483/pedro/jadesoft/util/mcgen/Plib/libjt74opal.a(dexkk.o)
 *fill*         0x082af104       0x1c 00
 .data          0x082af120       0x68 /home/pcl2483/pedro/jadesoft/util/mcgen/Plib/libjt74opal.a(dexks.o)
 *fill*         0x082af188       0x18 00
 .data          0x082af1a0       0x68 /home/pcl2483/pedro/jadesoft/util/mcgen/Plib/libjt74opal.a(dexmu.o)
 *fill*         0x082af208       0x18 00
 .data          0x082af220       0x69 /home/pcl2483/pedro/jadesoft/util/mcgen/Plib/libjt74opal.a(dexnew.o)
 *fill*         0x082af289        0x3 00
 .data          0x082af28c       0x1c /home/pcl2483/pedro/jadesoft/util/mcgen/Plib/libjt74opal.a(dexpi.o)
 *fill*         0x082af2a8       0x18 00
 .data          0x082af2c0       0x68 /home/pcl2483/pedro/jadesoft/util/mcgen/Plib/libjt74opal.a(dexro.o)
 .data          0x082af328       0x2c /home/pcl2483/pedro/jadesoft/util/mcgen/Plib/libjt74opal.a(dwlnew.o)
 .data          0x082af354        0x8 /home/pcl2483/pedro/jadesoft/util/mcgen/Plib/libjt74opal.a(dwluaa.o)
 .data          0x082af35c        0x8 /home/pcl2483/pedro/jadesoft/util/mcgen/Plib/libjt74opal.a(dwluel.o)
 .data          0x082af364        0x8 /home/pcl2483/pedro/jadesoft/util/mcgen/Plib/libjt74opal.a(dwlukk.o)
 .data          0x082af36c       0x18 /home/pcl2483/pedro/jadesoft/util/mcgen/Plib/libjt74opal.a(dwluks.o)
 .data          0x082af384        0x8 /home/pcl2483/pedro/jadesoft/util/mcgen/Plib/libjt74opal.a(dwlumu.o)
 .data          0x082af38c        0x8 /home/pcl2483/pedro/jadesoft/util/mcgen/Plib/libjt74opal.a(dwlupi.o)
 .data          0x082af394        0x8 /home/pcl2483/pedro/jadesoft/util/mcgen/Plib/libjt74opal.a(dwluro.o)
 .data          0x082af39c       0x18 /home/pcl2483/pedro/jadesoft/util/mcgen/Plib/libjt74opal.a(dwrph.o)
 .data          0x082af3b4        0xc /home/pcl2483/pedro/jadesoft/util/mcgen/Plib/libjt74opal.a(filhep.o)
 .data          0x082af3c0      0x258 /home/pcl2483/pedro/jadesoft/util/mcgen/Plib/libjt74opal.a(initdk.o)
 *fill*         0x082af618        0x8 00
 .data          0x082af620       0xbd /home/pcl2483/pedro/jadesoft/util/mcgen/Plib/libjt74opal.a(jaker.o)
 *fill*         0x082af6dd        0x3 00
 .data          0x082af6e0       0x24 /home/pcl2483/pedro/jadesoft/util/mcgen/Plib/libjt74opal.a(lunpik.o)
 *fill*         0x082af704       0x1c 00
 .data          0x082af720      0x389 /home/pcl2483/pedro/jadesoft/util/mcgen/Plib/libjt74opal.a(dadmel.o)
 *fill*         0x082afaa9       0x17 00
 .data          0x082afac0      0x1c7 /home/pcl2483/pedro/jadesoft/util/mcgen/Plib/libjt74opal.a(dadmkk.o)
 *fill*         0x082afc87       0x19 00
 .data          0x082afca0      0x3c9 /home/pcl2483/pedro/jadesoft/util/mcgen/Plib/libjt74opal.a(dadmks.o)
 *fill*         0x082b0069       0x17 00
 .data          0x082b0080      0x389 /home/pcl2483/pedro/jadesoft/util/mcgen/Plib/libjt74opal.a(dadmmu.o)
 *fill*         0x082b0409       0x17 00
 .data          0x082b0420      0x1c7 /home/pcl2483/pedro/jadesoft/util/mcgen/Plib/libjt74opal.a(dadmpi.o)
 *fill*         0x082b05e7       0x19 00
 .data          0x082b0600      0x3a9 /home/pcl2483/pedro/jadesoft/util/mcgen/Plib/libjt74opal.a(dadmro.o)
 *fill*         0x082b09a9       0x17 00
 .data          0x082b09c0      0x681 /home/pcl2483/pedro/jadesoft/util/mcgen/Plib/libjt74opal.a(dadnew.o)
 *fill*         0x082b1041       0x1f 00
 .data          0x082b1060       0x68 /home/pcl2483/pedro/jadesoft/util/mcgen/Plib/libjt74opal.a(dexaa.o)
 *fill*         0x082b10c8       0x18 00
 .data          0x082b10e0      0x1a4 /home/pcl2483/pedro/jadesoft/util/mcgen/Plib/libjt74opal.a(dph4pi.o)
 *fill*         0x082b1284       0x1c 00
 .data          0x082b12a0      0x1f4 /home/pcl2483/pedro/jadesoft/util/mcgen/Plib/libjt74opal.a(dph5pi.o)
 *fill*         0x082b1494        0xc 00
 .data          0x082b14a0      0x458 /home/pcl2483/pedro/jadesoft/util/mcgen/Plib/libjt74opal.a(dphnpi.o)
 *fill*         0x082b18f8        0x8 00
 .data          0x082b1900       0xd0 /home/pcl2483/pedro/jadesoft/util/mcgen/Plib/libjt74opal.a(dphsel.o)
 .data          0x082b19d0       0x84 /home/pcl2483/pedro/jadesoft/util/mcgen/Plib/libjt74opal.a(dphsks.o)
 *fill*         0x082b1a54        0xc 00
 .data          0x082b1a60       0xd0 /home/pcl2483/pedro/jadesoft/util/mcgen/Plib/libjt74opal.a(dphsmu.o)
 .data          0x082b1b30       0x48 /home/pcl2483/pedro/jadesoft/util/mcgen/Plib/libjt74opal.a(dphspk.o)
 .data          0x082b1b78       0x9c /home/pcl2483/pedro/jadesoft/util/mcgen/Plib/libjt74opal.a(dphsrk.o)
 .data          0x082b1c14       0x7c /home/pcl2483/pedro/jadesoft/util/mcgen/Plib/libjt74opal.a(dphsro.o)
 .data          0x082b1c90      0x118 /home/pcl2483/pedro/jadesoft/util/mcgen/Plib/libjt74opal.a(dphtre.o)
 *fill*         0x082b1da8       0x18 00
 .data          0x082b1dc0      0x194 /home/pcl2483/pedro/jadesoft/util/mcgen/Plib/libjt74opal.a(drcmu.o)
 .data          0x082b1f54        0x8 /home/pcl2483/pedro/jadesoft/util/mcgen/Plib/libjt74opal.a(dwluph.o)
 .data          0x082b1f5c       0x20 /home/pcl2483/pedro/jadesoft/util/mcgen/Plib/libjt74opal.a(rotor2.o)
 .data          0x082b1f7c       0x1c /home/pcl2483/pedro/jadesoft/util/mcgen/Plib/libjt74opal.a(rotor3.o)
 *fill*         0x082b1f98        0x8 00
 .data          0x082b1fa0      0x21a /home/pcl2483/pedro/jadesoft/util/mcgen/Plib/libjt74opal.a(sigee.o)
 *fill*         0x082b21ba        0x2 00
 .data          0x082b21bc       0x18 /home/pcl2483/pedro/jadesoft/util/mcgen/Plib/libjt74opal.a(sphera.o)
 *fill*         0x082b21d4        0x4 00
 .data          0x082b21d8       0x24 /home/pcl2483/pedro/jadesoft/util/mcgen/Plib/libjt74opal.a(spherd.o)
 *fill*         0x082b21fc        0x4 00
 .data          0x082b2200       0x48 /home/pcl2483/pedro/jadesoft/util/mcgen/Plib/libjt74opal.a(bostd3.o)
 .data          0x082b2248       0x24 /home/pcl2483/pedro/jadesoft/util/mcgen/Plib/libjt74opal.a(bostr3.o)
 .data          0x082b226c       0x2c /home/pcl2483/pedro/jadesoft/util/mcgen/Plib/libjt74opal.a(bwigs.o)
 .data          0x082b2298       0x1c /home/pcl2483/pedro/jadesoft/util/mcgen/Plib/libjt74opal.a(choice.o)
 *fill*         0x082b22b4        0xc 00
 .data          0x082b22c0      0x3c9 /home/pcl2483/pedro/jadesoft/util/mcgen/Plib/libjt74opal.a(dadmaa.o)
 *fill*         0x082b2689       0x17 00
 .data          0x082b26a0       0x74 /home/pcl2483/pedro/jadesoft/util/mcgen/Plib/libjt74opal.a(dam4pi.o)
 *fill*         0x082b2714        0xc 00
 .data          0x082b2720       0xdc /home/pcl2483/pedro/jadesoft/util/mcgen/Plib/libjt74opal.a(dampog.o)
 *fill*         0x082b27fc        0x4 00
 .data          0x082b2800      0x224 /home/pcl2483/pedro/jadesoft/util/mcgen/Plib/libjt74opal.a(damppk.o)
 *fill*         0x082b2a24        0x4 00
 .data          0x082b2a28        0x8 /home/pcl2483/pedro/jadesoft/util/mcgen/Plib/libjt74opal.a(dampry.o)
 .data          0x082b2a30       0x18 /home/pcl2483/pedro/jadesoft/util/mcgen/Plib/libjt74opal.a(dcdmas.o)
 .data          0x082b2a48       0x1c /home/pcl2483/pedro/jadesoft/util/mcgen/Plib/libjt74opal.a(dphsaa.o)
 .data          0x082b2a64       0x18 /home/pcl2483/pedro/jadesoft/util/mcgen/Plib/libjt74opal.a(form1.o)
 .data          0x082b2a7c       0x18 /home/pcl2483/pedro/jadesoft/util/mcgen/Plib/libjt74opal.a(form2.o)
 .data          0x082b2a94       0x48 /home/pcl2483/pedro/jadesoft/util/mcgen/Plib/libjt74opal.a(form4.o)
 .data          0x082b2adc       0x10 /home/pcl2483/pedro/jadesoft/util/mcgen/Plib/libjt74opal.a(form5.o)
 .data          0x082b2aec       0x34 /home/pcl2483/pedro/jadesoft/util/mcgen/Plib/libjt74opal.a(formom.o)
 .data          0x082b2b20       0x24 /home/pcl2483/pedro/jadesoft/util/mcgen/Plib/libjt74opal.a(fpik.o)
 .data          0x082b2b44       0x28 /home/pcl2483/pedro/jadesoft/util/mcgen/Plib/libjt74opal.a(fpikm.o)
 .data          0x082b2b6c       0x34 /home/pcl2483/pedro/jadesoft/util/mcgen/Plib/libjt74opal.a(fpikmd.o)
 .data          0x082b2ba0       0x20 /home/pcl2483/pedro/jadesoft/util/mcgen/Plib/libjt74opal.a(prod5.o)
 .data          0x082b2bc0       0x3c /home/pcl2483/pedro/jadesoft/util/mcgen/Plib/libjt74opal.a(rotod2.o)
 *fill*         0x082b2bfc        0x4 00
 .data          0x082b2c00       0x3c /home/pcl2483/pedro/jadesoft/util/mcgen/Plib/libjt74opal.a(rotod3.o)
 *fill*         0x082b2c3c        0x4 00
 .data          0x082b2c40      0x130 /home/pcl2483/pedro/jadesoft/util/mcgen/Plib/libjt74opal.a(sqm2.o)
 *fill*         0x082b2d70       0x10 00
 .data          0x082b2d80      0x1dc /home/pcl2483/pedro/jadesoft/util/mcgen/Plib/libjt74opal.a(thb.o)
 .data          0x082b2f5c        0x8 /home/pcl2483/pedro/jadesoft/util/mcgen/Plib/libjt74opal.a(wigfor.o)
 .data          0x082b2f64       0x1c /home/pcl2483/pedro/jadesoft/util/mcgen/Plib/libjt74opal.a(bwig.o)
 .data          0x082b2f80       0x18 /home/pcl2483/pedro/jadesoft/util/mcgen/Plib/libjt74opal.a(bwigm.o)
 *fill*         0x082b2f98        0x8 00
 .data          0x082b2fa0       0x40 /home/pcl2483/pedro/jadesoft/util/mcgen/Plib/libjt74opal.a(claxi.o)
 .data          0x082b2fe0       0x10 /home/pcl2483/pedro/jadesoft/util/mcgen/Plib/libjt74opal.a(clnut.o)
 .data          0x082b2ff0       0x10 /home/pcl2483/pedro/jadesoft/util/mcgen/Plib/libjt74opal.a(clvec.o)
 .data          0x082b3000      0x174 /home/pcl2483/pedro/jadesoft/util/mcgen/Plib/libjt74opal.a(curr.o)
 *fill*         0x082b3174        0x4 00
 .data          0x082b3178       0x30 /home/pcl2483/pedro/jadesoft/util/mcgen/Plib/libjt74opal.a(dilog.o)
 *fill*         0x082b31a8       0x18 00
 .data          0x082b31c0    0x5cf90 /home/pcl2483/pedro/jadesoft/util/mcgen/Plib/libckern105.a(ckern.o)
 *fill*         0x08310150       0x10 00
 .data          0x08310160     0x1f94 /home/pcl2483/pedro/jadesoft/util/mcgen/Plib/libckern105.a(cksord.o)
 .data          0x083120f4       0x5c /home/pcl2483/pedro/jadesoft/util/mcgen/Plib/libckern105.a(cnjet.o)
 .data          0x08312150       0x38 /home/pcl2483/pedro/jadesoft/util/mcgen/Plib/libpx114.a(pxang3.o)
 .data          0x08312188       0x20 /home/pcl2483/pedro/jadesoft/util/mcgen/Plib/libpx114.a(pxanxy.o)
 *fill*         0x083121a8       0x18 00
 .data          0x083121c0    0x155e0 /home/pcl2483/pedro/jadesoft/util/mcgen/Plib/libpx114.a(pxcone.o)
 .data          0x083277a0        0x4 /home/pcl2483/pedro/jadesoft/util/mcgen/Plib/libpx114.a(pxcopv.o)
 *fill*         0x083277a4       0x1c 00
 .data          0x083277c0      0x408 /home/pcl2483/pedro/jadesoft/util/mcgen/Plib/libpx114.a(pxjpdg.o)
 *fill*         0x08327bc8       0x18 00
 .data          0x08327be0      0x6d4 /home/pcl2483/pedro/jadesoft/util/mcgen/Plib/libpx114.a(pxjsp3.o)
 *fill*         0x083282b4        0xc 00
 .data          0x083282c0      0x24c /home/pcl2483/pedro/jadesoft/util/mcgen/Plib/libpx114.a(pxlsp3.o)
 *fill*         0x0832850c       0x14 00
 .data          0x08328520     0x4e88 /home/pcl2483/pedro/jadesoft/util/mcgen/Plib/libpx114.a(pxlth4.o)
 *fill*         0x0832d3a8       0x18 00
 .data          0x0832d3c0       0xe0 /home/pcl2483/pedro/jadesoft/util/mcgen/Plib/libpx114.a(pxlut3.o)
 .data          0x0832d4a0       0x10 /home/pcl2483/pedro/jadesoft/util/mcgen/Plib/libpx114.a(pxlzf5.o)
 *fill*         0x0832d4b0       0x10 00
 .data          0x0832d4c0       0x70 /home/pcl2483/pedro/jadesoft/util/mcgen/Plib/libpx114.a(pxmmbb.o)
 .data          0x0832d530       0x18 /home/pcl2483/pedro/jadesoft/util/mcgen/Plib/libpx114.a(pxnorv.o)
 *fill*         0x0832d548       0x18 00
 .data          0x0832d560      0x1d8 /home/pcl2483/pedro/jadesoft/util/mcgen/Plib/libpx114.a(pxolap.o)
 *fill*         0x0832d738        0x8 00
 .data          0x0832d740    0x14220 /home/pcl2483/pedro/jadesoft/util/mcgen/Plib/libpx114.a(pxord.o)
 .data          0x08341960       0x40 /home/pcl2483/pedro/jadesoft/util/mcgen/Plib/libpx114.a(pxplt3.o)
 .data          0x083419a0        0x4 /home/pcl2483/pedro/jadesoft/util/mcgen/Plib/libpx114.a(pxplu3.o)
 *fill*         0x083419a4       0x1c 00
 .data          0x083419c0       0x88 /home/pcl2483/pedro/jadesoft/util/mcgen/Plib/libpx114.a(pxprcv.o)
 .data          0x08341a48       0x64 /home/pcl2483/pedro/jadesoft/util/mcgen/Plib/libpx114.a(pxprrv.o)
 *fill*         0x08341aac        0x4 00
 .data          0x08341ab0       0x38 /home/pcl2483/pedro/jadesoft/util/mcgen/Plib/libpx114.a(pxrap4.o)
 .data          0x08341ae8       0x34 /home/pcl2483/pedro/jadesoft/util/mcgen/Plib/libpx114.a(pxrmx3.o)
 *fill*         0x08341b1c        0x4 00
 .data          0x08341b20       0x18 /home/pcl2483/pedro/jadesoft/util/mcgen/Plib/libpx114.a(pxrob3.o)
 .data          0x08341b38       0x18 /home/pcl2483/pedro/jadesoft/util/mcgen/Plib/libpx114.a(pxrof3.o)
 *fill*         0x08341b50       0x10 00
 .data          0x08341b60      0x69c /home/pcl2483/pedro/jadesoft/util/mcgen/Plib/libpx114.a(pxsear.o)
 *fill*         0x083421fc        0x4 00
 .data          0x08342200     0x17c4 /home/pcl2483/pedro/jadesoft/util/mcgen/Plib/libpx114.a(pxsorv.o)
 .data          0x083439c4       0x14 /home/pcl2483/pedro/jadesoft/util/mcgen/Plib/libpx114.a(pxtry.o)
 .data          0x083439d8       0x20 /home/pcl2483/pedro/jadesoft/util/mcgen/Plib/libpx114.a(pxuvec.o)
 .data          0x083439f8        0x4 /home/pcl2483/pedro/jadesoft/util/mcgen/Plib/libpx114.a(pxzerv.o)
 *fill*         0x083439fc        0x4 00
 .data          0x08343a00    0xf7c99 /home/pcl2483/pedro/jadesoft/util/mcgen/Plib/libpx114.a(ykern.o)
 *fill*         0x0843b699        0x7 00
 .data          0x0843b6a0       0xb2 /home/pcl2483/pedro/jadesoft/util/mcgen/Plib/libpx114.a(ynjet.o)
 *fill*         0x0843b752        0xe 00
 .data          0x0843b760      0x128 /home/pcl2483/pedro/jadesoft/util/mcgen/Plib/libpx114.a(yyjet.o)
 .data          0x0843b888       0x10 /home/pcl2483/pedro/jadesoft/util/mcgen/Plib/libpx114.a(pxaddv.o)
 .data          0x0843b898       0xb0 /home/pcl2483/pedro/jadesoft/util/mcgen/Plib/libpx114.a(pxdiam.o)
 .data          0x0843b948        0xc /home/pcl2483/pedro/jadesoft/util/mcgen/Plib/libpx114.a(pxmulm.o)
 .data          0x0843b954        0xc /home/pcl2483/pedro/jadesoft/util/mcgen/Plib/libpx114.a(pxnew.o)
 .data          0x0843b960        0x4 /home/pcl2483/pedro/jadesoft/util/mcgen/Plib/libpx114.a(pxsame.o)
 .data          0x0843b964        0x8 /home/pcl2483/pedro/jadesoft/util/mcgen/Plib/libpx114.a(pxunim.o)
 *fill*         0x0843b96c       0x14 00
 .data          0x0843b980      0x661 /cern/99/lib/libpacklib.a(ffgo.o)
 *fill*         0x0843bfe1       0x1f 00
 .data          0x0843c000       0x5f /cern/99/lib/libpacklib.a(ffinit.o)
 *fill*         0x0843c05f        0x1 00
 .data          0x0843c060       0xf9 /cern/99/lib/libpacklib.a(ffkey.o)
 *fill*         0x0843c159        0x7 00
 .data          0x0843c160      0x1d8 /cern/99/lib/libpacklib.a(ffset.o)
 .data          0x0843c338        0xc /cern/99/lib/libpacklib.a(hrput.o)
 .data          0x0843c344       0x2f /cern/99/lib/libpacklib.a(hbug.o)
 *fill*         0x0843c373        0xd 00
 .data          0x0843c380      0x100 /cern/99/lib/libpacklib.a(hcdir.o)
 .data          0x0843c480      0x102 /cern/99/lib/libpacklib.a(hidopt.o)
 *fill*         0x0843c582        0x2 00
 *fill*         0x0843c584       0x1c 00
 .data          0x0843c5a0       0xac /cern/99/lib/libpacklib.a(hmachi.o)
 *fill*         0x0843c64c       0x14 00
 .data          0x0843c660       0x41 /cern/99/lib/libpacklib.a(hpath.o)
 *fill*         0x0843c6a1        0x3 00
 .data          0x0843c6a4       0x2c /cern/99/lib/libpacklib.a(hlogpf.o)
 .data          0x0843c6d0       0x18 /cern/99/lib/libpacklib.a(hoptpf.o)
 .data          0x0843c6e8       0x18 /cern/99/lib/libpacklib.a(hitoc.o)
 .data          0x0843c700      0x19b /cern/99/lib/libpacklib.a(fzin.o)
 *fill*         0x0843c89b        0x1 00
 .data          0x0843c89c       0x20 /cern/99/lib/libpacklib.a(fzirel.o)
 .data          0x0843c8bc        0xc /cern/99/lib/libpacklib.a(fzloc.o)
 .data          0x0843c8c8        0x8 /cern/99/lib/libpacklib.a(mzbook.o)
 *fill*         0x0843c8d0       0x10 00
 .data          0x0843c8e0       0x52 /cern/99/lib/libpacklib.a(mzdrop.o)
 *fill*         0x0843c932        0x2 00
 .data          0x0843c934       0x10 /cern/99/lib/libpacklib.a(mzebra.o)
 .data          0x0843c944        0x8 /cern/99/lib/libpacklib.a(mzflag.o)
 *fill*         0x0843c94c       0x14 00
 .data          0x0843c960       0x6e /cern/99/lib/libpacklib.a(mzlift.o)
 *fill*         0x0843c9ce       0x12 00
 .data          0x0843c9e0       0x6c /cern/99/lib/libpacklib.a(mzlink.o)
 *fill*         0x0843ca4c       0x14 00
 .data          0x0843ca60       0x59 /cern/99/lib/libpacklib.a(mzneed.o)
 *fill*         0x0843cab9        0x3 00
 *fill*         0x0843cabc        0x4 00
 .data          0x0843cac0       0xc2 /cern/99/lib/libpacklib.a(mzpush.o)
 *fill*         0x0843cb82       0x1e 00
 .data          0x0843cba0      0x201 /cern/99/lib/libpacklib.a(mzstor.o)
 *fill*         0x0843cda1       0x1f 00
 .data          0x0843cdc0      0x107 /cern/99/lib/libpacklib.a(mzvers.o)
 *fill*         0x0843cec7       0x19 00
 .data          0x0843cee0      0x101 /cern/99/lib/libpacklib.a(mzgar1.o)
 *fill*         0x0843cfe1        0x3 00
 .data          0x0843cfe4        0x8 /cern/99/lib/libpacklib.a(mzmove.o)
 .data          0x0843cfec        0x8 /cern/99/lib/libpacklib.a(mzrelb.o)
 .data          0x0843cff4        0x8 /cern/99/lib/libpacklib.a(mzrell.o)
 .data          0x0843cffc        0x8 /cern/99/lib/libpacklib.a(mzrelx.o)
 .data          0x0843d004        0x8 /cern/99/lib/libpacklib.a(mztabf.o)
 .data          0x0843d00c        0x8 /cern/99/lib/libpacklib.a(mztabm.o)
 *fill*         0x0843d014        0xc 00
 .data          0x0843d020       0x6a /cern/99/lib/libpacklib.a(mztabr.o)
 *fill*         0x0843d08a        0x2 00
 .data          0x0843d08c        0x8 /cern/99/lib/libpacklib.a(mzchnb.o)
 .data          0x0843d094       0x44 /cern/99/lib/libpacklib.a(mzform.o)
 *fill*         0x0843d0d8        0x8 00
 .data          0x0843d0e0      0x1d0 /cern/99/lib/libpacklib.a(mzioch.o)
 .data          0x0843d2b0        0x8 /cern/99/lib/libpacklib.a(mzsdiv.o)
 *fill*         0x0843d2b8        0x8 00
 .data          0x0843d2c0      0x36c /cern/99/lib/libpacklib.a(zfatal.o)
 *fill*         0x0843d62c       0x14 00
 .data          0x0843d640       0x70 /cern/99/lib/libpacklib.a(zfatam.o)
 *fill*         0x0843d6b0       0x10 00
 .data          0x0843d6c0       0x72 /cern/99/lib/libpacklib.a(ztell.o)
 *fill*         0x0843d732        0x2 00
 *fill*         0x0843d734        0xc 00
 .data          0x0843d740       0x6b /cern/99/lib/libpacklib.a(zshunt.o)
 *fill*         0x0843d7ab       0x15 00
 .data          0x0843d7c0       0x43 /cern/99/lib/libpacklib.a(rzcdir.o)
 *fill*         0x0843d803        0x1 00
 *fill*         0x0843d804       0x1c 00
 .data          0x0843d820       0x83 /cern/99/lib/libpacklib.a(rzfdir.o)
 *fill*         0x0843d8a3       0x1d 00
 .data          0x0843d8c0       0x7c /cern/99/lib/libpacklib.a(rziodo.o)
 *fill*         0x0843d93c        0x4 00
 .data          0x0843d940       0x44 /cern/99/lib/libpacklib.a(rzstrir.o)
 .data          0x0843d984        0x4 /cern/99/lib/libpacklib.a(qnexte.o)
 .data          0x0843d988        0x4 /cern/99/lib/libpacklib.a(lenocc.o)
 .data          0x0843d98c        0x8 /cern/99/lib/libpacklib.a(ublow.o)
 .data          0x0843d994        0x8 /cern/99/lib/libpacklib.a(ubunch.o)
 .data          0x0843d99c        0x4 /cern/99/lib/libpacklib.a(vblank.o)
 .data          0x0843d9a0       0x14 /cern/99/lib/libpacklib.a(ffcard.o)
 .data          0x0843d9b4        0x4 /cern/99/lib/libpacklib.a(hbpqry.o)
 .data          0x0843d9b8        0xc /cern/99/lib/libpacklib.a(hropen.o)
 .data          0x0843d9c4       0x2d /cern/99/lib/libpacklib.a(hrzout.o)
 *fill*         0x0843d9f1        0x3 00
 *fill*         0x0843d9f4        0xc 00
 .data          0x0843da00      0x301 /cern/99/lib/libpacklib.a(fzidia.o)
 *fill*         0x0843dd01       0x1f 00
 .data          0x0843dd20      0x30a /cern/99/lib/libpacklib.a(fziffn.o)
 *fill*         0x0843e02a       0x16 00
 .data          0x0843e040      0x2cc /cern/99/lib/libpacklib.a(fziffx.o)
 *fill*         0x0843e30c       0x14 00
 .data          0x0843e320      0x15f /cern/99/lib/libpacklib.a(fzimtb.o)
 *fill*         0x0843e47f        0x1 00
 .data          0x0843e480      0x22d /cern/99/lib/libpacklib.a(fzirec.o)
 *fill*         0x0843e6ad        0x3 00
 .data          0x0843e6b0        0x8 /cern/99/lib/libpacklib.a(fzitrn.o)
 *fill*         0x0843e6b8        0x8 00
 .data          0x0843e6c0      0x324 /cern/99/lib/libpacklib.a(fzout.o)
 *fill*         0x0843e9e4       0x1c 00
 .data          0x0843ea00       0x58 /cern/99/lib/libpacklib.a(fzitrx.o)
 *fill*         0x0843ea58        0x8 00
 .data          0x0843ea60       0x71 /cern/99/lib/libpacklib.a(mzcopy.o)
 *fill*         0x0843ead1        0x3 00
 *fill*         0x0843ead4        0xc 00
 .data          0x0843eae0       0x5e /cern/99/lib/libpacklib.a(mzgarb.o)
 *fill*         0x0843eb3e        0x2 00
 .data          0x0843eb40        0x8 /cern/99/lib/libpacklib.a(mztabc.o)
 .data          0x0843eb48        0x8 /cern/99/lib/libpacklib.a(mztabh.o)
 .data          0x0843eb50        0x8 /cern/99/lib/libpacklib.a(mzdvac.o)
 .data          0x0843eb58       0x3c /cern/99/lib/libpacklib.a(mziocr.o)
 .data          0x0843eb94        0x8 /cern/99/lib/libpacklib.a(mzixco.o)
 *fill*         0x0843eb9c        0x4 00
 .data          0x0843eba0      0x146 /cern/99/lib/libpacklib.a(zphase.o)
 *fill*         0x0843ece6       0x1a 00
 .data          0x0843ed00      0x1e8 /cern/99/lib/libpacklib.a(zpostm.o)
 .data          0x0843eee8       0x34 /cern/99/lib/libpacklib.a(rzclos.o)
 *fill*         0x0843ef1c        0x4 00
 .data          0x0843ef20       0x80 /cern/99/lib/libpacklib.a(rzend.o)
 .data          0x0843efa0       0x47 /cern/99/lib/libpacklib.a(rzfree.o)
 *fill*         0x0843efe7       0x19 00
 .data          0x0843f000       0x8a /cern/99/lib/libpacklib.a(rzmdir.o)
 *fill*         0x0843f08a       0x16 00
 .data          0x0843f0a0       0x76 /cern/99/lib/libpacklib.a(rzmods.o)
 *fill*         0x0843f116        0xa 00
 .data          0x0843f120      0x4b1 /cern/99/lib/libpacklib.a(rzopen.o)
 *fill*         0x0843f5d1        0xf 00
 .data          0x0843f5e0      0x354 /cern/99/lib/libpacklib.a(rzout.o)
 *fill*         0x0843f934        0xc 00
 .data          0x0843f940       0x6c /cern/99/lib/libpacklib.a(rzstrip.o)
 .data          0x0843f9ac       0x3c /cern/99/lib/libpacklib.a(close.o)
 .data          0x0843f9e8       0x3c /cern/99/lib/libpacklib.a(error.o)
                0x0843fa20                rfio_errno
 .data          0x0843fa24       0x3d /cern/99/lib/libpacklib.a(lseek.o)
 *fill*         0x0843fa61        0x3 00
 .data          0x0843fa64       0x3c /cern/99/lib/libpacklib.a(open.o)
 .data          0x0843faa0       0x38 /cern/99/lib/libpacklib.a(parse.o)
 .data          0x0843fad8       0x40 /cern/99/lib/libpacklib.a(read.o)
 .data          0x0843fb18       0xbc /cern/99/lib/libpacklib.a(serror.o)
                0x0843fb50                sys_serrlist
 .data          0x0843fbd4       0x48 /cern/99/lib/libpacklib.a(setopt.o)
 .data          0x0843fc1c       0x64 /cern/99/lib/libpacklib.a(socket.o)
                0x0843fc7c                errfunc
                0x0843fc6c                recvfunc
                0x0843fc78                ioctlfunc
                0x0843fc70                sendfunc
                0x0843fc74                closefunc
                0x0843fc5c                iostats
 .data          0x0843fc80       0x3e /cern/99/lib/libpacklib.a(stream.o)
 *fill*         0x0843fcbe        0x2 00
 .data          0x0843fcc0       0x44 /cern/99/lib/libpacklib.a(trace.o)
 .data          0x0843fd04       0x3d /cern/99/lib/libpacklib.a(write.o)
 *fill*         0x0843fd41        0x3 00
 .data          0x0843fd44        0x4 /cern/99/lib/libpacklib.a(cfopei.o)
                0x0843fd44                cfopen_perm
 *fill*         0x0843fd48       0x18 00
 .data          0x0843fd60       0x79 /cern/99/lib/libpacklib.a(gshowf.o)
 *fill*         0x0843fdd9        0x3 00
 *fill*         0x0843fddc        0x4 00
 .data          0x0843fde0       0x57 /cern/99/lib/libpacklib.a(traceq.o)
 *fill*         0x0843fe37        0x1 00
 .data          0x0843fe38       0x14 /cern/99/lib/libpacklib.a(xinbf.o)
 .data          0x0843fe4c       0x14 /cern/99/lib/libpacklib.a(xinbs.o)
 .data          0x0843fe60       0x18 /cern/99/lib/libpacklib.a(halloc.o)
 .data          0x0843fe78      0x120 /cern/99/lib/libpacklib.a(dzsnap.o)
 *fill*         0x0843ff98        0x8 00
 .data          0x0843ffa0      0xae8 /cern/99/lib/libpacklib.a(dztext.o)
 .data          0x08440a88       0x14 /cern/99/lib/libpacklib.a(zpage.o)
 *fill*         0x08440a9c        0x4 00
 .data          0x08440aa0       0x5f /cern/99/lib/libpacklib.a(fzipha.o)
 *fill*         0x08440aff        0x1 00
 .data          0x08440b00       0x7c /cern/99/lib/libpacklib.a(fziphd.o)
 *fill*         0x08440b7c        0x4 00
 .data          0x08440b80       0x66 /cern/99/lib/libpacklib.a(fziphm.o)
 *fill*         0x08440be6       0x1a 00
 .data          0x08440c00       0x66 /cern/99/lib/libpacklib.a(fziphr.o)
 *fill*         0x08440c66       0x1a 00
 .data          0x08440c80       0x55 /cern/99/lib/libpacklib.a(fziprl.o)
 *fill*         0x08440cd5        0xb 00
 .data          0x08440ce0       0x6f /cern/99/lib/libpacklib.a(fzoffn.o)
 *fill*         0x08440d4f        0x1 00
 .data          0x08440d50        0x8 /cern/99/lib/libpacklib.a(fzoffx.o)
 .data          0x08440d58       0x14 /cern/99/lib/libpacklib.a(fzon1.o)
 .data          0x08440d6c       0x14 /cern/99/lib/libpacklib.a(fzon2.o)
 .data          0x08440d80       0x14 /cern/99/lib/libpacklib.a(fzon3.o)
 .data          0x08440d94       0x14 /cern/99/lib/libpacklib.a(fzon4.o)
 .data          0x08440da8       0x14 /cern/99/lib/libpacklib.a(fzon5.o)
 .data          0x08440dbc       0x14 /cern/99/lib/libpacklib.a(fzon6.o)
 .data          0x08440dd0        0x8 /cern/99/lib/libpacklib.a(fzorec.o)
 .data          0x08440dd8        0x8 /cern/99/lib/libpacklib.a(fzotab.o)
 .data          0x08440de0        0x8 /cern/99/lib/libpacklib.a(fzotrn.o)
 *fill*         0x08440de8       0x18 00
 .data          0x08440e00       0x58 /cern/99/lib/libpacklib.a(fzotrx.o)
 *fill*         0x08440e58        0x8 00
 .data          0x08440e60       0x5d /cern/99/lib/libpacklib.a(mzend.o)
 *fill*         0x08440ebd        0x3 00
 .data          0x08440ec0      0x12e /cern/99/lib/libpacklib.a(mzmaps.o)
 *fill*         0x08440fee        0x2 00
 .data          0x08440ff0        0x8 /cern/99/lib/libpacklib.a(mzmark.o)
 *fill*         0x08440ff8        0x8 00
 .data          0x08441000       0x58 /cern/99/lib/libpacklib.a(mzwork.o)
 *fill*         0x08441058        0x8 00
 .data          0x08441060       0x93 /cern/99/lib/libpacklib.a(rzallo.o)
 *fill*         0x084410f3        0xd 00
 .data          0x08441100       0xcb /cern/99/lib/libpacklib.a(rzdelk.o)
 *fill*         0x084411cb        0x1 00
 *fill*         0x084411cc       0x14 00
 .data          0x084411e0       0xe3 /cern/99/lib/libpacklib.a(rzfile.o)
 *fill*         0x084412c3       0x1d 00
 .data          0x084412e0       0x99 /cern/99/lib/libpacklib.a(rzllok.o)
 *fill*         0x08441379        0x7 00
 .data          0x08441380      0x1c8 /cern/99/lib/libpacklib.a(rzlock.o)
 *fill*         0x08441548       0x18 00
 .data          0x08441560      0x33c /cern/99/lib/libpacklib.a(rzmake.o)
 .data          0x0844189c       0x3c /cern/99/lib/libpacklib.a(rzveri.o)
 *fill*         0x084418d8        0x8 00
 .data          0x084418e0       0x74 /cern/99/lib/libpacklib.a(rzwrt.o)
 .data          0x08441954       0x37 /cern/99/lib/libpacklib.a(connect.o)
 *fill*         0x0844198b        0x1 00
 .data          0x0844198c       0x35 /cern/99/lib/libpacklib.a(getacct.o)
 *fill*         0x084419c1        0x3 00
 .data          0x084419c4       0x37 /cern/99/lib/libpacklib.a(getacctent.o)
 *fill*         0x084419fb        0x1 00
 .data          0x084419fc       0x38 /cern/99/lib/libpacklib.a(getconfent.o)
 .data          0x08441a34       0x3e /cern/99/lib/libpacklib.a(getifnam.o)
 *fill*         0x08441a72        0x2 00
 .data          0x08441a74       0x80 /cern/99/lib/libpacklib.a(log.o)
                0x08441af0                logfunc
 .data          0x08441af4       0x37 /cern/99/lib/libpacklib.a(remote.o)
 *fill*         0x08441b2b        0x1 00
 .data          0x08441b2c       0x3b /cern/99/lib/libpacklib.a(setnetio.o)
 *fill*         0x08441b67        0x1 00
 .data          0x08441b68      0x104 /cern/99/lib/libpacklib.a(dzare1.o)
 .data          0x08441c6c       0x78 /cern/99/lib/libpacklib.a(dzbkup.o)
 .data          0x08441ce4       0x48 /cern/99/lib/libpacklib.a(dzbkxr.o)
 .data          0x08441d2c      0x10c /cern/99/lib/libpacklib.a(dzdata.o)
 .data          0x08441e38       0x48 /cern/99/lib/libpacklib.a(dzmap.o)
 .data          0x08441e80       0x30 /cern/99/lib/libpacklib.a(dzshpr.o)
 .data          0x08441eb0       0x14 /cern/99/lib/libpacklib.a(dztyp.o)
 .data          0x08441ec4       0x20 /cern/99/lib/libpacklib.a(fziasc.o)
 *fill*         0x08441ee4       0x1c 00
 .data          0x08441f00       0xad /cern/99/lib/libpacklib.a(fzichh.o)
 *fill*         0x08441fad       0x13 00
 .data          0x08441fc0       0x78 /cern/99/lib/libpacklib.a(fzidum.o)
 *fill*         0x08442038        0x8 00
 .data          0x08442040       0x8f /cern/99/lib/libpacklib.a(fzophr.o)
 *fill*         0x084420cf        0x1 00
 *fill*         0x084420d0       0x10 00
 .data          0x084420e0      0x18c /cern/99/lib/libpacklib.a(rzver1.o)
 .data          0x0844226c       0x37 /cern/99/lib/libpacklib.a(stat.o)
 *fill*         0x084422a3        0x1 00
 .data          0x084422a4       0x30 /cern/99/lib/libpacklib.a(dzbkhd.o)
 .data          0x084422d4       0x18 /cern/99/lib/libpacklib.a(dziopr.o)
 .data          0x084422ec       0x2c /cern/99/lib/libpacklib.a(fzialn.o)
 .data          0x08442318       0x24 /cern/99/lib/libpacklib.a(fzoasc.o)
 *fill*         0x0844233c        0x4 00
 .data          0x08442340       0xc4 /cern/99/lib/libpacklib.a(rzprnk.o)
 .data          0x08442404       0x40 /cern/99/lib/libpacklib.a(mstat.o)
 .data          0x08442444       0xe4 /cern/99/lib/libpacklib.a(dziopd.o)
 .data          0x08442528      0x12c /cern/99/lib/libpacklib.a(dzioph.o)
 .data          0x08442654       0x14 /cern/99/lib/libpacklib.a(fzoaln.o)
 *fill*         0x08442668       0x18 00
 .data          0x08442680       0x6a /cern/99/lib/libmathlib.a(xerbla.o)
 *fill*         0x084426ea        0x2 00
 *fill*         0x084426ec       0x14 00
 .data          0x08442700      0x13f /cern/99/lib/libmathlib.a(dlamch.o)
 *fill*         0x0844283f        0x1 00
 .data          0x08442840        0x4 /cern/99/lib/libmathlib.a(dlartg.o)
 .data          0x08442844       0x88 /usr/lib/gcc-lib/i686-pc-linux-gnu/2.95.3/libg2c.a(err.o)
                0x08442844                F_err
 *fill*         0x084428cc       0x14 00
 .data          0x084428e0       0xa0 /usr/lib/gcc-lib/i686-pc-linux-gnu/2.95.3/libg2c.a(lread.o)
                0x084428e0                f__ltab
 .data          0x08442980       0x20 /usr/lib/gcc-lib/i686-pc-linux-gnu/2.95.3/libg2c.a(open.o)
                0x0844299c                f__buflen
                0x08442988                f__w_mode
                0x08442980                f__r_mode
 .data          0x084429a0        0x4 /usr/lib/gcc-lib/i686-pc-linux-gnu/2.95.3/libg2c.a(rdfmt.o)
 .data          0x084429a4       0x18 /usr/lib/gcc-lib/i686-pc-linux-gnu/2.95.3/libg2c.a(wrtfmt.o)
 .data          0x084429bc        0x4 /usr/lib/gcc-lib/i686-pc-linux-gnu/2.95.3/libg2c.a(F77_aloc.o)

.data1
 *(.data1)

.tdata
 *(.tdata .tdata.* .gnu.linkonce.td.*)

.tbss
 *(.tbss .tbss.* .gnu.linkonce.tb.*)
 *(.tcommon)

.eh_frame       0x084429c0        0x4
 *(.eh_frame)
 .eh_frame      0x084429c0        0x4 /usr/lib/gcc-lib/i686-pc-linux-gnu/2.95.3/crtend.o

.gcc_except_table
 *(.gcc_except_table)

.dynamic        0x084429c4       0xd8
 *(.dynamic)
 .dynamic       0x084429c4       0xd8 /usr/lib/crt1.o
                0x084429c4                _DYNAMIC

.ctors          0x08442a9c        0x8
 *crtbegin.o(.ctors)
 *(EXCLUDE_FILE(*crtend.o) .ctors)
 .ctors         0x08442a9c        0x4 /usr/lib/gcc-lib/i686-pc-linux-gnu/2.95.3/crtbegin.o
 *(SORT(.ctors.*))
 *(.ctors)
 .ctors         0x08442aa0        0x4 /usr/lib/gcc-lib/i686-pc-linux-gnu/2.95.3/crtend.o

.dtors          0x08442aa4        0x8
 *crtbegin.o(.dtors)
 *(EXCLUDE_FILE(*crtend.o) .dtors)
 .dtors         0x08442aa4        0x4 /usr/lib/gcc-lib/i686-pc-linux-gnu/2.95.3/crtbegin.o
 *(SORT(.dtors.*))
 *(.dtors)
 .dtors         0x08442aa8        0x4 /usr/lib/gcc-lib/i686-pc-linux-gnu/2.95.3/crtend.o

.jcr
 *(.jcr)

.got            0x08442aac      0x1e4
 *(.got.plt)
 .got.plt       0x08442aac      0x1dc /usr/lib/crt1.o
                0x08442aac                _GLOBAL_OFFSET_TABLE_
 *(.got)
 .got           0x08442c88        0x8 /usr/lib/crt1.o
                0x08442c90                _edata = .
                0x08442c90                PROVIDE (edata, .)
                0x08442c90                __bss_start = .

.bss            0x08442ca0   0x1f5aa4
 *(.dynbss)
 .dynbss        0x08442ca0      0x2ac /usr/lib/crt1.o
                0x08442ca0                _IO_stderr_@@GLIBC_2.0
                0x08442cf0                _IO_stdout_@@GLIBC_2.0
                0x08442d40                _errno@@GLIBC_2.0
                0x08442d44                stdout@@GLIBC_2.0
                0x08442d48                stderr@@GLIBC_2.0
                0x08442d4c                sys_nerr@@GLIBC_2.1
                0x08442d40                errno@@GLIBC_2.0
                0x08442d50                sys_errlist@@GLIBC_2.1
                0x08442f44                __ctype_b@@GLIBC_2.0
                0x08442f48                stdin@@GLIBC_2.0
 *(.bss .bss.* .gnu.linkonce.b.*)
 .bss           0x08442f4c       0x18 /usr/lib/gcc-lib/i686-pc-linux-gnu/2.95.3/crtbegin.o
 *fill*         0x08442f64       0x1c 00
 .bss           0x08442f80      0x4b0 /cern/99/lib/libpacklib.a(ffgo.o)
 *fill*         0x08443430       0x10 00
 .bss           0x08443440       0x30 /cern/99/lib/libpacklib.a(ffkey.o)
 .bss           0x08443470        0x8 /cern/99/lib/libpacklib.a(ffset.o)
 .bss           0x08443478        0x4 /cern/99/lib/libpacklib.a(ffskip.o)
 .bss           0x0844347c        0x8 /cern/99/lib/libpacklib.a(ffupca.o)
 *fill*         0x08443484       0x1c 00
 .bss           0x084434a0      0x120 /cern/99/lib/libpacklib.a(hrput.o)
 .bss           0x084435c0       0x44 /cern/99/lib/libpacklib.a(hbook1.o)
 .bss           0x08443604       0x4c /cern/99/lib/libpacklib.a(hbook2.o)
 .bss           0x08443650       0x38 /cern/99/lib/libpacklib.a(hbookb.o)
 .bss           0x08443688        0x8 /cern/99/lib/libpacklib.a(hbug.o)
 *fill*         0x08443690       0x10 00
 .bss           0x084436a0       0xa8 /cern/99/lib/libpacklib.a(hcdir.o)
 .bss           0x08443748       0x14 /cern/99/lib/libpacklib.a(hchnam.o)
 .bss           0x0844375c       0x10 /cern/99/lib/libpacklib.a(hdelet.o)
 .bss           0x0844376c        0x4 /cern/99/lib/libpacklib.a(hfill.o)
 .bss           0x08443770       0x28 /cern/99/lib/libpacklib.a(hfilpf.o)
 .bss           0x08443798       0x14 /cern/99/lib/libpacklib.a(hgive.o)
 *fill*         0x084437ac       0x14 00
 .bss           0x084437c0       0x88 /cern/99/lib/libpacklib.a(hidopt.o)
 .bss           0x08443848        0x4 /cern/99/lib/libpacklib.a(hlimit.o)
 .bss           0x0844384c        0x4 /cern/99/lib/libpacklib.a(hloop.o)
 .bss           0x08443850       0x20 /cern/99/lib/libpacklib.a(hmachi.o)
 .bss           0x08443870        0x4 /cern/99/lib/libpacklib.a(hnoent.o)
 .bss           0x08443874       0x94 /cern/99/lib/libpacklib.a(hopera.o)
 .bss           0x08443908       0x20 /cern/99/lib/libpacklib.a(hpaff.o)
 .bss           0x08443928       0x18 /cern/99/lib/libpacklib.a(hpak.o)
 .bss           0x08443940        0xc /cern/99/lib/libpacklib.a(hpake.o)
 .bss           0x0844394c       0x14 /cern/99/lib/libpacklib.a(hpath.o)
 .bss           0x08443960       0x78 /cern/99/lib/libpacklib.a(hrebin.o)
 *fill*         0x084439d8        0x8 00
 .bss           0x084439e0       0x84 /cern/99/lib/libpacklib.a(hreset.o)
 .bss           0x08443a64        0x8 /cern/99/lib/libpacklib.a(hrez0.o)
 .bss           0x08443a6c        0x4 /cern/99/lib/libpacklib.a(hstaf.o)
 .bss           0x08443a70       0x68 /cern/99/lib/libpacklib.a(hsupis.o)
 .bss           0x08443ad8        0xc /cern/99/lib/libpacklib.a(huoptc.o)
 *fill*         0x08443ae4       0x1c 00
 .bss           0x08443b00      0x208 /cern/99/lib/libpacklib.a(hlogpf.o)
 .bss           0x08443d08        0x8 /cern/99/lib/libpacklib.a(hoptpf.o)
 *fill*         0x08443d10       0x10 00
 .bss           0x08443d20       0x2c /cern/99/lib/libpacklib.a(hitoc.o)
 *fill*         0x08443d4c       0x14 00
 .bss           0x08443d60       0x6c /cern/99/lib/libpacklib.a(hntrset.o)
 .bss           0x08443dcc       0x34 /cern/99/lib/libpacklib.a(fzin.o)
 .bss           0x08443e00       0x24 /cern/99/lib/libpacklib.a(fzirel.o)
 .bss           0x08443e24       0x1c /cern/99/lib/libpacklib.a(fzloc.o)
 .bss           0x08443e40       0x14 /cern/99/lib/libpacklib.a(mzbook.o)
 .bss           0x08443e54       0x20 /cern/99/lib/libpacklib.a(mzdrop.o)
 .bss           0x08443e74       0x3c /cern/99/lib/libpacklib.a(mzflag.o)
 .bss           0x08443eb0       0x20 /cern/99/lib/libpacklib.a(mzinco.o)
 .bss           0x08443ed0       0x60 /cern/99/lib/libpacklib.a(mzlift.o)
 .bss           0x08443f30       0x74 /cern/99/lib/libpacklib.a(mzlink.o)
 .bss           0x08443fa4       0x14 /cern/99/lib/libpacklib.a(mzneed.o)
 .bss           0x08443fb8        0x4 /cern/99/lib/libpacklib.a(mzpaw.o)
 .bss           0x08443fbc       0x78 /cern/99/lib/libpacklib.a(mzpush.o)
 .bss           0x08444034       0x6c /cern/99/lib/libpacklib.a(mzstor.o)
 .bss           0x084440a0       0x1c /cern/99/lib/libpacklib.a(mzgar1.o)
 .bss           0x084440bc        0xc /cern/99/lib/libpacklib.a(mzgsta.o)
 .bss           0x084440c8       0x44 /cern/99/lib/libpacklib.a(mzmove.o)
 .bss           0x0844410c       0x68 /cern/99/lib/libpacklib.a(mzrelb.o)
 .bss           0x08444174       0x60 /cern/99/lib/libpacklib.a(mzrell.o)
 .bss           0x084441d4        0x4 /cern/99/lib/libpacklib.a(mzrelx.o)
 .bss           0x084441d8       0x50 /cern/99/lib/libpacklib.a(mztabf.o)
 .bss           0x08444228       0x14 /cern/99/lib/libpacklib.a(mztabm.o)
 .bss           0x0844423c       0x14 /cern/99/lib/libpacklib.a(mztabr.o)
 .bss           0x08444250       0x10 /cern/99/lib/libpacklib.a(mztabs.o)
 .bss           0x08444260       0x20 /cern/99/lib/libpacklib.a(mztabx.o)
 .bss           0x08444280       0x1c /cern/99/lib/libpacklib.a(mzchln.o)
 .bss           0x0844429c       0x14 /cern/99/lib/libpacklib.a(mzchls.o)
 .bss           0x084442b0        0x4 /cern/99/lib/libpacklib.a(mzchnb.o)
 .bss           0x084442b4       0x18 /cern/99/lib/libpacklib.a(mzfdiv.o)
 .bss           0x084442cc       0x40 /cern/99/lib/libpacklib.a(mzform.o)
 .bss           0x0844430c       0x70 /cern/99/lib/libpacklib.a(mzioch.o)
 .bss           0x0844437c       0x10 /cern/99/lib/libpacklib.a(mzresv.o)
 .bss           0x0844438c       0x24 /cern/99/lib/libpacklib.a(mzsdiv.o)
 .bss           0x084443b0       0x18 /cern/99/lib/libpacklib.a(zfatal.o)
 .bss           0x084443c8        0xc /cern/99/lib/libpacklib.a(ztell.o)
 .bss           0x084443d4       0x20 /cern/99/lib/libpacklib.a(izbcdt.o)
 .bss           0x084443f4        0xc /cern/99/lib/libpacklib.a(izhnum.o)
 .bss           0x08444400       0x3c /cern/99/lib/libpacklib.a(zshunt.o)
 .bss           0x0844443c       0x50 /cern/99/lib/libpacklib.a(rzcdir.o)
 .bss           0x0844448c       0x38 /cern/99/lib/libpacklib.a(rzdate.o)
 .bss           0x084444c4       0x64 /cern/99/lib/libpacklib.a(rzfdir.o)
 .bss           0x08444528       0x24 /cern/99/lib/libpacklib.a(rziodo.o)
 *fill*         0x0844454c       0x14 00
 .bss           0x08444560      0x120 /cern/99/lib/libpacklib.a(rzpaff.o)
 .bss           0x08444680       0x18 /cern/99/lib/libpacklib.a(rzpath.o)
 .bss           0x08444698       0x38 /cern/99/lib/libpacklib.a(rzrtop.o)
 .bss           0x084446d0        0x4 /cern/99/lib/libpacklib.a(rzsame.o)
 .bss           0x084446d4       0x5c /cern/99/lib/libpacklib.a(rzsave.o)
 .bss           0x08444730       0x1c /cern/99/lib/libpacklib.a(rzstrir.o)
 .bss           0x0844474c        0x4 /cern/99/lib/libpacklib.a(jumpxn.o)
 *fill*         0x08444750       0x10 00
 .bss           0x08444760       0x9c /cern/99/lib/libpacklib.a(qnexte.o)
 .bss           0x084447fc       0x18 /cern/99/lib/libpacklib.a(cfopen.o)
 .bss           0x08444814       0x10 /cern/99/lib/libpacklib.a(cleft.o)
 .bss           0x08444824        0x8 /cern/99/lib/libpacklib.a(cltou.o)
 .bss           0x0844482c        0x8 /cern/99/lib/libpacklib.a(cutol.o)
 .bss           0x08444834       0x14 /cern/99/lib/libpacklib.a(floarg.o)
 .bss           0x08444848       0x14 /cern/99/lib/libpacklib.a(intarg.o)
 .bss           0x0844485c        0x8 /cern/99/lib/libpacklib.a(uoptc.o)
 .bss           0x08444864       0x1c /cern/99/lib/libpacklib.a(utrans.o)
 .bss           0x08444880        0x4 /cern/99/lib/libpacklib.a(iucomp.o)
 .bss           0x08444884        0x8 /cern/99/lib/libpacklib.a(sbit0.o)
 .bss           0x0844488c        0x8 /cern/99/lib/libpacklib.a(sbit1.o)
 .bss           0x08444894       0x18 /cern/99/lib/libpacklib.a(ublow.o)
 .bss           0x084448ac       0x18 /cern/99/lib/libpacklib.a(ubunch.o)
 .bss           0x084448c4        0x4 /cern/99/lib/libpacklib.a(ucopy.o)
 .bss           0x084448c8       0x14 /cern/99/lib/libpacklib.a(uctoh.o)
 .bss           0x084448dc        0x8 /cern/99/lib/libpacklib.a(uctoh1.o)
 .bss           0x084448e4       0x14 /cern/99/lib/libpacklib.a(uhtoc.o)
 .bss           0x084448f8        0x4 /cern/99/lib/libpacklib.a(vblank.o)
 .bss           0x084448fc        0x4 /cern/99/lib/libpacklib.a(vfill.o)
 .bss           0x08444900        0x4 /cern/99/lib/libpacklib.a(vzero.o)
 .bss           0x08444904        0x8 /cern/99/lib/libpacklib.a(jbit.o)
 .bss           0x0844490c        0x4 /cern/99/lib/libpacklib.a(jbyt.o)
 .bss           0x08444910        0x8 /cern/99/lib/libpacklib.a(sbyt.o)
 .bss           0x08444918        0xc /cern/99/lib/libpacklib.a(locati.o)
 *fill*         0x08444924       0x1c 00
 .bss           0x08444940       0xac /cern/99/lib/libpacklib.a(czgeta.o)
 *fill*         0x084449ec       0x14 00
 .bss           0x08444a00       0xac /cern/99/lib/libpacklib.a(czputa.o)
 .bss           0x08444aac       0x44 /cern/99/lib/libpacklib.a(ffcard.o)
 *fill*         0x08444af0       0x10 00
 .bss           0x08444b00       0x44 /cern/99/lib/libpacklib.a(fffind.o)
 *fill*         0x08444b44        0x4 00
 .bss           0x08444b48       0x30 /cern/99/lib/libpacklib.a(hqputf.o)
 .bss           0x08444b78        0xc /cern/99/lib/libpacklib.a(hrendc.o)
 .bss           0x08444b84       0x18 /cern/99/lib/libpacklib.a(hropen.o)
 *fill*         0x08444b9c        0x4 00
 .bss           0x08444ba0      0x228 /cern/99/lib/libpacklib.a(hrout.o)
 *fill*         0x08444dc8       0x18 00
 .bss           0x08444de0      0x198 /cern/99/lib/libpacklib.a(hrzout.o)
 .bss           0x08444f78       0x24 /cern/99/lib/libpacklib.a(hbar2.o)
 .bss           0x08444f9c       0x1c /cern/99/lib/libpacklib.a(hbarx.o)
 .bss           0x08444fb8       0x1c /cern/99/lib/libpacklib.a(hbary.o)
 .bss           0x08444fd4       0x28 /cern/99/lib/libpacklib.a(hbin.o)
 .bss           0x08444ffc       0x24 /cern/99/lib/libpacklib.a(hcopy.o)
 .bss           0x08445020       0x40 /cern/99/lib/libpacklib.a(hcx.o)
 .bss           0x08445060       0x18 /cern/99/lib/libpacklib.a(hcxy.o)
 .bss           0x08445078        0x4 /cern/99/lib/libpacklib.a(hdcofl.o)
 *fill*         0x0844507c        0x4 00
 .bss           0x08445080       0x34 /cern/99/lib/libpacklib.a(hf1.o)
 .bss           0x084450b4       0x4c /cern/99/lib/libpacklib.a(hf1aut.o)
 .bss           0x08445100       0x2c /cern/99/lib/libpacklib.a(hf2.o)
 *fill*         0x0844512c        0x4 00
 .bss           0x08445130       0x2c /cern/99/lib/libpacklib.a(hfcx.o)
 .bss           0x0844515c       0x14 /cern/99/lib/libpacklib.a(hfcxy.o)
 .bss           0x08445170        0x8 /cern/99/lib/libpacklib.a(hfidp.o)
 .bss           0x08445178        0x4 /cern/99/lib/libpacklib.a(hfind.o)
 .bss           0x0844517c        0x4 /cern/99/lib/libpacklib.a(hie.o)
 .bss           0x08445180        0x8 /cern/99/lib/libpacklib.a(hix.o)
 .bss           0x08445188       0x28 /cern/99/lib/libpacklib.a(hlabeq.o)
 *fill*         0x084451b0       0x10 00
 .bss           0x084451c0       0x84 /cern/99/lib/libpacklib.a(hmdir.o)
 *fill*         0x08445244       0x1c 00
 .bss           0x08445260       0x98 /cern/99/lib/libpacklib.a(hoper1.o)
 .bss           0x084452f8       0x1c /cern/99/lib/libpacklib.a(hoper1a.o)
 *fill*         0x08445314        0xc 00
 .bss           0x08445320      0x1a4 /cern/99/lib/libpacklib.a(hnbfwr.o)
 .bss           0x084454c4       0x10 /cern/99/lib/libpacklib.a(hnmset.o)
 *fill*         0x084454d4        0xc 00
 .bss           0x084454e0       0x90 /cern/99/lib/libpacklib.a(hntdel.o)
 .bss           0x08445570       0x2c /cern/99/lib/libpacklib.a(fzidia.o)
 .bss           0x0844559c       0x50 /cern/99/lib/libpacklib.a(fziffn.o)
 .bss           0x084455ec       0x4c /cern/99/lib/libpacklib.a(fziffx.o)
 .bss           0x08445638       0x18 /cern/99/lib/libpacklib.a(fzilin.o)
 *fill*         0x08445650       0x10 00
 .bss           0x08445660      0x180 /cern/99/lib/libpacklib.a(fzimtb.o)
 .bss           0x084457e0       0x38 /cern/99/lib/libpacklib.a(fzirec.o)
 .bss           0x08445818       0x14 /cern/99/lib/libpacklib.a(fzitrn.o)
 .bss           0x0844582c       0x4c /cern/99/lib/libpacklib.a(fzout.o)
 .bss           0x08445878        0x4 /cern/99/lib/libpacklib.a(fzitrx.o)
 .bss           0x0844587c       0x70 /cern/99/lib/libpacklib.a(mzcopy.o)
 .bss           0x084458ec       0x24 /cern/99/lib/libpacklib.a(mzpudx.o)
 .bss           0x08445910       0x48 /cern/99/lib/libpacklib.a(mzfgap.o)
 .bss           0x08445958       0x10 /cern/99/lib/libpacklib.a(mzgarb.o)
 .bss           0x08445968       0x18 /cern/99/lib/libpacklib.a(mztabc.o)
 .bss           0x08445980       0x10 /cern/99/lib/libpacklib.a(mztabh.o)
 .bss           0x08445990       0x24 /cern/99/lib/libpacklib.a(mzdvac.o)
 .bss           0x084459b4        0xc /cern/99/lib/libpacklib.a(mziocf.o)
 .bss           0x084459c0       0x40 /cern/99/lib/libpacklib.a(mziocr.o)
 .bss           0x08445a00       0x28 /cern/99/lib/libpacklib.a(mzixco.o)
 .bss           0x08445a28       0x10 /cern/99/lib/libpacklib.a(zphase.o)
 .bss           0x08445a38        0x8 /cern/99/lib/libpacklib.a(zpostm.o)
 .bss           0x08445a40       0x1c /cern/99/lib/libpacklib.a(zhtoi.o)
 .bss           0x08445a5c       0x54 /cern/99/lib/libpacklib.a(rzclos.o)
 .bss           0x08445ab0       0x28 /cern/99/lib/libpacklib.a(rzend.o)
 .bss           0x08445ad8       0x38 /cern/99/lib/libpacklib.a(rzfree.o)
 .bss           0x08445b10       0x7c /cern/99/lib/libpacklib.a(rzmdir.o)
 *fill*         0x08445b8c       0x14 00
 .bss           0x08445ba0      0x110 /cern/99/lib/libpacklib.a(rzmods.o)
 *fill*         0x08445cb0       0x10 00
 .bss           0x08445cc0      0x254 /cern/99/lib/libpacklib.a(rzopen.o)
 *fill*         0x08445f14        0xc 00
 .bss           0x08445f20       0xb8 /cern/99/lib/libpacklib.a(rzout.o)
 *fill*         0x08445fd8        0x8 00
 .bss           0x08445fe0       0x9c /cern/99/lib/libpacklib.a(rzstrip.o)
 .bss           0x0844607c       0x28 /cern/99/lib/libpacklib.a(rzused.o)
 .bss           0x084460a4      0x200 /cern/99/lib/libpacklib.a(error.o)
 .bss           0x084462a4      0x800 /cern/99/lib/libpacklib.a(parse.o)
 .bss           0x08446aa4       0x50 /cern/99/lib/libpacklib.a(serror.o)
 .bss           0x08446af4       0xa0 /cern/99/lib/libpacklib.a(socket.o)
 .bss           0x08446b94      0x100 /cern/99/lib/libpacklib.a(stream.o)
 .bss           0x08446c94        0x4 /cern/99/lib/libpacklib.a(cfstat.o)
 .bss           0x08446c98        0x4 /cern/99/lib/libpacklib.a(gshowf.o)
 .bss           0x08446c9c        0x8 /cern/99/lib/libpacklib.a(icluns.o)
 .bss           0x08446ca4        0x4 /cern/99/lib/libpacklib.a(traceq.o)
 .bss           0x08446ca8        0x4 /cern/99/lib/libpacklib.a(xinbf.o)
 .bss           0x08446cac        0xc /cern/99/lib/libpacklib.a(xinbs.o)
 .bss           0x08446cb8       0x40 /cern/99/lib/libpacklib.a(hrfile.o)
 .bss           0x08446cf8       0x70 /cern/99/lib/libpacklib.a(hfc1.o)
 *fill*         0x08446d68       0x18 00
 .bss           0x08446d80       0x40 /cern/99/lib/libpacklib.a(hlccmp.o)
 .bss           0x08446dc0       0x28 /cern/99/lib/libpacklib.a(hlgnxt.o)
 *fill*         0x08446de8       0x18 00
 .bss           0x08446e00       0x80 /cern/99/lib/libpacklib.a(hlhcmp.o)
 .bss           0x08446e80       0x48 /cern/99/lib/libpacklib.a(hlpos.o)
 .bss           0x08446ec8       0x28 /cern/99/lib/libpacklib.a(dzsnap.o)
 .bss           0x08446ef0        0x8 /cern/99/lib/libpacklib.a(dztext.o)
 .bss           0x08446ef8        0x4 /cern/99/lib/libpacklib.a(zpage.o)
 .bss           0x08446efc       0x14 /cern/99/lib/libpacklib.a(fzipha.o)
 .bss           0x08446f10       0x3c /cern/99/lib/libpacklib.a(fziphd.o)
 .bss           0x08446f4c       0x24 /cern/99/lib/libpacklib.a(fziphm.o)
 .bss           0x08446f70       0x44 /cern/99/lib/libpacklib.a(fziphr.o)
 .bss           0x08446fb4        0x8 /cern/99/lib/libpacklib.a(fziprl.o)
 .bss           0x08446fbc       0x90 /cern/99/lib/libpacklib.a(fzoffn.o)
 .bss           0x0844704c       0x30 /cern/99/lib/libpacklib.a(fzoffx.o)
 .bss           0x0844707c       0x40 /cern/99/lib/libpacklib.a(fzorec.o)
 .bss           0x084470bc       0x3c /cern/99/lib/libpacklib.a(fzotab.o)
 .bss           0x084470f8       0x10 /cern/99/lib/libpacklib.a(fzotrn.o)
 .bss           0x08447108        0xc /cern/99/lib/libpacklib.a(fzotxt.o)
 .bss           0x08447114       0x3c /cern/99/lib/libpacklib.a(fzicv.o)
 .bss           0x08447150       0x14 /cern/99/lib/libpacklib.a(mzend.o)
 .bss           0x08447164       0x4c /cern/99/lib/libpacklib.a(mzmaps.o)
 .bss           0x084471b0       0x48 /cern/99/lib/libpacklib.a(mzmark.o)
 .bss           0x084471f8       0x28 /cern/99/lib/libpacklib.a(mzwork.o)
 .bss           0x08447220       0x1c /cern/99/lib/libpacklib.a(zitoh.o)
 .bss           0x0844723c       0x20 /cern/99/lib/libpacklib.a(rzallo.o)
 .bss           0x0844725c       0xd8 /cern/99/lib/libpacklib.a(rzdelk.o)
 .bss           0x08447334       0x50 /cern/99/lib/libpacklib.a(rzexpd.o)
 *fill*         0x08447384       0x1c 00
 .bss           0x084473a0       0x90 /cern/99/lib/libpacklib.a(rzfile.o)
 *fill*         0x08447430       0x10 00
 .bss           0x08447440      0x108 /cern/99/lib/libpacklib.a(rzllok.o)
 .bss           0x08447548       0x88 /cern/99/lib/libpacklib.a(rzlock.o)
 .bss           0x084475d0       0x9c /cern/99/lib/libpacklib.a(rzmake.o)
 .bss           0x0844766c       0x20 /cern/99/lib/libpacklib.a(rzobkn.o)
 .bss           0x0844768c       0x24 /cern/99/lib/libpacklib.a(rzpurf.o)
 *fill*         0x084476b0       0x10 00
 .bss           0x084476c0      0x3b8 /cern/99/lib/libpacklib.a(rzveri.o)
 .bss           0x08447a78       0x14 /cern/99/lib/libpacklib.a(rzwrt.o)
 .bss           0x08447a8c      0x100 /cern/99/lib/libpacklib.a(connect.o)
 .bss           0x08447b8c     0x2000 /cern/99/lib/libpacklib.a(getacct.o)
 .bss           0x08449b8c     0x4000 /cern/99/lib/libpacklib.a(getacctent.o)
 .bss           0x0844db8c     0x4001 /cern/99/lib/libpacklib.a(getconfent.o)
 *fill*         0x08451b8d        0x3 00
 .bss           0x08451b90       0x10 /cern/99/lib/libpacklib.a(getifnam.o)
 .bss           0x08451ba0       0x48 /cern/99/lib/libpacklib.a(log.o)
 .bss           0x08451be8       0x68 /cern/99/lib/libpacklib.a(dzare1.o)
 *fill*         0x08451c50       0x10 00
 .bss           0x08451c60      0x36c /cern/99/lib/libpacklib.a(dzbkup.o)
 .bss           0x08451fcc       0x38 /cern/99/lib/libpacklib.a(dzbkxr.o)
 .bss           0x08452004       0x54 /cern/99/lib/libpacklib.a(dzdata.o)
 .bss           0x08452058       0x30 /cern/99/lib/libpacklib.a(dzmap.o)
 .bss           0x08452088        0x8 /cern/99/lib/libpacklib.a(dzopt.o)
 .bss           0x08452090       0x30 /cern/99/lib/libpacklib.a(dzshpr.o)
 .bss           0x084520c0       0x20 /cern/99/lib/libpacklib.a(dztyp.o)
 .bss           0x084520e0       0x84 /cern/99/lib/libpacklib.a(fziasc.o)
 .bss           0x08452164       0x18 /cern/99/lib/libpacklib.a(fzichh.o)
 .bss           0x0845217c       0x10 /cern/99/lib/libpacklib.a(fzidum.o)
 .bss           0x0845218c       0x38 /cern/99/lib/libpacklib.a(fzophr.o)
 .bss           0x084521c4       0x30 /cern/99/lib/libpacklib.a(fzocv.o)
 .bss           0x084521f4        0xc /cern/99/lib/libpacklib.a(izbcd.o)
 .bss           0x08452200        0x4 /cern/99/lib/libpacklib.a(rzdlok.o)
 *fill*         0x08452204       0x1c 00
 .bss           0x08452220      0x324 /cern/99/lib/libpacklib.a(rzver1.o)
 .bss           0x08452544       0x2c /cern/99/lib/libpacklib.a(rzver2.o)
 .bss           0x08452570       0x10 /cern/99/lib/libpacklib.a(iumode.o)
 .bss           0x08452580        0x4 /cern/99/lib/libpacklib.a(iufind.o)
 .bss           0x08452584        0xc /cern/99/lib/libpacklib.a(iusame.o)
 .bss           0x08452590        0xc /cern/99/lib/libpacklib.a(jrsbyt.o)
 .bss           0x0845259c        0x8 /cern/99/lib/libpacklib.a(ucopiv.o)
 .bss           0x084525a4        0x6 /cern/99/lib/libpacklib.a(dzbkdv.o)
 *fill*         0x084525aa        0x2 00
 .bss           0x084525ac       0x20 /cern/99/lib/libpacklib.a(dzbkhd.o)
 .bss           0x084525cc        0x6 /cern/99/lib/libpacklib.a(dziopr.o)
 *fill*         0x084525d2        0x2 00
 .bss           0x084525d4       0x18 /cern/99/lib/libpacklib.a(fzialn.o)
 .bss           0x084525ec       0x6c /cern/99/lib/libpacklib.a(fzoasc.o)
 .bss           0x08452658        0xc /cern/99/lib/libpacklib.a(izchav.o)
 *fill*         0x08452664       0x1c 00
 .bss           0x08452680      0x234 /cern/99/lib/libpacklib.a(rzprnk.o)
 .bss           0x084528b4      0x3ec /cern/99/lib/libpacklib.a(mstat.o)
 .bss           0x08452ca0       0x58 /cern/99/lib/libpacklib.a(dziopd.o)
 .bss           0x08452cf8       0x40 /cern/99/lib/libpacklib.a(dzioph.o)
 .bss           0x08452d38        0xc /cern/99/lib/libpacklib.a(fzoaln.o)
 .bss           0x08452d44       0x34 /cern/99/lib/libpacklib.a(fzoapk.o)
 .bss           0x08452d78        0x8 /cern/99/lib/libpacklib.a(uh1toc.o)
 .bss           0x08452d80       0x68 /cern/99/lib/libmathlib.a(dsyev.o)
 .bss           0x08452de8       0x28 /cern/99/lib/libmathlib.a(dsytrd.o)
 .bss           0x08452e10       0x30 /cern/99/lib/libmathlib.a(ilaenv.o)
 .bss           0x08452e40        0xc /cern/99/lib/libmathlib.a(lsame.o)
 .bss           0x08452e4c       0x10 /cern/99/lib/libmathlib.a(dscal.o)
 *fill*         0x08452e5c        0x4 00
 .bss           0x08452e60       0x28 /cern/99/lib/libmathlib.a(dsyr2k.o)
 .bss           0x08452e88      0x208 /cern/99/lib/libmathlib.a(dlamch.o)
 .bss           0x08453090       0x28 /cern/99/lib/libmathlib.a(dlansy.o)
 .bss           0x084530b8       0x58 /cern/99/lib/libmathlib.a(dlascl.o)
 .bss           0x08453110       0x10 /cern/99/lib/libmathlib.a(dlassq.o)
 .bss           0x08453120       0x10 /cern/99/lib/libmathlib.a(dlatrd.o)
 .bss           0x08453130       0x10 /cern/99/lib/libmathlib.a(dorgtr.o)
 .bss           0x08453140       0xd8 /cern/99/lib/libmathlib.a(dsteqr.o)
 .bss           0x08453218       0xe8 /cern/99/lib/libmathlib.a(dsterf.o)
 .bss           0x08453300       0x18 /cern/99/lib/libmathlib.a(dsytd2.o)
 .bss           0x08453318       0x14 /cern/99/lib/libmathlib.a(daxpy.o)
 *fill*         0x0845332c        0x4 00
 .bss           0x08453330       0x1c /cern/99/lib/libmathlib.a(ddot.o)
 *fill*         0x0845334c        0x4 00
 .bss           0x08453350       0x34 /cern/99/lib/libmathlib.a(dgemv.o)
 *fill*         0x08453384        0x4 00
 .bss           0x08453388       0x1c /cern/99/lib/libmathlib.a(dswap.o)
 *fill*         0x084533a4        0x4 00
 .bss           0x084533a8       0x34 /cern/99/lib/libmathlib.a(dsymv.o)
 *fill*         0x084533dc        0x4 00
 .bss           0x084533e0       0x34 /cern/99/lib/libmathlib.a(dsyr2.o)
 *fill*         0x08453414        0x4 00
 .bss           0x08453418       0x40 /cern/99/lib/libmathlib.a(dlae2.o)
 .bss           0x08453458       0x68 /cern/99/lib/libmathlib.a(dlaev2.o)
 .bss           0x084534c0       0x20 /cern/99/lib/libmathlib.a(dlanst.o)
 .bss           0x084534e0       0x20 /cern/99/lib/libmathlib.a(dlapy2.o)
 .bss           0x08453500       0x28 /cern/99/lib/libmathlib.a(dlarfg.o)
 .bss           0x08453528       0x40 /cern/99/lib/libmathlib.a(dlartg.o)
 .bss           0x08453568        0x8 /cern/99/lib/libmathlib.a(dlaset.o)
 .bss           0x08453570       0x28 /cern/99/lib/libmathlib.a(dlasr.o)
 *fill*         0x08453598        0x8 00
 .bss           0x084535a0      0x140 /cern/99/lib/libmathlib.a(dlasrt.o)
 .bss           0x084536e0       0x2c /cern/99/lib/libmathlib.a(dorgql.o)
 .bss           0x0845370c       0x30 /cern/99/lib/libmathlib.a(dorgqr.o)
 *fill*         0x0845373c        0x4 00
 .bss           0x08453740       0x28 /cern/99/lib/libmathlib.a(dnrm2.o)
 .bss           0x08453768        0xc /cern/99/lib/libmathlib.a(dlarfb.o)
 *fill*         0x08453774        0x4 00
 .bss           0x08453778       0x10 /cern/99/lib/libmathlib.a(dlarft.o)
 .bss           0x08453788       0x10 /cern/99/lib/libmathlib.a(dorg2l.o)
 .bss           0x08453798        0xc /cern/99/lib/libmathlib.a(dorg2r.o)
 .bss           0x084537a4       0x14 /cern/99/lib/libmathlib.a(dcopy.o)
 .bss           0x084537b8       0x30 /cern/99/lib/libmathlib.a(dgemm.o)
 .bss           0x084537e8       0x28 /cern/99/lib/libmathlib.a(dtrmm.o)
 .bss           0x08453810       0x24 /cern/99/lib/libmathlib.a(dtrmv.o)
 *fill*         0x08453834        0x4 00
 .bss           0x08453838       0x20 /cern/99/lib/libmathlib.a(dger.o)
 .bss           0x08453858        0xc /usr/lib/gcc-lib/i686-pc-linux-gnu/2.95.3/libg2c.a(close.o)
 *fill*         0x08453864       0x1c 00
 .bss           0x08453880     0x12c0 /usr/lib/gcc-lib/i686-pc-linux-gnu/2.95.3/libg2c.a(fmt.o)
 .bss           0x08454b40        0xc /usr/lib/gcc-lib/i686-pc-linux-gnu/2.95.3/libg2c.a(lread.o)
 *fill*         0x08454b4c       0x14 00
 .bss           0x08454b60      0x1a0 /usr/lib/gcc-lib/i686-pc-linux-gnu/2.95.3/libg2c.a(open.o)
 .bss           0x08454d00      0x100 /usr/lib/gcc-lib/i686-pc-linux-gnu/2.95.3/libg2c.a(rdfmt.o)
 .bss           0x08454e00       0x18 /usr/lib/gcc-lib/i686-pc-linux-gnu/2.95.3/libg2c.a(fmtlib.o)
 *(COMMON)
 *fill*         0x08454e18        0x8 00
 COMMON         0x08454e20   0x12cf08 mchw59_105j.o
                                  0x0 (size before relaxing)
                0x08454e20                pawc_
                0x08518320                gujets_
                0x08552cc0                mcuffr_
                0x08552d40                mcffr_
                0x08552f20                hepevt_
 *fill*         0x08581d28       0x18 00
 COMMON         0x08581d40     0xdac4 /home/pcl2483/pedro/jadesoft/util/mcgen/Plib/libmc105j.a(mcgeth.o)
                                  0x0 (size before relaxing)
                0x08581d40                lujets_
 *fill*         0x0858f804       0x1c 00
 COMMON         0x0858f820     0xa760 /home/pcl2483/pedro/jadesoft/util/mcgen/Plib/libmc105j.a(evwrtj.o)
                                  0x0 (size before relaxing)
                0x0858f820                chcprd_
                0x08592a20                cprod_
 COMMON         0x08599f80      0x1e0 /home/pcl2483/pedro/jadesoft/util/mcgen/Plib/libmc105j.a(jtconv.o)
                                  0x0 (size before relaxing)
                0x08599f80                ludat1_
 COMMON         0x0859a160    0x486f0 /home/pcl2483/pedro/jadesoft/util/mcgen/Plib/libherwig59.a(fxhlms.o)
                                  0x0 (size before relaxing)
                0x0859a160                hwbeam_
                0x0859a180                hwdist_
                0x0859a220                hwuwts_
                0x0859b260                hwprch_
                0x0859b2a0                hwqdks_
                0x0859b5e0                hwparc_
                0x0859d520                hwbmch_
                0x0859d540                hwhard_
                0x0859d9c0                hwbrch_
                0x0859da60                hwbosc_
                0x085a96e0                hwpart_
                0x085b5280                hwproc_
                0x085b52c0                hwevnt_
                0x085b7280                hwuclu_
                0x085c3de0                hwusud_
                0x085dbe00                hwpram_
                0x085dc2c0                hwparp_
 COMMON         0x085e2850        0x4 /home/pcl2483/pedro/jadesoft/util/mcgen/Plib/libherwig59.a(h59driv.o)
                                  0x0 (size before relaxing)
                0x085e2850                cl1dec_
 *fill*         0x085e2854        0xc 00
 COMMON         0x085e2860     0xfa00 /home/pcl2483/pedro/jadesoft/util/mcgen/Plib/libherwig59.a(hwcfor.o)
                                  0x0 (size before relaxing)
                0x085e2860                hwcfrm_
 COMMON         0x085f2260      0x2d8 /home/pcl2483/pedro/jadesoft/util/mcgen/Plib/libherwig59.a(hwhbgf.o)
                                  0x0 (size before relaxing)
                0x085f2260                hwarea_
 *fill*         0x085f2538        0x8 00
 COMMON         0x085f2540     0x2ca0 /home/pcl2483/pedro/jadesoft/util/mcgen/Plib/libherwig59.a(hwheww.o)
                                  0x0 (size before relaxing)
                0x085f2540                hwhewr_
                0x085f4980                hwhewq_
                0x085f4e20                hwhewp_
 COMMON         0x085f51e0       0x1c /home/pcl2483/pedro/jadesoft/util/mcgen/Plib/libherwig59.a(hwrpow.o)
                                  0x0 (size before relaxing)
                0x085f51e0                hwrpin_
 COMMON         0x085f51fc       0x14 /home/pcl2483/pedro/jadesoft/util/mcgen/Plib/libherwig59.a(hwsbrn.o)
                                  0x0 (size before relaxing)
                0x085f51fc                hwtabc_
 *fill*         0x085f5210       0x10 00
 COMMON         0x085f5220      0x104 /home/pcl2483/pedro/jadesoft/util/mcgen/Plib/libherwig59.a(hwsfun.o)
                                  0x0 (size before relaxing)
                0x085f5220                sascom_
 COMMON         0x085f5324        0x4 /home/pcl2483/pedro/jadesoft/util/mcgen/Plib/libherwig59.a(hwufne.o)
                                  0x0 (size before relaxing)
                0x085f5324                hwdbug_
 COMMON         0x085f5328        0x4 /home/pcl2483/pedro/jadesoft/util/mcgen/Plib/libherwig59.a(hwuinc.o)
                                  0x0 (size before relaxing)
                0x085f5328                w50516_
 *fill*         0x085f532c       0x14 00
 COMMON         0x085f5340       0xd0 /home/pcl2483/pedro/jadesoft/util/mcgen/Plib/libherwig59.a(sasgam.o)
                                  0x0 (size before relaxing)
                0x085f5340                sasval_
 COMMON         0x085f5410       0x10 /home/pcl2483/pedro/jadesoft/util/mcgen/Plib/libherwig59.a(hwbsud.o)
                                  0x0 (size before relaxing)
                0x085f5410                hwsint_
 COMMON         0x085f5420       0xf0 /home/pcl2483/pedro/jadesoft/util/mcgen/Plib/libherwig59.a(hwhiga.o)
                                  0x0 (size before relaxing)
                0x085f5420                cints_
                0x085f5500                small_
 COMMON         0x085f5510        0x4 /home/pcl2483/pedro/jadesoft/util/mcgen/Plib/libherwig59.a(hwsdgq.o)
                                  0x0 (size before relaxing)
                0x085f5510                dg_
 *fill*         0x085f5514        0xc 00
 COMMON         0x085f5520     0x1f44 /home/pcl2483/pedro/jadesoft/util/mcgen/Plib/libherwig59.a(hwuedt.o)
                                  0x0 (size before relaxing)
                0x085f5520                hwumap_
 *fill*         0x085f7464       0x1c 00
 COMMON         0x085f7480      0xc80 /home/pcl2483/pedro/jadesoft/util/mcgen/Plib/libjt74opal.a(lulogo.o)
                                  0x0 (size before relaxing)
                0x085f7480                pypars_
 COMMON         0x085f8100      0x194 /home/pcl2483/pedro/jadesoft/util/mcgen/Plib/libjt74opal.a(luzdis.o)
                                  0x0 (size before relaxing)
                0x085f8100                goxtra_
 *fill*         0x085f8294        0xc 00
 COMMON         0x085f82a0      0x260 /home/pcl2483/pedro/jadesoft/util/mcgen/Plib/libjt74opal.a(ludecy.o)
                                  0x0 (size before relaxing)
                0x085f82a0                hpevt_
 COMMON         0x085f8500      0x5c8 /home/pcl2483/pedro/jadesoft/util/mcgen/Plib/libjt74opal.a(dexay.o)
                                  0x0 (size before relaxing)
                0x085f8500                idfc_
                0x085f8504                jaki_
                0x085f8520                decmp2_
                0x085f894c                inout_
                0x085f8960                taubmc_
 COMMON         0x085f8ac8       0x10 /home/pcl2483/pedro/jadesoft/util/mcgen/Plib/libjt74opal.a(dwluks.o)
                                  0x0 (size before relaxing)
                0x085f8ac8                taukle_
 *fill*         0x085f8ad8        0x8 00
 COMMON         0x085f8ae0       0x28 /home/pcl2483/pedro/jadesoft/util/mcgen/Plib/libjt74opal.a(filhep.o)
                                  0x0 (size before relaxing)
                0x085f8ae0                phoqed_
 *fill*         0x085f8b08       0x18 00
 COMMON         0x085f8b20      0x1a8 /home/pcl2483/pedro/jadesoft/util/mcgen/Plib/libjt74opal.a(initdk.o)
                                  0x0 (size before relaxing)
                0x085f8b20                taubra_
                0x085f8c14                taurad_
                0x085f8c20                parmas_
                0x085f8c60                decpar_
                0x085f8c80                gswprm_
                0x085f8cb0                qedprm_
 COMMON         0x085f8cc8        0x4 /home/pcl2483/pedro/jadesoft/util/mcgen/Plib/libjt74opal.a(dampog.o)
                                  0x0 (size before relaxing)
                0x085f8cc8                testa1_
 COMMON         0x085f8ccc        0x8 /home/pcl2483/pedro/jadesoft/util/mcgen/Plib/libjt74opal.a(curr.o)
                                  0x0 (size before relaxing)
                0x085f8ccc                arbit_
 *fill*         0x085f8cd4        0xc 00
 COMMON         0x085f8ce0    0x10b3c /home/pcl2483/pedro/jadesoft/util/mcgen/Plib/libckern105.a(ckern.o)
                                  0x0 (size before relaxing)
                0x085f8ce0                ckcom_
 *fill*         0x0860981c        0x4 00
 COMMON         0x08609820     0x9cb0 /home/pcl2483/pedro/jadesoft/util/mcgen/Plib/libpx114.a(ykern.o)
                                  0x0 (size before relaxing)
                0x08609820                yint_
                0x0860e660                ycl_
 *fill*         0x086134d0       0x10 00
 COMMON         0x086134e0      0xab4 /cern/99/lib/libpacklib.a(ffgo.o)
                                  0x0 (size before relaxing)
                0x086134e0                ffchar_
                0x08613580                cfread_
                0x08613e00                ffcomm_
 *fill*         0x08613f94        0xc 00
 COMMON         0x08613fa0      0x328 /cern/99/lib/libpacklib.a(hbook1.o)
                                  0x0 (size before relaxing)
                0x08613fa0                hcform_
                0x08613fe0                hcbook_
                0x086140c0                hcprin_
                0x08614260                hcflag_
                0x086142a0                hcopt_
 *fill*         0x086142c8       0x18 00
 COMMON         0x086142e0       0x8c /cern/99/lib/libpacklib.a(hbug.o)
                                  0x0 (size before relaxing)
                0x086142e0                hcmail_
                0x08614360                hcunit_
 *fill*         0x0861436c       0x14 00
 COMMON         0x08614380     0x33b0 /cern/99/lib/libpacklib.a(hcdir.o)
                                  0x0 (size before relaxing)
                0x08614380                hcpia1_
                0x086147c0                hcpiaf_
                0x08614920                hcfile_
                0x086158c0                hcdirc_
                0x086171c0                quest_
                0x08617360                hcdirn_
                0x086175e0                hcpiac_
 *fill*         0x08617730       0x10 00
 COMMON         0x08617740      0x194 /cern/99/lib/libpacklib.a(hdelet.o)
                                  0x0 (size before relaxing)
                0x08617740                hcache_
 *fill*         0x086178d4        0xc 00
 COMMON         0x086178e0       0x94 /cern/99/lib/libpacklib.a(hfill.o)
                                  0x0 (size before relaxing)
                0x086178e0                hcbits_
 *fill*         0x08617974        0xc 00
 COMMON         0x08617980     0x1144 /cern/99/lib/libpacklib.a(hmachi.o)
                                  0x0 (size before relaxing)
                0x08617980                hcset_
                0x08617984                hcverc_
                0x086179a0                hcvers_
                0x08617a24                hcnt_
                0x08617a34                hcrecv_
                0x08617a40                slate_
                0x08617ae0                hcminpu_
                0x08618a80                hcfitr_
                0x08618a94                czcbuf_
                0x08618a98                hcminp1_
                0x08618aa0                hcpar0_
 *fill*         0x08618ac4       0x1c 00
 COMMON         0x08618ae0      0x2d4 /cern/99/lib/libpacklib.a(hsupis.o)
                                  0x0 (size before relaxing)
                0x08618ae0                hcfitn_
                0x08618c00                hcfits_
 *fill*         0x08618db4        0xc 00
 COMMON         0x08618dc0      0x200 /cern/99/lib/libpacklib.a(hlogpf.o)
                                  0x0 (size before relaxing)
                0x08618dc0                czbufc_
 COMMON         0x08618fc0        0x4 /cern/99/lib/libpacklib.a(hntrset.o)
                                  0x0 (size before relaxing)
                0x08618fc0                hntcur_
 *fill*         0x08618fc4       0x1c 00
 COMMON         0x08618fe0     0x12a0 /cern/99/lib/libpacklib.a(fzin.o)
                                  0x0 (size before relaxing)
                0x08618fe0                mzca_
                0x086191c0                zvfaut_
                0x08619220                mzct_
                0x08619300                mzcc_
                0x086199a0                fzcocc_
                0x08619a44                zunitz_
                0x08619a60                fzci_
                0x08619ba0                zbcd_
                0x08619ee0                zebq_
                0x0861a080                fzcseg_
                0x0861a180                mzcb_
                0x0861a200                zmach_
                0x0861a240                mzcn_
                0x0861a264                zunit_
 COMMON         0x0861a280      0x1f0 /cern/99/lib/libpacklib.a(fzloc.o)
                                  0x0 (size before relaxing)
                0x0861a280                fzcx_
                0x0861a3a0                zstate_
                0x0861a3e0                fzcf_
 *fill*         0x0861a470       0x10 00
 COMMON         0x0861a480       0x70 /cern/99/lib/libpacklib.a(mzbook.o)
                                  0x0 (size before relaxing)
                0x0861a480                mzcl_
 *fill*         0x0861a4f0       0x10 00
 COMMON         0x0861a500     0x5a20 /cern/99/lib/libpacklib.a(mzebra.o)
                                  0x0 (size before relaxing)
                0x0861a500                zceta_
                0x0861ad00                zbcdch_
                0x0861ad60                rzcount_
                0x0861ad80                zheadp_
                0x0861ae00                jzuc_
                0x0861ae40                rzcstri_
                0x0861b444                znatur_
                0x0861b460                rzclun_
                0x0861b4a0                rzcstrc_
 COMMON         0x0861ff20     0x5008 /cern/99/lib/libpacklib.a(mzflag.o)
                                  0x0 (size before relaxing)
                0x0861ff20                mzcwk_
                0x08624f20                zlimit_
 *fill*         0x08624f28       0x18 00
 COMMON         0x08624f40      0x508 /cern/99/lib/libpacklib.a(mzform.o)
                                  0x0 (size before relaxing)
                0x08624f40                zkrakc_
 COMMON         0x08625448        0x8 /cern/99/lib/libpacklib.a(ztell.o)
                                  0x0 (size before relaxing)
                0x08625448                ztellc_
 *fill*         0x08625450       0x10 00
 COMMON         0x08625460     0x150c /cern/99/lib/libpacklib.a(rzcdir.o)
                                  0x0 (size before relaxing)
                0x08625460                rzcl_
                0x086254a0                rzdirc_
                0x08626760                rzch_
                0x08626960                rzdirn_
 *fill*         0x0862696c       0x14 00
 COMMON         0x08626980       0x28 /cern/99/lib/libpacklib.a(rzfdir.o)
                                  0x0 (size before relaxing)
                0x08626980                rzcycle_
 *fill*         0x086269a8       0x18 00
 COMMON         0x086269c0     0x8800 /cern/99/lib/libpacklib.a(rziodo.o)
                                  0x0 (size before relaxing)
                0x086269c0                rzbuff_
 COMMON         0x0862f1c0      0xe10 /cern/99/lib/libpacklib.a(czgeta.o)
                                  0x0 (size before relaxing)
                0x0862f1c0                czsock_
 *fill*         0x0862ffd0       0x10 00
 COMMON         0x0862ffe0     0x3fa0 /cern/99/lib/libpacklib.a(hqputf.o)
                                  0x0 (size before relaxing)
                0x0862ffe0                hcqcom_
                0x08632fe0                hcqcod_
 COMMON         0x08633f80      0x350 /cern/99/lib/libpacklib.a(fziffx.o)
                                  0x0 (size before relaxing)
                0x08633f80                mzioc_
 *fill*         0x086342d0       0x10 00
 COMMON         0x086342e0      0x3f4 /cern/99/lib/libpacklib.a(rzopen.o)
                                  0x0 (size before relaxing)
                0x086342e0                rzckey_
 COMMON         0x086346d4       0x18 /cern/99/lib/libpacklib.a(rzout.o)
                                  0x0 (size before relaxing)
                0x086346d4                rzcout_
 COMMON         0x086346ec     0x2400 /cern/99/lib/libpacklib.a(open.o)
                                  0x0 (size before relaxing)
                0x086346ec                rfilefdt
                0x08634aec                rfio_buf
 COMMON         0x08636aec        0x4 /cern/99/lib/libpacklib.a(serror.o)
                                  0x0 (size before relaxing)
                0x08636aec                serrno
 *fill*         0x08636af0       0x10 00
 COMMON         0x08636b00      0x600 /cern/99/lib/libpacklib.a(dzsnap.o)
                                  0x0 (size before relaxing)
                0x08636b00                dzc1ch_
                0x08637060                dzc1_
 COMMON         0x08637100       0x28 /cern/99/lib/libpacklib.a(fzipha.o)
                                  0x0 (size before relaxing)
                0x08637100                fzhci_
 *fill*         0x08637128       0x18 00
 COMMON         0x08637140      0x1d4 /cern/99/lib/libpacklib.a(rzveri.o)
                                  0x0 (size before relaxing)
                0x08637140                rzbmap_
                0x08637180                rzover_
 *fill*         0x08637314        0xc 00
 COMMON         0x08637320     0x1324 /usr/lib/gcc-lib/i686-pc-linux-gnu/2.95.3/libg2c.a(err.o)
                                  0x0 (size before relaxing)
                0x08637320                f(short, void, int, char)
                0x08637324                f__hiwater
                0x08637328                f__putn
                0x0863732c                f__fmtlen
                0x08637330                f__elist
                0x08637334                f__sequential
                0x08637338                f__fmtbuf
                0x0863733c                f__getn
                0x08637340                f__curunit
                0x08637344                f__doned
                0x08637348                f(char, float)
                0x0863734c                f__external
                0x08637350                f__reading
                0x08637354                f__icptr
                0x08637358                f__donewrec
                0x0863735c                f__init
                0x08637360                f__doed
                0x08637364                f(char, long *, short __restrict)
                0x08637368                f__doend
                0x0863736c                f__cblank
                0x08637370                f__scale
                0x08637374                f__recpos
                0x08637378                f__dorevert
                0x0863737c                f__formatted
                0x08637380                f__units
                0x08638640                f__cursor
 *fill*         0x08638644       0x1c 00
 COMMON         0x08638660       0x90 /usr/lib/gcc-lib/i686-pc-linux-gnu/2.95.3/libg2c.a(fmt.o)
                                  0x0 (size before relaxing)
                0x08638660                f(long double,  *)
                0x08638664                f__nonl
                0x08638668                f__parenlvl
                0x0863866c                f__workdone
                0x08638670                f__revloc
                0x08638680                f__ret
                0x086386c0                f__cnt
                0x086386e8                f(char *)
                0x086386ec                f(char,  *)
 COMMON         0x086386f0        0x8 /usr/lib/gcc-lib/i686-pc-linux-gnu/2.95.3/libg2c.a(iio.o)
                                  0x0 (size before relaxing)
                0x086386f0                f__icnum
                0x086386f4                f__icend
 COMMON         0x086386f8       0x34 /usr/lib/gcc-lib/i686-pc-linux-gnu/2.95.3/libg2c.a(lread.o)
                                  0x0 (size before relaxing)
                0x086386f8                f__ltype
                0x086386fc                l_getc
                0x08638700                f__lioproc
                0x08638704                l_ungetc
                0x08638708                l_eof
                0x0863870c                nml_read
                0x08638710                f__lchar
                0x08638714                f__lquit
                0x08638718                f__ly
                0x08638720                f(long, long long)
                0x08638728                f__lcount
 COMMON         0x0863872c        0x4 /usr/lib/gcc-lib/i686-pc-linux-gnu/2.95.3/libg2c.a(sue.o)
                                  0x0 (size before relaxing)
                0x0863872c                f__recloc
 COMMON         0x08638730        0x4 /usr/lib/gcc-lib/i686-pc-linux-gnu/2.95.3/libg2c.a(uio.o)
                                  0x0 (size before relaxing)
                0x08638730                f__reclen
 COMMON         0x08638734        0x8 /usr/lib/gcc-lib/i686-pc-linux-gnu/2.95.3/libg2c.a(setarg.o)
                                  0x0 (size before relaxing)
                0x08638734                f__xargv
                0x08638738                f__xargc
 COMMON         0x0863873c        0x8 /usr/lib/gcc-lib/i686-pc-linux-gnu/2.95.3/libg2c.a(lwrite.o)
                                  0x0 (size before relaxing)
                0x0863873c                f__Aquote
                0x08638740                L_len
                0x08638744                . = ALIGN (0x4)
                0x08638744                . = ALIGN (0x4)
                0x08638744                _end = .
                0x08638744                PROVIDE (end, .)
                0x08638744                . = DATA_SEGMENT_END (.)

.stab           0x00000000    0xb90e8
 *(.stab)
 .stab          0x00000000     0x6bb8 mchw59_105j.o
 .stab          0x00006bb8      0x3cc /home/pcl2483/pedro/jadesoft/util/mcgen/Plib/libmc105j.a(mcgetf.o)
                                0x3d8 (size before relaxing)
 .stab          0x00006f84      0x5c4 /home/pcl2483/pedro/jadesoft/util/mcgen/Plib/libmc105j.a(mcgeth.o)
                                0x5d0 (size before relaxing)
 .stab          0x00007548      0x564 /home/pcl2483/pedro/jadesoft/util/mcgen/Plib/libmc105j.a(mcgetp.o)
                                0x570 (size before relaxing)
 .stab          0x00007aac      0x5ac /home/pcl2483/pedro/jadesoft/util/mcgen/Plib/libmc105j.a(mcinit.o)
                                0x5b8 (size before relaxing)
 .stab          0x00008058      0x4a4 /home/pcl2483/pedro/jadesoft/util/mcgen/Plib/libmc105j.a(mcstbl.o)
                                0x4b0 (size before relaxing)
 .stab          0x000084fc      0x9cc /home/pcl2483/pedro/jadesoft/util/mcgen/Plib/libmc105j.a(mcwrit.o)
                                0x9d8 (size before relaxing)
 .stab          0x00008ec8      0x918 /home/pcl2483/pedro/jadesoft/util/mcgen/Plib/libmc105j.a(pxeecb.o)
                                0x924 (size before relaxing)
 .stab          0x000097e0      0xa44 /home/pcl2483/pedro/jadesoft/util/mcgen/Plib/libmc105j.a(evwrtj.o)
                                0xa50 (size before relaxing)
 .stab          0x0000a224      0x3cc /home/pcl2483/pedro/jadesoft/util/mcgen/Plib/libmc105j.a(incprd.o)
                                0x3d8 (size before relaxing)
 .stab          0x0000a5f0      0x408 /home/pcl2483/pedro/jadesoft/util/mcgen/Plib/libmc105j.a(jadeco.o)
                                0x414 (size before relaxing)
 .stab          0x0000a9f8      0x99c /home/pcl2483/pedro/jadesoft/util/mcgen/Plib/libmc105j.a(jtconv.o)
                                0x9a8 (size before relaxing)
 .stab          0x0000b394      0x840 /home/pcl2483/pedro/jadesoft/util/mcgen/Plib/libmc105j.a(mcrnst.o)
                                0x84c (size before relaxing)
 .stab          0x0000bbd4      0x2c4 /home/pcl2483/pedro/jadesoft/util/mcgen/Plib/libmc105j.a(ntcprd.o)
                                0x2d0 (size before relaxing)
 .stab          0x0000be98      0x5c4 /home/pcl2483/pedro/jadesoft/util/mcgen/Plib/libmc105j.a(prcprd.o)
                                0x5d0 (size before relaxing)
 .stab          0x0000c45c      0x480 /home/pcl2483/pedro/jadesoft/util/mcgen/Plib/libmc105j.a(wrcprd.o)
                                0x48c (size before relaxing)
 .stab          0x0000c8dc      0x51c /home/pcl2483/pedro/jadesoft/util/mcgen/Plib/libherwig59.a(fxhlms.o)
                                0x528 (size before relaxing)
 .stab          0x0000cdf8      0xb64 /home/pcl2483/pedro/jadesoft/util/mcgen/Plib/libherwig59.a(h59driv.o)
                                0xb70 (size before relaxing)
 .stab          0x0000d95c      0xbd0 /home/pcl2483/pedro/jadesoft/util/mcgen/Plib/libherwig59.a(hwbgen.o)
                                0xbdc (size before relaxing)
 .stab          0x0000e52c     0x1a34 /home/pcl2483/pedro/jadesoft/util/mcgen/Plib/libherwig59.a(hwbjco.o)
                               0x1a40 (size before relaxing)
 .stab          0x0000ff60      0x600 /home/pcl2483/pedro/jadesoft/util/mcgen/Plib/libherwig59.a(hwbmas.o)
                                0x60c (size before relaxing)
 .stab          0x00010560     0x1518 /home/pcl2483/pedro/jadesoft/util/mcgen/Plib/libherwig59.a(hwbran.o)
                               0x1524 (size before relaxing)
 .stab          0x00011a78      0x804 /home/pcl2483/pedro/jadesoft/util/mcgen/Plib/libherwig59.a(hwbspa.o)
                                0x810 (size before relaxing)
 .stab          0x0001227c      0x60c /home/pcl2483/pedro/jadesoft/util/mcgen/Plib/libherwig59.a(hwbspn.o)
                                0x618 (size before relaxing)
 .stab          0x00012888      0x93c /home/pcl2483/pedro/jadesoft/util/mcgen/Plib/libherwig59.a(hwbtim.o)
                                0x948 (size before relaxing)
 .stab          0x000131c4      0x42c /home/pcl2483/pedro/jadesoft/util/mcgen/Plib/libherwig59.a(hwbvmc.o)
                                0x438 (size before relaxing)
 .stab          0x000135f0      0x5dc /home/pcl2483/pedro/jadesoft/util/mcgen/Plib/libherwig59.a(hwcdec.o)
                                0x5e8 (size before relaxing)
 .stab          0x00013bcc      0x348 /home/pcl2483/pedro/jadesoft/util/mcgen/Plib/libherwig59.a(hwcfla.o)
                                0x354 (size before relaxing)
 .stab          0x00013f14     0x10c8 /home/pcl2483/pedro/jadesoft/util/mcgen/Plib/libherwig59.a(hwcfor.o)
                               0x10d4 (size before relaxing)
 .stab          0x00014fdc      0x7e0 /home/pcl2483/pedro/jadesoft/util/mcgen/Plib/libherwig59.a(hwcgsp.o)
                                0x7ec (size before relaxing)
 .stab          0x000157bc      0xbf4 /home/pcl2483/pedro/jadesoft/util/mcgen/Plib/libherwig59.a(hwchad.o)
                                0xc00 (size before relaxing)
 .stab          0x000163b0      0x798 /home/pcl2483/pedro/jadesoft/util/mcgen/Plib/libherwig59.a(hwconv.o)
                                0x7a4 (size before relaxing)
 .stab          0x00016b48      0x8ac /home/pcl2483/pedro/jadesoft/util/mcgen/Plib/libherwig59.a(hwdhqk.o)
                                0x8b8 (size before relaxing)
 .stab          0x000173f4      0x300 /home/pcl2483/pedro/jadesoft/util/mcgen/Plib/libherwig59.a(hwdpwt.o)
                                0x30c (size before relaxing)
 .stab          0x000176f4      0x4e0 /home/pcl2483/pedro/jadesoft/util/mcgen/Plib/libherwig59.a(hwdthr.o)
                                0x4ec (size before relaxing)
 .stab          0x00017bd4      0x3c0 /home/pcl2483/pedro/jadesoft/util/mcgen/Plib/libherwig59.a(hwdtwo.o)
                                0x3cc (size before relaxing)
 .stab          0x00017f94      0x300 /home/pcl2483/pedro/jadesoft/util/mcgen/Plib/libherwig59.a(hwdwwt.o)
                                0x30c (size before relaxing)
 .stab          0x00018294      0x4ec /home/pcl2483/pedro/jadesoft/util/mcgen/Plib/libherwig59.a(hwefin.o)
                                0x4f8 (size before relaxing)
 .stab          0x00018780      0x5dc /home/pcl2483/pedro/jadesoft/util/mcgen/Plib/libherwig59.a(hweini.o)
                                0x5e8 (size before relaxing)
 .stab          0x00018d5c      0xbb8 /home/pcl2483/pedro/jadesoft/util/mcgen/Plib/libherwig59.a(hwepro.o)
                                0xbc4 (size before relaxing)
 .stab          0x00019914     0x108c /home/pcl2483/pedro/jadesoft/util/mcgen/Plib/libherwig59.a(hwhbgf.o)
                               0x1098 (size before relaxing)
 .stab          0x0001a9a0      0xd20 /home/pcl2483/pedro/jadesoft/util/mcgen/Plib/libherwig59.a(hwhbki.o)
                                0xd2c (size before relaxing)
 .stab          0x0001b6c0     0x12c0 /home/pcl2483/pedro/jadesoft/util/mcgen/Plib/libherwig59.a(hwhbrn.o)
                               0x12cc (size before relaxing)
 .stab          0x0001c980      0xb10 /home/pcl2483/pedro/jadesoft/util/mcgen/Plib/libherwig59.a(hwhbsg.o)
                                0xb1c (size before relaxing)
 .stab          0x0001d490     0x10e0 /home/pcl2483/pedro/jadesoft/util/mcgen/Plib/libherwig59.a(hwhdis.o)
                               0x10ec (size before relaxing)
 .stab          0x0001e570      0xd5c /home/pcl2483/pedro/jadesoft/util/mcgen/Plib/libherwig59.a(hwhdyp.o)
                                0xd68 (size before relaxing)
 .stab          0x0001f2cc     0x1038 /home/pcl2483/pedro/jadesoft/util/mcgen/Plib/libherwig59.a(hwhegg.o)
                               0x1044 (size before relaxing)
 .stab          0x00020304      0xbb8 /home/pcl2483/pedro/jadesoft/util/mcgen/Plib/libherwig59.a(hwhegw.o)
                                0xbc4 (size before relaxing)
 .stab          0x00020ebc      0x978 /home/pcl2483/pedro/jadesoft/util/mcgen/Plib/libherwig59.a(hwhegx.o)
                                0x984 (size before relaxing)
 .stab          0x00021834      0xa20 /home/pcl2483/pedro/jadesoft/util/mcgen/Plib/libherwig59.a(hwhepa.o)
                                0xa2c (size before relaxing)
 .stab          0x00022254      0xb4c /home/pcl2483/pedro/jadesoft/util/mcgen/Plib/libherwig59.a(hwhepg.o)
                                0xb58 (size before relaxing)
 .stab          0x00022da0      0xe70 /home/pcl2483/pedro/jadesoft/util/mcgen/Plib/libherwig59.a(hwheww.o)
                                0xe7c (size before relaxing)
 .stab          0x00023c10      0xd8c /home/pcl2483/pedro/jadesoft/util/mcgen/Plib/libherwig59.a(hwhhvy.o)
                                0xd98 (size before relaxing)
 .stab          0x0002499c      0xa08 /home/pcl2483/pedro/jadesoft/util/mcgen/Plib/libherwig59.a(hwhigj.o)
                                0xa14 (size before relaxing)
 .stab          0x000253a4      0x78c /home/pcl2483/pedro/jadesoft/util/mcgen/Plib/libherwig59.a(hwhigm.o)
                                0x798 (size before relaxing)
 .stab          0x00025b30      0x81c /home/pcl2483/pedro/jadesoft/util/mcgen/Plib/libherwig59.a(hwhigs.o)
                                0x828 (size before relaxing)
 .stab          0x0002634c      0x3c0 /home/pcl2483/pedro/jadesoft/util/mcgen/Plib/libherwig59.a(hwhigt.o)
                                0x3cc (size before relaxing)
 .stab          0x0002670c     0x13ec /home/pcl2483/pedro/jadesoft/util/mcgen/Plib/libherwig59.a(hwhigw.o)
                               0x13f8 (size before relaxing)
 .stab          0x00027af8      0xd5c /home/pcl2483/pedro/jadesoft/util/mcgen/Plib/libherwig59.a(hwhigz.o)
                                0xd68 (size before relaxing)
 .stab          0x00028854      0x7d4 /home/pcl2483/pedro/jadesoft/util/mcgen/Plib/libherwig59.a(hwhph2.o)
                                0x7e0 (size before relaxing)
 .stab          0x00029028      0x93c /home/pcl2483/pedro/jadesoft/util/mcgen/Plib/libherwig59.a(hwhpho.o)
                                0x948 (size before relaxing)
 .stab          0x00029964      0x39c /home/pcl2483/pedro/jadesoft/util/mcgen/Plib/libherwig59.a(hwhppb.o)
                                0x3a8 (size before relaxing)
 .stab          0x00029d00      0x72c /home/pcl2483/pedro/jadesoft/util/mcgen/Plib/libherwig59.a(hwhppe.o)
                                0x738 (size before relaxing)
 .stab          0x0002a42c      0x690 /home/pcl2483/pedro/jadesoft/util/mcgen/Plib/libherwig59.a(hwhpph.o)
                                0x69c (size before relaxing)
 .stab          0x0002aabc      0xcfc /home/pcl2483/pedro/jadesoft/util/mcgen/Plib/libherwig59.a(hwhppm.o)
                                0xd08 (size before relaxing)
 .stab          0x0002b7b8      0x774 /home/pcl2483/pedro/jadesoft/util/mcgen/Plib/libherwig59.a(hwhppt.o)
                                0x780 (size before relaxing)
 .stab          0x0002bf2c      0x6c0 /home/pcl2483/pedro/jadesoft/util/mcgen/Plib/libherwig59.a(hwhpqs.o)
                                0x6cc (size before relaxing)
 .stab          0x0002c5ec      0xfcc /home/pcl2483/pedro/jadesoft/util/mcgen/Plib/libherwig59.a(hwhqcd.o)
                                0xfd8 (size before relaxing)
 .stab          0x0002d5b8      0x4c8 /home/pcl2483/pedro/jadesoft/util/mcgen/Plib/libherwig59.a(hwhqcp.o)
                                0x4d4 (size before relaxing)
 .stab          0x0002da80      0x6cc /home/pcl2483/pedro/jadesoft/util/mcgen/Plib/libherwig59.a(hwhsng.o)
                                0x6d8 (size before relaxing)
 .stab          0x0002e14c      0x5d0 /home/pcl2483/pedro/jadesoft/util/mcgen/Plib/libherwig59.a(hwhsnm.o)
                                0x5dc (size before relaxing)
 .stab          0x0002e71c      0xd08 /home/pcl2483/pedro/jadesoft/util/mcgen/Plib/libherwig59.a(hwhv1j.o)
                                0xd14 (size before relaxing)
 .stab          0x0002f424      0x72c /home/pcl2483/pedro/jadesoft/util/mcgen/Plib/libherwig59.a(hwhwex.o)
                                0x738 (size before relaxing)
 .stab          0x0002fb50      0x9c0 /home/pcl2483/pedro/jadesoft/util/mcgen/Plib/libherwig59.a(hwhwpr.o)
                                0x9cc (size before relaxing)
 .stab          0x00030510      0xee8 /home/pcl2483/pedro/jadesoft/util/mcgen/Plib/libherwig59.a(hwigin.o)
                                0xef4 (size before relaxing)
 .stab          0x000313f8      0x618 /home/pcl2483/pedro/jadesoft/util/mcgen/Plib/libherwig59.a(hwmwgt.o)
                                0x624 (size before relaxing)
 .stab          0x00031a10      0x360 /home/pcl2483/pedro/jadesoft/util/mcgen/Plib/libherwig59.a(hwrazm.o)
                                0x36c (size before relaxing)
 .stab          0x00031d70      0x378 /home/pcl2483/pedro/jadesoft/util/mcgen/Plib/libherwig59.a(hwrgau.o)
                                0x384 (size before relaxing)
 .stab          0x000320e8      0x444 /home/pcl2483/pedro/jadesoft/util/mcgen/Plib/libherwig59.a(hwrgen.o)
                                0x450 (size before relaxing)
 .stab          0x0003252c      0x318 /home/pcl2483/pedro/jadesoft/util/mcgen/Plib/libherwig59.a(hwrint.o)
                                0x324 (size before relaxing)
 .stab          0x00032844      0x300 /home/pcl2483/pedro/jadesoft/util/mcgen/Plib/libherwig59.a(hwrlog.o)
                                0x30c (size before relaxing)
 .stab          0x00032b44      0x420 /home/pcl2483/pedro/jadesoft/util/mcgen/Plib/libherwig59.a(hwrpip.o)
                                0x42c (size before relaxing)
 .stab          0x00032f64      0x3a8 /home/pcl2483/pedro/jadesoft/util/mcgen/Plib/libherwig59.a(hwrpow.o)
                                0x3b4 (size before relaxing)
 .stab          0x0003330c      0x30c /home/pcl2483/pedro/jadesoft/util/mcgen/Plib/libherwig59.a(hwruni.o)
                                0x318 (size before relaxing)
 .stab          0x00033618     0x10bc /home/pcl2483/pedro/jadesoft/util/mcgen/Plib/libherwig59.a(hwsbrn.o)
                               0x10c8 (size before relaxing)
 .stab          0x000346d4      0xbd0 /home/pcl2483/pedro/jadesoft/util/mcgen/Plib/libherwig59.a(hwsfbr.o)
                                0xbdc (size before relaxing)
 .stab          0x000352a4     0x1800 /home/pcl2483/pedro/jadesoft/util/mcgen/Plib/libherwig59.a(hwsfun.o)
                               0x180c (size before relaxing)
 .stab          0x00036aa4      0x3fc /home/pcl2483/pedro/jadesoft/util/mcgen/Plib/libherwig59.a(hwsgam.o)
                                0x408 (size before relaxing)
 .stab          0x00036ea0      0x4c8 /home/pcl2483/pedro/jadesoft/util/mcgen/Plib/libherwig59.a(hwsgen.o)
                                0x4d4 (size before relaxing)
 .stab          0x00037368      0x450 /home/pcl2483/pedro/jadesoft/util/mcgen/Plib/libherwig59.a(hwsgqq.o)
                                0x45c (size before relaxing)
 .stab          0x000377b8      0x78c /home/pcl2483/pedro/jadesoft/util/mcgen/Plib/libherwig59.a(hwsspc.o)
                                0x798 (size before relaxing)
 .stab          0x00037f44      0x438 /home/pcl2483/pedro/jadesoft/util/mcgen/Plib/libherwig59.a(hwssud.o)
                                0x444 (size before relaxing)
 .stab          0x0003837c      0x6b4 /home/pcl2483/pedro/jadesoft/util/mcgen/Plib/libherwig59.a(hwstab.o)
                                0x6c0 (size before relaxing)
 .stab          0x00038a30      0x4a4 /home/pcl2483/pedro/jadesoft/util/mcgen/Plib/libherwig59.a(hwsval.o)
                                0x4b0 (size before relaxing)
 .stab          0x00038ed4      0x5c4 /home/pcl2483/pedro/jadesoft/util/mcgen/Plib/libherwig59.a(hwuaem.o)
                                0x5d0 (size before relaxing)
 .stab          0x00039498      0x354 /home/pcl2483/pedro/jadesoft/util/mcgen/Plib/libherwig59.a(hwuaer.o)
                                0x360 (size before relaxing)
 .stab          0x000397ec      0x774 /home/pcl2483/pedro/jadesoft/util/mcgen/Plib/libherwig59.a(hwualf.o)
                                0x780 (size before relaxing)
 .stab          0x00039f60      0x57c /home/pcl2483/pedro/jadesoft/util/mcgen/Plib/libherwig59.a(hwubst.o)
                                0x588 (size before relaxing)
 .stab          0x0003a4dc      0x750 /home/pcl2483/pedro/jadesoft/util/mcgen/Plib/libherwig59.a(hwucff.o)
                                0x75c (size before relaxing)
 .stab          0x0003ac2c      0x384 /home/pcl2483/pedro/jadesoft/util/mcgen/Plib/libherwig59.a(hwudat.o)
                                0x390 (size before relaxing)
 .stab          0x0003afb0      0x414 /home/pcl2483/pedro/jadesoft/util/mcgen/Plib/libherwig59.a(hwudkl.o)
                                0x420 (size before relaxing)
 .stab          0x0003b3c4      0x2f4 /home/pcl2483/pedro/jadesoft/util/mcgen/Plib/libherwig59.a(hwuecm.o)
                                0x300 (size before relaxing)
 .stab          0x0003b6b8      0x4a4 /home/pcl2483/pedro/jadesoft/util/mcgen/Plib/libherwig59.a(hwueec.o)
                                0x4b0 (size before relaxing)
 .stab          0x0003bb5c      0xce4 /home/pcl2483/pedro/jadesoft/util/mcgen/Plib/libherwig59.a(hwuepr.o)
                                0xcf0 (size before relaxing)
 .stab          0x0003c840      0x450 /home/pcl2483/pedro/jadesoft/util/mcgen/Plib/libherwig59.a(hwufne.o)
                                0x45c (size before relaxing)
 .stab          0x0003cc90     0x1e78 /home/pcl2483/pedro/jadesoft/util/mcgen/Plib/libherwig59.a(hwuinc.o)
                               0x1e84 (size before relaxing)
 .stab          0x0003eb08      0x504 /home/pcl2483/pedro/jadesoft/util/mcgen/Plib/libherwig59.a(hwuine.o)
                                0x510 (size before relaxing)
 .stab          0x0003f00c      0x384 /home/pcl2483/pedro/jadesoft/util/mcgen/Plib/libherwig59.a(hwulb4.o)
                                0x390 (size before relaxing)
 .stab          0x0003f390      0x2e8 /home/pcl2483/pedro/jadesoft/util/mcgen/Plib/libherwig59.a(hwuldo.o)
                                0x2f4 (size before relaxing)
 .stab          0x0003f678      0x2f4 /home/pcl2483/pedro/jadesoft/util/mcgen/Plib/libherwig59.a(hwulob.o)
                                0x300 (size before relaxing)
 .stab          0x0003f96c      0x2f4 /home/pcl2483/pedro/jadesoft/util/mcgen/Plib/libherwig59.a(hwulof.o)
                                0x300 (size before relaxing)
 .stab          0x0003fc60      0x2d0 /home/pcl2483/pedro/jadesoft/util/mcgen/Plib/libherwig59.a(hwumas.o)
                                0x2dc (size before relaxing)
 .stab          0x0003ff30      0x360 /home/pcl2483/pedro/jadesoft/util/mcgen/Plib/libherwig59.a(hwupcm.o)
                                0x36c (size before relaxing)
 .stab          0x00040290     0x10b0 /home/pcl2483/pedro/jadesoft/util/mcgen/Plib/libherwig59.a(hwures.o)
                               0x10bc (size before relaxing)
 .stab          0x00041340      0x348 /home/pcl2483/pedro/jadesoft/util/mcgen/Plib/libherwig59.a(hwurob.o)
                                0x354 (size before relaxing)
 .stab          0x00041688      0x348 /home/pcl2483/pedro/jadesoft/util/mcgen/Plib/libherwig59.a(hwurof.o)
                                0x354 (size before relaxing)
 .stab          0x000419d0      0x45c /home/pcl2483/pedro/jadesoft/util/mcgen/Plib/libherwig59.a(hwurot.o)
                                0x468 (size before relaxing)
 .stab          0x00041e2c      0x2dc /home/pcl2483/pedro/jadesoft/util/mcgen/Plib/libherwig59.a(hwusqr.o)
                                0x2e8 (size before relaxing)
 .stab          0x00042108      0x6b4 /home/pcl2483/pedro/jadesoft/util/mcgen/Plib/libherwig59.a(hwutab.o)
                                0x6c0 (size before relaxing)
 .stab          0x000427bc      0x2ac /home/pcl2483/pedro/jadesoft/util/mcgen/Plib/libherwig59.a(hwutim.o)
                                0x2b8 (size before relaxing)
 .stab          0x00042a68      0x330 /home/pcl2483/pedro/jadesoft/util/mcgen/Plib/libherwig59.a(hwvdif.o)
                                0x33c (size before relaxing)
 .stab          0x00042d98      0x354 /home/pcl2483/pedro/jadesoft/util/mcgen/Plib/libherwig59.a(hwvdot.o)
                                0x360 (size before relaxing)
 .stab          0x000430ec      0x324 /home/pcl2483/pedro/jadesoft/util/mcgen/Plib/libherwig59.a(hwvequ.o)
                                0x330 (size before relaxing)
 .stab          0x00043410      0x330 /home/pcl2483/pedro/jadesoft/util/mcgen/Plib/libherwig59.a(hwvsca.o)
                                0x33c (size before relaxing)
 .stab          0x00043740      0x330 /home/pcl2483/pedro/jadesoft/util/mcgen/Plib/libherwig59.a(hwvsum.o)
                                0x33c (size before relaxing)
 .stab          0x00043a70      0x318 /home/pcl2483/pedro/jadesoft/util/mcgen/Plib/libherwig59.a(hwvzro.o)
                                0x324 (size before relaxing)
 .stab          0x00043d88      0x6b4 /home/pcl2483/pedro/jadesoft/util/mcgen/Plib/libherwig59.a(hwwarn.o)
                                0x6c0 (size before relaxing)
 .stab          0x0004443c      0x2f4 /home/pcl2483/pedro/jadesoft/util/mcgen/Plib/libherwig59.a(pdfset.o)
                                0x300 (size before relaxing)
 .stab          0x00044730      0xc90 /home/pcl2483/pedro/jadesoft/util/mcgen/Plib/libherwig59.a(sasgam.o)
                                0xc9c (size before relaxing)
 .stab          0x000453c0      0x9f0 /home/pcl2483/pedro/jadesoft/util/mcgen/Plib/libherwig59.a(sasvmd.o)
                                0x9fc (size before relaxing)
 .stab          0x00045db0      0x354 /home/pcl2483/pedro/jadesoft/util/mcgen/Plib/libherwig59.a(structm.o)
                                0x360 (size before relaxing)
 .stab          0x00046104      0x2d0 /home/pcl2483/pedro/jadesoft/util/mcgen/Plib/libherwig59.a(hvcbvi.o)
                                0x2dc (size before relaxing)
 .stab          0x000463d4      0x2d0 /home/pcl2483/pedro/jadesoft/util/mcgen/Plib/libherwig59.a(hvhbvi.o)
                                0x2dc (size before relaxing)
 .stab          0x000466a4      0x2c4 /home/pcl2483/pedro/jadesoft/util/mcgen/Plib/libherwig59.a(hwaend.o)
                                0x2d0 (size before relaxing)
 .stab          0x00046968      0x684 /home/pcl2483/pedro/jadesoft/util/mcgen/Plib/libherwig59.a(hwbazf.o)
                                0x690 (size before relaxing)
 .stab          0x00046fec      0x6cc /home/pcl2483/pedro/jadesoft/util/mcgen/Plib/libherwig59.a(hwbcon.o)
                                0x6d8 (size before relaxing)
 .stab          0x000476b8      0xe58 /home/pcl2483/pedro/jadesoft/util/mcgen/Plib/libherwig59.a(hwbded.o)
                                0xe64 (size before relaxing)
 .stab          0x00048510     0x19ec /home/pcl2483/pedro/jadesoft/util/mcgen/Plib/libherwig59.a(hwbdis.o)
                               0x19f8 (size before relaxing)
 .stab          0x00049efc      0x7f8 /home/pcl2483/pedro/jadesoft/util/mcgen/Plib/libherwig59.a(hwbfin.o)
                                0x804 (size before relaxing)
 .stab          0x0004a6f4      0xdc8 /home/pcl2483/pedro/jadesoft/util/mcgen/Plib/libherwig59.a(hwbsud.o)
                                0xdd4 (size before relaxing)
 .stab          0x0004b4bc      0x30c /home/pcl2483/pedro/jadesoft/util/mcgen/Plib/libherwig59.a(hwbsug.o)
                                0x318 (size before relaxing)
 .stab          0x0004b7c8      0x768 /home/pcl2483/pedro/jadesoft/util/mcgen/Plib/libherwig59.a(hwbsul.o)
                                0x774 (size before relaxing)
 .stab          0x0004bf30      0xa5c /home/pcl2483/pedro/jadesoft/util/mcgen/Plib/libherwig59.a(hwccut.o)
                                0xa68 (size before relaxing)
 .stab          0x0004c98c      0x9a8 /home/pcl2483/pedro/jadesoft/util/mcgen/Plib/libherwig59.a(hwdboz.o)
                                0x9b4 (size before relaxing)
 .stab          0x0004d334      0xe88 /home/pcl2483/pedro/jadesoft/util/mcgen/Plib/libherwig59.a(hwdhig.o)
                                0xe94 (size before relaxing)
 .stab          0x0004e1bc      0x9c0 /home/pcl2483/pedro/jadesoft/util/mcgen/Plib/libherwig59.a(hwegam.o)
                                0x9cc (size before relaxing)
 .stab          0x0004eb7c      0xbac /home/pcl2483/pedro/jadesoft/util/mcgen/Plib/libherwig59.a(hweisr.o)
                                0xbb8 (size before relaxing)
 .stab          0x0004f728      0x5c4 /home/pcl2483/pedro/jadesoft/util/mcgen/Plib/libherwig59.a(hweone.o)
                                0x5d0 (size before relaxing)
 .stab          0x0004fcec      0x708 /home/pcl2483/pedro/jadesoft/util/mcgen/Plib/libherwig59.a(hwetwo.o)
                                0x714 (size before relaxing)
 .stab          0x000503f4      0x558 /home/pcl2483/pedro/jadesoft/util/mcgen/Plib/libherwig59.a(hwhew0.o)
                                0x564 (size before relaxing)
 .stab          0x0005094c      0x3fc /home/pcl2483/pedro/jadesoft/util/mcgen/Plib/libherwig59.a(hwhew1.o)
                                0x408 (size before relaxing)
 .stab          0x00050d48      0x894 /home/pcl2483/pedro/jadesoft/util/mcgen/Plib/libherwig59.a(hwhew2.o)
                                0x8a0 (size before relaxing)
 .stab          0x000515dc      0x678 /home/pcl2483/pedro/jadesoft/util/mcgen/Plib/libherwig59.a(hwhew3.o)
                                0x684 (size before relaxing)
 .stab          0x00051c54      0x300 /home/pcl2483/pedro/jadesoft/util/mcgen/Plib/libherwig59.a(hwhew4.o)
                                0x30c (size before relaxing)
 .stab          0x00051f54      0x6f0 /home/pcl2483/pedro/jadesoft/util/mcgen/Plib/libherwig59.a(hwhew5.o)
                                0x6fc (size before relaxing)
 .stab          0x00052644      0xa80 /home/pcl2483/pedro/jadesoft/util/mcgen/Plib/libherwig59.a(hwhiga.o)
                                0xa8c (size before relaxing)
 .stab          0x000530c4      0x9a8 /home/pcl2483/pedro/jadesoft/util/mcgen/Plib/libherwig59.a(hwhigb.o)
                                0x9b4 (size before relaxing)
 .stab          0x00053a6c      0x8f4 /home/pcl2483/pedro/jadesoft/util/mcgen/Plib/libherwig59.a(hwhigy.o)
                                0x900 (size before relaxing)
 .stab          0x00054360      0x3b4 /home/pcl2483/pedro/jadesoft/util/mcgen/Plib/libherwig59.a(hwrexq.o)
                                0x3c0 (size before relaxing)
 .stab          0x00054714      0x474 /home/pcl2483/pedro/jadesoft/util/mcgen/Plib/libherwig59.a(hwsdgg.o)
                                0x480 (size before relaxing)
 .stab          0x00054b88      0x720 /home/pcl2483/pedro/jadesoft/util/mcgen/Plib/libherwig59.a(hwsdgq.o)
                                0x72c (size before relaxing)
 .stab          0x000552a8      0x4c8 /home/pcl2483/pedro/jadesoft/util/mcgen/Plib/libherwig59.a(hwuant.o)
                                0x4d4 (size before relaxing)
 .stab          0x00055770      0x5e8 /home/pcl2483/pedro/jadesoft/util/mcgen/Plib/libherwig59.a(hwubpr.o)
                                0x5f4 (size before relaxing)
 .stab          0x00055d58      0x42c /home/pcl2483/pedro/jadesoft/util/mcgen/Plib/libherwig59.a(hwuci2.o)
                                0x438 (size before relaxing)
 .stab          0x00056184     0x14e8 /home/pcl2483/pedro/jadesoft/util/mcgen/Plib/libherwig59.a(hwudks.o)
                               0x14f4 (size before relaxing)
 .stab          0x0005766c      0x630 /home/pcl2483/pedro/jadesoft/util/mcgen/Plib/libherwig59.a(hwudpr.o)
                                0x63c (size before relaxing)
 .stab          0x00057c9c      0x6c0 /home/pcl2483/pedro/jadesoft/util/mcgen/Plib/libherwig59.a(hwuedt.o)
                                0x6cc (size before relaxing)
 .stab          0x0005835c      0x5dc /home/pcl2483/pedro/jadesoft/util/mcgen/Plib/libherwig59.a(hwuemv.o)
                                0x5e8 (size before relaxing)
 .stab          0x00058938      0x4f8 /home/pcl2483/pedro/jadesoft/util/mcgen/Plib/libherwig59.a(hwugau.o)
                                0x504 (size before relaxing)
 .stab          0x00058e30      0x690 /home/pcl2483/pedro/jadesoft/util/mcgen/Plib/libherwig59.a(hwuidt.o)
                                0x69c (size before relaxing)
 .stab          0x000594c0      0x384 /home/pcl2483/pedro/jadesoft/util/mcgen/Plib/libherwig59.a(hwulf4.o)
                                0x390 (size before relaxing)
 .stab          0x00059844      0x63c /home/pcl2483/pedro/jadesoft/util/mcgen/Plib/libherwig59.a(hwuli2.o)
                                0x648 (size before relaxing)
 .stab          0x00059e80      0x51c /home/pcl2483/pedro/jadesoft/util/mcgen/Plib/libherwig59.a(hwusor.o)
                                0x528 (size before relaxing)
 .stab          0x0005a39c      0x924 /home/pcl2483/pedro/jadesoft/util/mcgen/Plib/libherwig59.a(sasano.o)
                                0x930 (size before relaxing)
 .stab          0x0005acc0      0x4ec /home/pcl2483/pedro/jadesoft/util/mcgen/Plib/libherwig59.a(sasbeh.o)
                                0x4f8 (size before relaxing)
 .stab          0x0005b1ac      0x3fc /home/pcl2483/pedro/jadesoft/util/mcgen/Plib/libherwig59.a(sasdir.o)
                                0x408 (size before relaxing)
 .stab          0x0005b5a8      0x30c /home/pcl2483/pedro/jadesoft/util/mcgen/Plib/libherwig59.a(hwbsu1.o)
                                0x318 (size before relaxing)
 .stab          0x0005b8b4      0x2f4 /home/pcl2483/pedro/jadesoft/util/mcgen/Plib/libherwig59.a(hwbsu2.o)
                                0x300 (size before relaxing)
 .stab          0x0005bba8      0x7a4 /home/pcl2483/pedro/jadesoft/util/mcgen/Plib/libherwig59.a(hwdchk.o)
                                0x7b0 (size before relaxing)
 .stab          0x0005c34c      0x378 /home/pcl2483/pedro/jadesoft/util/mcgen/Plib/libherwig59.a(hwdhgc.o)
                                0x384 (size before relaxing)
 .stab          0x0005c6c4      0x5c4 /home/pcl2483/pedro/jadesoft/util/mcgen/Plib/libherwig59.a(hwdhgf.o)
                                0x5d0 (size before relaxing)
 .stab          0x0005cc88      0x3a8 /home/pcl2483/pedro/jadesoft/util/mcgen/Plib/libherwig59.a(hwdtop.o)
                                0x3b4 (size before relaxing)
 .stab          0x0005d030      0x66c /home/pcl2483/pedro/jadesoft/util/mcgen/Plib/libherwig59.a(hwhig1.o)
                                0x678 (size before relaxing)
 .stab          0x0005d69c      0x3cc /home/pcl2483/pedro/jadesoft/util/mcgen/Plib/libjt74opal.a(luchge.o)
                                0x3d8 (size before relaxing)
 .stab          0x0005da68      0x6fc /home/pcl2483/pedro/jadesoft/util/mcgen/Plib/libjt74opal.a(lucomp.o)
                                0x708 (size before relaxing)
 .stab          0x0005e164      0x2c4 /home/pcl2483/pedro/jadesoft/util/mcgen/Plib/libjt74opal.a(ludata.o)
                                0x2d0 (size before relaxing)
 .stab          0x0005e428     0x10b0 /home/pcl2483/pedro/jadesoft/util/mcgen/Plib/libjt74opal.a(luedit.o)
                               0x10bc (size before relaxing)
 .stab          0x0005f4d8      0x498 /home/pcl2483/pedro/jadesoft/util/mcgen/Plib/libjt74opal.a(luerrm.o)
                                0x4a4 (size before relaxing)
 .stab          0x0005f970      0x828 /home/pcl2483/pedro/jadesoft/util/mcgen/Plib/libjt74opal.a(luexec.o)
                                0x834 (size before relaxing)
 .stab          0x00060198      0x990 /home/pcl2483/pedro/jadesoft/util/mcgen/Plib/libjt74opal.a(luhepc.o)
                                0x99c (size before relaxing)
 .stab          0x00060b28     0x1dac /home/pcl2483/pedro/jadesoft/util/mcgen/Plib/libjt74opal.a(luindf.o)
                               0x1db8 (size before relaxing)
 .stab          0x000628d4     0x129c /home/pcl2483/pedro/jadesoft/util/mcgen/Plib/libjt74opal.a(lukfdi.o)
                               0x12a8 (size before relaxing)
 .stab          0x00063b70     0x1758 /home/pcl2483/pedro/jadesoft/util/mcgen/Plib/libjt74opal.a(lulist.o)
                               0x1764 (size before relaxing)
 .stab          0x000652c8      0x798 /home/pcl2483/pedro/jadesoft/util/mcgen/Plib/libjt74opal.a(lulogo.o)
                                0x7a4 (size before relaxing)
 .stab          0x00065a60      0x954 /home/pcl2483/pedro/jadesoft/util/mcgen/Plib/libjt74opal.a(luname.o)
                                0x960 (size before relaxing)
 .stab          0x000663b4     0x1554 /home/pcl2483/pedro/jadesoft/util/mcgen/Plib/libjt74opal.a(luprep.o)
                               0x1560 (size before relaxing)
 .stab          0x00067908      0x36c /home/pcl2483/pedro/jadesoft/util/mcgen/Plib/libjt74opal.a(luptdi.o)
                                0x378 (size before relaxing)
 .stab          0x00067c74      0xa14 /home/pcl2483/pedro/jadesoft/util/mcgen/Plib/libjt74opal.a(lurobo.o)
                                0xa20 (size before relaxing)
 .stab          0x00068688     0x36fc /home/pcl2483/pedro/jadesoft/util/mcgen/Plib/libjt74opal.a(lushow.o)
                               0x3708 (size before relaxing)
 .stab          0x0006bd84     0x3fd8 /home/pcl2483/pedro/jadesoft/util/mcgen/Plib/libjt74opal.a(lustrf.o)
                               0x3fe4 (size before relaxing)
 .stab          0x0006fd5c     0x31d4 /home/pcl2483/pedro/jadesoft/util/mcgen/Plib/libjt74opal.a(lutabu.o)
                               0x31e0 (size before relaxing)
 .stab          0x00072f30      0x8e8 /home/pcl2483/pedro/jadesoft/util/mcgen/Plib/libjt74opal.a(luzdis.o)
                                0x8f4 (size before relaxing)
 .stab          0x00073818      0x5dc /home/pcl2483/pedro/jadesoft/util/mcgen/Plib/libjt74opal.a(plu.o)
                                0x5e8 (size before relaxing)
 .stab          0x00073df4      0x648 /home/pcl2483/pedro/jadesoft/util/mcgen/Plib/libjt74opal.a(rlu.o)
                                0x654 (size before relaxing)
 .stab          0x0007443c      0x378 /home/pcl2483/pedro/jadesoft/util/mcgen/Plib/libjt74opal.a(ulangl.o)
                                0x384 (size before relaxing)
 .stab          0x000747b4      0x63c /home/pcl2483/pedro/jadesoft/util/mcgen/Plib/libjt74opal.a(ulmass.o)
                                0x648 (size before relaxing)
 .stab          0x00074df0      0xc9c /home/pcl2483/pedro/jadesoft/util/mcgen/Plib/libjt74opal.a(luboei.o)
                                0xca8 (size before relaxing)
 .stab          0x00075a8c     0x2d30 /home/pcl2483/pedro/jadesoft/util/mcgen/Plib/libjt74opal.a(ludecy.o)
                               0x2d3c (size before relaxing)
 .stab          0x000787bc      0xa14 /home/pcl2483/pedro/jadesoft/util/mcgen/Plib/libjt74opal.a(lutaud.o)
                                0xa20 (size before relaxing)
 .stab          0x000791d0      0x39c /home/pcl2483/pedro/jadesoft/util/mcgen/Plib/libjt74opal.a(taupol.o)
                                0x3a8 (size before relaxing)
 .stab          0x0007956c      0x7b0 /home/pcl2483/pedro/jadesoft/util/mcgen/Plib/libjt74opal.a(dexay.o)
                                0x7bc (size before relaxing)
 .stab          0x00079d1c      0x60c /home/pcl2483/pedro/jadesoft/util/mcgen/Plib/libjt74opal.a(dexay1.o)
                                0x618 (size before relaxing)
 .stab          0x0007a328      0x420 /home/pcl2483/pedro/jadesoft/util/mcgen/Plib/libjt74opal.a(dexel.o)
                                0x42c (size before relaxing)
 .stab          0x0007a748      0x390 /home/pcl2483/pedro/jadesoft/util/mcgen/Plib/libjt74opal.a(dexkk.o)
                                0x39c (size before relaxing)
 .stab          0x0007aad8      0x42c /home/pcl2483/pedro/jadesoft/util/mcgen/Plib/libjt74opal.a(dexks.o)
                                0x438 (size before relaxing)
 .stab          0x0007af04      0x42c /home/pcl2483/pedro/jadesoft/util/mcgen/Plib/libjt74opal.a(dexmu.o)
                                0x438 (size before relaxing)
 .stab          0x0007b330      0x42c /home/pcl2483/pedro/jadesoft/util/mcgen/Plib/libjt74opal.a(dexnew.o)
                                0x438 (size before relaxing)
 .stab          0x0007b75c      0x390 /home/pcl2483/pedro/jadesoft/util/mcgen/Plib/libjt74opal.a(dexpi.o)
                                0x39c (size before relaxing)
 .stab          0x0007baec      0x420 /home/pcl2483/pedro/jadesoft/util/mcgen/Plib/libjt74opal.a(dexro.o)
                                0x42c (size before relaxing)
 .stab          0x0007bf0c      0x438 /home/pcl2483/pedro/jadesoft/util/mcgen/Plib/libjt74opal.a(dwlnew.o)
                                0x444 (size before relaxing)
 .stab          0x0007c344      0x3b4 /home/pcl2483/pedro/jadesoft/util/mcgen/Plib/libjt74opal.a(dwluaa.o)
                                0x3c0 (size before relaxing)
 .stab          0x0007c6f8      0x348 /home/pcl2483/pedro/jadesoft/util/mcgen/Plib/libjt74opal.a(dwluel.o)
                                0x354 (size before relaxing)
 .stab          0x0007ca40      0x324 /home/pcl2483/pedro/jadesoft/util/mcgen/Plib/libjt74opal.a(dwlukk.o)
                                0x330 (size before relaxing)
 .stab          0x0007cd64      0x420 /home/pcl2483/pedro/jadesoft/util/mcgen/Plib/libjt74opal.a(dwluks.o)
                                0x42c (size before relaxing)
 .stab          0x0007d184      0x348 /home/pcl2483/pedro/jadesoft/util/mcgen/Plib/libjt74opal.a(dwlumu.o)
                                0x354 (size before relaxing)
 .stab          0x0007d4cc      0x324 /home/pcl2483/pedro/jadesoft/util/mcgen/Plib/libjt74opal.a(dwlupi.o)
                                0x330 (size before relaxing)
 .stab          0x0007d7f0      0x354 /home/pcl2483/pedro/jadesoft/util/mcgen/Plib/libjt74opal.a(dwluro.o)
                                0x360 (size before relaxing)
 .stab          0x0007db44      0x384 /home/pcl2483/pedro/jadesoft/util/mcgen/Plib/libjt74opal.a(dwrph.o)
                                0x390 (size before relaxing)
 .stab          0x0007dec8      0x528 /home/pcl2483/pedro/jadesoft/util/mcgen/Plib/libjt74opal.a(filhep.o)
                                0x534 (size before relaxing)
 .stab          0x0007e3f0      0x8dc /home/pcl2483/pedro/jadesoft/util/mcgen/Plib/libjt74opal.a(initdk.o)
                                0x8e8 (size before relaxing)
 .stab          0x0007eccc      0x420 /home/pcl2483/pedro/jadesoft/util/mcgen/Plib/libjt74opal.a(jaker.o)
                                0x42c (size before relaxing)
 .stab          0x0007f0ec      0x4f8 /home/pcl2483/pedro/jadesoft/util/mcgen/Plib/libjt74opal.a(lunpik.o)
                                0x504 (size before relaxing)
 .stab          0x0007f5e4      0x7e0 /home/pcl2483/pedro/jadesoft/util/mcgen/Plib/libjt74opal.a(dadmel.o)
                                0x7ec (size before relaxing)
 .stab          0x0007fdc4      0x5a0 /home/pcl2483/pedro/jadesoft/util/mcgen/Plib/libjt74opal.a(dadmkk.o)
                                0x5ac (size before relaxing)
 .stab          0x00080364      0x81c /home/pcl2483/pedro/jadesoft/util/mcgen/Plib/libjt74opal.a(dadmks.o)
                                0x828 (size before relaxing)
 .stab          0x00080b80      0x7b0 /home/pcl2483/pedro/jadesoft/util/mcgen/Plib/libjt74opal.a(dadmmu.o)
                                0x7bc (size before relaxing)
 .stab          0x00081330      0x594 /home/pcl2483/pedro/jadesoft/util/mcgen/Plib/libjt74opal.a(dadmpi.o)
                                0x5a0 (size before relaxing)
 .stab          0x000818c4      0x78c /home/pcl2483/pedro/jadesoft/util/mcgen/Plib/libjt74opal.a(dadmro.o)
                                0x798 (size before relaxing)
 .stab          0x00082050      0xa44 /home/pcl2483/pedro/jadesoft/util/mcgen/Plib/libjt74opal.a(dadnew.o)
                                0xa50 (size before relaxing)
 .stab          0x00082a94      0x438 /home/pcl2483/pedro/jadesoft/util/mcgen/Plib/libjt74opal.a(dexaa.o)
                                0x444 (size before relaxing)
 .stab          0x00082ecc     0x10c8 /home/pcl2483/pedro/jadesoft/util/mcgen/Plib/libjt74opal.a(dph4pi.o)
                               0x10d4 (size before relaxing)
 .stab          0x00083f94      0xe58 /home/pcl2483/pedro/jadesoft/util/mcgen/Plib/libjt74opal.a(dph5pi.o)
                                0xe64 (size before relaxing)
 .stab          0x00084dec      0xe4c /home/pcl2483/pedro/jadesoft/util/mcgen/Plib/libjt74opal.a(dphnpi.o)
                                0xe58 (size before relaxing)
 .stab          0x00085c38      0x420 /home/pcl2483/pedro/jadesoft/util/mcgen/Plib/libjt74opal.a(dphsel.o)
                                0x42c (size before relaxing)
 .stab          0x00086058      0xa68 /home/pcl2483/pedro/jadesoft/util/mcgen/Plib/libjt74opal.a(dphsks.o)
                                0xa74 (size before relaxing)
 .stab          0x00086ac0      0x420 /home/pcl2483/pedro/jadesoft/util/mcgen/Plib/libjt74opal.a(dphsmu.o)
                                0x42c (size before relaxing)
 .stab          0x00086ee0      0x42c /home/pcl2483/pedro/jadesoft/util/mcgen/Plib/libjt74opal.a(dphspk.o)
                                0x438 (size before relaxing)
 .stab          0x0008730c      0x774 /home/pcl2483/pedro/jadesoft/util/mcgen/Plib/libjt74opal.a(dphsrk.o)
                                0x780 (size before relaxing)
 .stab          0x00087a80      0x6f0 /home/pcl2483/pedro/jadesoft/util/mcgen/Plib/libjt74opal.a(dphsro.o)
                                0x6fc (size before relaxing)
 .stab          0x00088170      0xd80 /home/pcl2483/pedro/jadesoft/util/mcgen/Plib/libjt74opal.a(dphtre.o)
                                0xd8c (size before relaxing)
 .stab          0x00088ef0      0xae0 /home/pcl2483/pedro/jadesoft/util/mcgen/Plib/libjt74opal.a(drcmu.o)
                                0xaec (size before relaxing)
 .stab          0x000899d0      0x324 /home/pcl2483/pedro/jadesoft/util/mcgen/Plib/libjt74opal.a(dwluph.o)
                                0x330 (size before relaxing)
 .stab          0x00089cf4      0x300 /home/pcl2483/pedro/jadesoft/util/mcgen/Plib/libjt74opal.a(fpirho.o)
                                0x30c (size before relaxing)
 .stab          0x00089ff4      0x30c /home/pcl2483/pedro/jadesoft/util/mcgen/Plib/libjt74opal.a(fpirk.o)
                                0x318 (size before relaxing)
 .stab          0x0008a300      0x3a8 /home/pcl2483/pedro/jadesoft/util/mcgen/Plib/libjt74opal.a(rotor2.o)
                                0x3b4 (size before relaxing)
 .stab          0x0008a6a8      0x390 /home/pcl2483/pedro/jadesoft/util/mcgen/Plib/libjt74opal.a(rotor3.o)
                                0x39c (size before relaxing)
 .stab          0x0008aa38      0x2f4 /home/pcl2483/pedro/jadesoft/util/mcgen/Plib/libjt74opal.a(rotpol.o)
                                0x300 (size before relaxing)
 .stab          0x0008ad2c      0x2f4 /home/pcl2483/pedro/jadesoft/util/mcgen/Plib/libjt74opal.a(rotpox.o)
                                0x300 (size before relaxing)
 .stab          0x0008b020      0x600 /home/pcl2483/pedro/jadesoft/util/mcgen/Plib/libjt74opal.a(sigee.o)
                                0x60c (size before relaxing)
 .stab          0x0008b620      0x360 /home/pcl2483/pedro/jadesoft/util/mcgen/Plib/libjt74opal.a(sphera.o)
                                0x36c (size before relaxing)
 .stab          0x0008b980      0x360 /home/pcl2483/pedro/jadesoft/util/mcgen/Plib/libjt74opal.a(spherd.o)
                                0x36c (size before relaxing)
 .stab          0x0008bce0      0x3c0 /home/pcl2483/pedro/jadesoft/util/mcgen/Plib/libjt74opal.a(bostd3.o)
                                0x3cc (size before relaxing)
 .stab          0x0008c0a0      0x3c0 /home/pcl2483/pedro/jadesoft/util/mcgen/Plib/libjt74opal.a(bostr3.o)
                                0x3cc (size before relaxing)
 .stab          0x0008c460      0x444 /home/pcl2483/pedro/jadesoft/util/mcgen/Plib/libjt74opal.a(bwigs.o)
                                0x450 (size before relaxing)
 .stab          0x0008c8a4      0x9a8 /home/pcl2483/pedro/jadesoft/util/mcgen/Plib/libjt74opal.a(choice.o)
                                0x9b4 (size before relaxing)
 .stab          0x0008d24c      0x780 /home/pcl2483/pedro/jadesoft/util/mcgen/Plib/libjt74opal.a(dadmaa.o)
                                0x78c (size before relaxing)
 .stab          0x0008d9cc      0x450 /home/pcl2483/pedro/jadesoft/util/mcgen/Plib/libjt74opal.a(dam4pi.o)
                                0x45c (size before relaxing)
 .stab          0x0008de1c      0x804 /home/pcl2483/pedro/jadesoft/util/mcgen/Plib/libjt74opal.a(dampog.o)
                                0x810 (size before relaxing)
 .stab          0x0008e620      0xb10 /home/pcl2483/pedro/jadesoft/util/mcgen/Plib/libjt74opal.a(damppk.o)
                                0xb1c (size before relaxing)
 .stab          0x0008f130      0x378 /home/pcl2483/pedro/jadesoft/util/mcgen/Plib/libjt74opal.a(dampry.o)
                                0x384 (size before relaxing)
 .stab          0x0008f4a8      0x45c /home/pcl2483/pedro/jadesoft/util/mcgen/Plib/libjt74opal.a(dcdmas.o)
                                0x468 (size before relaxing)
 .stab          0x0008f904      0x42c /home/pcl2483/pedro/jadesoft/util/mcgen/Plib/libjt74opal.a(dphsaa.o)
                                0x438 (size before relaxing)
 .stab          0x0008fd30      0x594 /home/pcl2483/pedro/jadesoft/util/mcgen/Plib/libjt74opal.a(form1.o)
                                0x5a0 (size before relaxing)
 .stab          0x000902c4      0x624 /home/pcl2483/pedro/jadesoft/util/mcgen/Plib/libjt74opal.a(form2.o)
                                0x630 (size before relaxing)
 .stab          0x000908e8      0x318 /home/pcl2483/pedro/jadesoft/util/mcgen/Plib/libjt74opal.a(form3.o)
                                0x324 (size before relaxing)
 .stab          0x00090c00      0x6cc /home/pcl2483/pedro/jadesoft/util/mcgen/Plib/libjt74opal.a(form4.o)
                                0x6d8 (size before relaxing)
 .stab          0x000912cc      0x570 /home/pcl2483/pedro/jadesoft/util/mcgen/Plib/libjt74opal.a(form5.o)
                                0x57c (size before relaxing)
 .stab          0x0009183c      0x4a4 /home/pcl2483/pedro/jadesoft/util/mcgen/Plib/libjt74opal.a(formom.o)
                                0x4b0 (size before relaxing)
 .stab          0x00091ce0      0x3fc /home/pcl2483/pedro/jadesoft/util/mcgen/Plib/libjt74opal.a(fpik.o)
                                0x408 (size before relaxing)
 .stab          0x000920dc      0x420 /home/pcl2483/pedro/jadesoft/util/mcgen/Plib/libjt74opal.a(fpikm.o)
                                0x42c (size before relaxing)
 .stab          0x000924fc      0x474 /home/pcl2483/pedro/jadesoft/util/mcgen/Plib/libjt74opal.a(fpikmd.o)
                                0x480 (size before relaxing)
 .stab          0x00092970      0x30c /home/pcl2483/pedro/jadesoft/util/mcgen/Plib/libjt74opal.a(gfun.o)
                                0x318 (size before relaxing)
 .stab          0x00092c7c      0x474 /home/pcl2483/pedro/jadesoft/util/mcgen/Plib/libjt74opal.a(prod5.o)
                                0x480 (size before relaxing)
 .stab          0x000930f0      0x3a8 /home/pcl2483/pedro/jadesoft/util/mcgen/Plib/libjt74opal.a(rotod2.o)
                                0x3b4 (size before relaxing)
 .stab          0x00093498      0x3a8 /home/pcl2483/pedro/jadesoft/util/mcgen/Plib/libjt74opal.a(rotod3.o)
                                0x3b4 (size before relaxing)
 .stab          0x00093840      0x66c /home/pcl2483/pedro/jadesoft/util/mcgen/Plib/libjt74opal.a(sqm2.o)
                                0x678 (size before relaxing)
 .stab          0x00093eac      0x810 /home/pcl2483/pedro/jadesoft/util/mcgen/Plib/libjt74opal.a(thb.o)
                                0x81c (size before relaxing)
 .stab          0x000946bc      0x30c /home/pcl2483/pedro/jadesoft/util/mcgen/Plib/libjt74opal.a(wigfor.o)
                                0x318 (size before relaxing)
 .stab          0x000949c8      0x3cc /home/pcl2483/pedro/jadesoft/util/mcgen/Plib/libjt74opal.a(bwig.o)
                                0x3d8 (size before relaxing)
 .stab          0x00094d94      0x3cc /home/pcl2483/pedro/jadesoft/util/mcgen/Plib/libjt74opal.a(bwigm.o)
                                0x3d8 (size before relaxing)
 .stab          0x00095160      0x4b0 /home/pcl2483/pedro/jadesoft/util/mcgen/Plib/libjt74opal.a(claxi.o)
                                0x4bc (size before relaxing)
 .stab          0x00095610      0x300 /home/pcl2483/pedro/jadesoft/util/mcgen/Plib/libjt74opal.a(clnut.o)
                                0x30c (size before relaxing)
 .stab          0x00095910      0x354 /home/pcl2483/pedro/jadesoft/util/mcgen/Plib/libjt74opal.a(clvec.o)
                                0x360 (size before relaxing)
 .stab          0x00095c64      0xe58 /home/pcl2483/pedro/jadesoft/util/mcgen/Plib/libjt74opal.a(curr.o)
                                0xe64 (size before relaxing)
 .stab          0x00096abc      0x558 /home/pcl2483/pedro/jadesoft/util/mcgen/Plib/libjt74opal.a(dilog.o)
                                0x564 (size before relaxing)
 .stab          0x00097014      0xe28 /home/pcl2483/pedro/jadesoft/util/mcgen/Plib/libckern105.a(ckern.o)
                                0xe34 (size before relaxing)
 .stab          0x00097e3c      0x600 /home/pcl2483/pedro/jadesoft/util/mcgen/Plib/libckern105.a(cksord.o)
                                0x60c (size before relaxing)
 .stab          0x0009843c      0x48c /home/pcl2483/pedro/jadesoft/util/mcgen/Plib/libckern105.a(cnjet.o)
                                0x498 (size before relaxing)
 .stab          0x000988c8      0x45c /home/pcl2483/pedro/jadesoft/util/mcgen/Plib/libpx114.a(pxang3.o)
                                0x468 (size before relaxing)
 .stab          0x00098d24      0x3d8 /home/pcl2483/pedro/jadesoft/util/mcgen/Plib/libpx114.a(pxanxy.o)
                                0x3e4 (size before relaxing)
 .stab          0x000990fc      0xb94 /home/pcl2483/pedro/jadesoft/util/mcgen/Plib/libpx114.a(pxcone.o)
                                0xba0 (size before relaxing)
 .stab          0x00099c90      0x330 /home/pcl2483/pedro/jadesoft/util/mcgen/Plib/libpx114.a(pxcopv.o)
                                0x33c (size before relaxing)
 .stab          0x00099fc0      0x4b0 /home/pcl2483/pedro/jadesoft/util/mcgen/Plib/libpx114.a(pxjpdg.o)
                                0x4bc (size before relaxing)
 .stab          0x0009a470      0x7a4 /home/pcl2483/pedro/jadesoft/util/mcgen/Plib/libpx114.a(pxjsp3.o)
                                0x7b0 (size before relaxing)
 .stab          0x0009ac14      0x834 /home/pcl2483/pedro/jadesoft/util/mcgen/Plib/libpx114.a(pxlsp3.o)
                                0x840 (size before relaxing)
 .stab          0x0009b448      0x5c4 /home/pcl2483/pedro/jadesoft/util/mcgen/Plib/libpx114.a(pxlth4.o)
                                0x5d0 (size before relaxing)
 .stab          0x0009ba0c      0xf30 /home/pcl2483/pedro/jadesoft/util/mcgen/Plib/libpx114.a(pxlut3.o)
                                0xf3c (size before relaxing)
 .stab          0x0009c93c      0x390 /home/pcl2483/pedro/jadesoft/util/mcgen/Plib/libpx114.a(pxlzf5.o)
                                0x39c (size before relaxing)
 .stab          0x0009cccc      0x57c /home/pcl2483/pedro/jadesoft/util/mcgen/Plib/libpx114.a(pxmmbb.o)
                                0x588 (size before relaxing)
 .stab          0x0009d248      0x3fc /home/pcl2483/pedro/jadesoft/util/mcgen/Plib/libpx114.a(pxnorv.o)
                                0x408 (size before relaxing)
 .stab          0x0009d644      0x858 /home/pcl2483/pedro/jadesoft/util/mcgen/Plib/libpx114.a(pxolap.o)
                                0x864 (size before relaxing)
 .stab          0x0009de9c      0x594 /home/pcl2483/pedro/jadesoft/util/mcgen/Plib/libpx114.a(pxord.o)
                                0x5a0 (size before relaxing)
 .stab          0x0009e430      0x42c /home/pcl2483/pedro/jadesoft/util/mcgen/Plib/libpx114.a(pxplt3.o)
                                0x438 (size before relaxing)
 .stab          0x0009e85c      0x384 /home/pcl2483/pedro/jadesoft/util/mcgen/Plib/libpx114.a(pxplu3.o)
                                0x390 (size before relaxing)
 .stab          0x0009ebe0      0x510 /home/pcl2483/pedro/jadesoft/util/mcgen/Plib/libpx114.a(pxprcv.o)
                                0x51c (size before relaxing)
 .stab          0x0009f0f0      0x504 /home/pcl2483/pedro/jadesoft/util/mcgen/Plib/libpx114.a(pxprrv.o)
                                0x510 (size before relaxing)
 .stab          0x0009f5f4      0x498 /home/pcl2483/pedro/jadesoft/util/mcgen/Plib/libpx114.a(pxrap4.o)
                                0x4a4 (size before relaxing)
 .stab          0x0009fa8c      0x444 /home/pcl2483/pedro/jadesoft/util/mcgen/Plib/libpx114.a(pxrmx3.o)
                                0x450 (size before relaxing)
 .stab          0x0009fed0      0x348 /home/pcl2483/pedro/jadesoft/util/mcgen/Plib/libpx114.a(pxrob3.o)
                                0x354 (size before relaxing)
 .stab          0x000a0218      0x348 /home/pcl2483/pedro/jadesoft/util/mcgen/Plib/libpx114.a(pxrof3.o)
                                0x354 (size before relaxing)
 .stab          0x000a0560      0x63c /home/pcl2483/pedro/jadesoft/util/mcgen/Plib/libpx114.a(pxsear.o)
                                0x648 (size before relaxing)
 .stab          0x000a0b9c      0x570 /home/pcl2483/pedro/jadesoft/util/mcgen/Plib/libpx114.a(pxsorv.o)
                                0x57c (size before relaxing)
 .stab          0x000a110c      0x588 /home/pcl2483/pedro/jadesoft/util/mcgen/Plib/libpx114.a(pxtry.o)
                                0x594 (size before relaxing)
 .stab          0x000a1694      0x444 /home/pcl2483/pedro/jadesoft/util/mcgen/Plib/libpx114.a(pxuvec.o)
                                0x450 (size before relaxing)
 .stab          0x000a1ad8      0x324 /home/pcl2483/pedro/jadesoft/util/mcgen/Plib/libpx114.a(pxzerv.o)
                                0x330 (size before relaxing)
 .stab          0x000a1dfc      0xf3c /home/pcl2483/pedro/jadesoft/util/mcgen/Plib/libpx114.a(ykern.o)
                                0xf48 (size before relaxing)
 .stab          0x000a2d38      0x42c /home/pcl2483/pedro/jadesoft/util/mcgen/Plib/libpx114.a(ynjet.o)
                                0x438 (size before relaxing)
 .stab          0x000a3164      0x474 /home/pcl2483/pedro/jadesoft/util/mcgen/Plib/libpx114.a(yyjet.o)
                                0x480 (size before relaxing)
 .stab          0x000a35d8      0x354 /home/pcl2483/pedro/jadesoft/util/mcgen/Plib/libpx114.a(pxaddv.o)
                                0x360 (size before relaxing)
 .stab          0x000a392c      0x9a8 /home/pcl2483/pedro/jadesoft/util/mcgen/Plib/libpx114.a(pxdiam.o)
                                0x9b4 (size before relaxing)
 .stab          0x000a42d4      0x3d8 /home/pcl2483/pedro/jadesoft/util/mcgen/Plib/libpx114.a(pxmulm.o)
                                0x3e4 (size before relaxing)
 .stab          0x000a46ac      0x408 /home/pcl2483/pedro/jadesoft/util/mcgen/Plib/libpx114.a(pxnew.o)
                                0x414 (size before relaxing)
 .stab          0x000a4ab4      0x36c /home/pcl2483/pedro/jadesoft/util/mcgen/Plib/libpx114.a(pxsame.o)
                                0x378 (size before relaxing)
 .stab          0x000a4e20      0x3a8 /home/pcl2483/pedro/jadesoft/util/mcgen/Plib/libpx114.a(pxunim.o)
                                0x3b4 (size before relaxing)
 .stab          0x000a51c8      0xd80 /usr/lib/gcc-lib/i686-pc-linux-gnu/2.95.3/libg2c.a(close.o)
                                0xdc8 (size before relaxing)
 .stab          0x000a5f48      0x1bc /usr/lib/gcc-lib/i686-pc-linux-gnu/2.95.3/libg2c.a(dolio.o)
                                0x3fc (size before relaxing)
 .stab          0x000a6104      0x5d0 /usr/lib/gcc-lib/i686-pc-linux-gnu/2.95.3/libg2c.a(due.o)
                                0xdec (size before relaxing)
 .stab          0x000a66d4      0x6c0 /usr/lib/gcc-lib/i686-pc-linux-gnu/2.95.3/libg2c.a(endfile.o)
                                0xf18 (size before relaxing)
 .stab          0x000a6d94     0x13a4 /usr/lib/gcc-lib/i686-pc-linux-gnu/2.95.3/libg2c.a(err.o)
                               0x1554 (size before relaxing)
 .stab          0x000a8138     0x15a8 /usr/lib/gcc-lib/i686-pc-linux-gnu/2.95.3/libg2c.a(fmt.o)
                               0x1dc4 (size before relaxing)
 .stab          0x000a96e0      0x93c /usr/lib/gcc-lib/i686-pc-linux-gnu/2.95.3/libg2c.a(iio.o)
                               0x1188 (size before relaxing)
 .stab          0x000aa01c      0x678 /usr/lib/gcc-lib/i686-pc-linux-gnu/2.95.3/libg2c.a(inquire.o)
                                0xe94 (size before relaxing)
 .stab          0x000aa694     0x1a28 /usr/lib/gcc-lib/i686-pc-linux-gnu/2.95.3/libg2c.a(lread.o)
                               0x22b0 (size before relaxing)
 .stab          0x000ac0bc      0xe94 /usr/lib/gcc-lib/i686-pc-linux-gnu/2.95.3/libg2c.a(open.o)
                               0x16d4 (size before relaxing)
 .stab          0x000acf50     0x17f4 /usr/lib/gcc-lib/i686-pc-linux-gnu/2.95.3/libg2c.a(rdfmt.o)
                               0x20a0 (size before relaxing)
 .stab          0x000ae744      0x3c0 /usr/lib/gcc-lib/i686-pc-linux-gnu/2.95.3/libg2c.a(rewind.o)
                                0xbdc (size before relaxing)
 .stab          0x000aeb04      0x66c /usr/lib/gcc-lib/i686-pc-linux-gnu/2.95.3/libg2c.a(rsfe.o)
                                0xeb8 (size before relaxing)
 .stab          0x000af170      0x444 /usr/lib/gcc-lib/i686-pc-linux-gnu/2.95.3/libg2c.a(sfe.o)
                                0xc60 (size before relaxing)
 .stab          0x000af5b4      0x678 /usr/lib/gcc-lib/i686-pc-linux-gnu/2.95.3/libg2c.a(sue.o)
                                0xe94 (size before relaxing)
 .stab          0x000afc2c      0x744 /usr/lib/gcc-lib/i686-pc-linux-gnu/2.95.3/libg2c.a(uio.o)
                                0xf6c (size before relaxing)
 .stab          0x000b0370      0x5a0 /usr/lib/gcc-lib/i686-pc-linux-gnu/2.95.3/libg2c.a(util.o)
                                0xf30 (size before relaxing)
 .stab          0x000b0910     0x1308 /usr/lib/gcc-lib/i686-pc-linux-gnu/2.95.3/libg2c.a(wrtfmt.o)
                               0x1b54 (size before relaxing)
 .stab          0x000b1c18      0x63c /usr/lib/gcc-lib/i686-pc-linux-gnu/2.95.3/libg2c.a(wsfe.o)
                                0xe88 (size before relaxing)
 .stab          0x000b2254      0x444 /usr/lib/gcc-lib/i686-pc-linux-gnu/2.95.3/libg2c.a(wsle.o)
                                0xc90 (size before relaxing)
 .stab          0x000b2698      0xb40 /usr/lib/gcc-lib/i686-pc-linux-gnu/2.95.3/libg2c.a(main.o)
                                0xf48 (size before relaxing)
 .stab          0x000b31d8      0x450 /usr/lib/gcc-lib/i686-pc-linux-gnu/2.95.3/libg2c.a(s_stop.o)
                                0xf18 (size before relaxing)
 .stab          0x000b3628      0x408 /usr/lib/gcc-lib/i686-pc-linux-gnu/2.95.3/libg2c.a(sig_die.o)
                                0xf00 (size before relaxing)
 .stab          0x000b3a30      0x2c4 /usr/lib/gcc-lib/i686-pc-linux-gnu/2.95.3/libg2c.a(setarg.o)
                                0x948 (size before relaxing)
 .stab          0x000b3cf4      0x504 /usr/lib/gcc-lib/i686-pc-linux-gnu/2.95.3/libg2c.a(setsig.o)
                               0x1020 (size before relaxing)
 .stab          0x000b41f8      0x264 /usr/lib/gcc-lib/i686-pc-linux-gnu/2.95.3/libg2c.a(pow_dd.o)
                                0x4e0 (size before relaxing)
 .stab          0x000b445c      0x324 /usr/lib/gcc-lib/i686-pc-linux-gnu/2.95.3/libg2c.a(pow_zz.o)
                                0x600 (size before relaxing)
 .stab          0x000b4780      0x174 /usr/lib/gcc-lib/i686-pc-linux-gnu/2.95.3/libg2c.a(c_abs.o)
                                0x3b4 (size before relaxing)
 .stab          0x000b48f4      0x2d0 /usr/lib/gcc-lib/i686-pc-linux-gnu/2.95.3/libg2c.a(z_log.o)
                                0x5ac (size before relaxing)
 .stab          0x000b4bc4      0x3c0 /usr/lib/gcc-lib/i686-pc-linux-gnu/2.95.3/libg2c.a(z_sqrt.o)
                                0x69c (size before relaxing)
 .stab          0x000b4f84      0x1ec /usr/lib/gcc-lib/i686-pc-linux-gnu/2.95.3/libg2c.a(r_lg10.o)
                                0x4c8 (size before relaxing)
 .stab          0x000b5170      0x240 /usr/lib/gcc-lib/i686-pc-linux-gnu/2.95.3/libg2c.a(r_mod.o)
                                0x480 (size before relaxing)
 .stab          0x000b53b0      0x294 /usr/lib/gcc-lib/i686-pc-linux-gnu/2.95.3/libg2c.a(i_indx.o)
                                0x4d4 (size before relaxing)
 .stab          0x000b5644      0x1bc /usr/lib/gcc-lib/i686-pc-linux-gnu/2.95.3/libg2c.a(l_gt.o)
                                0x3fc (size before relaxing)
 .stab          0x000b5800      0x1bc /usr/lib/gcc-lib/i686-pc-linux-gnu/2.95.3/libg2c.a(l_lt.o)
                                0x3fc (size before relaxing)
 .stab          0x000b59bc      0x93c /usr/lib/gcc-lib/i686-pc-linux-gnu/2.95.3/libg2c.a(s_cat.o)
                               0x114c (size before relaxing)
 .stab          0x000b62f8      0x2f4 /usr/lib/gcc-lib/i686-pc-linux-gnu/2.95.3/libg2c.a(s_cmp.o)
                                0x534 (size before relaxing)
 .stab          0x000b65ec      0x2d0 /usr/lib/gcc-lib/i686-pc-linux-gnu/2.95.3/libg2c.a(s_copy.o)
                                0x510 (size before relaxing)
 .stab          0x000b68bc      0x1d4 /usr/lib/gcc-lib/i686-pc-linux-gnu/2.95.3/libg2c.a(lnblnk_.o)
                                0x414 (size before relaxing)
 .stab          0x000b6a90      0x2dc /usr/lib/gcc-lib/i686-pc-linux-gnu/2.95.3/libg2c.a(fmtlib.o)
                                0x51c (size before relaxing)
 .stab          0x000b6d6c      0xd20 /usr/lib/gcc-lib/i686-pc-linux-gnu/2.95.3/libg2c.a(lwrite.o)
                               0x1584 (size before relaxing)
 .stab          0x000b7a8c      0xd14 /usr/lib/gcc-lib/i686-pc-linux-gnu/2.95.3/libg2c.a(wref.o)
                               0x15c0 (size before relaxing)
 .stab          0x000b87a0      0x3a8 /usr/lib/gcc-lib/i686-pc-linux-gnu/2.95.3/libg2c.a(F77_aloc.o)
                                0xef4 (size before relaxing)
 .stab          0x000b8b48      0x324 /usr/lib/gcc-lib/i686-pc-linux-gnu/2.95.3/libg2c.a(cabs.o)
                                0x39c (size before relaxing)
 .stab          0x000b8e6c      0x27c /usr/lib/gcc-lib/i686-pc-linux-gnu/2.95.3/libg2c.a(exit_.o)
                                0xb58 (size before relaxing)

.stabstr        0x00000000    0x324c5
 *(.stabstr)
 .stabstr       0x00000000    0x324c5 mchw59_105j.o
                                  0x0 (size before relaxing)

.stab.excl
 *(.stab.excl)

.stab.exclstr
 *(.stab.exclstr)

.stab.index
 *(.stab.index)

.stab.indexstr
 *(.stab.indexstr)

.comment        0x00000000     0x8437
 *(.comment)
 .comment       0x00000000       0x26 /usr/lib/crt1.o
 .comment       0x00000026       0x26 /usr/lib/crti.o
 .comment       0x0000004c       0x26 /usr/lib/gcc-lib/i686-pc-linux-gnu/2.95.3/crtbegin.o
 .comment       0x00000072       0x26 mchw59_105j.o
 .comment       0x00000098       0x26 /home/pcl2483/pedro/jadesoft/util/mcgen/Plib/libmc105j.a(mcgetf.o)
 .comment       0x000000be       0x26 /home/pcl2483/pedro/jadesoft/util/mcgen/Plib/libmc105j.a(mcgeth.o)
 .comment       0x000000e4       0x26 /home/pcl2483/pedro/jadesoft/util/mcgen/Plib/libmc105j.a(mcgetp.o)
 .comment       0x0000010a       0x26 /home/pcl2483/pedro/jadesoft/util/mcgen/Plib/libmc105j.a(mcinit.o)
 .comment       0x00000130       0x26 /home/pcl2483/pedro/jadesoft/util/mcgen/Plib/libmc105j.a(mcstbl.o)
 .comment       0x00000156       0x26 /home/pcl2483/pedro/jadesoft/util/mcgen/Plib/libmc105j.a(mcwrit.o)
 .comment       0x0000017c       0x26 /home/pcl2483/pedro/jadesoft/util/mcgen/Plib/libmc105j.a(pxeecb.o)
 .comment       0x000001a2       0x26 /home/pcl2483/pedro/jadesoft/util/mcgen/Plib/libmc105j.a(evwrtj.o)
 .comment       0x000001c8       0x26 /home/pcl2483/pedro/jadesoft/util/mcgen/Plib/libmc105j.a(incprd.o)
 .comment       0x000001ee       0x26 /home/pcl2483/pedro/jadesoft/util/mcgen/Plib/libmc105j.a(jadeco.o)
 .comment       0x00000214       0x26 /home/pcl2483/pedro/jadesoft/util/mcgen/Plib/libmc105j.a(jtconv.o)
 .comment       0x0000023a       0x26 /home/pcl2483/pedro/jadesoft/util/mcgen/Plib/libmc105j.a(mcrnst.o)
 .comment       0x00000260       0x26 /home/pcl2483/pedro/jadesoft/util/mcgen/Plib/libmc105j.a(ntcprd.o)
 .comment       0x00000286       0x26 /home/pcl2483/pedro/jadesoft/util/mcgen/Plib/libmc105j.a(prcprd.o)
 .comment       0x000002ac       0x26 /home/pcl2483/pedro/jadesoft/util/mcgen/Plib/libmc105j.a(wrcprd.o)
 .comment       0x000002d2       0x26 /home/pcl2483/pedro/jadesoft/util/mcgen/Plib/libherwig59.a(fxhlms.o)
 .comment       0x000002f8       0x26 /home/pcl2483/pedro/jadesoft/util/mcgen/Plib/libherwig59.a(h59driv.o)
 .comment       0x0000031e       0x26 /home/pcl2483/pedro/jadesoft/util/mcgen/Plib/libherwig59.a(hwbgen.o)
 .comment       0x00000344       0x26 /home/pcl2483/pedro/jadesoft/util/mcgen/Plib/libherwig59.a(hwbjco.o)
 .comment       0x0000036a       0x26 /home/pcl2483/pedro/jadesoft/util/mcgen/Plib/libherwig59.a(hwbmas.o)
 .comment       0x00000390       0x26 /home/pcl2483/pedro/jadesoft/util/mcgen/Plib/libherwig59.a(hwbran.o)
 .comment       0x000003b6       0x26 /home/pcl2483/pedro/jadesoft/util/mcgen/Plib/libherwig59.a(hwbspa.o)
 .comment       0x000003dc       0x26 /home/pcl2483/pedro/jadesoft/util/mcgen/Plib/libherwig59.a(hwbspn.o)
 .comment       0x00000402       0x26 /home/pcl2483/pedro/jadesoft/util/mcgen/Plib/libherwig59.a(hwbtim.o)
 .comment       0x00000428       0x26 /home/pcl2483/pedro/jadesoft/util/mcgen/Plib/libherwig59.a(hwbvmc.o)
 .comment       0x0000044e       0x26 /home/pcl2483/pedro/jadesoft/util/mcgen/Plib/libherwig59.a(hwcdec.o)
 .comment       0x00000474       0x26 /home/pcl2483/pedro/jadesoft/util/mcgen/Plib/libherwig59.a(hwcfla.o)
 .comment       0x0000049a       0x26 /home/pcl2483/pedro/jadesoft/util/mcgen/Plib/libherwig59.a(hwcfor.o)
 .comment       0x000004c0       0x26 /home/pcl2483/pedro/jadesoft/util/mcgen/Plib/libherwig59.a(hwcgsp.o)
 .comment       0x000004e6       0x26 /home/pcl2483/pedro/jadesoft/util/mcgen/Plib/libherwig59.a(hwchad.o)
 .comment       0x0000050c       0x26 /home/pcl2483/pedro/jadesoft/util/mcgen/Plib/libherwig59.a(hwconv.o)
 .comment       0x00000532       0x26 /home/pcl2483/pedro/jadesoft/util/mcgen/Plib/libherwig59.a(hwdhqk.o)
 .comment       0x00000558       0x26 /home/pcl2483/pedro/jadesoft/util/mcgen/Plib/libherwig59.a(hwdpwt.o)
 .comment       0x0000057e       0x26 /home/pcl2483/pedro/jadesoft/util/mcgen/Plib/libherwig59.a(hwdthr.o)
 .comment       0x000005a4       0x26 /home/pcl2483/pedro/jadesoft/util/mcgen/Plib/libherwig59.a(hwdtwo.o)
 .comment       0x000005ca       0x26 /home/pcl2483/pedro/jadesoft/util/mcgen/Plib/libherwig59.a(hwdwwt.o)
 .comment       0x000005f0       0x26 /home/pcl2483/pedro/jadesoft/util/mcgen/Plib/libherwig59.a(hwefin.o)
 .comment       0x00000616       0x26 /home/pcl2483/pedro/jadesoft/util/mcgen/Plib/libherwig59.a(hweini.o)
 .comment       0x0000063c       0x26 /home/pcl2483/pedro/jadesoft/util/mcgen/Plib/libherwig59.a(hwepro.o)
 .comment       0x00000662       0x26 /home/pcl2483/pedro/jadesoft/util/mcgen/Plib/libherwig59.a(hwhbgf.o)
 .comment       0x00000688       0x26 /home/pcl2483/pedro/jadesoft/util/mcgen/Plib/libherwig59.a(hwhbki.o)
 .comment       0x000006ae       0x26 /home/pcl2483/pedro/jadesoft/util/mcgen/Plib/libherwig59.a(hwhbrn.o)
 .comment       0x000006d4       0x26 /home/pcl2483/pedro/jadesoft/util/mcgen/Plib/libherwig59.a(hwhbsg.o)
 .comment       0x000006fa       0x26 /home/pcl2483/pedro/jadesoft/util/mcgen/Plib/libherwig59.a(hwhdis.o)
 .comment       0x00000720       0x26 /home/pcl2483/pedro/jadesoft/util/mcgen/Plib/libherwig59.a(hwhdyp.o)
 .comment       0x00000746       0x26 /home/pcl2483/pedro/jadesoft/util/mcgen/Plib/libherwig59.a(hwhegg.o)
 .comment       0x0000076c       0x26 /home/pcl2483/pedro/jadesoft/util/mcgen/Plib/libherwig59.a(hwhegw.o)
 .comment       0x00000792       0x26 /home/pcl2483/pedro/jadesoft/util/mcgen/Plib/libherwig59.a(hwhegx.o)
 .comment       0x000007b8       0x26 /home/pcl2483/pedro/jadesoft/util/mcgen/Plib/libherwig59.a(hwhepa.o)
 .comment       0x000007de       0x26 /home/pcl2483/pedro/jadesoft/util/mcgen/Plib/libherwig59.a(hwhepg.o)
 .comment       0x00000804       0x26 /home/pcl2483/pedro/jadesoft/util/mcgen/Plib/libherwig59.a(hwheww.o)
 .comment       0x0000082a       0x26 /home/pcl2483/pedro/jadesoft/util/mcgen/Plib/libherwig59.a(hwhhvy.o)
 .comment       0x00000850       0x26 /home/pcl2483/pedro/jadesoft/util/mcgen/Plib/libherwig59.a(hwhigj.o)
 .comment       0x00000876       0x26 /home/pcl2483/pedro/jadesoft/util/mcgen/Plib/libherwig59.a(hwhigm.o)
 .comment       0x0000089c       0x26 /home/pcl2483/pedro/jadesoft/util/mcgen/Plib/libherwig59.a(hwhigs.o)
 .comment       0x000008c2       0x26 /home/pcl2483/pedro/jadesoft/util/mcgen/Plib/libherwig59.a(hwhigt.o)
 .comment       0x000008e8       0x26 /home/pcl2483/pedro/jadesoft/util/mcgen/Plib/libherwig59.a(hwhigw.o)
 .comment       0x0000090e       0x26 /home/pcl2483/pedro/jadesoft/util/mcgen/Plib/libherwig59.a(hwhigz.o)
 .comment       0x00000934       0x26 /home/pcl2483/pedro/jadesoft/util/mcgen/Plib/libherwig59.a(hwhph2.o)
 .comment       0x0000095a       0x26 /home/pcl2483/pedro/jadesoft/util/mcgen/Plib/libherwig59.a(hwhpho.o)
 .comment       0x00000980       0x26 /home/pcl2483/pedro/jadesoft/util/mcgen/Plib/libherwig59.a(hwhppb.o)
 .comment       0x000009a6       0x26 /home/pcl2483/pedro/jadesoft/util/mcgen/Plib/libherwig59.a(hwhppe.o)
 .comment       0x000009cc       0x26 /home/pcl2483/pedro/jadesoft/util/mcgen/Plib/libherwig59.a(hwhpph.o)
 .comment       0x000009f2       0x26 /home/pcl2483/pedro/jadesoft/util/mcgen/Plib/libherwig59.a(hwhppm.o)
 .comment       0x00000a18       0x26 /home/pcl2483/pedro/jadesoft/util/mcgen/Plib/libherwig59.a(hwhppt.o)
 .comment       0x00000a3e       0x26 /home/pcl2483/pedro/jadesoft/util/mcgen/Plib/libherwig59.a(hwhpqs.o)
 .comment       0x00000a64       0x26 /home/pcl2483/pedro/jadesoft/util/mcgen/Plib/libherwig59.a(hwhqcd.o)
 .comment       0x00000a8a       0x26 /home/pcl2483/pedro/jadesoft/util/mcgen/Plib/libherwig59.a(hwhqcp.o)
 .comment       0x00000ab0       0x26 /home/pcl2483/pedro/jadesoft/util/mcgen/Plib/libherwig59.a(hwhsng.o)
 .comment       0x00000ad6       0x26 /home/pcl2483/pedro/jadesoft/util/mcgen/Plib/libherwig59.a(hwhsnm.o)
 .comment       0x00000afc       0x26 /home/pcl2483/pedro/jadesoft/util/mcgen/Plib/libherwig59.a(hwhv1j.o)
 .comment       0x00000b22       0x26 /home/pcl2483/pedro/jadesoft/util/mcgen/Plib/libherwig59.a(hwhwex.o)
 .comment       0x00000b48       0x26 /home/pcl2483/pedro/jadesoft/util/mcgen/Plib/libherwig59.a(hwhwpr.o)
 .comment       0x00000b6e       0x26 /home/pcl2483/pedro/jadesoft/util/mcgen/Plib/libherwig59.a(hwigin.o)
 .comment       0x00000b94       0x26 /home/pcl2483/pedro/jadesoft/util/mcgen/Plib/libherwig59.a(hwmwgt.o)
 .comment       0x00000bba       0x26 /home/pcl2483/pedro/jadesoft/util/mcgen/Plib/libherwig59.a(hwrazm.o)
 .comment       0x00000be0       0x26 /home/pcl2483/pedro/jadesoft/util/mcgen/Plib/libherwig59.a(hwrgau.o)
 .comment       0x00000c06       0x26 /home/pcl2483/pedro/jadesoft/util/mcgen/Plib/libherwig59.a(hwrgen.o)
 .comment       0x00000c2c       0x26 /home/pcl2483/pedro/jadesoft/util/mcgen/Plib/libherwig59.a(hwrint.o)
 .comment       0x00000c52       0x26 /home/pcl2483/pedro/jadesoft/util/mcgen/Plib/libherwig59.a(hwrlog.o)
 .comment       0x00000c78       0x26 /home/pcl2483/pedro/jadesoft/util/mcgen/Plib/libherwig59.a(hwrpip.o)
 .comment       0x00000c9e       0x26 /home/pcl2483/pedro/jadesoft/util/mcgen/Plib/libherwig59.a(hwrpow.o)
 .comment       0x00000cc4       0x26 /home/pcl2483/pedro/jadesoft/util/mcgen/Plib/libherwig59.a(hwruni.o)
 .comment       0x00000cea       0x26 /home/pcl2483/pedro/jadesoft/util/mcgen/Plib/libherwig59.a(hwsbrn.o)
 .comment       0x00000d10       0x26 /home/pcl2483/pedro/jadesoft/util/mcgen/Plib/libherwig59.a(hwsfbr.o)
 .comment       0x00000d36       0x26 /home/pcl2483/pedro/jadesoft/util/mcgen/Plib/libherwig59.a(hwsfun.o)
 .comment       0x00000d5c       0x26 /home/pcl2483/pedro/jadesoft/util/mcgen/Plib/libherwig59.a(hwsgam.o)
 .comment       0x00000d82       0x26 /home/pcl2483/pedro/jadesoft/util/mcgen/Plib/libherwig59.a(hwsgen.o)
 .comment       0x00000da8       0x26 /home/pcl2483/pedro/jadesoft/util/mcgen/Plib/libherwig59.a(hwsgqq.o)
 .comment       0x00000dce       0x26 /home/pcl2483/pedro/jadesoft/util/mcgen/Plib/libherwig59.a(hwsspc.o)
 .comment       0x00000df4       0x26 /home/pcl2483/pedro/jadesoft/util/mcgen/Plib/libherwig59.a(hwssud.o)
 .comment       0x00000e1a       0x26 /home/pcl2483/pedro/jadesoft/util/mcgen/Plib/libherwig59.a(hwstab.o)
 .comment       0x00000e40       0x26 /home/pcl2483/pedro/jadesoft/util/mcgen/Plib/libherwig59.a(hwsval.o)
 .comment       0x00000e66       0x26 /home/pcl2483/pedro/jadesoft/util/mcgen/Plib/libherwig59.a(hwuaem.o)
 .comment       0x00000e8c       0x26 /home/pcl2483/pedro/jadesoft/util/mcgen/Plib/libherwig59.a(hwuaer.o)
 .comment       0x00000eb2       0x26 /home/pcl2483/pedro/jadesoft/util/mcgen/Plib/libherwig59.a(hwualf.o)
 .comment       0x00000ed8       0x26 /home/pcl2483/pedro/jadesoft/util/mcgen/Plib/libherwig59.a(hwubst.o)
 .comment       0x00000efe       0x26 /home/pcl2483/pedro/jadesoft/util/mcgen/Plib/libherwig59.a(hwucff.o)
 .comment       0x00000f24       0x26 /home/pcl2483/pedro/jadesoft/util/mcgen/Plib/libherwig59.a(hwudat.o)
 .comment       0x00000f4a       0x26 /home/pcl2483/pedro/jadesoft/util/mcgen/Plib/libherwig59.a(hwudkl.o)
 .comment       0x00000f70       0x26 /home/pcl2483/pedro/jadesoft/util/mcgen/Plib/libherwig59.a(hwuecm.o)
 .comment       0x00000f96       0x26 /home/pcl2483/pedro/jadesoft/util/mcgen/Plib/libherwig59.a(hwueec.o)
 .comment       0x00000fbc       0x26 /home/pcl2483/pedro/jadesoft/util/mcgen/Plib/libherwig59.a(hwuepr.o)
 .comment       0x00000fe2       0x26 /home/pcl2483/pedro/jadesoft/util/mcgen/Plib/libherwig59.a(hwufne.o)
 .comment       0x00001008       0x26 /home/pcl2483/pedro/jadesoft/util/mcgen/Plib/libherwig59.a(hwuinc.o)
 .comment       0x0000102e       0x26 /home/pcl2483/pedro/jadesoft/util/mcgen/Plib/libherwig59.a(hwuine.o)
 .comment       0x00001054       0x26 /home/pcl2483/pedro/jadesoft/util/mcgen/Plib/libherwig59.a(hwulb4.o)
 .comment       0x0000107a       0x26 /home/pcl2483/pedro/jadesoft/util/mcgen/Plib/libherwig59.a(hwuldo.o)
 .comment       0x000010a0       0x26 /home/pcl2483/pedro/jadesoft/util/mcgen/Plib/libherwig59.a(hwulob.o)
 .comment       0x000010c6       0x26 /home/pcl2483/pedro/jadesoft/util/mcgen/Plib/libherwig59.a(hwulof.o)
 .comment       0x000010ec       0x26 /home/pcl2483/pedro/jadesoft/util/mcgen/Plib/libherwig59.a(hwumas.o)
 .comment       0x00001112       0x26 /home/pcl2483/pedro/jadesoft/util/mcgen/Plib/libherwig59.a(hwupcm.o)
 .comment       0x00001138       0x26 /home/pcl2483/pedro/jadesoft/util/mcgen/Plib/libherwig59.a(hwures.o)
 .comment       0x0000115e       0x26 /home/pcl2483/pedro/jadesoft/util/mcgen/Plib/libherwig59.a(hwurob.o)
 .comment       0x00001184       0x26 /home/pcl2483/pedro/jadesoft/util/mcgen/Plib/libherwig59.a(hwurof.o)
 .comment       0x000011aa       0x26 /home/pcl2483/pedro/jadesoft/util/mcgen/Plib/libherwig59.a(hwurot.o)
 .comment       0x000011d0       0x26 /home/pcl2483/pedro/jadesoft/util/mcgen/Plib/libherwig59.a(hwusqr.o)
 .comment       0x000011f6       0x26 /home/pcl2483/pedro/jadesoft/util/mcgen/Plib/libherwig59.a(hwutab.o)
 .comment       0x0000121c       0x26 /home/pcl2483/pedro/jadesoft/util/mcgen/Plib/libherwig59.a(hwutim.o)
 .comment       0x00001242       0x26 /home/pcl2483/pedro/jadesoft/util/mcgen/Plib/libherwig59.a(hwvdif.o)
 .comment       0x00001268       0x26 /home/pcl2483/pedro/jadesoft/util/mcgen/Plib/libherwig59.a(hwvdot.o)
 .comment       0x0000128e       0x26 /home/pcl2483/pedro/jadesoft/util/mcgen/Plib/libherwig59.a(hwvequ.o)
 .comment       0x000012b4       0x26 /home/pcl2483/pedro/jadesoft/util/mcgen/Plib/libherwig59.a(hwvsca.o)
 .comment       0x000012da       0x26 /home/pcl2483/pedro/jadesoft/util/mcgen/Plib/libherwig59.a(hwvsum.o)
 .comment       0x00001300       0x26 /home/pcl2483/pedro/jadesoft/util/mcgen/Plib/libherwig59.a(hwvzro.o)
 .comment       0x00001326       0x26 /home/pcl2483/pedro/jadesoft/util/mcgen/Plib/libherwig59.a(hwwarn.o)
 .comment       0x0000134c       0x26 /home/pcl2483/pedro/jadesoft/util/mcgen/Plib/libherwig59.a(pdfset.o)
 .comment       0x00001372       0x26 /home/pcl2483/pedro/jadesoft/util/mcgen/Plib/libherwig59.a(sasgam.o)
 .comment       0x00001398       0x26 /home/pcl2483/pedro/jadesoft/util/mcgen/Plib/libherwig59.a(sasvmd.o)
 .comment       0x000013be       0x26 /home/pcl2483/pedro/jadesoft/util/mcgen/Plib/libherwig59.a(structm.o)
 .comment       0x000013e4       0x26 /home/pcl2483/pedro/jadesoft/util/mcgen/Plib/libherwig59.a(hvcbvi.o)
 .comment       0x0000140a       0x26 /home/pcl2483/pedro/jadesoft/util/mcgen/Plib/libherwig59.a(hvhbvi.o)
 .comment       0x00001430       0x26 /home/pcl2483/pedro/jadesoft/util/mcgen/Plib/libherwig59.a(hwaend.o)
 .comment       0x00001456       0x26 /home/pcl2483/pedro/jadesoft/util/mcgen/Plib/libherwig59.a(hwbazf.o)
 .comment       0x0000147c       0x26 /home/pcl2483/pedro/jadesoft/util/mcgen/Plib/libherwig59.a(hwbcon.o)
 .comment       0x000014a2       0x26 /home/pcl2483/pedro/jadesoft/util/mcgen/Plib/libherwig59.a(hwbded.o)
 .comment       0x000014c8       0x26 /home/pcl2483/pedro/jadesoft/util/mcgen/Plib/libherwig59.a(hwbdis.o)
 .comment       0x000014ee       0x26 /home/pcl2483/pedro/jadesoft/util/mcgen/Plib/libherwig59.a(hwbfin.o)
 .comment       0x00001514       0x26 /home/pcl2483/pedro/jadesoft/util/mcgen/Plib/libherwig59.a(hwbsud.o)
 .comment       0x0000153a       0x26 /home/pcl2483/pedro/jadesoft/util/mcgen/Plib/libherwig59.a(hwbsug.o)
 .comment       0x00001560       0x26 /home/pcl2483/pedro/jadesoft/util/mcgen/Plib/libherwig59.a(hwbsul.o)
 .comment       0x00001586       0x26 /home/pcl2483/pedro/jadesoft/util/mcgen/Plib/libherwig59.a(hwccut.o)
 .comment       0x000015ac       0x26 /home/pcl2483/pedro/jadesoft/util/mcgen/Plib/libherwig59.a(hwdboz.o)
 .comment       0x000015d2       0x26 /home/pcl2483/pedro/jadesoft/util/mcgen/Plib/libherwig59.a(hwdhig.o)
 .comment       0x000015f8       0x26 /home/pcl2483/pedro/jadesoft/util/mcgen/Plib/libherwig59.a(hwegam.o)
 .comment       0x0000161e       0x26 /home/pcl2483/pedro/jadesoft/util/mcgen/Plib/libherwig59.a(hweisr.o)
 .comment       0x00001644       0x26 /home/pcl2483/pedro/jadesoft/util/mcgen/Plib/libherwig59.a(hweone.o)
 .comment       0x0000166a       0x26 /home/pcl2483/pedro/jadesoft/util/mcgen/Plib/libherwig59.a(hwetwo.o)
 .comment       0x00001690       0x26 /home/pcl2483/pedro/jadesoft/util/mcgen/Plib/libherwig59.a(hwhew0.o)
 .comment       0x000016b6       0x26 /home/pcl2483/pedro/jadesoft/util/mcgen/Plib/libherwig59.a(hwhew1.o)
 .comment       0x000016dc       0x26 /home/pcl2483/pedro/jadesoft/util/mcgen/Plib/libherwig59.a(hwhew2.o)
 .comment       0x00001702       0x26 /home/pcl2483/pedro/jadesoft/util/mcgen/Plib/libherwig59.a(hwhew3.o)
 .comment       0x00001728       0x26 /home/pcl2483/pedro/jadesoft/util/mcgen/Plib/libherwig59.a(hwhew4.o)
 .comment       0x0000174e       0x26 /home/pcl2483/pedro/jadesoft/util/mcgen/Plib/libherwig59.a(hwhew5.o)
 .comment       0x00001774       0x26 /home/pcl2483/pedro/jadesoft/util/mcgen/Plib/libherwig59.a(hwhiga.o)
 .comment       0x0000179a       0x26 /home/pcl2483/pedro/jadesoft/util/mcgen/Plib/libherwig59.a(hwhigb.o)
 .comment       0x000017c0       0x26 /home/pcl2483/pedro/jadesoft/util/mcgen/Plib/libherwig59.a(hwhigy.o)
 .comment       0x000017e6       0x26 /home/pcl2483/pedro/jadesoft/util/mcgen/Plib/libherwig59.a(hwrexq.o)
 .comment       0x0000180c       0x26 /home/pcl2483/pedro/jadesoft/util/mcgen/Plib/libherwig59.a(hwsdgg.o)
 .comment       0x00001832       0x26 /home/pcl2483/pedro/jadesoft/util/mcgen/Plib/libherwig59.a(hwsdgq.o)
 .comment       0x00001858       0x26 /home/pcl2483/pedro/jadesoft/util/mcgen/Plib/libherwig59.a(hwuant.o)
 .comment       0x0000187e       0x26 /home/pcl2483/pedro/jadesoft/util/mcgen/Plib/libherwig59.a(hwubpr.o)
 .comment       0x000018a4       0x26 /home/pcl2483/pedro/jadesoft/util/mcgen/Plib/libherwig59.a(hwuci2.o)
 .comment       0x000018ca       0x26 /home/pcl2483/pedro/jadesoft/util/mcgen/Plib/libherwig59.a(hwudks.o)
 .comment       0x000018f0       0x26 /home/pcl2483/pedro/jadesoft/util/mcgen/Plib/libherwig59.a(hwudpr.o)
 .comment       0x00001916       0x26 /home/pcl2483/pedro/jadesoft/util/mcgen/Plib/libherwig59.a(hwuedt.o)
 .comment       0x0000193c       0x26 /home/pcl2483/pedro/jadesoft/util/mcgen/Plib/libherwig59.a(hwuemv.o)
 .comment       0x00001962       0x26 /home/pcl2483/pedro/jadesoft/util/mcgen/Plib/libherwig59.a(hwugau.o)
 .comment       0x00001988       0x26 /home/pcl2483/pedro/jadesoft/util/mcgen/Plib/libherwig59.a(hwuidt.o)
 .comment       0x000019ae       0x26 /home/pcl2483/pedro/jadesoft/util/mcgen/Plib/libherwig59.a(hwulf4.o)
 .comment       0x000019d4       0x26 /home/pcl2483/pedro/jadesoft/util/mcgen/Plib/libherwig59.a(hwuli2.o)
 .comment       0x000019fa       0x26 /home/pcl2483/pedro/jadesoft/util/mcgen/Plib/libherwig59.a(hwusor.o)
 .comment       0x00001a20       0x26 /home/pcl2483/pedro/jadesoft/util/mcgen/Plib/libherwig59.a(sasano.o)
 .comment       0x00001a46       0x26 /home/pcl2483/pedro/jadesoft/util/mcgen/Plib/libherwig59.a(sasbeh.o)
 .comment       0x00001a6c       0x26 /home/pcl2483/pedro/jadesoft/util/mcgen/Plib/libherwig59.a(sasdir.o)
 .comment       0x00001a92       0x26 /home/pcl2483/pedro/jadesoft/util/mcgen/Plib/libherwig59.a(hwbsu1.o)
 .comment       0x00001ab8       0x26 /home/pcl2483/pedro/jadesoft/util/mcgen/Plib/libherwig59.a(hwbsu2.o)
 .comment       0x00001ade       0x26 /home/pcl2483/pedro/jadesoft/util/mcgen/Plib/libherwig59.a(hwdchk.o)
 .comment       0x00001b04       0x26 /home/pcl2483/pedro/jadesoft/util/mcgen/Plib/libherwig59.a(hwdhgc.o)
 .comment       0x00001b2a       0x26 /home/pcl2483/pedro/jadesoft/util/mcgen/Plib/libherwig59.a(hwdhgf.o)
 .comment       0x00001b50       0x26 /home/pcl2483/pedro/jadesoft/util/mcgen/Plib/libherwig59.a(hwdtop.o)
 .comment       0x00001b76       0x26 /home/pcl2483/pedro/jadesoft/util/mcgen/Plib/libherwig59.a(hwhig1.o)
 .comment       0x00001b9c       0x26 /home/pcl2483/pedro/jadesoft/util/mcgen/Plib/libjt74opal.a(luchge.o)
 .comment       0x00001bc2       0x26 /home/pcl2483/pedro/jadesoft/util/mcgen/Plib/libjt74opal.a(lucomp.o)
 .comment       0x00001be8       0x26 /home/pcl2483/pedro/jadesoft/util/mcgen/Plib/libjt74opal.a(ludata.o)
 .comment       0x00001c0e       0x26 /home/pcl2483/pedro/jadesoft/util/mcgen/Plib/libjt74opal.a(luedit.o)
 .comment       0x00001c34       0x26 /home/pcl2483/pedro/jadesoft/util/mcgen/Plib/libjt74opal.a(luerrm.o)
 .comment       0x00001c5a       0x26 /home/pcl2483/pedro/jadesoft/util/mcgen/Plib/libjt74opal.a(luexec.o)
 .comment       0x00001c80       0x26 /home/pcl2483/pedro/jadesoft/util/mcgen/Plib/libjt74opal.a(luhepc.o)
 .comment       0x00001ca6       0x26 /home/pcl2483/pedro/jadesoft/util/mcgen/Plib/libjt74opal.a(luindf.o)
 .comment       0x00001ccc       0x26 /home/pcl2483/pedro/jadesoft/util/mcgen/Plib/libjt74opal.a(lukfdi.o)
 .comment       0x00001cf2       0x26 /home/pcl2483/pedro/jadesoft/util/mcgen/Plib/libjt74opal.a(lulist.o)
 .comment       0x00001d18       0x26 /home/pcl2483/pedro/jadesoft/util/mcgen/Plib/libjt74opal.a(lulogo.o)
 .comment       0x00001d3e       0x26 /home/pcl2483/pedro/jadesoft/util/mcgen/Plib/libjt74opal.a(luname.o)
 .comment       0x00001d64       0x26 /home/pcl2483/pedro/jadesoft/util/mcgen/Plib/libjt74opal.a(luprep.o)
 .comment       0x00001d8a       0x26 /home/pcl2483/pedro/jadesoft/util/mcgen/Plib/libjt74opal.a(luptdi.o)
 .comment       0x00001db0       0x26 /home/pcl2483/pedro/jadesoft/util/mcgen/Plib/libjt74opal.a(lurobo.o)
 .comment       0x00001dd6       0x26 /home/pcl2483/pedro/jadesoft/util/mcgen/Plib/libjt74opal.a(lushow.o)
 .comment       0x00001dfc       0x26 /home/pcl2483/pedro/jadesoft/util/mcgen/Plib/libjt74opal.a(lustrf.o)
 .comment       0x00001e22       0x26 /home/pcl2483/pedro/jadesoft/util/mcgen/Plib/libjt74opal.a(lutabu.o)
 .comment       0x00001e48       0x26 /home/pcl2483/pedro/jadesoft/util/mcgen/Plib/libjt74opal.a(luzdis.o)
 .comment       0x00001e6e       0x26 /home/pcl2483/pedro/jadesoft/util/mcgen/Plib/libjt74opal.a(plu.o)
 .comment       0x00001e94       0x26 /home/pcl2483/pedro/jadesoft/util/mcgen/Plib/libjt74opal.a(rlu.o)
 .comment       0x00001eba       0x26 /home/pcl2483/pedro/jadesoft/util/mcgen/Plib/libjt74opal.a(ulangl.o)
 .comment       0x00001ee0       0x26 /home/pcl2483/pedro/jadesoft/util/mcgen/Plib/libjt74opal.a(ulmass.o)
 .comment       0x00001f06       0x26 /home/pcl2483/pedro/jadesoft/util/mcgen/Plib/libjt74opal.a(luboei.o)
 .comment       0x00001f2c       0x26 /home/pcl2483/pedro/jadesoft/util/mcgen/Plib/libjt74opal.a(ludecy.o)
 .comment       0x00001f52       0x26 /home/pcl2483/pedro/jadesoft/util/mcgen/Plib/libjt74opal.a(lutaud.o)
 .comment       0x00001f78       0x26 /home/pcl2483/pedro/jadesoft/util/mcgen/Plib/libjt74opal.a(taupol.o)
 .comment       0x00001f9e       0x26 /home/pcl2483/pedro/jadesoft/util/mcgen/Plib/libjt74opal.a(dexay.o)
 .comment       0x00001fc4       0x26 /home/pcl2483/pedro/jadesoft/util/mcgen/Plib/libjt74opal.a(dexay1.o)
 .comment       0x00001fea       0x26 /home/pcl2483/pedro/jadesoft/util/mcgen/Plib/libjt74opal.a(dexel.o)
 .comment       0x00002010       0x26 /home/pcl2483/pedro/jadesoft/util/mcgen/Plib/libjt74opal.a(dexkk.o)
 .comment       0x00002036       0x26 /home/pcl2483/pedro/jadesoft/util/mcgen/Plib/libjt74opal.a(dexks.o)
 .comment       0x0000205c       0x26 /home/pcl2483/pedro/jadesoft/util/mcgen/Plib/libjt74opal.a(dexmu.o)
 .comment       0x00002082       0x26 /home/pcl2483/pedro/jadesoft/util/mcgen/Plib/libjt74opal.a(dexnew.o)
 .comment       0x000020a8       0x26 /home/pcl2483/pedro/jadesoft/util/mcgen/Plib/libjt74opal.a(dexpi.o)
 .comment       0x000020ce       0x26 /home/pcl2483/pedro/jadesoft/util/mcgen/Plib/libjt74opal.a(dexro.o)
 .comment       0x000020f4       0x26 /home/pcl2483/pedro/jadesoft/util/mcgen/Plib/libjt74opal.a(dwlnew.o)
 .comment       0x0000211a       0x26 /home/pcl2483/pedro/jadesoft/util/mcgen/Plib/libjt74opal.a(dwluaa.o)
 .comment       0x00002140       0x26 /home/pcl2483/pedro/jadesoft/util/mcgen/Plib/libjt74opal.a(dwluel.o)
 .comment       0x00002166       0x26 /home/pcl2483/pedro/jadesoft/util/mcgen/Plib/libjt74opal.a(dwlukk.o)
 .comment       0x0000218c       0x26 /home/pcl2483/pedro/jadesoft/util/mcgen/Plib/libjt74opal.a(dwluks.o)
 .comment       0x000021b2       0x26 /home/pcl2483/pedro/jadesoft/util/mcgen/Plib/libjt74opal.a(dwlumu.o)
 .comment       0x000021d8       0x26 /home/pcl2483/pedro/jadesoft/util/mcgen/Plib/libjt74opal.a(dwlupi.o)
 .comment       0x000021fe       0x26 /home/pcl2483/pedro/jadesoft/util/mcgen/Plib/libjt74opal.a(dwluro.o)
 .comment       0x00002224       0x26 /home/pcl2483/pedro/jadesoft/util/mcgen/Plib/libjt74opal.a(dwrph.o)
 .comment       0x0000224a       0x26 /home/pcl2483/pedro/jadesoft/util/mcgen/Plib/libjt74opal.a(filhep.o)
 .comment       0x00002270       0x26 /home/pcl2483/pedro/jadesoft/util/mcgen/Plib/libjt74opal.a(initdk.o)
 .comment       0x00002296       0x26 /home/pcl2483/pedro/jadesoft/util/mcgen/Plib/libjt74opal.a(jaker.o)
 .comment       0x000022bc       0x26 /home/pcl2483/pedro/jadesoft/util/mcgen/Plib/libjt74opal.a(lunpik.o)
 .comment       0x000022e2       0x26 /home/pcl2483/pedro/jadesoft/util/mcgen/Plib/libjt74opal.a(dadmel.o)
 .comment       0x00002308       0x26 /home/pcl2483/pedro/jadesoft/util/mcgen/Plib/libjt74opal.a(dadmkk.o)
 .comment       0x0000232e       0x26 /home/pcl2483/pedro/jadesoft/util/mcgen/Plib/libjt74opal.a(dadmks.o)
 .comment       0x00002354       0x26 /home/pcl2483/pedro/jadesoft/util/mcgen/Plib/libjt74opal.a(dadmmu.o)
 .comment       0x0000237a       0x26 /home/pcl2483/pedro/jadesoft/util/mcgen/Plib/libjt74opal.a(dadmpi.o)
 .comment       0x000023a0       0x26 /home/pcl2483/pedro/jadesoft/util/mcgen/Plib/libjt74opal.a(dadmro.o)
 .comment       0x000023c6       0x26 /home/pcl2483/pedro/jadesoft/util/mcgen/Plib/libjt74opal.a(dadnew.o)
 .comment       0x000023ec       0x26 /home/pcl2483/pedro/jadesoft/util/mcgen/Plib/libjt74opal.a(dexaa.o)
 .comment       0x00002412       0x26 /home/pcl2483/pedro/jadesoft/util/mcgen/Plib/libjt74opal.a(dph4pi.o)
 .comment       0x00002438       0x26 /home/pcl2483/pedro/jadesoft/util/mcgen/Plib/libjt74opal.a(dph5pi.o)
 .comment       0x0000245e       0x26 /home/pcl2483/pedro/jadesoft/util/mcgen/Plib/libjt74opal.a(dphnpi.o)
 .comment       0x00002484       0x26 /home/pcl2483/pedro/jadesoft/util/mcgen/Plib/libjt74opal.a(dphsel.o)
 .comment       0x000024aa       0x26 /home/pcl2483/pedro/jadesoft/util/mcgen/Plib/libjt74opal.a(dphsks.o)
 .comment       0x000024d0       0x26 /home/pcl2483/pedro/jadesoft/util/mcgen/Plib/libjt74opal.a(dphsmu.o)
 .comment       0x000024f6       0x26 /home/pcl2483/pedro/jadesoft/util/mcgen/Plib/libjt74opal.a(dphspk.o)
 .comment       0x0000251c       0x26 /home/pcl2483/pedro/jadesoft/util/mcgen/Plib/libjt74opal.a(dphsrk.o)
 .comment       0x00002542       0x26 /home/pcl2483/pedro/jadesoft/util/mcgen/Plib/libjt74opal.a(dphsro.o)
 .comment       0x00002568       0x26 /home/pcl2483/pedro/jadesoft/util/mcgen/Plib/libjt74opal.a(dphtre.o)
 .comment       0x0000258e       0x26 /home/pcl2483/pedro/jadesoft/util/mcgen/Plib/libjt74opal.a(drcmu.o)
 .comment       0x000025b4       0x26 /home/pcl2483/pedro/jadesoft/util/mcgen/Plib/libjt74opal.a(dwluph.o)
 .comment       0x000025da       0x26 /home/pcl2483/pedro/jadesoft/util/mcgen/Plib/libjt74opal.a(fpirho.o)
 .comment       0x00002600       0x26 /home/pcl2483/pedro/jadesoft/util/mcgen/Plib/libjt74opal.a(fpirk.o)
 .comment       0x00002626       0x26 /home/pcl2483/pedro/jadesoft/util/mcgen/Plib/libjt74opal.a(rotor2.o)
 .comment       0x0000264c       0x26 /home/pcl2483/pedro/jadesoft/util/mcgen/Plib/libjt74opal.a(rotor3.o)
 .comment       0x00002672       0x26 /home/pcl2483/pedro/jadesoft/util/mcgen/Plib/libjt74opal.a(rotpol.o)
 .comment       0x00002698       0x26 /home/pcl2483/pedro/jadesoft/util/mcgen/Plib/libjt74opal.a(rotpox.o)
 .comment       0x000026be       0x26 /home/pcl2483/pedro/jadesoft/util/mcgen/Plib/libjt74opal.a(sigee.o)
 .comment       0x000026e4       0x26 /home/pcl2483/pedro/jadesoft/util/mcgen/Plib/libjt74opal.a(sphera.o)
 .comment       0x0000270a       0x26 /home/pcl2483/pedro/jadesoft/util/mcgen/Plib/libjt74opal.a(spherd.o)
 .comment       0x00002730       0x26 /home/pcl2483/pedro/jadesoft/util/mcgen/Plib/libjt74opal.a(bostd3.o)
 .comment       0x00002756       0x26 /home/pcl2483/pedro/jadesoft/util/mcgen/Plib/libjt74opal.a(bostr3.o)
 .comment       0x0000277c       0x26 /home/pcl2483/pedro/jadesoft/util/mcgen/Plib/libjt74opal.a(bwigs.o)
 .comment       0x000027a2       0x26 /home/pcl2483/pedro/jadesoft/util/mcgen/Plib/libjt74opal.a(choice.o)
 .comment       0x000027c8       0x26 /home/pcl2483/pedro/jadesoft/util/mcgen/Plib/libjt74opal.a(dadmaa.o)
 .comment       0x000027ee       0x26 /home/pcl2483/pedro/jadesoft/util/mcgen/Plib/libjt74opal.a(dam4pi.o)
 .comment       0x00002814       0x26 /home/pcl2483/pedro/jadesoft/util/mcgen/Plib/libjt74opal.a(dampog.o)
 .comment       0x0000283a       0x26 /home/pcl2483/pedro/jadesoft/util/mcgen/Plib/libjt74opal.a(damppk.o)
 .comment       0x00002860       0x26 /home/pcl2483/pedro/jadesoft/util/mcgen/Plib/libjt74opal.a(dampry.o)
 .comment       0x00002886       0x26 /home/pcl2483/pedro/jadesoft/util/mcgen/Plib/libjt74opal.a(dcdmas.o)
 .comment       0x000028ac       0x26 /home/pcl2483/pedro/jadesoft/util/mcgen/Plib/libjt74opal.a(dphsaa.o)
 .comment       0x000028d2       0x26 /home/pcl2483/pedro/jadesoft/util/mcgen/Plib/libjt74opal.a(form1.o)
 .comment       0x000028f8       0x26 /home/pcl2483/pedro/jadesoft/util/mcgen/Plib/libjt74opal.a(form2.o)
 .comment       0x0000291e       0x26 /home/pcl2483/pedro/jadesoft/util/mcgen/Plib/libjt74opal.a(form3.o)
 .comment       0x00002944       0x26 /home/pcl2483/pedro/jadesoft/util/mcgen/Plib/libjt74opal.a(form4.o)
 .comment       0x0000296a       0x26 /home/pcl2483/pedro/jadesoft/util/mcgen/Plib/libjt74opal.a(form5.o)
 .comment       0x00002990       0x26 /home/pcl2483/pedro/jadesoft/util/mcgen/Plib/libjt74opal.a(formom.o)
 .comment       0x000029b6       0x26 /home/pcl2483/pedro/jadesoft/util/mcgen/Plib/libjt74opal.a(fpik.o)
 .comment       0x000029dc       0x26 /home/pcl2483/pedro/jadesoft/util/mcgen/Plib/libjt74opal.a(fpikm.o)
 .comment       0x00002a02       0x26 /home/pcl2483/pedro/jadesoft/util/mcgen/Plib/libjt74opal.a(fpikmd.o)
 .comment       0x00002a28       0x26 /home/pcl2483/pedro/jadesoft/util/mcgen/Plib/libjt74opal.a(gfun.o)
 .comment       0x00002a4e       0x26 /home/pcl2483/pedro/jadesoft/util/mcgen/Plib/libjt74opal.a(prod5.o)
 .comment       0x00002a74       0x26 /home/pcl2483/pedro/jadesoft/util/mcgen/Plib/libjt74opal.a(rotod2.o)
 .comment       0x00002a9a       0x26 /home/pcl2483/pedro/jadesoft/util/mcgen/Plib/libjt74opal.a(rotod3.o)
 .comment       0x00002ac0       0x26 /home/pcl2483/pedro/jadesoft/util/mcgen/Plib/libjt74opal.a(sqm2.o)
 .comment       0x00002ae6       0x26 /home/pcl2483/pedro/jadesoft/util/mcgen/Plib/libjt74opal.a(thb.o)
 .comment       0x00002b0c       0x26 /home/pcl2483/pedro/jadesoft/util/mcgen/Plib/libjt74opal.a(wigfor.o)
 .comment       0x00002b32       0x26 /home/pcl2483/pedro/jadesoft/util/mcgen/Plib/libjt74opal.a(bwig.o)
 .comment       0x00002b58       0x26 /home/pcl2483/pedro/jadesoft/util/mcgen/Plib/libjt74opal.a(bwigm.o)
 .comment       0x00002b7e       0x26 /home/pcl2483/pedro/jadesoft/util/mcgen/Plib/libjt74opal.a(claxi.o)
 .comment       0x00002ba4       0x26 /home/pcl2483/pedro/jadesoft/util/mcgen/Plib/libjt74opal.a(clnut.o)
 .comment       0x00002bca       0x26 /home/pcl2483/pedro/jadesoft/util/mcgen/Plib/libjt74opal.a(clvec.o)
 .comment       0x00002bf0       0x26 /home/pcl2483/pedro/jadesoft/util/mcgen/Plib/libjt74opal.a(curr.o)
 .comment       0x00002c16       0x26 /home/pcl2483/pedro/jadesoft/util/mcgen/Plib/libjt74opal.a(dilog.o)
 .comment       0x00002c3c       0x26 /home/pcl2483/pedro/jadesoft/util/mcgen/Plib/libckern105.a(ckern.o)
 .comment       0x00002c62       0x26 /home/pcl2483/pedro/jadesoft/util/mcgen/Plib/libckern105.a(cksord.o)
 .comment       0x00002c88       0x26 /home/pcl2483/pedro/jadesoft/util/mcgen/Plib/libckern105.a(cnjet.o)
 .comment       0x00002cae       0x26 /home/pcl2483/pedro/jadesoft/util/mcgen/Plib/libpx114.a(pxang3.o)
 .comment       0x00002cd4       0x26 /home/pcl2483/pedro/jadesoft/util/mcgen/Plib/libpx114.a(pxanxy.o)
 .comment       0x00002cfa       0x26 /home/pcl2483/pedro/jadesoft/util/mcgen/Plib/libpx114.a(pxcone.o)
 .comment       0x00002d20       0x26 /home/pcl2483/pedro/jadesoft/util/mcgen/Plib/libpx114.a(pxcopv.o)
 .comment       0x00002d46       0x26 /home/pcl2483/pedro/jadesoft/util/mcgen/Plib/libpx114.a(pxjpdg.o)
 .comment       0x00002d6c       0x26 /home/pcl2483/pedro/jadesoft/util/mcgen/Plib/libpx114.a(pxjsp3.o)
 .comment       0x00002d92       0x26 /home/pcl2483/pedro/jadesoft/util/mcgen/Plib/libpx114.a(pxlsp3.o)
 .comment       0x00002db8       0x26 /home/pcl2483/pedro/jadesoft/util/mcgen/Plib/libpx114.a(pxlth4.o)
 .comment       0x00002dde       0x26 /home/pcl2483/pedro/jadesoft/util/mcgen/Plib/libpx114.a(pxlut3.o)
 .comment       0x00002e04       0x26 /home/pcl2483/pedro/jadesoft/util/mcgen/Plib/libpx114.a(pxlzf5.o)
 .comment       0x00002e2a       0x26 /home/pcl2483/pedro/jadesoft/util/mcgen/Plib/libpx114.a(pxmmbb.o)
 .comment       0x00002e50       0x26 /home/pcl2483/pedro/jadesoft/util/mcgen/Plib/libpx114.a(pxnorv.o)
 .comment       0x00002e76       0x26 /home/pcl2483/pedro/jadesoft/util/mcgen/Plib/libpx114.a(pxolap.o)
 .comment       0x00002e9c       0x26 /home/pcl2483/pedro/jadesoft/util/mcgen/Plib/libpx114.a(pxord.o)
 .comment       0x00002ec2       0x26 /home/pcl2483/pedro/jadesoft/util/mcgen/Plib/libpx114.a(pxplt3.o)
 .comment       0x00002ee8       0x26 /home/pcl2483/pedro/jadesoft/util/mcgen/Plib/libpx114.a(pxplu3.o)
 .comment       0x00002f0e       0x26 /home/pcl2483/pedro/jadesoft/util/mcgen/Plib/libpx114.a(pxprcv.o)
 .comment       0x00002f34       0x26 /home/pcl2483/pedro/jadesoft/util/mcgen/Plib/libpx114.a(pxprrv.o)
 .comment       0x00002f5a       0x26 /home/pcl2483/pedro/jadesoft/util/mcgen/Plib/libpx114.a(pxrap4.o)
 .comment       0x00002f80       0x26 /home/pcl2483/pedro/jadesoft/util/mcgen/Plib/libpx114.a(pxrmx3.o)
 .comment       0x00002fa6       0x26 /home/pcl2483/pedro/jadesoft/util/mcgen/Plib/libpx114.a(pxrob3.o)
 .comment       0x00002fcc       0x26 /home/pcl2483/pedro/jadesoft/util/mcgen/Plib/libpx114.a(pxrof3.o)
 .comment       0x00002ff2       0x26 /home/pcl2483/pedro/jadesoft/util/mcgen/Plib/libpx114.a(pxsear.o)
 .comment       0x00003018       0x26 /home/pcl2483/pedro/jadesoft/util/mcgen/Plib/libpx114.a(pxsorv.o)
 .comment       0x0000303e       0x26 /home/pcl2483/pedro/jadesoft/util/mcgen/Plib/libpx114.a(pxtry.o)
 .comment       0x00003064       0x26 /home/pcl2483/pedro/jadesoft/util/mcgen/Plib/libpx114.a(pxuvec.o)
 .comment       0x0000308a       0x26 /home/pcl2483/pedro/jadesoft/util/mcgen/Plib/libpx114.a(pxzerv.o)
 .comment       0x000030b0       0x26 /home/pcl2483/pedro/jadesoft/util/mcgen/Plib/libpx114.a(ykern.o)
 .comment       0x000030d6       0x26 /home/pcl2483/pedro/jadesoft/util/mcgen/Plib/libpx114.a(ynjet.o)
 .comment       0x000030fc       0x26 /home/pcl2483/pedro/jadesoft/util/mcgen/Plib/libpx114.a(yyjet.o)
 .comment       0x00003122       0x26 /home/pcl2483/pedro/jadesoft/util/mcgen/Plib/libpx114.a(pxaddv.o)
 .comment       0x00003148       0x26 /home/pcl2483/pedro/jadesoft/util/mcgen/Plib/libpx114.a(pxdiam.o)
 .comment       0x0000316e       0x26 /home/pcl2483/pedro/jadesoft/util/mcgen/Plib/libpx114.a(pxmulm.o)
 .comment       0x00003194       0x26 /home/pcl2483/pedro/jadesoft/util/mcgen/Plib/libpx114.a(pxnew.o)
 .comment       0x000031ba       0x26 /home/pcl2483/pedro/jadesoft/util/mcgen/Plib/libpx114.a(pxsame.o)
 .comment       0x000031e0       0x26 /home/pcl2483/pedro/jadesoft/util/mcgen/Plib/libpx114.a(pxunim.o)
 .comment       0x00003206       0x37 /cern/99/lib/libpacklib.a(ffgo.o)
 .comment       0x0000323d       0x37 /cern/99/lib/libpacklib.a(ffinit.o)
 .comment       0x00003274       0x37 /cern/99/lib/libpacklib.a(ffkey.o)
 .comment       0x000032ab       0x37 /cern/99/lib/libpacklib.a(ffset.o)
 .comment       0x000032e2       0x37 /cern/99/lib/libpacklib.a(ffskip.o)
 .comment       0x00003319       0x37 /cern/99/lib/libpacklib.a(ffupca.o)
 .comment       0x00003350       0x37 /cern/99/lib/libpacklib.a(ffuser.o)
 .comment       0x00003387       0x37 /cern/99/lib/libpacklib.a(ffuset.o)
 .comment       0x000033be       0x37 /cern/99/lib/libpacklib.a(hrput.o)
 .comment       0x000033f5       0x37 /cern/99/lib/libpacklib.a(hbook1.o)
 .comment       0x0000342c       0x37 /cern/99/lib/libpacklib.a(hbook2.o)
 .comment       0x00003463       0x37 /cern/99/lib/libpacklib.a(hbookb.o)
 .comment       0x0000349a       0x37 /cern/99/lib/libpacklib.a(hbtit.o)
 .comment       0x000034d1       0x37 /cern/99/lib/libpacklib.a(hbug.o)
 .comment       0x00003508       0x37 /cern/99/lib/libpacklib.a(hcdir.o)
 .comment       0x0000353f       0x37 /cern/99/lib/libpacklib.a(hchnam.o)
 .comment       0x00003576       0x37 /cern/99/lib/libpacklib.a(hdelet.o)
 .comment       0x000035ad       0x37 /cern/99/lib/libpacklib.a(hfill.o)
 .comment       0x000035e4       0x37 /cern/99/lib/libpacklib.a(hfilpf.o)
 .comment       0x0000361b       0x37 /cern/99/lib/libpacklib.a(hgive.o)
 .comment       0x00003652       0x37 /cern/99/lib/libpacklib.a(hidopt.o)
 .comment       0x00003689       0x37 /cern/99/lib/libpacklib.a(hlimit.o)
 .comment       0x000036c0       0x37 /cern/99/lib/libpacklib.a(hloop.o)
 .comment       0x000036f7       0x37 /cern/99/lib/libpacklib.a(hmachi.o)
 .comment       0x0000372e       0x37 /cern/99/lib/libpacklib.a(hnoent.o)
 .comment       0x00003765       0x37 /cern/99/lib/libpacklib.a(hopera.o)
 .comment       0x0000379c       0x37 /cern/99/lib/libpacklib.a(hpaff.o)
 .comment       0x000037d3       0x37 /cern/99/lib/libpacklib.a(hpak.o)
 .comment       0x0000380a       0x37 /cern/99/lib/libpacklib.a(hpake.o)
 .comment       0x00003841       0x37 /cern/99/lib/libpacklib.a(hpath.o)
 .comment       0x00003878       0x37 /cern/99/lib/libpacklib.a(hrebin.o)
 .comment       0x000038af       0x37 /cern/99/lib/libpacklib.a(hreset.o)
 .comment       0x000038e6       0x37 /cern/99/lib/libpacklib.a(hrez0.o)
 .comment       0x0000391d       0x37 /cern/99/lib/libpacklib.a(hsifla.o)
 .comment       0x00003954       0x37 /cern/99/lib/libpacklib.a(hspace.o)
 .comment       0x0000398b       0x37 /cern/99/lib/libpacklib.a(hstaf.o)
 .comment       0x000039c2       0x37 /cern/99/lib/libpacklib.a(hsupis.o)
 .comment       0x000039f9       0x37 /cern/99/lib/libpacklib.a(huoptc.o)
 .comment       0x00003a30       0x37 /cern/99/lib/libpacklib.a(hlogpf.o)
 .comment       0x00003a67       0x37 /cern/99/lib/libpacklib.a(hoptpf.o)
 .comment       0x00003a9e       0x37 /cern/99/lib/libpacklib.a(hitoc.o)
 .comment       0x00003ad5       0x37 /cern/99/lib/libpacklib.a(hnbufd.o)
 .comment       0x00003b0c       0x37 /cern/99/lib/libpacklib.a(hntmpd.o)
 .comment       0x00003b43       0x37 /cern/99/lib/libpacklib.a(hntrset.o)
 .comment       0x00003b7a       0x37 /cern/99/lib/libpacklib.a(fzin.o)
 .comment       0x00003bb1       0x37 /cern/99/lib/libpacklib.a(fzirel.o)
 .comment       0x00003be8       0x37 /cern/99/lib/libpacklib.a(fzloc.o)
 .comment       0x00003c1f       0x37 /cern/99/lib/libpacklib.a(mzbook.o)
 .comment       0x00003c56       0x37 /cern/99/lib/libpacklib.a(mzdrop.o)
 .comment       0x00003c8d       0x37 /cern/99/lib/libpacklib.a(mzebra.o)
 .comment       0x00003cc4       0x37 /cern/99/lib/libpacklib.a(mzflag.o)
 .comment       0x00003cfb       0x37 /cern/99/lib/libpacklib.a(mzinco.o)
 .comment       0x00003d32       0x37 /cern/99/lib/libpacklib.a(mzlift.o)
 .comment       0x00003d69       0x37 /cern/99/lib/libpacklib.a(mzlink.o)
 .comment       0x00003da0       0x37 /cern/99/lib/libpacklib.a(mzneed.o)
 .comment       0x00003dd7       0x37 /cern/99/lib/libpacklib.a(mzpaw.o)
 .comment       0x00003e0e       0x37 /cern/99/lib/libpacklib.a(mzpush.o)
 .comment       0x00003e45       0x37 /cern/99/lib/libpacklib.a(mzstor.o)
 .comment       0x00003e7c       0x37 /cern/99/lib/libpacklib.a(mzvers.o)
 .comment       0x00003eb3       0x37 /cern/99/lib/libpacklib.a(mzgar1.o)
 .comment       0x00003eea       0x37 /cern/99/lib/libpacklib.a(mzgsta.o)
 .comment       0x00003f21       0x37 /cern/99/lib/libpacklib.a(mzmove.o)
 .comment       0x00003f58       0x37 /cern/99/lib/libpacklib.a(mzrelb.o)
 .comment       0x00003f8f       0x37 /cern/99/lib/libpacklib.a(mzrell.o)
 .comment       0x00003fc6       0x37 /cern/99/lib/libpacklib.a(mzrelx.o)
 .comment       0x00003ffd       0x37 /cern/99/lib/libpacklib.a(mztabf.o)
 .comment       0x00004034       0x37 /cern/99/lib/libpacklib.a(mztabm.o)
 .comment       0x0000406b       0x37 /cern/99/lib/libpacklib.a(mztabr.o)
 .comment       0x000040a2       0x37 /cern/99/lib/libpacklib.a(mztabs.o)
 .comment       0x000040d9       0x37 /cern/99/lib/libpacklib.a(mztabx.o)
 .comment       0x00004110       0x37 /cern/99/lib/libpacklib.a(mzchln.o)
 .comment       0x00004147       0x37 /cern/99/lib/libpacklib.a(mzchls.o)
 .comment       0x0000417e       0x37 /cern/99/lib/libpacklib.a(mzchnb.o)
 .comment       0x000041b5       0x37 /cern/99/lib/libpacklib.a(mzfdiv.o)
 .comment       0x000041ec       0x37 /cern/99/lib/libpacklib.a(mzform.o)
 .comment       0x00004223       0x37 /cern/99/lib/libpacklib.a(mzioch.o)
 .comment       0x0000425a       0x37 /cern/99/lib/libpacklib.a(mzresv.o)
 .comment       0x00004291       0x37 /cern/99/lib/libpacklib.a(mzsdiv.o)
 .comment       0x000042c8       0x37 /cern/99/lib/libpacklib.a(zvautx.o)
 .comment       0x000042ff       0x37 /cern/99/lib/libpacklib.a(zfatal.o)
 .comment       0x00004336       0x37 /cern/99/lib/libpacklib.a(zfatam.o)
 .comment       0x0000436d       0x37 /cern/99/lib/libpacklib.a(ztell.o)
 .comment       0x000043a4       0x37 /cern/99/lib/libpacklib.a(ztelus.o)
 .comment       0x000043db       0x37 /cern/99/lib/libpacklib.a(izbcdt.o)
 .comment       0x00004412       0x37 /cern/99/lib/libpacklib.a(izhnum.o)
 .comment       0x00004449       0x37 /cern/99/lib/libpacklib.a(zshunt.o)
 .comment       0x00004480       0x37 /cern/99/lib/libpacklib.a(rzcdir.o)
 .comment       0x000044b7       0x37 /cern/99/lib/libpacklib.a(rzdate.o)
 .comment       0x000044ee       0x37 /cern/99/lib/libpacklib.a(rzfdir.o)
 .comment       0x00004525       0x37 /cern/99/lib/libpacklib.a(rziodo.o)
 .comment       0x0000455c       0x37 /cern/99/lib/libpacklib.a(rzpaff.o)
 .comment       0x00004593       0x37 /cern/99/lib/libpacklib.a(rzpath.o)
 .comment       0x000045ca       0x37 /cern/99/lib/libpacklib.a(rzrtop.o)
 .comment       0x00004601       0x37 /cern/99/lib/libpacklib.a(rzsame.o)
 .comment       0x00004638       0x37 /cern/99/lib/libpacklib.a(rzsave.o)
 .comment       0x0000466f       0x37 /cern/99/lib/libpacklib.a(rzstrir.o)
 .comment       0x000046a6       0x37 /cern/99/lib/libpacklib.a(rzvcyc.o)
 .comment       0x000046dd       0x37 /cern/99/lib/libpacklib.a(abend.o)
 .comment       0x00004714       0x37 /cern/99/lib/libpacklib.a(datime.o)
 .comment       0x0000474b       0x37 /cern/99/lib/libpacklib.a(datimh.o)
 .comment       0x00004782       0x37 /cern/99/lib/libpacklib.a(jumpxn.o)
 .comment       0x000047b9       0x37 /cern/99/lib/libpacklib.a(locf.o)
 .comment       0x000047f0       0x37 /cern/99/lib/libpacklib.a(qnexte.o)
 .comment       0x00004827       0x37 /cern/99/lib/libpacklib.a(lenocc.o)
 .comment       0x0000485e       0x37 /cern/99/lib/libpacklib.a(vxinvb.o)
 .comment       0x00004895       0x37 /cern/99/lib/libpacklib.a(cfclos.o)
 .comment       0x000048cc       0x37 /cern/99/lib/libpacklib.a(cfget.o)
 .comment       0x00004903       0x37 /cern/99/lib/libpacklib.a(cfput.o)
 .comment       0x0000493a       0x37 /cern/99/lib/libpacklib.a(cfseek.o)
 .comment       0x00004971       0x37 /cern/99/lib/libpacklib.a(cfopen.o)
 .comment       0x000049a8       0x37 /cern/99/lib/libpacklib.a(cleft.o)
 .comment       0x000049df       0x37 /cern/99/lib/libpacklib.a(cltou.o)
 .comment       0x00004a16       0x37 /cern/99/lib/libpacklib.a(cutol.o)
 .comment       0x00004a4d       0x37 /cern/99/lib/libpacklib.a(floarg.o)
 .comment       0x00004a84       0x37 /cern/99/lib/libpacklib.a(intarg.o)
 .comment       0x00004abb       0x37 /cern/99/lib/libpacklib.a(kerngt.o)
 .comment       0x00004af2       0x37 /cern/99/lib/libpacklib.a(uoptc.o)
 .comment       0x00004b29       0x37 /cern/99/lib/libpacklib.a(utrans.o)
 .comment       0x00004b60       0x37 /cern/99/lib/libpacklib.a(ishftr.o)
 .comment       0x00004b97       0x37 /cern/99/lib/libpacklib.a(qnext.o)
 .comment       0x00004bce       0x37 /cern/99/lib/libpacklib.a(ucopy2c.o)
 .comment       0x00004c05       0x37 /cern/99/lib/libpacklib.a(iucomp.o)
 .comment       0x00004c3c       0x37 /cern/99/lib/libpacklib.a(noarg.o)
 .comment       0x00004c73       0x37 /cern/99/lib/libpacklib.a(sbit0.o)
 .comment       0x00004caa       0x37 /cern/99/lib/libpacklib.a(sbit1.o)
 .comment       0x00004ce1       0x37 /cern/99/lib/libpacklib.a(ublow.o)
 .comment       0x00004d18       0x37 /cern/99/lib/libpacklib.a(ubunch.o)
 .comment       0x00004d4f       0x37 /cern/99/lib/libpacklib.a(ucopy.o)
 .comment       0x00004d86       0x37 /cern/99/lib/libpacklib.a(uctoh.o)
 .comment       0x00004dbd       0x37 /cern/99/lib/libpacklib.a(uctoh1.o)
 .comment       0x00004df4       0x37 /cern/99/lib/libpacklib.a(uhtoc.o)
 .comment       0x00004e2b       0x37 /cern/99/lib/libpacklib.a(vblank.o)
 .comment       0x00004e62       0x37 /cern/99/lib/libpacklib.a(vfill.o)
 .comment       0x00004e99       0x37 /cern/99/lib/libpacklib.a(vzero.o)
 .comment       0x00004ed0       0x37 /cern/99/lib/libpacklib.a(jbit.o)
 .comment       0x00004f07       0x37 /cern/99/lib/libpacklib.a(jbyt.o)
 .comment       0x00004f3e       0x37 /cern/99/lib/libpacklib.a(sbyt.o)
 .comment       0x00004f75       0x37 /cern/99/lib/libpacklib.a(locati.o)
 .comment       0x00004fac       0x37 /cern/99/lib/libpacklib.a(czgeta.o)
 .comment       0x00004fe3       0x37 /cern/99/lib/libpacklib.a(czputa.o)
 .comment       0x0000501a       0x37 /cern/99/lib/libpacklib.a(ffcard.o)
 .comment       0x00005051       0x37 /cern/99/lib/libpacklib.a(fffind.o)
 .comment       0x00005088       0x37 /cern/99/lib/libpacklib.a(hqputf.o)
 .comment       0x000050bf       0x37 /cern/99/lib/libpacklib.a(hbpqry.o)
 .comment       0x000050f6       0x37 /cern/99/lib/libpacklib.a(hrendc.o)
 .comment       0x0000512d       0x37 /cern/99/lib/libpacklib.a(hropen.o)
 .comment       0x00005164       0x37 /cern/99/lib/libpacklib.a(hrout.o)
 .comment       0x0000519b       0x37 /cern/99/lib/libpacklib.a(hrzcd.o)
 .comment       0x000051d2       0x37 /cern/99/lib/libpacklib.a(hrzout.o)
 .comment       0x00005209       0x37 /cern/99/lib/libpacklib.a(hbar2.o)
 .comment       0x00005240       0x37 /cern/99/lib/libpacklib.a(hbarx.o)
 .comment       0x00005277       0x37 /cern/99/lib/libpacklib.a(hbary.o)
 .comment       0x000052ae       0x37 /cern/99/lib/libpacklib.a(hbin.o)
 .comment       0x000052e5       0x37 /cern/99/lib/libpacklib.a(hcopy.o)
 .comment       0x0000531c       0x37 /cern/99/lib/libpacklib.a(hcx.o)
 .comment       0x00005353       0x37 /cern/99/lib/libpacklib.a(hcxy.o)
 .comment       0x0000538a       0x37 /cern/99/lib/libpacklib.a(hdcofl.o)
 .comment       0x000053c1       0x37 /cern/99/lib/libpacklib.a(hf1.o)
 .comment       0x000053f8       0x37 /cern/99/lib/libpacklib.a(hf1aut.o)
 .comment       0x0000542f       0x37 /cern/99/lib/libpacklib.a(hf2.o)
 .comment       0x00005466       0x37 /cern/99/lib/libpacklib.a(hfcx.o)
 .comment       0x0000549d       0x37 /cern/99/lib/libpacklib.a(hfcxy.o)
 .comment       0x000054d4       0x37 /cern/99/lib/libpacklib.a(hfidp.o)
 .comment       0x0000550b       0x37 /cern/99/lib/libpacklib.a(hfind.o)
 .comment       0x00005542       0x37 /cern/99/lib/libpacklib.a(hi.o)
 .comment       0x00005579       0x37 /cern/99/lib/libpacklib.a(hie.o)
 .comment       0x000055b0       0x37 /cern/99/lib/libpacklib.a(hix.o)
 .comment       0x000055e7       0x37 /cern/99/lib/libpacklib.a(hlabeq.o)
 .comment       0x0000561e       0x37 /cern/99/lib/libpacklib.a(hmdir.o)
 .comment       0x00005655       0x37 /cern/99/lib/libpacklib.a(hoper1.o)
 .comment       0x0000568c       0x37 /cern/99/lib/libpacklib.a(hoper1a.o)
 .comment       0x000056c3       0x37 /cern/99/lib/libpacklib.a(hnbfwr.o)
 .comment       0x000056fa       0x37 /cern/99/lib/libpacklib.a(hnbuff.o)
 .comment       0x00005731       0x37 /cern/99/lib/libpacklib.a(hnmset.o)
 .comment       0x00005768       0x37 /cern/99/lib/libpacklib.a(hntdel.o)
 .comment       0x0000579f       0x37 /cern/99/lib/libpacklib.a(hntmpf.o)
 .comment       0x000057d6       0x37 /cern/99/lib/libpacklib.a(fzidia.o)
 .comment       0x0000580d       0x37 /cern/99/lib/libpacklib.a(fziffn.o)
 .comment       0x00005844       0x37 /cern/99/lib/libpacklib.a(fziffx.o)
 .comment       0x0000587b       0x37 /cern/99/lib/libpacklib.a(fzilin.o)
 .comment       0x000058b2       0x37 /cern/99/lib/libpacklib.a(fzimtb.o)
 .comment       0x000058e9       0x37 /cern/99/lib/libpacklib.a(fzirec.o)
 .comment       0x00005920       0x37 /cern/99/lib/libpacklib.a(fzitrn.o)
 .comment       0x00005957       0x37 /cern/99/lib/libpacklib.a(fzout.o)
 .comment       0x0000598e       0x37 /cern/99/lib/libpacklib.a(fzitrx.o)
 .comment       0x000059c5       0x37 /cern/99/lib/libpacklib.a(mzcopy.o)
 .comment       0x000059fc       0x37 /cern/99/lib/libpacklib.a(mzpudx.o)
 .comment       0x00005a33       0x37 /cern/99/lib/libpacklib.a(mzfgap.o)
 .comment       0x00005a6a       0x37 /cern/99/lib/libpacklib.a(mzgarb.o)
 .comment       0x00005aa1       0x37 /cern/99/lib/libpacklib.a(mztabc.o)
 .comment       0x00005ad8       0x37 /cern/99/lib/libpacklib.a(mztabh.o)
 .comment       0x00005b0f       0x37 /cern/99/lib/libpacklib.a(mzdvac.o)
 .comment       0x00005b46       0x37 /cern/99/lib/libpacklib.a(mziocf.o)
 .comment       0x00005b7d       0x37 /cern/99/lib/libpacklib.a(mziocr.o)
 .comment       0x00005bb4       0x37 /cern/99/lib/libpacklib.a(mzixco.o)
 .comment       0x00005beb       0x37 /cern/99/lib/libpacklib.a(zabend.o)
 .comment       0x00005c22       0x37 /cern/99/lib/libpacklib.a(zend.o)
 .comment       0x00005c59       0x37 /cern/99/lib/libpacklib.a(zphase.o)
 .comment       0x00005c90       0x37 /cern/99/lib/libpacklib.a(zpostm.o)
 .comment       0x00005cc7       0x37 /cern/99/lib/libpacklib.a(zhtoi.o)
 .comment       0x00005cfe       0x37 /cern/99/lib/libpacklib.a(rzclos.o)
 .comment       0x00005d35       0x37 /cern/99/lib/libpacklib.a(rzend.o)
 .comment       0x00005d6c       0x37 /cern/99/lib/libpacklib.a(rzfree.o)
 .comment       0x00005da3       0x37 /cern/99/lib/libpacklib.a(rzmdir.o)
 .comment       0x00005dda       0x37 /cern/99/lib/libpacklib.a(rzmods.o)
 .comment       0x00005e11       0x37 /cern/99/lib/libpacklib.a(rzopen.o)
 .comment       0x00005e48       0x37 /cern/99/lib/libpacklib.a(rzout.o)
 .comment       0x00005e7f       0x37 /cern/99/lib/libpacklib.a(rzstrip.o)
 .comment       0x00005eb6       0x37 /cern/99/lib/libpacklib.a(rzused.o)
 .comment       0x00005eed       0x14 /cern/99/lib/libpacklib.a(close.o)
 .comment       0x00005f01       0x14 /cern/99/lib/libpacklib.a(error.o)
 .comment       0x00005f15       0x14 /cern/99/lib/libpacklib.a(lseek.o)
 .comment       0x00005f29       0x14 /cern/99/lib/libpacklib.a(open.o)
 .comment       0x00005f3d       0x14 /cern/99/lib/libpacklib.a(parse.o)
 .comment       0x00005f51       0x14 /cern/99/lib/libpacklib.a(read.o)
 .comment       0x00005f65       0x14 /cern/99/lib/libpacklib.a(serror.o)
 .comment       0x00005f79       0x14 /cern/99/lib/libpacklib.a(setopt.o)
 .comment       0x00005f8d       0x14 /cern/99/lib/libpacklib.a(socket.o)
 .comment       0x00005fa1       0x14 /cern/99/lib/libpacklib.a(stream.o)
 .comment       0x00005fb5       0x14 /cern/99/lib/libpacklib.a(trace.o)
 .comment       0x00005fc9       0x14 /cern/99/lib/libpacklib.a(write.o)
 .comment       0x00005fdd       0x37 /cern/99/lib/libpacklib.a(cfopei.o)
 .comment       0x00006014       0x37 /cern/99/lib/libpacklib.a(cfstat.o)
 .comment       0x0000604b       0x37 /cern/99/lib/libpacklib.a(fchtak.o)
 .comment       0x00006082       0x37 /cern/99/lib/libpacklib.a(gshowf.o)
 .comment       0x000060b9       0x37 /cern/99/lib/libpacklib.a(icluns.o)
 .comment       0x000060f0       0x37 /cern/99/lib/libpacklib.a(traceq.o)
 .comment       0x00006127       0x37 /cern/99/lib/libpacklib.a(xinbf.o)
 .comment       0x0000615e       0x37 /cern/99/lib/libpacklib.a(xinbs.o)
 .comment       0x00006195       0x37 /cern/99/lib/libpacklib.a(halloc.o)
 .comment       0x000061cc       0x37 /cern/99/lib/libpacklib.a(hrfile.o)
 .comment       0x00006203       0x37 /cern/99/lib/libpacklib.a(hfc1.o)
 .comment       0x0000623a       0x37 /cern/99/lib/libpacklib.a(hlccmp.o)
 .comment       0x00006271       0x37 /cern/99/lib/libpacklib.a(hlgnxt.o)
 .comment       0x000062a8       0x37 /cern/99/lib/libpacklib.a(hlhcmp.o)
 .comment       0x000062df       0x37 /cern/99/lib/libpacklib.a(hlpos.o)
 .comment       0x00006316       0x37 /cern/99/lib/libpacklib.a(dzsnap.o)
 .comment       0x0000634d       0x37 /cern/99/lib/libpacklib.a(dztext.o)
 .comment       0x00006384       0x37 /cern/99/lib/libpacklib.a(zpage.o)
 .comment       0x000063bb       0x37 /cern/99/lib/libpacklib.a(fzipha.o)
 .comment       0x000063f2       0x37 /cern/99/lib/libpacklib.a(fziphd.o)
 .comment       0x00006429       0x37 /cern/99/lib/libpacklib.a(fziphm.o)
 .comment       0x00006460       0x37 /cern/99/lib/libpacklib.a(fziphr.o)
 .comment       0x00006497       0x37 /cern/99/lib/libpacklib.a(fziprl.o)
 .comment       0x000064ce       0x37 /cern/99/lib/libpacklib.a(fzoffn.o)
 .comment       0x00006505       0x37 /cern/99/lib/libpacklib.a(fzoffx.o)
 .comment       0x0000653c       0x37 /cern/99/lib/libpacklib.a(fzon1.o)
 .comment       0x00006573       0x37 /cern/99/lib/libpacklib.a(fzon2.o)
 .comment       0x000065aa       0x37 /cern/99/lib/libpacklib.a(fzon3.o)
 .comment       0x000065e1       0x37 /cern/99/lib/libpacklib.a(fzon4.o)
 .comment       0x00006618       0x37 /cern/99/lib/libpacklib.a(fzon5.o)
 .comment       0x0000664f       0x37 /cern/99/lib/libpacklib.a(fzon6.o)
 .comment       0x00006686       0x37 /cern/99/lib/libpacklib.a(fzorec.o)
 .comment       0x000066bd       0x37 /cern/99/lib/libpacklib.a(fzotab.o)
 .comment       0x000066f4       0x37 /cern/99/lib/libpacklib.a(fzotrn.o)
 .comment       0x0000672b       0x37 /cern/99/lib/libpacklib.a(fzotxt.o)
 .comment       0x00006762       0x37 /cern/99/lib/libpacklib.a(fzicv.o)
 .comment       0x00006799       0x37 /cern/99/lib/libpacklib.a(fzotrx.o)
 .comment       0x000067d0       0x37 /cern/99/lib/libpacklib.a(mzend.o)
 .comment       0x00006807       0x37 /cern/99/lib/libpacklib.a(mzmaps.o)
 .comment       0x0000683e       0x37 /cern/99/lib/libpacklib.a(mzmark.o)
 .comment       0x00006875       0x37 /cern/99/lib/libpacklib.a(mzwork.o)
 .comment       0x000068ac       0x37 /cern/99/lib/libpacklib.a(zitoh.o)
 .comment       0x000068e3       0x37 /cern/99/lib/libpacklib.a(rzallo.o)
 .comment       0x0000691a       0x37 /cern/99/lib/libpacklib.a(rzdelk.o)
 .comment       0x00006951       0x37 /cern/99/lib/libpacklib.a(rzexpd.o)
 .comment       0x00006988       0x37 /cern/99/lib/libpacklib.a(rzfile.o)
 .comment       0x000069bf       0x37 /cern/99/lib/libpacklib.a(rzllok.o)
 .comment       0x000069f6       0x37 /cern/99/lib/libpacklib.a(rzlock.o)
 .comment       0x00006a2d       0x37 /cern/99/lib/libpacklib.a(rzmake.o)
 .comment       0x00006a64       0x37 /cern/99/lib/libpacklib.a(rzobkn.o)
 .comment       0x00006a9b       0x37 /cern/99/lib/libpacklib.a(rzpurf.o)
 .comment       0x00006ad2       0x37 /cern/99/lib/libpacklib.a(rzveri.o)
 .comment       0x00006b09       0x37 /cern/99/lib/libpacklib.a(rzwrt.o)
 .comment       0x00006b40       0x14 /cern/99/lib/libpacklib.a(connect.o)
 .comment       0x00006b54       0x14 /cern/99/lib/libpacklib.a(getacct.o)
 .comment       0x00006b68       0x14 /cern/99/lib/libpacklib.a(getacctent.o)
 .comment       0x00006b7c       0x14 /cern/99/lib/libpacklib.a(getconfent.o)
 .comment       0x00006b90       0x14 /cern/99/lib/libpacklib.a(getifnam.o)
 .comment       0x00006ba4       0x14 /cern/99/lib/libpacklib.a(log.o)
 .comment       0x00006bb8       0x14 /cern/99/lib/libpacklib.a(remote.o)
 .comment       0x00006bcc       0x14 /cern/99/lib/libpacklib.a(setnetio.o)
 .comment       0x00006be0       0x37 /cern/99/lib/libpacklib.a(vxinvc.o)
 .comment       0x00006c17       0x37 /cern/99/lib/libpacklib.a(cfstati.o)
 .comment       0x00006c4e       0x37 /cern/99/lib/libpacklib.a(dzare1.o)
 .comment       0x00006c85       0x37 /cern/99/lib/libpacklib.a(dzbkup.o)
 .comment       0x00006cbc       0x37 /cern/99/lib/libpacklib.a(dzbkxr.o)
 .comment       0x00006cf3       0x37 /cern/99/lib/libpacklib.a(dzdata.o)
 .comment       0x00006d2a       0x37 /cern/99/lib/libpacklib.a(dzmap.o)
 .comment       0x00006d61       0x37 /cern/99/lib/libpacklib.a(dzopt.o)
 .comment       0x00006d98       0x37 /cern/99/lib/libpacklib.a(dzshpr.o)
 .comment       0x00006dcf       0x37 /cern/99/lib/libpacklib.a(dztyp.o)
 .comment       0x00006e06       0x37 /cern/99/lib/libpacklib.a(fziasc.o)
 .comment       0x00006e3d       0x37 /cern/99/lib/libpacklib.a(fzichh.o)
 .comment       0x00006e74       0x37 /cern/99/lib/libpacklib.a(fzidum.o)
 .comment       0x00006eab       0x37 /cern/99/lib/libpacklib.a(fzophr.o)
 .comment       0x00006ee2       0x37 /cern/99/lib/libpacklib.a(fzocv.o)
 .comment       0x00006f19       0x37 /cern/99/lib/libpacklib.a(izbcd.o)
 .comment       0x00006f50       0x37 /cern/99/lib/libpacklib.a(rzdlok.o)
 .comment       0x00006f87       0x37 /cern/99/lib/libpacklib.a(rzver1.o)
 .comment       0x00006fbe       0x37 /cern/99/lib/libpacklib.a(rzver2.o)
 .comment       0x00006ff5       0x14 /cern/99/lib/libpacklib.a(stat.o)
 .comment       0x00007009       0x37 /cern/99/lib/libpacklib.a(cfweof.o)
 .comment       0x00007040       0x37 /cern/99/lib/libpacklib.a(iumode.o)
 .comment       0x00007077       0x37 /cern/99/lib/libpacklib.a(iufind.o)
 .comment       0x000070ae       0x37 /cern/99/lib/libpacklib.a(iusame.o)
 .comment       0x000070e5       0x37 /cern/99/lib/libpacklib.a(jrsbyt.o)
 .comment       0x0000711c       0x37 /cern/99/lib/libpacklib.a(ucopiv.o)
 .comment       0x00007153       0x37 /cern/99/lib/libpacklib.a(dzbkdv.o)
 .comment       0x0000718a       0x37 /cern/99/lib/libpacklib.a(dzbkhd.o)
 .comment       0x000071c1       0x37 /cern/99/lib/libpacklib.a(dziopr.o)
 .comment       0x000071f8       0x37 /cern/99/lib/libpacklib.a(fzialn.o)
 .comment       0x0000722f       0x37 /cern/99/lib/libpacklib.a(fzoasc.o)
 .comment       0x00007266       0x37 /cern/99/lib/libpacklib.a(izchav.o)
 .comment       0x0000729d       0x37 /cern/99/lib/libpacklib.a(rzprnk.o)
 .comment       0x000072d4       0x14 /cern/99/lib/libpacklib.a(mstat.o)
 .comment       0x000072e8       0x37 /cern/99/lib/libpacklib.a(dziopd.o)
 .comment       0x0000731f       0x37 /cern/99/lib/libpacklib.a(dzioph.o)
 .comment       0x00007356       0x37 /cern/99/lib/libpacklib.a(fzoaln.o)
 .comment       0x0000738d       0x37 /cern/99/lib/libpacklib.a(fzoapk.o)
 .comment       0x000073c4       0x37 /cern/99/lib/libpacklib.a(uh1toc.o)
 .comment       0x000073fb       0x35 /cern/99/lib/libmathlib.a(dsyev.o)
 .comment       0x00007430       0x35 /cern/99/lib/libmathlib.a(dsytrd.o)
 .comment       0x00007465       0x35 /cern/99/lib/libmathlib.a(ilaenv.o)
 .comment       0x0000749a       0x35 /cern/99/lib/libmathlib.a(lsame.o)
 .comment       0x000074cf       0x35 /cern/99/lib/libmathlib.a(xerbla.o)
 .comment       0x00007504       0x35 /cern/99/lib/libmathlib.a(dscal.o)
 .comment       0x00007539       0x35 /cern/99/lib/libmathlib.a(dsyr2k.o)
 .comment       0x0000756e       0x35 /cern/99/lib/libmathlib.a(dlamch.o)
 .comment       0x000075a3       0x35 /cern/99/lib/libmathlib.a(dlansy.o)
 .comment       0x000075d8       0x35 /cern/99/lib/libmathlib.a(dlascl.o)
 .comment       0x0000760d       0x35 /cern/99/lib/libmathlib.a(dlassq.o)
 .comment       0x00007642       0x35 /cern/99/lib/libmathlib.a(dlatrd.o)
 .comment       0x00007677       0x35 /cern/99/lib/libmathlib.a(dorgtr.o)
 .comment       0x000076ac       0x35 /cern/99/lib/libmathlib.a(dsteqr.o)
 .comment       0x000076e1       0x35 /cern/99/lib/libmathlib.a(dsterf.o)
 .comment       0x00007716       0x35 /cern/99/lib/libmathlib.a(dsytd2.o)
 .comment       0x0000774b       0x35 /cern/99/lib/libmathlib.a(daxpy.o)
 .comment       0x00007780       0x35 /cern/99/lib/libmathlib.a(ddot.o)
 .comment       0x000077b5       0x35 /cern/99/lib/libmathlib.a(dgemv.o)
 .comment       0x000077ea       0x35 /cern/99/lib/libmathlib.a(dswap.o)
 .comment       0x0000781f       0x35 /cern/99/lib/libmathlib.a(dsymv.o)
 .comment       0x00007854       0x35 /cern/99/lib/libmathlib.a(dsyr2.o)
 .comment       0x00007889       0x35 /cern/99/lib/libmathlib.a(dlae2.o)
 .comment       0x000078be       0x35 /cern/99/lib/libmathlib.a(dlaev2.o)
 .comment       0x000078f3       0x35 /cern/99/lib/libmathlib.a(dlanst.o)
 .comment       0x00007928       0x35 /cern/99/lib/libmathlib.a(dlapy2.o)
 .comment       0x0000795d       0x35 /cern/99/lib/libmathlib.a(dlarfg.o)
 .comment       0x00007992       0x35 /cern/99/lib/libmathlib.a(dlartg.o)
 .comment       0x000079c7       0x35 /cern/99/lib/libmathlib.a(dlaset.o)
 .comment       0x000079fc       0x35 /cern/99/lib/libmathlib.a(dlasr.o)
 .comment       0x00007a31       0x35 /cern/99/lib/libmathlib.a(dlasrt.o)
 .comment       0x00007a66       0x35 /cern/99/lib/libmathlib.a(dorgql.o)
 .comment       0x00007a9b       0x35 /cern/99/lib/libmathlib.a(dorgqr.o)
 .comment       0x00007ad0       0x35 /cern/99/lib/libmathlib.a(dnrm2.o)
 .comment       0x00007b05       0x35 /cern/99/lib/libmathlib.a(dlarfb.o)
 .comment       0x00007b3a       0x35 /cern/99/lib/libmathlib.a(dlarft.o)
 .comment       0x00007b6f       0x35 /cern/99/lib/libmathlib.a(dorg2l.o)
 .comment       0x00007ba4       0x35 /cern/99/lib/libmathlib.a(dorg2r.o)
 .comment       0x00007bd9       0x35 /cern/99/lib/libmathlib.a(dcopy.o)
 .comment       0x00007c0e       0x35 /cern/99/lib/libmathlib.a(dgemm.o)
 .comment       0x00007c43       0x35 /cern/99/lib/libmathlib.a(dtrmm.o)
 .comment       0x00007c78       0x35 /cern/99/lib/libmathlib.a(dtrmv.o)
 .comment       0x00007cad       0x35 /cern/99/lib/libmathlib.a(dlarf.o)
 .comment       0x00007ce2       0x35 /cern/99/lib/libmathlib.a(dger.o)
 .comment       0x00007d17       0x26 /usr/lib/libc_nonshared.a(atexit.oS)
 .comment       0x00007d3d       0x26 /usr/lib/gcc-lib/i686-pc-linux-gnu/2.95.3/libg2c.a(close.o)
 .comment       0x00007d63       0x26 /usr/lib/gcc-lib/i686-pc-linux-gnu/2.95.3/libg2c.a(dolio.o)
 .comment       0x00007d89       0x26 /usr/lib/gcc-lib/i686-pc-linux-gnu/2.95.3/libg2c.a(due.o)
 .comment       0x00007daf       0x26 /usr/lib/gcc-lib/i686-pc-linux-gnu/2.95.3/libg2c.a(endfile.o)
 .comment       0x00007dd5       0x26 /usr/lib/gcc-lib/i686-pc-linux-gnu/2.95.3/libg2c.a(err.o)
 .comment       0x00007dfb       0x26 /usr/lib/gcc-lib/i686-pc-linux-gnu/2.95.3/libg2c.a(fmt.o)
 .comment       0x00007e21       0x26 /usr/lib/gcc-lib/i686-pc-linux-gnu/2.95.3/libg2c.a(iio.o)
 .comment       0x00007e47       0x26 /usr/lib/gcc-lib/i686-pc-linux-gnu/2.95.3/libg2c.a(inquire.o)
 .comment       0x00007e6d       0x26 /usr/lib/gcc-lib/i686-pc-linux-gnu/2.95.3/libg2c.a(lread.o)
 .comment       0x00007e93       0x26 /usr/lib/gcc-lib/i686-pc-linux-gnu/2.95.3/libg2c.a(open.o)
 .comment       0x00007eb9       0x26 /usr/lib/gcc-lib/i686-pc-linux-gnu/2.95.3/libg2c.a(rdfmt.o)
 .comment       0x00007edf       0x26 /usr/lib/gcc-lib/i686-pc-linux-gnu/2.95.3/libg2c.a(rewind.o)
 .comment       0x00007f05       0x26 /usr/lib/gcc-lib/i686-pc-linux-gnu/2.95.3/libg2c.a(rsfe.o)
 .comment       0x00007f2b       0x26 /usr/lib/gcc-lib/i686-pc-linux-gnu/2.95.3/libg2c.a(sfe.o)
 .comment       0x00007f51       0x26 /usr/lib/gcc-lib/i686-pc-linux-gnu/2.95.3/libg2c.a(sue.o)
 .comment       0x00007f77       0x26 /usr/lib/gcc-lib/i686-pc-linux-gnu/2.95.3/libg2c.a(uio.o)
 .comment       0x00007f9d       0x26 /usr/lib/gcc-lib/i686-pc-linux-gnu/2.95.3/libg2c.a(util.o)
 .comment       0x00007fc3       0x26 /usr/lib/gcc-lib/i686-pc-linux-gnu/2.95.3/libg2c.a(wrtfmt.o)
 .comment       0x00007fe9       0x26 /usr/lib/gcc-lib/i686-pc-linux-gnu/2.95.3/libg2c.a(wsfe.o)
 .comment       0x0000800f       0x26 /usr/lib/gcc-lib/i686-pc-linux-gnu/2.95.3/libg2c.a(wsle.o)
 .comment       0x00008035       0x26 /usr/lib/gcc-lib/i686-pc-linux-gnu/2.95.3/libg2c.a(main.o)
 .comment       0x0000805b       0x26 /usr/lib/gcc-lib/i686-pc-linux-gnu/2.95.3/libg2c.a(s_stop.o)
 .comment       0x00008081       0x26 /usr/lib/gcc-lib/i686-pc-linux-gnu/2.95.3/libg2c.a(sig_die.o)
 .comment       0x000080a7       0x26 /usr/lib/gcc-lib/i686-pc-linux-gnu/2.95.3/libg2c.a(setarg.o)
 .comment       0x000080cd       0x26 /usr/lib/gcc-lib/i686-pc-linux-gnu/2.95.3/libg2c.a(setsig.o)
 .comment       0x000080f3       0x26 /usr/lib/gcc-lib/i686-pc-linux-gnu/2.95.3/libg2c.a(pow_dd.o)
 .comment       0x00008119       0x26 /usr/lib/gcc-lib/i686-pc-linux-gnu/2.95.3/libg2c.a(pow_zz.o)
 .comment       0x0000813f       0x26 /usr/lib/gcc-lib/i686-pc-linux-gnu/2.95.3/libg2c.a(c_abs.o)
 .comment       0x00008165       0x26 /usr/lib/gcc-lib/i686-pc-linux-gnu/2.95.3/libg2c.a(z_log.o)
 .comment       0x0000818b       0x26 /usr/lib/gcc-lib/i686-pc-linux-gnu/2.95.3/libg2c.a(z_sqrt.o)
 .comment       0x000081b1       0x26 /usr/lib/gcc-lib/i686-pc-linux-gnu/2.95.3/libg2c.a(r_lg10.o)
 .comment       0x000081d7       0x26 /usr/lib/gcc-lib/i686-pc-linux-gnu/2.95.3/libg2c.a(r_mod.o)
 .comment       0x000081fd       0x26 /usr/lib/gcc-lib/i686-pc-linux-gnu/2.95.3/libg2c.a(i_indx.o)
 .comment       0x00008223       0x26 /usr/lib/gcc-lib/i686-pc-linux-gnu/2.95.3/libg2c.a(l_gt.o)
 .comment       0x00008249       0x26 /usr/lib/gcc-lib/i686-pc-linux-gnu/2.95.3/libg2c.a(l_lt.o)
 .comment       0x0000826f       0x26 /usr/lib/gcc-lib/i686-pc-linux-gnu/2.95.3/libg2c.a(s_cat.o)
 .comment       0x00008295       0x26 /usr/lib/gcc-lib/i686-pc-linux-gnu/2.95.3/libg2c.a(s_cmp.o)
 .comment       0x000082bb       0x26 /usr/lib/gcc-lib/i686-pc-linux-gnu/2.95.3/libg2c.a(s_copy.o)
 .comment       0x000082e1       0x26 /usr/lib/gcc-lib/i686-pc-linux-gnu/2.95.3/libg2c.a(lnblnk_.o)
 .comment       0x00008307       0x26 /usr/lib/gcc-lib/i686-pc-linux-gnu/2.95.3/libg2c.a(fmtlib.o)
 .comment       0x0000832d       0x26 /usr/lib/gcc-lib/i686-pc-linux-gnu/2.95.3/libg2c.a(lwrite.o)
 .comment       0x00008353       0x26 /usr/lib/gcc-lib/i686-pc-linux-gnu/2.95.3/libg2c.a(wref.o)
 .comment       0x00008379       0x26 /usr/lib/gcc-lib/i686-pc-linux-gnu/2.95.3/libg2c.a(F77_aloc.o)
 .comment       0x0000839f       0x26 /usr/lib/gcc-lib/i686-pc-linux-gnu/2.95.3/libg2c.a(cabs.o)
 .comment       0x000083c5       0x26 /usr/lib/gcc-lib/i686-pc-linux-gnu/2.95.3/libg2c.a(exit_.o)
 .comment       0x000083eb       0x26 /usr/lib/gcc-lib/i686-pc-linux-gnu/2.95.3/crtend.o
 .comment       0x00008411       0x26 /usr/lib/crtn.o

.debug
 *(.debug)

.line
 *(.line)

.debug_srcinfo
 *(.debug_srcinfo)

.debug_sfnames
 *(.debug_sfnames)

.debug_aranges
 *(.debug_aranges)

.debug_pubnames
 *(.debug_pubnames)

.debug_info
 *(.debug_info .gnu.linkonce.wi.*)

.debug_abbrev
 *(.debug_abbrev)

.debug_line
 *(.debug_line)

.debug_frame
 *(.debug_frame)

.debug_str
 *(.debug_str)

.debug_loc
 *(.debug_loc)

.debug_macinfo
 *(.debug_macinfo)

.debug_weaknames
 *(.debug_weaknames)

.debug_funcnames
 *(.debug_funcnames)

.debug_typenames
 *(.debug_typenames)

.debug_varnames
 *(.debug_varnames)
OUTPUT(mchw59_105j.run elf32-i386)

.note           0x00000000     0x3a98
 .note          0x00000000       0x14 /usr/lib/crt1.o
 .note          0x00000014       0x14 /usr/lib/crti.o
 .note          0x00000028       0x14 /usr/lib/gcc-lib/i686-pc-linux-gnu/2.95.3/crtbegin.o
 .note          0x0000003c       0x14 mchw59_105j.o
 .note          0x00000050       0x14 /home/pcl2483/pedro/jadesoft/util/mcgen/Plib/libmc105j.a(mcgetf.o)
 .note          0x00000064       0x14 /home/pcl2483/pedro/jadesoft/util/mcgen/Plib/libmc105j.a(mcgeth.o)
 .note          0x00000078       0x14 /home/pcl2483/pedro/jadesoft/util/mcgen/Plib/libmc105j.a(mcgetp.o)
 .note          0x0000008c       0x14 /home/pcl2483/pedro/jadesoft/util/mcgen/Plib/libmc105j.a(mcinit.o)
 .note          0x000000a0       0x14 /home/pcl2483/pedro/jadesoft/util/mcgen/Plib/libmc105j.a(mcstbl.o)
 .note          0x000000b4       0x14 /home/pcl2483/pedro/jadesoft/util/mcgen/Plib/libmc105j.a(mcwrit.o)
 .note          0x000000c8       0x14 /home/pcl2483/pedro/jadesoft/util/mcgen/Plib/libmc105j.a(pxeecb.o)
 .note          0x000000dc       0x14 /home/pcl2483/pedro/jadesoft/util/mcgen/Plib/libmc105j.a(evwrtj.o)
 .note          0x000000f0       0x14 /home/pcl2483/pedro/jadesoft/util/mcgen/Plib/libmc105j.a(incprd.o)
 .note          0x00000104       0x14 /home/pcl2483/pedro/jadesoft/util/mcgen/Plib/libmc105j.a(jadeco.o)
 .note          0x00000118       0x14 /home/pcl2483/pedro/jadesoft/util/mcgen/Plib/libmc105j.a(jtconv.o)
 .note          0x0000012c       0x14 /home/pcl2483/pedro/jadesoft/util/mcgen/Plib/libmc105j.a(mcrnst.o)
 .note          0x00000140       0x14 /home/pcl2483/pedro/jadesoft/util/mcgen/Plib/libmc105j.a(ntcprd.o)
 .note          0x00000154       0x14 /home/pcl2483/pedro/jadesoft/util/mcgen/Plib/libmc105j.a(prcprd.o)
 .note          0x00000168       0x14 /home/pcl2483/pedro/jadesoft/util/mcgen/Plib/libmc105j.a(wrcprd.o)
 .note          0x0000017c       0x14 /home/pcl2483/pedro/jadesoft/util/mcgen/Plib/libherwig59.a(fxhlms.o)
 .note          0x00000190       0x14 /home/pcl2483/pedro/jadesoft/util/mcgen/Plib/libherwig59.a(h59driv.o)
 .note          0x000001a4       0x14 /home/pcl2483/pedro/jadesoft/util/mcgen/Plib/libherwig59.a(hwbgen.o)
 .note          0x000001b8       0x14 /home/pcl2483/pedro/jadesoft/util/mcgen/Plib/libherwig59.a(hwbjco.o)
 .note          0x000001cc       0x14 /home/pcl2483/pedro/jadesoft/util/mcgen/Plib/libherwig59.a(hwbmas.o)
 .note          0x000001e0       0x14 /home/pcl2483/pedro/jadesoft/util/mcgen/Plib/libherwig59.a(hwbran.o)
 .note          0x000001f4       0x14 /home/pcl2483/pedro/jadesoft/util/mcgen/Plib/libherwig59.a(hwbspa.o)
 .note          0x00000208       0x14 /home/pcl2483/pedro/jadesoft/util/mcgen/Plib/libherwig59.a(hwbspn.o)
 .note          0x0000021c       0x14 /home/pcl2483/pedro/jadesoft/util/mcgen/Plib/libherwig59.a(hwbtim.o)
 .note          0x00000230       0x14 /home/pcl2483/pedro/jadesoft/util/mcgen/Plib/libherwig59.a(hwbvmc.o)
 .note          0x00000244       0x14 /home/pcl2483/pedro/jadesoft/util/mcgen/Plib/libherwig59.a(hwcdec.o)
 .note          0x00000258       0x14 /home/pcl2483/pedro/jadesoft/util/mcgen/Plib/libherwig59.a(hwcfla.o)
 .note          0x0000026c       0x14 /home/pcl2483/pedro/jadesoft/util/mcgen/Plib/libherwig59.a(hwcfor.o)
 .note          0x00000280       0x14 /home/pcl2483/pedro/jadesoft/util/mcgen/Plib/libherwig59.a(hwcgsp.o)
 .note          0x00000294       0x14 /home/pcl2483/pedro/jadesoft/util/mcgen/Plib/libherwig59.a(hwchad.o)
 .note          0x000002a8       0x14 /home/pcl2483/pedro/jadesoft/util/mcgen/Plib/libherwig59.a(hwconv.o)
 .note          0x000002bc       0x14 /home/pcl2483/pedro/jadesoft/util/mcgen/Plib/libherwig59.a(hwdhqk.o)
 .note          0x000002d0       0x14 /home/pcl2483/pedro/jadesoft/util/mcgen/Plib/libherwig59.a(hwdpwt.o)
 .note          0x000002e4       0x14 /home/pcl2483/pedro/jadesoft/util/mcgen/Plib/libherwig59.a(hwdthr.o)
 .note          0x000002f8       0x14 /home/pcl2483/pedro/jadesoft/util/mcgen/Plib/libherwig59.a(hwdtwo.o)
 .note          0x0000030c       0x14 /home/pcl2483/pedro/jadesoft/util/mcgen/Plib/libherwig59.a(hwdwwt.o)
 .note          0x00000320       0x14 /home/pcl2483/pedro/jadesoft/util/mcgen/Plib/libherwig59.a(hwefin.o)
 .note          0x00000334       0x14 /home/pcl2483/pedro/jadesoft/util/mcgen/Plib/libherwig59.a(hweini.o)
 .note          0x00000348       0x14 /home/pcl2483/pedro/jadesoft/util/mcgen/Plib/libherwig59.a(hwepro.o)
 .note          0x0000035c       0x14 /home/pcl2483/pedro/jadesoft/util/mcgen/Plib/libherwig59.a(hwhbgf.o)
 .note          0x00000370       0x14 /home/pcl2483/pedro/jadesoft/util/mcgen/Plib/libherwig59.a(hwhbki.o)
 .note          0x00000384       0x14 /home/pcl2483/pedro/jadesoft/util/mcgen/Plib/libherwig59.a(hwhbrn.o)
 .note          0x00000398       0x14 /home/pcl2483/pedro/jadesoft/util/mcgen/Plib/libherwig59.a(hwhbsg.o)
 .note          0x000003ac       0x14 /home/pcl2483/pedro/jadesoft/util/mcgen/Plib/libherwig59.a(hwhdis.o)
 .note          0x000003c0       0x14 /home/pcl2483/pedro/jadesoft/util/mcgen/Plib/libherwig59.a(hwhdyp.o)
 .note          0x000003d4       0x14 /home/pcl2483/pedro/jadesoft/util/mcgen/Plib/libherwig59.a(hwhegg.o)
 .note          0x000003e8       0x14 /home/pcl2483/pedro/jadesoft/util/mcgen/Plib/libherwig59.a(hwhegw.o)
 .note          0x000003fc       0x14 /home/pcl2483/pedro/jadesoft/util/mcgen/Plib/libherwig59.a(hwhegx.o)
 .note          0x00000410       0x14 /home/pcl2483/pedro/jadesoft/util/mcgen/Plib/libherwig59.a(hwhepa.o)
 .note          0x00000424       0x14 /home/pcl2483/pedro/jadesoft/util/mcgen/Plib/libherwig59.a(hwhepg.o)
 .note          0x00000438       0x14 /home/pcl2483/pedro/jadesoft/util/mcgen/Plib/libherwig59.a(hwheww.o)
 .note          0x0000044c       0x14 /home/pcl2483/pedro/jadesoft/util/mcgen/Plib/libherwig59.a(hwhhvy.o)
 .note          0x00000460       0x14 /home/pcl2483/pedro/jadesoft/util/mcgen/Plib/libherwig59.a(hwhigj.o)
 .note          0x00000474       0x14 /home/pcl2483/pedro/jadesoft/util/mcgen/Plib/libherwig59.a(hwhigm.o)
 .note          0x00000488       0x14 /home/pcl2483/pedro/jadesoft/util/mcgen/Plib/libherwig59.a(hwhigs.o)
 .note          0x0000049c       0x14 /home/pcl2483/pedro/jadesoft/util/mcgen/Plib/libherwig59.a(hwhigt.o)
 .note          0x000004b0       0x14 /home/pcl2483/pedro/jadesoft/util/mcgen/Plib/libherwig59.a(hwhigw.o)
 .note          0x000004c4       0x14 /home/pcl2483/pedro/jadesoft/util/mcgen/Plib/libherwig59.a(hwhigz.o)
 .note          0x000004d8       0x14 /home/pcl2483/pedro/jadesoft/util/mcgen/Plib/libherwig59.a(hwhph2.o)
 .note          0x000004ec       0x14 /home/pcl2483/pedro/jadesoft/util/mcgen/Plib/libherwig59.a(hwhpho.o)
 .note          0x00000500       0x14 /home/pcl2483/pedro/jadesoft/util/mcgen/Plib/libherwig59.a(hwhppb.o)
 .note          0x00000514       0x14 /home/pcl2483/pedro/jadesoft/util/mcgen/Plib/libherwig59.a(hwhppe.o)
 .note          0x00000528       0x14 /home/pcl2483/pedro/jadesoft/util/mcgen/Plib/libherwig59.a(hwhpph.o)
 .note          0x0000053c       0x14 /home/pcl2483/pedro/jadesoft/util/mcgen/Plib/libherwig59.a(hwhppm.o)
 .note          0x00000550       0x14 /home/pcl2483/pedro/jadesoft/util/mcgen/Plib/libherwig59.a(hwhppt.o)
 .note          0x00000564       0x14 /home/pcl2483/pedro/jadesoft/util/mcgen/Plib/libherwig59.a(hwhpqs.o)
 .note          0x00000578       0x14 /home/pcl2483/pedro/jadesoft/util/mcgen/Plib/libherwig59.a(hwhqcd.o)
 .note          0x0000058c       0x14 /home/pcl2483/pedro/jadesoft/util/mcgen/Plib/libherwig59.a(hwhqcp.o)
 .note          0x000005a0       0x14 /home/pcl2483/pedro/jadesoft/util/mcgen/Plib/libherwig59.a(hwhsng.o)
 .note          0x000005b4       0x14 /home/pcl2483/pedro/jadesoft/util/mcgen/Plib/libherwig59.a(hwhsnm.o)
 .note          0x000005c8       0x14 /home/pcl2483/pedro/jadesoft/util/mcgen/Plib/libherwig59.a(hwhv1j.o)
 .note          0x000005dc       0x14 /home/pcl2483/pedro/jadesoft/util/mcgen/Plib/libherwig59.a(hwhwex.o)
 .note          0x000005f0       0x14 /home/pcl2483/pedro/jadesoft/util/mcgen/Plib/libherwig59.a(hwhwpr.o)
 .note          0x00000604       0x14 /home/pcl2483/pedro/jadesoft/util/mcgen/Plib/libherwig59.a(hwigin.o)
 .note          0x00000618       0x14 /home/pcl2483/pedro/jadesoft/util/mcgen/Plib/libherwig59.a(hwmwgt.o)
 .note          0x0000062c       0x14 /home/pcl2483/pedro/jadesoft/util/mcgen/Plib/libherwig59.a(hwrazm.o)
 .note          0x00000640       0x14 /home/pcl2483/pedro/jadesoft/util/mcgen/Plib/libherwig59.a(hwrgau.o)
 .note          0x00000654       0x14 /home/pcl2483/pedro/jadesoft/util/mcgen/Plib/libherwig59.a(hwrgen.o)
 .note          0x00000668       0x14 /home/pcl2483/pedro/jadesoft/util/mcgen/Plib/libherwig59.a(hwrint.o)
 .note          0x0000067c       0x14 /home/pcl2483/pedro/jadesoft/util/mcgen/Plib/libherwig59.a(hwrlog.o)
 .note          0x00000690       0x14 /home/pcl2483/pedro/jadesoft/util/mcgen/Plib/libherwig59.a(hwrpip.o)
 .note          0x000006a4       0x14 /home/pcl2483/pedro/jadesoft/util/mcgen/Plib/libherwig59.a(hwrpow.o)
 .note          0x000006b8       0x14 /home/pcl2483/pedro/jadesoft/util/mcgen/Plib/libherwig59.a(hwruni.o)
 .note          0x000006cc       0x14 /home/pcl2483/pedro/jadesoft/util/mcgen/Plib/libherwig59.a(hwsbrn.o)
 .note          0x000006e0       0x14 /home/pcl2483/pedro/jadesoft/util/mcgen/Plib/libherwig59.a(hwsfbr.o)
 .note          0x000006f4       0x14 /home/pcl2483/pedro/jadesoft/util/mcgen/Plib/libherwig59.a(hwsfun.o)
 .note          0x00000708       0x14 /home/pcl2483/pedro/jadesoft/util/mcgen/Plib/libherwig59.a(hwsgam.o)
 .note          0x0000071c       0x14 /home/pcl2483/pedro/jadesoft/util/mcgen/Plib/libherwig59.a(hwsgen.o)
 .note          0x00000730       0x14 /home/pcl2483/pedro/jadesoft/util/mcgen/Plib/libherwig59.a(hwsgqq.o)
 .note          0x00000744       0x14 /home/pcl2483/pedro/jadesoft/util/mcgen/Plib/libherwig59.a(hwsspc.o)
 .note          0x00000758       0x14 /home/pcl2483/pedro/jadesoft/util/mcgen/Plib/libherwig59.a(hwssud.o)
 .note          0x0000076c       0x14 /home/pcl2483/pedro/jadesoft/util/mcgen/Plib/libherwig59.a(hwstab.o)
 .note          0x00000780       0x14 /home/pcl2483/pedro/jadesoft/util/mcgen/Plib/libherwig59.a(hwsval.o)
 .note          0x00000794       0x14 /home/pcl2483/pedro/jadesoft/util/mcgen/Plib/libherwig59.a(hwuaem.o)
 .note          0x000007a8       0x14 /home/pcl2483/pedro/jadesoft/util/mcgen/Plib/libherwig59.a(hwuaer.o)
 .note          0x000007bc       0x14 /home/pcl2483/pedro/jadesoft/util/mcgen/Plib/libherwig59.a(hwualf.o)
 .note          0x000007d0       0x14 /home/pcl2483/pedro/jadesoft/util/mcgen/Plib/libherwig59.a(hwubst.o)
 .note          0x000007e4       0x14 /home/pcl2483/pedro/jadesoft/util/mcgen/Plib/libherwig59.a(hwucff.o)
 .note          0x000007f8       0x14 /home/pcl2483/pedro/jadesoft/util/mcgen/Plib/libherwig59.a(hwudat.o)
 .note          0x0000080c       0x14 /home/pcl2483/pedro/jadesoft/util/mcgen/Plib/libherwig59.a(hwudkl.o)
 .note          0x00000820       0x14 /home/pcl2483/pedro/jadesoft/util/mcgen/Plib/libherwig59.a(hwuecm.o)
 .note          0x00000834       0x14 /home/pcl2483/pedro/jadesoft/util/mcgen/Plib/libherwig59.a(hwueec.o)
 .note          0x00000848       0x14 /home/pcl2483/pedro/jadesoft/util/mcgen/Plib/libherwig59.a(hwuepr.o)
 .note          0x0000085c       0x14 /home/pcl2483/pedro/jadesoft/util/mcgen/Plib/libherwig59.a(hwufne.o)
 .note          0x00000870       0x14 /home/pcl2483/pedro/jadesoft/util/mcgen/Plib/libherwig59.a(hwuinc.o)
 .note          0x00000884       0x14 /home/pcl2483/pedro/jadesoft/util/mcgen/Plib/libherwig59.a(hwuine.o)
 .note          0x00000898       0x14 /home/pcl2483/pedro/jadesoft/util/mcgen/Plib/libherwig59.a(hwulb4.o)
 .note          0x000008ac       0x14 /home/pcl2483/pedro/jadesoft/util/mcgen/Plib/libherwig59.a(hwuldo.o)
 .note          0x000008c0       0x14 /home/pcl2483/pedro/jadesoft/util/mcgen/Plib/libherwig59.a(hwulob.o)
 .note          0x000008d4       0x14 /home/pcl2483/pedro/jadesoft/util/mcgen/Plib/libherwig59.a(hwulof.o)
 .note          0x000008e8       0x14 /home/pcl2483/pedro/jadesoft/util/mcgen/Plib/libherwig59.a(hwumas.o)
 .note          0x000008fc       0x14 /home/pcl2483/pedro/jadesoft/util/mcgen/Plib/libherwig59.a(hwupcm.o)
 .note          0x00000910       0x14 /home/pcl2483/pedro/jadesoft/util/mcgen/Plib/libherwig59.a(hwures.o)
 .note          0x00000924       0x14 /home/pcl2483/pedro/jadesoft/util/mcgen/Plib/libherwig59.a(hwurob.o)
 .note          0x00000938       0x14 /home/pcl2483/pedro/jadesoft/util/mcgen/Plib/libherwig59.a(hwurof.o)
 .note          0x0000094c       0x14 /home/pcl2483/pedro/jadesoft/util/mcgen/Plib/libherwig59.a(hwurot.o)
 .note          0x00000960       0x14 /home/pcl2483/pedro/jadesoft/util/mcgen/Plib/libherwig59.a(hwusqr.o)
 .note          0x00000974       0x14 /home/pcl2483/pedro/jadesoft/util/mcgen/Plib/libherwig59.a(hwutab.o)
 .note          0x00000988       0x14 /home/pcl2483/pedro/jadesoft/util/mcgen/Plib/libherwig59.a(hwutim.o)
 .note          0x0000099c       0x14 /home/pcl2483/pedro/jadesoft/util/mcgen/Plib/libherwig59.a(hwvdif.o)
 .note          0x000009b0       0x14 /home/pcl2483/pedro/jadesoft/util/mcgen/Plib/libherwig59.a(hwvdot.o)
 .note          0x000009c4       0x14 /home/pcl2483/pedro/jadesoft/util/mcgen/Plib/libherwig59.a(hwvequ.o)
 .note          0x000009d8       0x14 /home/pcl2483/pedro/jadesoft/util/mcgen/Plib/libherwig59.a(hwvsca.o)
 .note          0x000009ec       0x14 /home/pcl2483/pedro/jadesoft/util/mcgen/Plib/libherwig59.a(hwvsum.o)
 .note          0x00000a00       0x14 /home/pcl2483/pedro/jadesoft/util/mcgen/Plib/libherwig59.a(hwvzro.o)
 .note          0x00000a14       0x14 /home/pcl2483/pedro/jadesoft/util/mcgen/Plib/libherwig59.a(hwwarn.o)
 .note          0x00000a28       0x14 /home/pcl2483/pedro/jadesoft/util/mcgen/Plib/libherwig59.a(pdfset.o)
 .note          0x00000a3c       0x14 /home/pcl2483/pedro/jadesoft/util/mcgen/Plib/libherwig59.a(sasgam.o)
 .note          0x00000a50       0x14 /home/pcl2483/pedro/jadesoft/util/mcgen/Plib/libherwig59.a(sasvmd.o)
 .note          0x00000a64       0x14 /home/pcl2483/pedro/jadesoft/util/mcgen/Plib/libherwig59.a(structm.o)
 .note          0x00000a78       0x14 /home/pcl2483/pedro/jadesoft/util/mcgen/Plib/libherwig59.a(hvcbvi.o)
 .note          0x00000a8c       0x14 /home/pcl2483/pedro/jadesoft/util/mcgen/Plib/libherwig59.a(hvhbvi.o)
 .note          0x00000aa0       0x14 /home/pcl2483/pedro/jadesoft/util/mcgen/Plib/libherwig59.a(hwaend.o)
 .note          0x00000ab4       0x14 /home/pcl2483/pedro/jadesoft/util/mcgen/Plib/libherwig59.a(hwbazf.o)
 .note          0x00000ac8       0x14 /home/pcl2483/pedro/jadesoft/util/mcgen/Plib/libherwig59.a(hwbcon.o)
 .note          0x00000adc       0x14 /home/pcl2483/pedro/jadesoft/util/mcgen/Plib/libherwig59.a(hwbded.o)
 .note          0x00000af0       0x14 /home/pcl2483/pedro/jadesoft/util/mcgen/Plib/libherwig59.a(hwbdis.o)
 .note          0x00000b04       0x14 /home/pcl2483/pedro/jadesoft/util/mcgen/Plib/libherwig59.a(hwbfin.o)
 .note          0x00000b18       0x14 /home/pcl2483/pedro/jadesoft/util/mcgen/Plib/libherwig59.a(hwbsud.o)
 .note          0x00000b2c       0x14 /home/pcl2483/pedro/jadesoft/util/mcgen/Plib/libherwig59.a(hwbsug.o)
 .note          0x00000b40       0x14 /home/pcl2483/pedro/jadesoft/util/mcgen/Plib/libherwig59.a(hwbsul.o)
 .note          0x00000b54       0x14 /home/pcl2483/pedro/jadesoft/util/mcgen/Plib/libherwig59.a(hwccut.o)
 .note          0x00000b68       0x14 /home/pcl2483/pedro/jadesoft/util/mcgen/Plib/libherwig59.a(hwdboz.o)
 .note          0x00000b7c       0x14 /home/pcl2483/pedro/jadesoft/util/mcgen/Plib/libherwig59.a(hwdhig.o)
 .note          0x00000b90       0x14 /home/pcl2483/pedro/jadesoft/util/mcgen/Plib/libherwig59.a(hwegam.o)
 .note          0x00000ba4       0x14 /home/pcl2483/pedro/jadesoft/util/mcgen/Plib/libherwig59.a(hweisr.o)
 .note          0x00000bb8       0x14 /home/pcl2483/pedro/jadesoft/util/mcgen/Plib/libherwig59.a(hweone.o)
 .note          0x00000bcc       0x14 /home/pcl2483/pedro/jadesoft/util/mcgen/Plib/libherwig59.a(hwetwo.o)
 .note          0x00000be0       0x14 /home/pcl2483/pedro/jadesoft/util/mcgen/Plib/libherwig59.a(hwhew0.o)
 .note          0x00000bf4       0x14 /home/pcl2483/pedro/jadesoft/util/mcgen/Plib/libherwig59.a(hwhew1.o)
 .note          0x00000c08       0x14 /home/pcl2483/pedro/jadesoft/util/mcgen/Plib/libherwig59.a(hwhew2.o)
 .note          0x00000c1c       0x14 /home/pcl2483/pedro/jadesoft/util/mcgen/Plib/libherwig59.a(hwhew3.o)
 .note          0x00000c30       0x14 /home/pcl2483/pedro/jadesoft/util/mcgen/Plib/libherwig59.a(hwhew4.o)
 .note          0x00000c44       0x14 /home/pcl2483/pedro/jadesoft/util/mcgen/Plib/libherwig59.a(hwhew5.o)
 .note          0x00000c58       0x14 /home/pcl2483/pedro/jadesoft/util/mcgen/Plib/libherwig59.a(hwhiga.o)
 .note          0x00000c6c       0x14 /home/pcl2483/pedro/jadesoft/util/mcgen/Plib/libherwig59.a(hwhigb.o)
 .note          0x00000c80       0x14 /home/pcl2483/pedro/jadesoft/util/mcgen/Plib/libherwig59.a(hwhigy.o)
 .note          0x00000c94       0x14 /home/pcl2483/pedro/jadesoft/util/mcgen/Plib/libherwig59.a(hwrexq.o)
 .note          0x00000ca8       0x14 /home/pcl2483/pedro/jadesoft/util/mcgen/Plib/libherwig59.a(hwsdgg.o)
 .note          0x00000cbc       0x14 /home/pcl2483/pedro/jadesoft/util/mcgen/Plib/libherwig59.a(hwsdgq.o)
 .note          0x00000cd0       0x14 /home/pcl2483/pedro/jadesoft/util/mcgen/Plib/libherwig59.a(hwuant.o)
 .note          0x00000ce4       0x14 /home/pcl2483/pedro/jadesoft/util/mcgen/Plib/libherwig59.a(hwubpr.o)
 .note          0x00000cf8       0x14 /home/pcl2483/pedro/jadesoft/util/mcgen/Plib/libherwig59.a(hwuci2.o)
 .note          0x00000d0c       0x14 /home/pcl2483/pedro/jadesoft/util/mcgen/Plib/libherwig59.a(hwudks.o)
 .note          0x00000d20       0x14 /home/pcl2483/pedro/jadesoft/util/mcgen/Plib/libherwig59.a(hwudpr.o)
 .note          0x00000d34       0x14 /home/pcl2483/pedro/jadesoft/util/mcgen/Plib/libherwig59.a(hwuedt.o)
 .note          0x00000d48       0x14 /home/pcl2483/pedro/jadesoft/util/mcgen/Plib/libherwig59.a(hwuemv.o)
 .note          0x00000d5c       0x14 /home/pcl2483/pedro/jadesoft/util/mcgen/Plib/libherwig59.a(hwugau.o)
 .note          0x00000d70       0x14 /home/pcl2483/pedro/jadesoft/util/mcgen/Plib/libherwig59.a(hwuidt.o)
 .note          0x00000d84       0x14 /home/pcl2483/pedro/jadesoft/util/mcgen/Plib/libherwig59.a(hwulf4.o)
 .note          0x00000d98       0x14 /home/pcl2483/pedro/jadesoft/util/mcgen/Plib/libherwig59.a(hwuli2.o)
 .note          0x00000dac       0x14 /home/pcl2483/pedro/jadesoft/util/mcgen/Plib/libherwig59.a(hwusor.o)
 .note          0x00000dc0       0x14 /home/pcl2483/pedro/jadesoft/util/mcgen/Plib/libherwig59.a(sasano.o)
 .note          0x00000dd4       0x14 /home/pcl2483/pedro/jadesoft/util/mcgen/Plib/libherwig59.a(sasbeh.o)
 .note          0x00000de8       0x14 /home/pcl2483/pedro/jadesoft/util/mcgen/Plib/libherwig59.a(sasdir.o)
 .note          0x00000dfc       0x14 /home/pcl2483/pedro/jadesoft/util/mcgen/Plib/libherwig59.a(hwbsu1.o)
 .note          0x00000e10       0x14 /home/pcl2483/pedro/jadesoft/util/mcgen/Plib/libherwig59.a(hwbsu2.o)
 .note          0x00000e24       0x14 /home/pcl2483/pedro/jadesoft/util/mcgen/Plib/libherwig59.a(hwdchk.o)
 .note          0x00000e38       0x14 /home/pcl2483/pedro/jadesoft/util/mcgen/Plib/libherwig59.a(hwdhgc.o)
 .note          0x00000e4c       0x14 /home/pcl2483/pedro/jadesoft/util/mcgen/Plib/libherwig59.a(hwdhgf.o)
 .note          0x00000e60       0x14 /home/pcl2483/pedro/jadesoft/util/mcgen/Plib/libherwig59.a(hwdtop.o)
 .note          0x00000e74       0x14 /home/pcl2483/pedro/jadesoft/util/mcgen/Plib/libherwig59.a(hwhig1.o)
 .note          0x00000e88       0x14 /home/pcl2483/pedro/jadesoft/util/mcgen/Plib/libjt74opal.a(luchge.o)
 .note          0x00000e9c       0x14 /home/pcl2483/pedro/jadesoft/util/mcgen/Plib/libjt74opal.a(lucomp.o)
 .note          0x00000eb0       0x14 /home/pcl2483/pedro/jadesoft/util/mcgen/Plib/libjt74opal.a(ludata.o)
 .note          0x00000ec4       0x14 /home/pcl2483/pedro/jadesoft/util/mcgen/Plib/libjt74opal.a(luedit.o)
 .note          0x00000ed8       0x14 /home/pcl2483/pedro/jadesoft/util/mcgen/Plib/libjt74opal.a(luerrm.o)
 .note          0x00000eec       0x14 /home/pcl2483/pedro/jadesoft/util/mcgen/Plib/libjt74opal.a(luexec.o)
 .note          0x00000f00       0x14 /home/pcl2483/pedro/jadesoft/util/mcgen/Plib/libjt74opal.a(luhepc.o)
 .note          0x00000f14       0x14 /home/pcl2483/pedro/jadesoft/util/mcgen/Plib/libjt74opal.a(luindf.o)
 .note          0x00000f28       0x14 /home/pcl2483/pedro/jadesoft/util/mcgen/Plib/libjt74opal.a(lukfdi.o)
 .note          0x00000f3c       0x14 /home/pcl2483/pedro/jadesoft/util/mcgen/Plib/libjt74opal.a(lulist.o)
 .note          0x00000f50       0x14 /home/pcl2483/pedro/jadesoft/util/mcgen/Plib/libjt74opal.a(lulogo.o)
 .note          0x00000f64       0x14 /home/pcl2483/pedro/jadesoft/util/mcgen/Plib/libjt74opal.a(luname.o)
 .note          0x00000f78       0x14 /home/pcl2483/pedro/jadesoft/util/mcgen/Plib/libjt74opal.a(luprep.o)
 .note          0x00000f8c       0x14 /home/pcl2483/pedro/jadesoft/util/mcgen/Plib/libjt74opal.a(luptdi.o)
 .note          0x00000fa0       0x14 /home/pcl2483/pedro/jadesoft/util/mcgen/Plib/libjt74opal.a(lurobo.o)
 .note          0x00000fb4       0x14 /home/pcl2483/pedro/jadesoft/util/mcgen/Plib/libjt74opal.a(lushow.o)
 .note          0x00000fc8       0x14 /home/pcl2483/pedro/jadesoft/util/mcgen/Plib/libjt74opal.a(lustrf.o)
 .note          0x00000fdc       0x14 /home/pcl2483/pedro/jadesoft/util/mcgen/Plib/libjt74opal.a(lutabu.o)
 .note          0x00000ff0       0x14 /home/pcl2483/pedro/jadesoft/util/mcgen/Plib/libjt74opal.a(luzdis.o)
 .note          0x00001004       0x14 /home/pcl2483/pedro/jadesoft/util/mcgen/Plib/libjt74opal.a(plu.o)
 .note          0x00001018       0x14 /home/pcl2483/pedro/jadesoft/util/mcgen/Plib/libjt74opal.a(rlu.o)
 .note          0x0000102c       0x14 /home/pcl2483/pedro/jadesoft/util/mcgen/Plib/libjt74opal.a(ulangl.o)
 .note          0x00001040       0x14 /home/pcl2483/pedro/jadesoft/util/mcgen/Plib/libjt74opal.a(ulmass.o)
 .note          0x00001054       0x14 /home/pcl2483/pedro/jadesoft/util/mcgen/Plib/libjt74opal.a(luboei.o)
 .note          0x00001068       0x14 /home/pcl2483/pedro/jadesoft/util/mcgen/Plib/libjt74opal.a(ludecy.o)
 .note          0x0000107c       0x14 /home/pcl2483/pedro/jadesoft/util/mcgen/Plib/libjt74opal.a(lutaud.o)
 .note          0x00001090       0x14 /home/pcl2483/pedro/jadesoft/util/mcgen/Plib/libjt74opal.a(taupol.o)
 .note          0x000010a4       0x14 /home/pcl2483/pedro/jadesoft/util/mcgen/Plib/libjt74opal.a(dexay.o)
 .note          0x000010b8       0x14 /home/pcl2483/pedro/jadesoft/util/mcgen/Plib/libjt74opal.a(dexay1.o)
 .note          0x000010cc       0x14 /home/pcl2483/pedro/jadesoft/util/mcgen/Plib/libjt74opal.a(dexel.o)
 .note          0x000010e0       0x14 /home/pcl2483/pedro/jadesoft/util/mcgen/Plib/libjt74opal.a(dexkk.o)
 .note          0x000010f4       0x14 /home/pcl2483/pedro/jadesoft/util/mcgen/Plib/libjt74opal.a(dexks.o)
 .note          0x00001108       0x14 /home/pcl2483/pedro/jadesoft/util/mcgen/Plib/libjt74opal.a(dexmu.o)
 .note          0x0000111c       0x14 /home/pcl2483/pedro/jadesoft/util/mcgen/Plib/libjt74opal.a(dexnew.o)
 .note          0x00001130       0x14 /home/pcl2483/pedro/jadesoft/util/mcgen/Plib/libjt74opal.a(dexpi.o)
 .note          0x00001144       0x14 /home/pcl2483/pedro/jadesoft/util/mcgen/Plib/libjt74opal.a(dexro.o)
 .note          0x00001158       0x14 /home/pcl2483/pedro/jadesoft/util/mcgen/Plib/libjt74opal.a(dwlnew.o)
 .note          0x0000116c       0x14 /home/pcl2483/pedro/jadesoft/util/mcgen/Plib/libjt74opal.a(dwluaa.o)
 .note          0x00001180       0x14 /home/pcl2483/pedro/jadesoft/util/mcgen/Plib/libjt74opal.a(dwluel.o)
 .note          0x00001194       0x14 /home/pcl2483/pedro/jadesoft/util/mcgen/Plib/libjt74opal.a(dwlukk.o)
 .note          0x000011a8       0x14 /home/pcl2483/pedro/jadesoft/util/mcgen/Plib/libjt74opal.a(dwluks.o)
 .note          0x000011bc       0x14 /home/pcl2483/pedro/jadesoft/util/mcgen/Plib/libjt74opal.a(dwlumu.o)
 .note          0x000011d0       0x14 /home/pcl2483/pedro/jadesoft/util/mcgen/Plib/libjt74opal.a(dwlupi.o)
 .note          0x000011e4       0x14 /home/pcl2483/pedro/jadesoft/util/mcgen/Plib/libjt74opal.a(dwluro.o)
 .note          0x000011f8       0x14 /home/pcl2483/pedro/jadesoft/util/mcgen/Plib/libjt74opal.a(dwrph.o)
 .note          0x0000120c       0x14 /home/pcl2483/pedro/jadesoft/util/mcgen/Plib/libjt74opal.a(filhep.o)
 .note          0x00001220       0x14 /home/pcl2483/pedro/jadesoft/util/mcgen/Plib/libjt74opal.a(initdk.o)
 .note          0x00001234       0x14 /home/pcl2483/pedro/jadesoft/util/mcgen/Plib/libjt74opal.a(jaker.o)
 .note          0x00001248       0x14 /home/pcl2483/pedro/jadesoft/util/mcgen/Plib/libjt74opal.a(lunpik.o)
 .note          0x0000125c       0x14 /home/pcl2483/pedro/jadesoft/util/mcgen/Plib/libjt74opal.a(dadmel.o)
 .note          0x00001270       0x14 /home/pcl2483/pedro/jadesoft/util/mcgen/Plib/libjt74opal.a(dadmkk.o)
 .note          0x00001284       0x14 /home/pcl2483/pedro/jadesoft/util/mcgen/Plib/libjt74opal.a(dadmks.o)
 .note          0x00001298       0x14 /home/pcl2483/pedro/jadesoft/util/mcgen/Plib/libjt74opal.a(dadmmu.o)
 .note          0x000012ac       0x14 /home/pcl2483/pedro/jadesoft/util/mcgen/Plib/libjt74opal.a(dadmpi.o)
 .note          0x000012c0       0x14 /home/pcl2483/pedro/jadesoft/util/mcgen/Plib/libjt74opal.a(dadmro.o)
 .note          0x000012d4       0x14 /home/pcl2483/pedro/jadesoft/util/mcgen/Plib/libjt74opal.a(dadnew.o)
 .note          0x000012e8       0x14 /home/pcl2483/pedro/jadesoft/util/mcgen/Plib/libjt74opal.a(dexaa.o)
 .note          0x000012fc       0x14 /home/pcl2483/pedro/jadesoft/util/mcgen/Plib/libjt74opal.a(dph4pi.o)
 .note          0x00001310       0x14 /home/pcl2483/pedro/jadesoft/util/mcgen/Plib/libjt74opal.a(dph5pi.o)
 .note          0x00001324       0x14 /home/pcl2483/pedro/jadesoft/util/mcgen/Plib/libjt74opal.a(dphnpi.o)
 .note          0x00001338       0x14 /home/pcl2483/pedro/jadesoft/util/mcgen/Plib/libjt74opal.a(dphsel.o)
 .note          0x0000134c       0x14 /home/pcl2483/pedro/jadesoft/util/mcgen/Plib/libjt74opal.a(dphsks.o)
 .note          0x00001360       0x14 /home/pcl2483/pedro/jadesoft/util/mcgen/Plib/libjt74opal.a(dphsmu.o)
 .note          0x00001374       0x14 /home/pcl2483/pedro/jadesoft/util/mcgen/Plib/libjt74opal.a(dphspk.o)
 .note          0x00001388       0x14 /home/pcl2483/pedro/jadesoft/util/mcgen/Plib/libjt74opal.a(dphsrk.o)
 .note          0x0000139c       0x14 /home/pcl2483/pedro/jadesoft/util/mcgen/Plib/libjt74opal.a(dphsro.o)
 .note          0x000013b0       0x14 /home/pcl2483/pedro/jadesoft/util/mcgen/Plib/libjt74opal.a(dphtre.o)
 .note          0x000013c4       0x14 /home/pcl2483/pedro/jadesoft/util/mcgen/Plib/libjt74opal.a(drcmu.o)
 .note          0x000013d8       0x14 /home/pcl2483/pedro/jadesoft/util/mcgen/Plib/libjt74opal.a(dwluph.o)
 .note          0x000013ec       0x14 /home/pcl2483/pedro/jadesoft/util/mcgen/Plib/libjt74opal.a(fpirho.o)
 .note          0x00001400       0x14 /home/pcl2483/pedro/jadesoft/util/mcgen/Plib/libjt74opal.a(fpirk.o)
 .note          0x00001414       0x14 /home/pcl2483/pedro/jadesoft/util/mcgen/Plib/libjt74opal.a(rotor2.o)
 .note          0x00001428       0x14 /home/pcl2483/pedro/jadesoft/util/mcgen/Plib/libjt74opal.a(rotor3.o)
 .note          0x0000143c       0x14 /home/pcl2483/pedro/jadesoft/util/mcgen/Plib/libjt74opal.a(rotpol.o)
 .note          0x00001450       0x14 /home/pcl2483/pedro/jadesoft/util/mcgen/Plib/libjt74opal.a(rotpox.o)
 .note          0x00001464       0x14 /home/pcl2483/pedro/jadesoft/util/mcgen/Plib/libjt74opal.a(sigee.o)
 .note          0x00001478       0x14 /home/pcl2483/pedro/jadesoft/util/mcgen/Plib/libjt74opal.a(sphera.o)
 .note          0x0000148c       0x14 /home/pcl2483/pedro/jadesoft/util/mcgen/Plib/libjt74opal.a(spherd.o)
 .note          0x000014a0       0x14 /home/pcl2483/pedro/jadesoft/util/mcgen/Plib/libjt74opal.a(bostd3.o)
 .note          0x000014b4       0x14 /home/pcl2483/pedro/jadesoft/util/mcgen/Plib/libjt74opal.a(bostr3.o)
 .note          0x000014c8       0x14 /home/pcl2483/pedro/jadesoft/util/mcgen/Plib/libjt74opal.a(bwigs.o)
 .note          0x000014dc       0x14 /home/pcl2483/pedro/jadesoft/util/mcgen/Plib/libjt74opal.a(choice.o)
 .note          0x000014f0       0x14 /home/pcl2483/pedro/jadesoft/util/mcgen/Plib/libjt74opal.a(dadmaa.o)
 .note          0x00001504       0x14 /home/pcl2483/pedro/jadesoft/util/mcgen/Plib/libjt74opal.a(dam4pi.o)
 .note          0x00001518       0x14 /home/pcl2483/pedro/jadesoft/util/mcgen/Plib/libjt74opal.a(dampog.o)
 .note          0x0000152c       0x14 /home/pcl2483/pedro/jadesoft/util/mcgen/Plib/libjt74opal.a(damppk.o)
 .note          0x00001540       0x14 /home/pcl2483/pedro/jadesoft/util/mcgen/Plib/libjt74opal.a(dampry.o)
 .note          0x00001554       0x14 /home/pcl2483/pedro/jadesoft/util/mcgen/Plib/libjt74opal.a(dcdmas.o)
 .note          0x00001568       0x14 /home/pcl2483/pedro/jadesoft/util/mcgen/Plib/libjt74opal.a(dphsaa.o)
 .note          0x0000157c       0x14 /home/pcl2483/pedro/jadesoft/util/mcgen/Plib/libjt74opal.a(form1.o)
 .note          0x00001590       0x14 /home/pcl2483/pedro/jadesoft/util/mcgen/Plib/libjt74opal.a(form2.o)
 .note          0x000015a4       0x14 /home/pcl2483/pedro/jadesoft/util/mcgen/Plib/libjt74opal.a(form3.o)
 .note          0x000015b8       0x14 /home/pcl2483/pedro/jadesoft/util/mcgen/Plib/libjt74opal.a(form4.o)
 .note          0x000015cc       0x14 /home/pcl2483/pedro/jadesoft/util/mcgen/Plib/libjt74opal.a(form5.o)
 .note          0x000015e0       0x14 /home/pcl2483/pedro/jadesoft/util/mcgen/Plib/libjt74opal.a(formom.o)
 .note          0x000015f4       0x14 /home/pcl2483/pedro/jadesoft/util/mcgen/Plib/libjt74opal.a(fpik.o)
 .note          0x00001608       0x14 /home/pcl2483/pedro/jadesoft/util/mcgen/Plib/libjt74opal.a(fpikm.o)
 .note          0x0000161c       0x14 /home/pcl2483/pedro/jadesoft/util/mcgen/Plib/libjt74opal.a(fpikmd.o)
 .note          0x00001630       0x14 /home/pcl2483/pedro/jadesoft/util/mcgen/Plib/libjt74opal.a(gfun.o)
 .note          0x00001644       0x14 /home/pcl2483/pedro/jadesoft/util/mcgen/Plib/libjt74opal.a(prod5.o)
 .note          0x00001658       0x14 /home/pcl2483/pedro/jadesoft/util/mcgen/Plib/libjt74opal.a(rotod2.o)
 .note          0x0000166c       0x14 /home/pcl2483/pedro/jadesoft/util/mcgen/Plib/libjt74opal.a(rotod3.o)
 .note          0x00001680       0x14 /home/pcl2483/pedro/jadesoft/util/mcgen/Plib/libjt74opal.a(sqm2.o)
 .note          0x00001694       0x14 /home/pcl2483/pedro/jadesoft/util/mcgen/Plib/libjt74opal.a(thb.o)
 .note          0x000016a8       0x14 /home/pcl2483/pedro/jadesoft/util/mcgen/Plib/libjt74opal.a(wigfor.o)
 .note          0x000016bc       0x14 /home/pcl2483/pedro/jadesoft/util/mcgen/Plib/libjt74opal.a(bwig.o)
 .note          0x000016d0       0x14 /home/pcl2483/pedro/jadesoft/util/mcgen/Plib/libjt74opal.a(bwigm.o)
 .note          0x000016e4       0x14 /home/pcl2483/pedro/jadesoft/util/mcgen/Plib/libjt74opal.a(claxi.o)
 .note          0x000016f8       0x14 /home/pcl2483/pedro/jadesoft/util/mcgen/Plib/libjt74opal.a(clnut.o)
 .note          0x0000170c       0x14 /home/pcl2483/pedro/jadesoft/util/mcgen/Plib/libjt74opal.a(clvec.o)
 .note          0x00001720       0x14 /home/pcl2483/pedro/jadesoft/util/mcgen/Plib/libjt74opal.a(curr.o)
 .note          0x00001734       0x14 /home/pcl2483/pedro/jadesoft/util/mcgen/Plib/libjt74opal.a(dilog.o)
 .note          0x00001748       0x14 /home/pcl2483/pedro/jadesoft/util/mcgen/Plib/libckern105.a(ckern.o)
 .note          0x0000175c       0x14 /home/pcl2483/pedro/jadesoft/util/mcgen/Plib/libckern105.a(cksord.o)
 .note          0x00001770       0x14 /home/pcl2483/pedro/jadesoft/util/mcgen/Plib/libckern105.a(cnjet.o)
 .note          0x00001784       0x14 /home/pcl2483/pedro/jadesoft/util/mcgen/Plib/libpx114.a(pxang3.o)
 .note          0x00001798       0x14 /home/pcl2483/pedro/jadesoft/util/mcgen/Plib/libpx114.a(pxanxy.o)
 .note          0x000017ac       0x14 /home/pcl2483/pedro/jadesoft/util/mcgen/Plib/libpx114.a(pxcone.o)
 .note          0x000017c0       0x14 /home/pcl2483/pedro/jadesoft/util/mcgen/Plib/libpx114.a(pxcopv.o)
 .note          0x000017d4       0x14 /home/pcl2483/pedro/jadesoft/util/mcgen/Plib/libpx114.a(pxjpdg.o)
 .note          0x000017e8       0x14 /home/pcl2483/pedro/jadesoft/util/mcgen/Plib/libpx114.a(pxjsp3.o)
 .note          0x000017fc       0x14 /home/pcl2483/pedro/jadesoft/util/mcgen/Plib/libpx114.a(pxlsp3.o)
 .note          0x00001810       0x14 /home/pcl2483/pedro/jadesoft/util/mcgen/Plib/libpx114.a(pxlth4.o)
 .note          0x00001824       0x14 /home/pcl2483/pedro/jadesoft/util/mcgen/Plib/libpx114.a(pxlut3.o)
 .note          0x00001838       0x14 /home/pcl2483/pedro/jadesoft/util/mcgen/Plib/libpx114.a(pxlzf5.o)
 .note          0x0000184c       0x14 /home/pcl2483/pedro/jadesoft/util/mcgen/Plib/libpx114.a(pxmmbb.o)
 .note          0x00001860       0x14 /home/pcl2483/pedro/jadesoft/util/mcgen/Plib/libpx114.a(pxnorv.o)
 .note          0x00001874       0x14 /home/pcl2483/pedro/jadesoft/util/mcgen/Plib/libpx114.a(pxolap.o)
 .note          0x00001888       0x14 /home/pcl2483/pedro/jadesoft/util/mcgen/Plib/libpx114.a(pxord.o)
 .note          0x0000189c       0x14 /home/pcl2483/pedro/jadesoft/util/mcgen/Plib/libpx114.a(pxplt3.o)
 .note          0x000018b0       0x14 /home/pcl2483/pedro/jadesoft/util/mcgen/Plib/libpx114.a(pxplu3.o)
 .note          0x000018c4       0x14 /home/pcl2483/pedro/jadesoft/util/mcgen/Plib/libpx114.a(pxprcv.o)
 .note          0x000018d8       0x14 /home/pcl2483/pedro/jadesoft/util/mcgen/Plib/libpx114.a(pxprrv.o)
 .note          0x000018ec       0x14 /home/pcl2483/pedro/jadesoft/util/mcgen/Plib/libpx114.a(pxrap4.o)
 .note          0x00001900       0x14 /home/pcl2483/pedro/jadesoft/util/mcgen/Plib/libpx114.a(pxrmx3.o)
 .note          0x00001914       0x14 /home/pcl2483/pedro/jadesoft/util/mcgen/Plib/libpx114.a(pxrob3.o)
 .note          0x00001928       0x14 /home/pcl2483/pedro/jadesoft/util/mcgen/Plib/libpx114.a(pxrof3.o)
 .note          0x0000193c       0x14 /home/pcl2483/pedro/jadesoft/util/mcgen/Plib/libpx114.a(pxsear.o)
 .note          0x00001950       0x14 /home/pcl2483/pedro/jadesoft/util/mcgen/Plib/libpx114.a(pxsorv.o)
 .note          0x00001964       0x14 /home/pcl2483/pedro/jadesoft/util/mcgen/Plib/libpx114.a(pxtry.o)
 .note          0x00001978       0x14 /home/pcl2483/pedro/jadesoft/util/mcgen/Plib/libpx114.a(pxuvec.o)
 .note          0x0000198c       0x14 /home/pcl2483/pedro/jadesoft/util/mcgen/Plib/libpx114.a(pxzerv.o)
 .note          0x000019a0       0x14 /home/pcl2483/pedro/jadesoft/util/mcgen/Plib/libpx114.a(ykern.o)
 .note          0x000019b4       0x14 /home/pcl2483/pedro/jadesoft/util/mcgen/Plib/libpx114.a(ynjet.o)
 .note          0x000019c8       0x14 /home/pcl2483/pedro/jadesoft/util/mcgen/Plib/libpx114.a(yyjet.o)
 .note          0x000019dc       0x14 /home/pcl2483/pedro/jadesoft/util/mcgen/Plib/libpx114.a(pxaddv.o)
 .note          0x000019f0       0x14 /home/pcl2483/pedro/jadesoft/util/mcgen/Plib/libpx114.a(pxdiam.o)
 .note          0x00001a04       0x14 /home/pcl2483/pedro/jadesoft/util/mcgen/Plib/libpx114.a(pxmulm.o)
 .note          0x00001a18       0x14 /home/pcl2483/pedro/jadesoft/util/mcgen/Plib/libpx114.a(pxnew.o)
 .note          0x00001a2c       0x14 /home/pcl2483/pedro/jadesoft/util/mcgen/Plib/libpx114.a(pxsame.o)
 .note          0x00001a40       0x14 /home/pcl2483/pedro/jadesoft/util/mcgen/Plib/libpx114.a(pxunim.o)
 .note          0x00001a54       0x14 /cern/99/lib/libpacklib.a(ffgo.o)
 .note          0x00001a68       0x14 /cern/99/lib/libpacklib.a(ffinit.o)
 .note          0x00001a7c       0x14 /cern/99/lib/libpacklib.a(ffkey.o)
 .note          0x00001a90       0x14 /cern/99/lib/libpacklib.a(ffset.o)
 .note          0x00001aa4       0x14 /cern/99/lib/libpacklib.a(ffskip.o)
 .note          0x00001ab8       0x14 /cern/99/lib/libpacklib.a(ffupca.o)
 .note          0x00001acc       0x14 /cern/99/lib/libpacklib.a(ffuser.o)
 .note          0x00001ae0       0x14 /cern/99/lib/libpacklib.a(ffuset.o)
 .note          0x00001af4       0x14 /cern/99/lib/libpacklib.a(hrput.o)
 .note          0x00001b08       0x14 /cern/99/lib/libpacklib.a(hbook1.o)
 .note          0x00001b1c       0x14 /cern/99/lib/libpacklib.a(hbook2.o)
 .note          0x00001b30       0x14 /cern/99/lib/libpacklib.a(hbookb.o)
 .note          0x00001b44       0x14 /cern/99/lib/libpacklib.a(hbtit.o)
 .note          0x00001b58       0x14 /cern/99/lib/libpacklib.a(hbug.o)
 .note          0x00001b6c       0x14 /cern/99/lib/libpacklib.a(hcdir.o)
 .note          0x00001b80       0x14 /cern/99/lib/libpacklib.a(hchnam.o)
 .note          0x00001b94       0x14 /cern/99/lib/libpacklib.a(hdelet.o)
 .note          0x00001ba8       0x14 /cern/99/lib/libpacklib.a(hfill.o)
 .note          0x00001bbc       0x14 /cern/99/lib/libpacklib.a(hfilpf.o)
 .note          0x00001bd0       0x14 /cern/99/lib/libpacklib.a(hgive.o)
 .note          0x00001be4       0x14 /cern/99/lib/libpacklib.a(hidopt.o)
 .note          0x00001bf8       0x14 /cern/99/lib/libpacklib.a(hlimit.o)
 .note          0x00001c0c       0x14 /cern/99/lib/libpacklib.a(hloop.o)
 .note          0x00001c20       0x14 /cern/99/lib/libpacklib.a(hmachi.o)
 .note          0x00001c34       0x14 /cern/99/lib/libpacklib.a(hnoent.o)
 .note          0x00001c48       0x14 /cern/99/lib/libpacklib.a(hopera.o)
 .note          0x00001c5c       0x14 /cern/99/lib/libpacklib.a(hpaff.o)
 .note          0x00001c70       0x14 /cern/99/lib/libpacklib.a(hpak.o)
 .note          0x00001c84       0x14 /cern/99/lib/libpacklib.a(hpake.o)
 .note          0x00001c98       0x14 /cern/99/lib/libpacklib.a(hpath.o)
 .note          0x00001cac       0x14 /cern/99/lib/libpacklib.a(hrebin.o)
 .note          0x00001cc0       0x14 /cern/99/lib/libpacklib.a(hreset.o)
 .note          0x00001cd4       0x14 /cern/99/lib/libpacklib.a(hrez0.o)
 .note          0x00001ce8       0x14 /cern/99/lib/libpacklib.a(hsifla.o)
 .note          0x00001cfc       0x14 /cern/99/lib/libpacklib.a(hspace.o)
 .note          0x00001d10       0x14 /cern/99/lib/libpacklib.a(hstaf.o)
 .note          0x00001d24       0x14 /cern/99/lib/libpacklib.a(hsupis.o)
 .note          0x00001d38       0x14 /cern/99/lib/libpacklib.a(huoptc.o)
 .note          0x00001d4c       0x14 /cern/99/lib/libpacklib.a(hlogpf.o)
 .note          0x00001d60       0x14 /cern/99/lib/libpacklib.a(hoptpf.o)
 .note          0x00001d74       0x14 /cern/99/lib/libpacklib.a(hitoc.o)
 .note          0x00001d88       0x14 /cern/99/lib/libpacklib.a(hnbufd.o)
 .note          0x00001d9c       0x14 /cern/99/lib/libpacklib.a(hntmpd.o)
 .note          0x00001db0       0x14 /cern/99/lib/libpacklib.a(hntrset.o)
 .note          0x00001dc4       0x14 /cern/99/lib/libpacklib.a(fzin.o)
 .note          0x00001dd8       0x14 /cern/99/lib/libpacklib.a(fzirel.o)
 .note          0x00001dec       0x14 /cern/99/lib/libpacklib.a(fzloc.o)
 .note          0x00001e00       0x14 /cern/99/lib/libpacklib.a(mzbook.o)
 .note          0x00001e14       0x14 /cern/99/lib/libpacklib.a(mzdrop.o)
 .note          0x00001e28       0x14 /cern/99/lib/libpacklib.a(mzebra.o)
 .note          0x00001e3c       0x14 /cern/99/lib/libpacklib.a(mzflag.o)
 .note          0x00001e50       0x14 /cern/99/lib/libpacklib.a(mzinco.o)
 .note          0x00001e64       0x14 /cern/99/lib/libpacklib.a(mzlift.o)
 .note          0x00001e78       0x14 /cern/99/lib/libpacklib.a(mzlink.o)
 .note          0x00001e8c       0x14 /cern/99/lib/libpacklib.a(mzneed.o)
 .note          0x00001ea0       0x14 /cern/99/lib/libpacklib.a(mzpaw.o)
 .note          0x00001eb4       0x14 /cern/99/lib/libpacklib.a(mzpush.o)
 .note          0x00001ec8       0x14 /cern/99/lib/libpacklib.a(mzstor.o)
 .note          0x00001edc       0x14 /cern/99/lib/libpacklib.a(mzvers.o)
 .note          0x00001ef0       0x14 /cern/99/lib/libpacklib.a(mzgar1.o)
 .note          0x00001f04       0x14 /cern/99/lib/libpacklib.a(mzgsta.o)
 .note          0x00001f18       0x14 /cern/99/lib/libpacklib.a(mzmove.o)
 .note          0x00001f2c       0x14 /cern/99/lib/libpacklib.a(mzrelb.o)
 .note          0x00001f40       0x14 /cern/99/lib/libpacklib.a(mzrell.o)
 .note          0x00001f54       0x14 /cern/99/lib/libpacklib.a(mzrelx.o)
 .note          0x00001f68       0x14 /cern/99/lib/libpacklib.a(mztabf.o)
 .note          0x00001f7c       0x14 /cern/99/lib/libpacklib.a(mztabm.o)
 .note          0x00001f90       0x14 /cern/99/lib/libpacklib.a(mztabr.o)
 .note          0x00001fa4       0x14 /cern/99/lib/libpacklib.a(mztabs.o)
 .note          0x00001fb8       0x14 /cern/99/lib/libpacklib.a(mztabx.o)
 .note          0x00001fcc       0x14 /cern/99/lib/libpacklib.a(mzchln.o)
 .note          0x00001fe0       0x14 /cern/99/lib/libpacklib.a(mzchls.o)
 .note          0x00001ff4       0x14 /cern/99/lib/libpacklib.a(mzchnb.o)
 .note          0x00002008       0x14 /cern/99/lib/libpacklib.a(mzfdiv.o)
 .note          0x0000201c       0x14 /cern/99/lib/libpacklib.a(mzform.o)
 .note          0x00002030       0x14 /cern/99/lib/libpacklib.a(mzioch.o)
 .note          0x00002044       0x14 /cern/99/lib/libpacklib.a(mzresv.o)
 .note          0x00002058       0x14 /cern/99/lib/libpacklib.a(mzsdiv.o)
 .note          0x0000206c       0x14 /cern/99/lib/libpacklib.a(zvautx.o)
 .note          0x00002080       0x14 /cern/99/lib/libpacklib.a(zfatal.o)
 .note          0x00002094       0x14 /cern/99/lib/libpacklib.a(zfatam.o)
 .note          0x000020a8       0x14 /cern/99/lib/libpacklib.a(ztell.o)
 .note          0x000020bc       0x14 /cern/99/lib/libpacklib.a(ztelus.o)
 .note          0x000020d0       0x14 /cern/99/lib/libpacklib.a(izbcdt.o)
 .note          0x000020e4       0x14 /cern/99/lib/libpacklib.a(izhnum.o)
 .note          0x000020f8       0x14 /cern/99/lib/libpacklib.a(zshunt.o)
 .note          0x0000210c       0x14 /cern/99/lib/libpacklib.a(rzcdir.o)
 .note          0x00002120       0x14 /cern/99/lib/libpacklib.a(rzdate.o)
 .note          0x00002134       0x14 /cern/99/lib/libpacklib.a(rzfdir.o)
 .note          0x00002148       0x14 /cern/99/lib/libpacklib.a(rziodo.o)
 .note          0x0000215c       0x14 /cern/99/lib/libpacklib.a(rzpaff.o)
 .note          0x00002170       0x14 /cern/99/lib/libpacklib.a(rzpath.o)
 .note          0x00002184       0x14 /cern/99/lib/libpacklib.a(rzrtop.o)
 .note          0x00002198       0x14 /cern/99/lib/libpacklib.a(rzsame.o)
 .note          0x000021ac       0x14 /cern/99/lib/libpacklib.a(rzsave.o)
 .note          0x000021c0       0x14 /cern/99/lib/libpacklib.a(rzstrir.o)
 .note          0x000021d4       0x14 /cern/99/lib/libpacklib.a(rzvcyc.o)
 .note          0x000021e8       0x14 /cern/99/lib/libpacklib.a(abend.o)
 .note          0x000021fc       0x14 /cern/99/lib/libpacklib.a(datime.o)
 .note          0x00002210       0x14 /cern/99/lib/libpacklib.a(datimh.o)
 .note          0x00002224       0x14 /cern/99/lib/libpacklib.a(jumpxn.o)
 .note          0x00002238       0x14 /cern/99/lib/libpacklib.a(locf.o)
 .note          0x0000224c       0x14 /cern/99/lib/libpacklib.a(qnexte.o)
 .note          0x00002260       0x14 /cern/99/lib/libpacklib.a(lenocc.o)
 .note          0x00002274       0x14 /cern/99/lib/libpacklib.a(vxinvb.o)
 .note          0x00002288       0x14 /cern/99/lib/libpacklib.a(cfclos.o)
 .note          0x0000229c       0x14 /cern/99/lib/libpacklib.a(cfget.o)
 .note          0x000022b0       0x14 /cern/99/lib/libpacklib.a(cfput.o)
 .note          0x000022c4       0x14 /cern/99/lib/libpacklib.a(cfseek.o)
 .note          0x000022d8       0x14 /cern/99/lib/libpacklib.a(cfopen.o)
 .note          0x000022ec       0x14 /cern/99/lib/libpacklib.a(cleft.o)
 .note          0x00002300       0x14 /cern/99/lib/libpacklib.a(cltou.o)
 .note          0x00002314       0x14 /cern/99/lib/libpacklib.a(cutol.o)
 .note          0x00002328       0x14 /cern/99/lib/libpacklib.a(floarg.o)
 .note          0x0000233c       0x14 /cern/99/lib/libpacklib.a(intarg.o)
 .note          0x00002350       0x14 /cern/99/lib/libpacklib.a(kerngt.o)
 .note          0x00002364       0x14 /cern/99/lib/libpacklib.a(uoptc.o)
 .note          0x00002378       0x14 /cern/99/lib/libpacklib.a(utrans.o)
 .note          0x0000238c       0x14 /cern/99/lib/libpacklib.a(ishftr.o)
 .note          0x000023a0       0x14 /cern/99/lib/libpacklib.a(qnext.o)
 .note          0x000023b4       0x14 /cern/99/lib/libpacklib.a(ucopy2c.o)
 .note          0x000023c8       0x14 /cern/99/lib/libpacklib.a(iucomp.o)
 .note          0x000023dc       0x14 /cern/99/lib/libpacklib.a(noarg.o)
 .note          0x000023f0       0x14 /cern/99/lib/libpacklib.a(sbit0.o)
 .note          0x00002404       0x14 /cern/99/lib/libpacklib.a(sbit1.o)
 .note          0x00002418       0x14 /cern/99/lib/libpacklib.a(ublow.o)
 .note          0x0000242c       0x14 /cern/99/lib/libpacklib.a(ubunch.o)
 .note          0x00002440       0x14 /cern/99/lib/libpacklib.a(ucopy.o)
 .note          0x00002454       0x14 /cern/99/lib/libpacklib.a(uctoh.o)
 .note          0x00002468       0x14 /cern/99/lib/libpacklib.a(uctoh1.o)
 .note          0x0000247c       0x14 /cern/99/lib/libpacklib.a(uhtoc.o)
 .note          0x00002490       0x14 /cern/99/lib/libpacklib.a(vblank.o)
 .note          0x000024a4       0x14 /cern/99/lib/libpacklib.a(vfill.o)
 .note          0x000024b8       0x14 /cern/99/lib/libpacklib.a(vzero.o)
 .note          0x000024cc       0x14 /cern/99/lib/libpacklib.a(jbit.o)
 .note          0x000024e0       0x14 /cern/99/lib/libpacklib.a(jbyt.o)
 .note          0x000024f4       0x14 /cern/99/lib/libpacklib.a(sbyt.o)
 .note          0x00002508       0x14 /cern/99/lib/libpacklib.a(locati.o)
 .note          0x0000251c       0x14 /cern/99/lib/libpacklib.a(czgeta.o)
 .note          0x00002530       0x14 /cern/99/lib/libpacklib.a(czputa.o)
 .note          0x00002544       0x14 /cern/99/lib/libpacklib.a(ffcard.o)
 .note          0x00002558       0x14 /cern/99/lib/libpacklib.a(fffind.o)
 .note          0x0000256c       0x14 /cern/99/lib/libpacklib.a(hqputf.o)
 .note          0x00002580       0x14 /cern/99/lib/libpacklib.a(hbpqry.o)
 .note          0x00002594       0x14 /cern/99/lib/libpacklib.a(hrendc.o)
 .note          0x000025a8       0x14 /cern/99/lib/libpacklib.a(hropen.o)
 .note          0x000025bc       0x14 /cern/99/lib/libpacklib.a(hrout.o)
 .note          0x000025d0       0x14 /cern/99/lib/libpacklib.a(hrzcd.o)
 .note          0x000025e4       0x14 /cern/99/lib/libpacklib.a(hrzout.o)
 .note          0x000025f8       0x14 /cern/99/lib/libpacklib.a(hbar2.o)
 .note          0x0000260c       0x14 /cern/99/lib/libpacklib.a(hbarx.o)
 .note          0x00002620       0x14 /cern/99/lib/libpacklib.a(hbary.o)
 .note          0x00002634       0x14 /cern/99/lib/libpacklib.a(hbin.o)
 .note          0x00002648       0x14 /cern/99/lib/libpacklib.a(hcopy.o)
 .note          0x0000265c       0x14 /cern/99/lib/libpacklib.a(hcx.o)
 .note          0x00002670       0x14 /cern/99/lib/libpacklib.a(hcxy.o)
 .note          0x00002684       0x14 /cern/99/lib/libpacklib.a(hdcofl.o)
 .note          0x00002698       0x14 /cern/99/lib/libpacklib.a(hf1.o)
 .note          0x000026ac       0x14 /cern/99/lib/libpacklib.a(hf1aut.o)
 .note          0x000026c0       0x14 /cern/99/lib/libpacklib.a(hf2.o)
 .note          0x000026d4       0x14 /cern/99/lib/libpacklib.a(hfcx.o)
 .note          0x000026e8       0x14 /cern/99/lib/libpacklib.a(hfcxy.o)
 .note          0x000026fc       0x14 /cern/99/lib/libpacklib.a(hfidp.o)
 .note          0x00002710       0x14 /cern/99/lib/libpacklib.a(hfind.o)
 .note          0x00002724       0x14 /cern/99/lib/libpacklib.a(hi.o)
 .note          0x00002738       0x14 /cern/99/lib/libpacklib.a(hie.o)
 .note          0x0000274c       0x14 /cern/99/lib/libpacklib.a(hix.o)
 .note          0x00002760       0x14 /cern/99/lib/libpacklib.a(hlabeq.o)
 .note          0x00002774       0x14 /cern/99/lib/libpacklib.a(hmdir.o)
 .note          0x00002788       0x14 /cern/99/lib/libpacklib.a(hoper1.o)
 .note          0x0000279c       0x14 /cern/99/lib/libpacklib.a(hoper1a.o)
 .note          0x000027b0       0x14 /cern/99/lib/libpacklib.a(hnbfwr.o)
 .note          0x000027c4       0x14 /cern/99/lib/libpacklib.a(hnbuff.o)
 .note          0x000027d8       0x14 /cern/99/lib/libpacklib.a(hnmset.o)
 .note          0x000027ec       0x14 /cern/99/lib/libpacklib.a(hntdel.o)
 .note          0x00002800       0x14 /cern/99/lib/libpacklib.a(hntmpf.o)
 .note          0x00002814       0x14 /cern/99/lib/libpacklib.a(fzidia.o)
 .note          0x00002828       0x14 /cern/99/lib/libpacklib.a(fziffn.o)
 .note          0x0000283c       0x14 /cern/99/lib/libpacklib.a(fziffx.o)
 .note          0x00002850       0x14 /cern/99/lib/libpacklib.a(fzilin.o)
 .note          0x00002864       0x14 /cern/99/lib/libpacklib.a(fzimtb.o)
 .note          0x00002878       0x14 /cern/99/lib/libpacklib.a(fzirec.o)
 .note          0x0000288c       0x14 /cern/99/lib/libpacklib.a(fzitrn.o)
 .note          0x000028a0       0x14 /cern/99/lib/libpacklib.a(fzout.o)
 .note          0x000028b4       0x14 /cern/99/lib/libpacklib.a(fzitrx.o)
 .note          0x000028c8       0x14 /cern/99/lib/libpacklib.a(mzcopy.o)
 .note          0x000028dc       0x14 /cern/99/lib/libpacklib.a(mzpudx.o)
 .note          0x000028f0       0x14 /cern/99/lib/libpacklib.a(mzfgap.o)
 .note          0x00002904       0x14 /cern/99/lib/libpacklib.a(mzgarb.o)
 .note          0x00002918       0x14 /cern/99/lib/libpacklib.a(mztabc.o)
 .note          0x0000292c       0x14 /cern/99/lib/libpacklib.a(mztabh.o)
 .note          0x00002940       0x14 /cern/99/lib/libpacklib.a(mzdvac.o)
 .note          0x00002954       0x14 /cern/99/lib/libpacklib.a(mziocf.o)
 .note          0x00002968       0x14 /cern/99/lib/libpacklib.a(mziocr.o)
 .note          0x0000297c       0x14 /cern/99/lib/libpacklib.a(mzixco.o)
 .note          0x00002990       0x14 /cern/99/lib/libpacklib.a(zabend.o)
 .note          0x000029a4       0x14 /cern/99/lib/libpacklib.a(zend.o)
 .note          0x000029b8       0x14 /cern/99/lib/libpacklib.a(zphase.o)
 .note          0x000029cc       0x14 /cern/99/lib/libpacklib.a(zpostm.o)
 .note          0x000029e0       0x14 /cern/99/lib/libpacklib.a(zhtoi.o)
 .note          0x000029f4       0x14 /cern/99/lib/libpacklib.a(rzclos.o)
 .note          0x00002a08       0x14 /cern/99/lib/libpacklib.a(rzend.o)
 .note          0x00002a1c       0x14 /cern/99/lib/libpacklib.a(rzfree.o)
 .note          0x00002a30       0x14 /cern/99/lib/libpacklib.a(rzmdir.o)
 .note          0x00002a44       0x14 /cern/99/lib/libpacklib.a(rzmods.o)
 .note          0x00002a58       0x14 /cern/99/lib/libpacklib.a(rzopen.o)
 .note          0x00002a6c       0x14 /cern/99/lib/libpacklib.a(rzout.o)
 .note          0x00002a80       0x14 /cern/99/lib/libpacklib.a(rzstrip.o)
 .note          0x00002a94       0x14 /cern/99/lib/libpacklib.a(rzused.o)
 .note          0x00002aa8       0x14 /cern/99/lib/libpacklib.a(close.o)
 .note          0x00002abc       0x14 /cern/99/lib/libpacklib.a(error.o)
 .note          0x00002ad0       0x14 /cern/99/lib/libpacklib.a(lseek.o)
 .note          0x00002ae4       0x14 /cern/99/lib/libpacklib.a(open.o)
 .note          0x00002af8       0x14 /cern/99/lib/libpacklib.a(parse.o)
 .note          0x00002b0c       0x14 /cern/99/lib/libpacklib.a(read.o)
 .note          0x00002b20       0x14 /cern/99/lib/libpacklib.a(serror.o)
 .note          0x00002b34       0x14 /cern/99/lib/libpacklib.a(setopt.o)
 .note          0x00002b48       0x14 /cern/99/lib/libpacklib.a(socket.o)
 .note          0x00002b5c       0x14 /cern/99/lib/libpacklib.a(stream.o)
 .note          0x00002b70       0x14 /cern/99/lib/libpacklib.a(trace.o)
 .note          0x00002b84       0x14 /cern/99/lib/libpacklib.a(write.o)
 .note          0x00002b98       0x14 /cern/99/lib/libpacklib.a(cfopei.o)
 .note          0x00002bac       0x14 /cern/99/lib/libpacklib.a(cfstat.o)
 .note          0x00002bc0       0x14 /cern/99/lib/libpacklib.a(fchtak.o)
 .note          0x00002bd4       0x14 /cern/99/lib/libpacklib.a(gshowf.o)
 .note          0x00002be8       0x14 /cern/99/lib/libpacklib.a(icluns.o)
 .note          0x00002bfc       0x14 /cern/99/lib/libpacklib.a(traceq.o)
 .note          0x00002c10       0x14 /cern/99/lib/libpacklib.a(xinbf.o)
 .note          0x00002c24       0x14 /cern/99/lib/libpacklib.a(xinbs.o)
 .note          0x00002c38       0x14 /cern/99/lib/libpacklib.a(halloc.o)
 .note          0x00002c4c       0x14 /cern/99/lib/libpacklib.a(hrfile.o)
 .note          0x00002c60       0x14 /cern/99/lib/libpacklib.a(hfc1.o)
 .note          0x00002c74       0x14 /cern/99/lib/libpacklib.a(hlccmp.o)
 .note          0x00002c88       0x14 /cern/99/lib/libpacklib.a(hlgnxt.o)
 .note          0x00002c9c       0x14 /cern/99/lib/libpacklib.a(hlhcmp.o)
 .note          0x00002cb0       0x14 /cern/99/lib/libpacklib.a(hlpos.o)
 .note          0x00002cc4       0x14 /cern/99/lib/libpacklib.a(dzsnap.o)
 .note          0x00002cd8       0x14 /cern/99/lib/libpacklib.a(dztext.o)
 .note          0x00002cec       0x14 /cern/99/lib/libpacklib.a(zpage.o)
 .note          0x00002d00       0x14 /cern/99/lib/libpacklib.a(fzipha.o)
 .note          0x00002d14       0x14 /cern/99/lib/libpacklib.a(fziphd.o)
 .note          0x00002d28       0x14 /cern/99/lib/libpacklib.a(fziphm.o)
 .note          0x00002d3c       0x14 /cern/99/lib/libpacklib.a(fziphr.o)
 .note          0x00002d50       0x14 /cern/99/lib/libpacklib.a(fziprl.o)
 .note          0x00002d64       0x14 /cern/99/lib/libpacklib.a(fzoffn.o)
 .note          0x00002d78       0x14 /cern/99/lib/libpacklib.a(fzoffx.o)
 .note          0x00002d8c       0x14 /cern/99/lib/libpacklib.a(fzon1.o)
 .note          0x00002da0       0x14 /cern/99/lib/libpacklib.a(fzon2.o)
 .note          0x00002db4       0x14 /cern/99/lib/libpacklib.a(fzon3.o)
 .note          0x00002dc8       0x14 /cern/99/lib/libpacklib.a(fzon4.o)
 .note          0x00002ddc       0x14 /cern/99/lib/libpacklib.a(fzon5.o)
 .note          0x00002df0       0x14 /cern/99/lib/libpacklib.a(fzon6.o)
 .note          0x00002e04       0x14 /cern/99/lib/libpacklib.a(fzorec.o)
 .note          0x00002e18       0x14 /cern/99/lib/libpacklib.a(fzotab.o)
 .note          0x00002e2c       0x14 /cern/99/lib/libpacklib.a(fzotrn.o)
 .note          0x00002e40       0x14 /cern/99/lib/libpacklib.a(fzotxt.o)
 .note          0x00002e54       0x14 /cern/99/lib/libpacklib.a(fzicv.o)
 .note          0x00002e68       0x14 /cern/99/lib/libpacklib.a(fzotrx.o)
 .note          0x00002e7c       0x14 /cern/99/lib/libpacklib.a(mzend.o)
 .note          0x00002e90       0x14 /cern/99/lib/libpacklib.a(mzmaps.o)
 .note          0x00002ea4       0x14 /cern/99/lib/libpacklib.a(mzmark.o)
 .note          0x00002eb8       0x14 /cern/99/lib/libpacklib.a(mzwork.o)
 .note          0x00002ecc       0x14 /cern/99/lib/libpacklib.a(zitoh.o)
 .note          0x00002ee0       0x14 /cern/99/lib/libpacklib.a(rzallo.o)
 .note          0x00002ef4       0x14 /cern/99/lib/libpacklib.a(rzdelk.o)
 .note          0x00002f08       0x14 /cern/99/lib/libpacklib.a(rzexpd.o)
 .note          0x00002f1c       0x14 /cern/99/lib/libpacklib.a(rzfile.o)
 .note          0x00002f30       0x14 /cern/99/lib/libpacklib.a(rzllok.o)
 .note          0x00002f44       0x14 /cern/99/lib/libpacklib.a(rzlock.o)
 .note          0x00002f58       0x14 /cern/99/lib/libpacklib.a(rzmake.o)
 .note          0x00002f6c       0x14 /cern/99/lib/libpacklib.a(rzobkn.o)
 .note          0x00002f80       0x14 /cern/99/lib/libpacklib.a(rzpurf.o)
 .note          0x00002f94       0x14 /cern/99/lib/libpacklib.a(rzveri.o)
 .note          0x00002fa8       0x14 /cern/99/lib/libpacklib.a(rzwrt.o)
 .note          0x00002fbc       0x14 /cern/99/lib/libpacklib.a(connect.o)
 .note          0x00002fd0       0x14 /cern/99/lib/libpacklib.a(getacct.o)
 .note          0x00002fe4       0x14 /cern/99/lib/libpacklib.a(getacctent.o)
 .note          0x00002ff8       0x14 /cern/99/lib/libpacklib.a(getconfent.o)
 .note          0x0000300c       0x14 /cern/99/lib/libpacklib.a(getifnam.o)
 .note          0x00003020       0x14 /cern/99/lib/libpacklib.a(log.o)
 .note          0x00003034       0x14 /cern/99/lib/libpacklib.a(remote.o)
 .note          0x00003048       0x14 /cern/99/lib/libpacklib.a(setnetio.o)
 .note          0x0000305c       0x14 /cern/99/lib/libpacklib.a(vxinvc.o)
 .note          0x00003070       0x14 /cern/99/lib/libpacklib.a(cfstati.o)
 .note          0x00003084       0x14 /cern/99/lib/libpacklib.a(dzare1.o)
 .note          0x00003098       0x14 /cern/99/lib/libpacklib.a(dzbkup.o)
 .note          0x000030ac       0x14 /cern/99/lib/libpacklib.a(dzbkxr.o)
 .note          0x000030c0       0x14 /cern/99/lib/libpacklib.a(dzdata.o)
 .note          0x000030d4       0x14 /cern/99/lib/libpacklib.a(dzmap.o)
 .note          0x000030e8       0x14 /cern/99/lib/libpacklib.a(dzopt.o)
 .note          0x000030fc       0x14 /cern/99/lib/libpacklib.a(dzshpr.o)
 .note          0x00003110       0x14 /cern/99/lib/libpacklib.a(dztyp.o)
 .note          0x00003124       0x14 /cern/99/lib/libpacklib.a(fziasc.o)
 .note          0x00003138       0x14 /cern/99/lib/libpacklib.a(fzichh.o)
 .note          0x0000314c       0x14 /cern/99/lib/libpacklib.a(fzidum.o)
 .note          0x00003160       0x14 /cern/99/lib/libpacklib.a(fzophr.o)
 .note          0x00003174       0x14 /cern/99/lib/libpacklib.a(fzocv.o)
 .note          0x00003188       0x14 /cern/99/lib/libpacklib.a(izbcd.o)
 .note          0x0000319c       0x14 /cern/99/lib/libpacklib.a(rzdlok.o)
 .note          0x000031b0       0x14 /cern/99/lib/libpacklib.a(rzver1.o)
 .note          0x000031c4       0x14 /cern/99/lib/libpacklib.a(rzver2.o)
 .note          0x000031d8       0x14 /cern/99/lib/libpacklib.a(stat.o)
 .note          0x000031ec       0x14 /cern/99/lib/libpacklib.a(cfweof.o)
 .note          0x00003200       0x14 /cern/99/lib/libpacklib.a(iumode.o)
 .note          0x00003214       0x14 /cern/99/lib/libpacklib.a(iufind.o)
 .note          0x00003228       0x14 /cern/99/lib/libpacklib.a(iusame.o)
 .note          0x0000323c       0x14 /cern/99/lib/libpacklib.a(jrsbyt.o)
 .note          0x00003250       0x14 /cern/99/lib/libpacklib.a(ucopiv.o)
 .note          0x00003264       0x14 /cern/99/lib/libpacklib.a(dzbkdv.o)
 .note          0x00003278       0x14 /cern/99/lib/libpacklib.a(dzbkhd.o)
 .note          0x0000328c       0x14 /cern/99/lib/libpacklib.a(dziopr.o)
 .note          0x000032a0       0x14 /cern/99/lib/libpacklib.a(fzialn.o)
 .note          0x000032b4       0x14 /cern/99/lib/libpacklib.a(fzoasc.o)
 .note          0x000032c8       0x14 /cern/99/lib/libpacklib.a(izchav.o)
 .note          0x000032dc       0x14 /cern/99/lib/libpacklib.a(rzprnk.o)
 .note          0x000032f0       0x14 /cern/99/lib/libpacklib.a(mstat.o)
 .note          0x00003304       0x14 /cern/99/lib/libpacklib.a(dziopd.o)
 .note          0x00003318       0x14 /cern/99/lib/libpacklib.a(dzioph.o)
 .note          0x0000332c       0x14 /cern/99/lib/libpacklib.a(fzoaln.o)
 .note          0x00003340       0x14 /cern/99/lib/libpacklib.a(fzoapk.o)
 .note          0x00003354       0x14 /cern/99/lib/libpacklib.a(uh1toc.o)
 .note          0x00003368       0x14 /cern/99/lib/libmathlib.a(dsyev.o)
 .note          0x0000337c       0x14 /cern/99/lib/libmathlib.a(dsytrd.o)
 .note          0x00003390       0x14 /cern/99/lib/libmathlib.a(ilaenv.o)
 .note          0x000033a4       0x14 /cern/99/lib/libmathlib.a(lsame.o)
 .note          0x000033b8       0x14 /cern/99/lib/libmathlib.a(xerbla.o)
 .note          0x000033cc       0x14 /cern/99/lib/libmathlib.a(dscal.o)
 .note          0x000033e0       0x14 /cern/99/lib/libmathlib.a(dsyr2k.o)
 .note          0x000033f4       0x14 /cern/99/lib/libmathlib.a(dlamch.o)
 .note          0x00003408       0x14 /cern/99/lib/libmathlib.a(dlansy.o)
 .note          0x0000341c       0x14 /cern/99/lib/libmathlib.a(dlascl.o)
 .note          0x00003430       0x14 /cern/99/lib/libmathlib.a(dlassq.o)
 .note          0x00003444       0x14 /cern/99/lib/libmathlib.a(dlatrd.o)
 .note          0x00003458       0x14 /cern/99/lib/libmathlib.a(dorgtr.o)
 .note          0x0000346c       0x14 /cern/99/lib/libmathlib.a(dsteqr.o)
 .note          0x00003480       0x14 /cern/99/lib/libmathlib.a(dsterf.o)
 .note          0x00003494       0x14 /cern/99/lib/libmathlib.a(dsytd2.o)
 .note          0x000034a8       0x14 /cern/99/lib/libmathlib.a(daxpy.o)
 .note          0x000034bc       0x14 /cern/99/lib/libmathlib.a(ddot.o)
 .note          0x000034d0       0x14 /cern/99/lib/libmathlib.a(dgemv.o)
 .note          0x000034e4       0x14 /cern/99/lib/libmathlib.a(dswap.o)
 .note          0x000034f8       0x14 /cern/99/lib/libmathlib.a(dsymv.o)
 .note          0x0000350c       0x14 /cern/99/lib/libmathlib.a(dsyr2.o)
 .note          0x00003520       0x14 /cern/99/lib/libmathlib.a(dlae2.o)
 .note          0x00003534       0x14 /cern/99/lib/libmathlib.a(dlaev2.o)
 .note          0x00003548       0x14 /cern/99/lib/libmathlib.a(dlanst.o)
 .note          0x0000355c       0x14 /cern/99/lib/libmathlib.a(dlapy2.o)
 .note          0x00003570       0x14 /cern/99/lib/libmathlib.a(dlarfg.o)
 .note          0x00003584       0x14 /cern/99/lib/libmathlib.a(dlartg.o)
 .note          0x00003598       0x14 /cern/99/lib/libmathlib.a(dlaset.o)
 .note          0x000035ac       0x14 /cern/99/lib/libmathlib.a(dlasr.o)
 .note          0x000035c0       0x14 /cern/99/lib/libmathlib.a(dlasrt.o)
 .note          0x000035d4       0x14 /cern/99/lib/libmathlib.a(dorgql.o)
 .note          0x000035e8       0x14 /cern/99/lib/libmathlib.a(dorgqr.o)
 .note          0x000035fc       0x14 /cern/99/lib/libmathlib.a(dnrm2.o)
 .note          0x00003610       0x14 /cern/99/lib/libmathlib.a(dlarfb.o)
 .note          0x00003624       0x14 /cern/99/lib/libmathlib.a(dlarft.o)
 .note          0x00003638       0x14 /cern/99/lib/libmathlib.a(dorg2l.o)
 .note          0x0000364c       0x14 /cern/99/lib/libmathlib.a(dorg2r.o)
 .note          0x00003660       0x14 /cern/99/lib/libmathlib.a(dcopy.o)
 .note          0x00003674       0x14 /cern/99/lib/libmathlib.a(dgemm.o)
 .note          0x00003688       0x14 /cern/99/lib/libmathlib.a(dtrmm.o)
 .note          0x0000369c       0x14 /cern/99/lib/libmathlib.a(dtrmv.o)
 .note          0x000036b0       0x14 /cern/99/lib/libmathlib.a(dlarf.o)
 .note          0x000036c4       0x14 /cern/99/lib/libmathlib.a(dger.o)
 .note          0x000036d8       0x14 /usr/lib/libc_nonshared.a(atexit.oS)
 .note          0x000036ec       0x14 /usr/lib/gcc-lib/i686-pc-linux-gnu/2.95.3/libg2c.a(close.o)
 .note          0x00003700       0x14 /usr/lib/gcc-lib/i686-pc-linux-gnu/2.95.3/libg2c.a(dolio.o)
 .note          0x00003714       0x14 /usr/lib/gcc-lib/i686-pc-linux-gnu/2.95.3/libg2c.a(due.o)
 .note          0x00003728       0x14 /usr/lib/gcc-lib/i686-pc-linux-gnu/2.95.3/libg2c.a(endfile.o)
 .note          0x0000373c       0x14 /usr/lib/gcc-lib/i686-pc-linux-gnu/2.95.3/libg2c.a(err.o)
 .note          0x00003750       0x14 /usr/lib/gcc-lib/i686-pc-linux-gnu/2.95.3/libg2c.a(fmt.o)
 .note          0x00003764       0x14 /usr/lib/gcc-lib/i686-pc-linux-gnu/2.95.3/libg2c.a(iio.o)
 .note          0x00003778       0x14 /usr/lib/gcc-lib/i686-pc-linux-gnu/2.95.3/libg2c.a(inquire.o)
 .note          0x0000378c       0x14 /usr/lib/gcc-lib/i686-pc-linux-gnu/2.95.3/libg2c.a(lread.o)
 .note          0x000037a0       0x14 /usr/lib/gcc-lib/i686-pc-linux-gnu/2.95.3/libg2c.a(open.o)
 .note          0x000037b4       0x14 /usr/lib/gcc-lib/i686-pc-linux-gnu/2.95.3/libg2c.a(rdfmt.o)
 .note          0x000037c8       0x14 /usr/lib/gcc-lib/i686-pc-linux-gnu/2.95.3/libg2c.a(rewind.o)
 .note          0x000037dc       0x14 /usr/lib/gcc-lib/i686-pc-linux-gnu/2.95.3/libg2c.a(rsfe.o)
 .note          0x000037f0       0x14 /usr/lib/gcc-lib/i686-pc-linux-gnu/2.95.3/libg2c.a(sfe.o)
 .note          0x00003804       0x14 /usr/lib/gcc-lib/i686-pc-linux-gnu/2.95.3/libg2c.a(sue.o)
 .note          0x00003818       0x14 /usr/lib/gcc-lib/i686-pc-linux-gnu/2.95.3/libg2c.a(uio.o)
 .note          0x0000382c       0x14 /usr/lib/gcc-lib/i686-pc-linux-gnu/2.95.3/libg2c.a(util.o)
 .note          0x00003840       0x14 /usr/lib/gcc-lib/i686-pc-linux-gnu/2.95.3/libg2c.a(wrtfmt.o)
 .note          0x00003854       0x14 /usr/lib/gcc-lib/i686-pc-linux-gnu/2.95.3/libg2c.a(wsfe.o)
 .note          0x00003868       0x14 /usr/lib/gcc-lib/i686-pc-linux-gnu/2.95.3/libg2c.a(wsle.o)
 .note          0x0000387c       0x14 /usr/lib/gcc-lib/i686-pc-linux-gnu/2.95.3/libg2c.a(main.o)
 .note          0x00003890       0x14 /usr/lib/gcc-lib/i686-pc-linux-gnu/2.95.3/libg2c.a(s_stop.o)
 .note          0x000038a4       0x14 /usr/lib/gcc-lib/i686-pc-linux-gnu/2.95.3/libg2c.a(sig_die.o)
 .note          0x000038b8       0x14 /usr/lib/gcc-lib/i686-pc-linux-gnu/2.95.3/libg2c.a(setarg.o)
 .note          0x000038cc       0x14 /usr/lib/gcc-lib/i686-pc-linux-gnu/2.95.3/libg2c.a(setsig.o)
 .note          0x000038e0       0x14 /usr/lib/gcc-lib/i686-pc-linux-gnu/2.95.3/libg2c.a(pow_dd.o)
 .note          0x000038f4       0x14 /usr/lib/gcc-lib/i686-pc-linux-gnu/2.95.3/libg2c.a(pow_zz.o)
 .note          0x00003908       0x14 /usr/lib/gcc-lib/i686-pc-linux-gnu/2.95.3/libg2c.a(c_abs.o)
 .note          0x0000391c       0x14 /usr/lib/gcc-lib/i686-pc-linux-gnu/2.95.3/libg2c.a(z_log.o)
 .note          0x00003930       0x14 /usr/lib/gcc-lib/i686-pc-linux-gnu/2.95.3/libg2c.a(z_sqrt.o)
 .note          0x00003944       0x14 /usr/lib/gcc-lib/i686-pc-linux-gnu/2.95.3/libg2c.a(r_lg10.o)
 .note          0x00003958       0x14 /usr/lib/gcc-lib/i686-pc-linux-gnu/2.95.3/libg2c.a(r_mod.o)
 .note          0x0000396c       0x14 /usr/lib/gcc-lib/i686-pc-linux-gnu/2.95.3/libg2c.a(i_indx.o)
 .note          0x00003980       0x14 /usr/lib/gcc-lib/i686-pc-linux-gnu/2.95.3/libg2c.a(l_gt.o)
 .note          0x00003994       0x14 /usr/lib/gcc-lib/i686-pc-linux-gnu/2.95.3/libg2c.a(l_lt.o)
 .note          0x000039a8       0x14 /usr/lib/gcc-lib/i686-pc-linux-gnu/2.95.3/libg2c.a(s_cat.o)
 .note          0x000039bc       0x14 /usr/lib/gcc-lib/i686-pc-linux-gnu/2.95.3/libg2c.a(s_cmp.o)
 .note          0x000039d0       0x14 /usr/lib/gcc-lib/i686-pc-linux-gnu/2.95.3/libg2c.a(s_copy.o)
 .note          0x000039e4       0x14 /usr/lib/gcc-lib/i686-pc-linux-gnu/2.95.3/libg2c.a(lnblnk_.o)
 .note          0x000039f8       0x14 /usr/lib/gcc-lib/i686-pc-linux-gnu/2.95.3/libg2c.a(fmtlib.o)
 .note          0x00003a0c       0x14 /usr/lib/gcc-lib/i686-pc-linux-gnu/2.95.3/libg2c.a(lwrite.o)
 .note          0x00003a20       0x14 /usr/lib/gcc-lib/i686-pc-linux-gnu/2.95.3/libg2c.a(wref.o)
 .note          0x00003a34       0x14 /usr/lib/gcc-lib/i686-pc-linux-gnu/2.95.3/libg2c.a(F77_aloc.o)
 .note          0x00003a48       0x14 /usr/lib/gcc-lib/i686-pc-linux-gnu/2.95.3/libg2c.a(cabs.o)
 .note          0x00003a5c       0x14 /usr/lib/gcc-lib/i686-pc-linux-gnu/2.95.3/libg2c.a(exit_.o)
 .note          0x00003a70       0x14 /usr/lib/gcc-lib/i686-pc-linux-gnu/2.95.3/crtend.o
 .note          0x00003a84       0x14 /usr/lib/crtn.o
