Archive member included because of file (symbol)

/home/pcl2483/pedro/jadesoft/util/mcgen/Plib/libmc105j.a(mcgetf.o)
                              mchw58d_105j.o (mcgetf_)
/home/pcl2483/pedro/jadesoft/util/mcgen/Plib/libmc105j.a(mcgeth.o)
                              mchw58d_105j.o (mcgeth_)
/home/pcl2483/pedro/jadesoft/util/mcgen/Plib/libmc105j.a(mcgetp.o)
                              mchw58d_105j.o (mcgetp_)
/home/pcl2483/pedro/jadesoft/util/mcgen/Plib/libmc105j.a(mcinit.o)
                              mchw58d_105j.o (mcinit_)
/home/pcl2483/pedro/jadesoft/util/mcgen/Plib/libmc105j.a(mcstbl.o)
                              mchw58d_105j.o (mcstbl_)
/home/pcl2483/pedro/jadesoft/util/mcgen/Plib/libmc105j.a(mcwrit.o)
                              mchw58d_105j.o (mcwrit_)
/home/pcl2483/pedro/jadesoft/util/mcgen/Plib/libmc105j.a(pxeecb.o)
                              mchw58d_105j.o (pxeecb_)
/home/pcl2483/pedro/jadesoft/util/mcgen/Plib/libmc105j.a(evwrtj.o)
                              /home/pcl2483/pedro/jadesoft/util/mcgen/Plib/libmc105j.a(mcwrit.o) (evwrtj_)
/home/pcl2483/pedro/jadesoft/util/mcgen/Plib/libmc105j.a(incprd.o)
                              /home/pcl2483/pedro/jadesoft/util/mcgen/Plib/libmc105j.a(evwrtj.o) (incprd_)
/home/pcl2483/pedro/jadesoft/util/mcgen/Plib/libmc105j.a(jadeco.o)
                              /home/pcl2483/pedro/jadesoft/util/mcgen/Plib/libmc105j.a(evwrtj.o) (jadeco_)
/home/pcl2483/pedro/jadesoft/util/mcgen/Plib/libmc105j.a(jtconv.o)
                              /home/pcl2483/pedro/jadesoft/util/mcgen/Plib/libmc105j.a(mcgeth.o) (jtconv_)
/home/pcl2483/pedro/jadesoft/util/mcgen/Plib/libmc105j.a(mcrnst.o)
                              /home/pcl2483/pedro/jadesoft/util/mcgen/Plib/libmc105j.a(mcwrit.o) (mcrnst_)
/home/pcl2483/pedro/jadesoft/util/mcgen/Plib/libmc105j.a(ntcprd.o)
                              /home/pcl2483/pedro/jadesoft/util/mcgen/Plib/libmc105j.a(evwrtj.o) (ntcprd_)
/home/pcl2483/pedro/jadesoft/util/mcgen/Plib/libmc105j.a(prcprd.o)
                              /home/pcl2483/pedro/jadesoft/util/mcgen/Plib/libmc105j.a(evwrtj.o) (prcprd_)
/home/pcl2483/pedro/jadesoft/util/mcgen/Plib/libmc105j.a(wrcprd.o)
                              /home/pcl2483/pedro/jadesoft/util/mcgen/Plib/libmc105j.a(evwrtj.o) (wrcprd_)
/home/pcl2483/pedro/jadesoft/util/mcgen/Plib/libherwig58d.a(fxhlms.o)
                              mchw58d_105j.o (fxhlms_)
/home/pcl2483/pedro/jadesoft/util/mcgen/Plib/libherwig58d.a(h58ddriv.o)
                              mchw58d_105j.o (h58ddriv_)
/home/pcl2483/pedro/jadesoft/util/mcgen/Plib/libherwig58d.a(hwbgen.o)
                              /home/pcl2483/pedro/jadesoft/util/mcgen/Plib/libherwig58d.a(h58ddriv.o) (hwbgen_)
/home/pcl2483/pedro/jadesoft/util/mcgen/Plib/libherwig58d.a(hwbjco.o)
                              /home/pcl2483/pedro/jadesoft/util/mcgen/Plib/libherwig58d.a(hwbgen.o) (hwbjco_)
/home/pcl2483/pedro/jadesoft/util/mcgen/Plib/libherwig58d.a(hwbmas.o)
                              /home/pcl2483/pedro/jadesoft/util/mcgen/Plib/libherwig58d.a(hwbgen.o) (hwbmas_)
/home/pcl2483/pedro/jadesoft/util/mcgen/Plib/libherwig58d.a(hwbran.o)
                              /home/pcl2483/pedro/jadesoft/util/mcgen/Plib/libherwig58d.a(hwbgen.o) (hwbran_)
/home/pcl2483/pedro/jadesoft/util/mcgen/Plib/libherwig58d.a(hwbspa.o)
                              /home/pcl2483/pedro/jadesoft/util/mcgen/Plib/libherwig58d.a(hwbgen.o) (hwbspa_)
/home/pcl2483/pedro/jadesoft/util/mcgen/Plib/libherwig58d.a(hwbspn.o)
                              /home/pcl2483/pedro/jadesoft/util/mcgen/Plib/libherwig58d.a(hwbgen.o) (hwbspn_)
/home/pcl2483/pedro/jadesoft/util/mcgen/Plib/libherwig58d.a(hwbtim.o)
                              /home/pcl2483/pedro/jadesoft/util/mcgen/Plib/libherwig58d.a(hwbgen.o) (hwbtim_)
/home/pcl2483/pedro/jadesoft/util/mcgen/Plib/libherwig58d.a(hwbvmc.o)
                              /home/pcl2483/pedro/jadesoft/util/mcgen/Plib/libherwig58d.a(hwbran.o) (hwbvmc_)
/home/pcl2483/pedro/jadesoft/util/mcgen/Plib/libherwig58d.a(hwcdec.o)
                              /home/pcl2483/pedro/jadesoft/util/mcgen/Plib/libherwig58d.a(h58ddriv.o) (hwcdec_)
/home/pcl2483/pedro/jadesoft/util/mcgen/Plib/libherwig58d.a(hwcfla.o)
                              /home/pcl2483/pedro/jadesoft/util/mcgen/Plib/libherwig58d.a(hwcdec.o) (hwcfla_)
/home/pcl2483/pedro/jadesoft/util/mcgen/Plib/libherwig58d.a(hwcfor.o)
                              /home/pcl2483/pedro/jadesoft/util/mcgen/Plib/libherwig58d.a(h58ddriv.o) (hwcfor_)
/home/pcl2483/pedro/jadesoft/util/mcgen/Plib/libherwig58d.a(hwcgsp.o)
                              /home/pcl2483/pedro/jadesoft/util/mcgen/Plib/libherwig58d.a(hwcfor.o) (hwcgsp_)
/home/pcl2483/pedro/jadesoft/util/mcgen/Plib/libherwig58d.a(hwchad.o)
                              /home/pcl2483/pedro/jadesoft/util/mcgen/Plib/libherwig58d.a(hwcdec.o) (hwchad_)
/home/pcl2483/pedro/jadesoft/util/mcgen/Plib/libherwig58d.a(hwdhqk.o)
                              /home/pcl2483/pedro/jadesoft/util/mcgen/Plib/libherwig58d.a(h58ddriv.o) (hwdhqk_)
/home/pcl2483/pedro/jadesoft/util/mcgen/Plib/libherwig58d.a(hwdidp.o)
                              /home/pcl2483/pedro/jadesoft/util/mcgen/Plib/libherwig58d.a(hwdhqk.o) (hwdidp_)
/home/pcl2483/pedro/jadesoft/util/mcgen/Plib/libherwig58d.a(hwdthr.o)
                              /home/pcl2483/pedro/jadesoft/util/mcgen/Plib/libherwig58d.a(hwdhqk.o) (hwdthr_)
/home/pcl2483/pedro/jadesoft/util/mcgen/Plib/libherwig58d.a(hwdtop.o)
                              /home/pcl2483/pedro/jadesoft/util/mcgen/Plib/libherwig58d.a(hwdhqk.o) (hwdtop_)
/home/pcl2483/pedro/jadesoft/util/mcgen/Plib/libherwig58d.a(hwdtwo.o)
                              /home/pcl2483/pedro/jadesoft/util/mcgen/Plib/libherwig58d.a(hwcfor.o) (hwdtwo_)
/home/pcl2483/pedro/jadesoft/util/mcgen/Plib/libherwig58d.a(hwdwwt.o)
                              /home/pcl2483/pedro/jadesoft/util/mcgen/Plib/libherwig58d.a(hwdhqk.o) (hwdwwt_)
/home/pcl2483/pedro/jadesoft/util/mcgen/Plib/libherwig58d.a(hwefin.o)
                              /home/pcl2483/pedro/jadesoft/util/mcgen/Plib/libherwig58d.a(h58ddriv.o) (hwefin_)
/home/pcl2483/pedro/jadesoft/util/mcgen/Plib/libherwig58d.a(hweini.o)
                              /home/pcl2483/pedro/jadesoft/util/mcgen/Plib/libherwig58d.a(h58ddriv.o) (hweini_)
/home/pcl2483/pedro/jadesoft/util/mcgen/Plib/libherwig58d.a(hwepro.o)
                              /home/pcl2483/pedro/jadesoft/util/mcgen/Plib/libherwig58d.a(h58ddriv.o) (hwepro_)
/home/pcl2483/pedro/jadesoft/util/mcgen/Plib/libherwig58d.a(hwhbgf.o)
                              /home/pcl2483/pedro/jadesoft/util/mcgen/Plib/libherwig58d.a(hwepro.o) (hwhbgf_)
/home/pcl2483/pedro/jadesoft/util/mcgen/Plib/libherwig58d.a(hwhbki.o)
                              /home/pcl2483/pedro/jadesoft/util/mcgen/Plib/libherwig58d.a(hwhbgf.o) (hwhbki_)
/home/pcl2483/pedro/jadesoft/util/mcgen/Plib/libherwig58d.a(hwhbrn.o)
                              /home/pcl2483/pedro/jadesoft/util/mcgen/Plib/libherwig58d.a(hwhbgf.o) (hwhbrn_)
/home/pcl2483/pedro/jadesoft/util/mcgen/Plib/libherwig58d.a(hwhbsg.o)
                              /home/pcl2483/pedro/jadesoft/util/mcgen/Plib/libherwig58d.a(hwhbgf.o) (hwhbsg_)
/home/pcl2483/pedro/jadesoft/util/mcgen/Plib/libherwig58d.a(hwhdis.o)
                              /home/pcl2483/pedro/jadesoft/util/mcgen/Plib/libherwig58d.a(hwepro.o) (hwhdis_)
/home/pcl2483/pedro/jadesoft/util/mcgen/Plib/libherwig58d.a(hwhdyp.o)
                              /home/pcl2483/pedro/jadesoft/util/mcgen/Plib/libherwig58d.a(hwepro.o) (hwhdyp_)
/home/pcl2483/pedro/jadesoft/util/mcgen/Plib/libherwig58d.a(hwhegg.o)
                              /home/pcl2483/pedro/jadesoft/util/mcgen/Plib/libherwig58d.a(hwepro.o) (hwhegg_)
/home/pcl2483/pedro/jadesoft/util/mcgen/Plib/libherwig58d.a(hwhegw.o)
                              /home/pcl2483/pedro/jadesoft/util/mcgen/Plib/libherwig58d.a(hwepro.o) (hwhegw_)
/home/pcl2483/pedro/jadesoft/util/mcgen/Plib/libherwig58d.a(hwhegx.o)
                              /home/pcl2483/pedro/jadesoft/util/mcgen/Plib/libherwig58d.a(hwhegw.o) (hwhegx_)
/home/pcl2483/pedro/jadesoft/util/mcgen/Plib/libherwig58d.a(hwhepa.o)
                              /home/pcl2483/pedro/jadesoft/util/mcgen/Plib/libherwig58d.a(hwepro.o) (hwhepa_)
/home/pcl2483/pedro/jadesoft/util/mcgen/Plib/libherwig58d.a(hwhepg.o)
                              /home/pcl2483/pedro/jadesoft/util/mcgen/Plib/libherwig58d.a(hwepro.o) (hwhepg_)
/home/pcl2483/pedro/jadesoft/util/mcgen/Plib/libherwig58d.a(hwheww.o)
                              /home/pcl2483/pedro/jadesoft/util/mcgen/Plib/libherwig58d.a(hwepro.o) (hwheww_)
/home/pcl2483/pedro/jadesoft/util/mcgen/Plib/libherwig58d.a(hwhhvy.o)
                              /home/pcl2483/pedro/jadesoft/util/mcgen/Plib/libherwig58d.a(hwepro.o) (hwhhvy_)
/home/pcl2483/pedro/jadesoft/util/mcgen/Plib/libherwig58d.a(hwhigj.o)
                              /home/pcl2483/pedro/jadesoft/util/mcgen/Plib/libherwig58d.a(hwepro.o) (hwhigj_)
/home/pcl2483/pedro/jadesoft/util/mcgen/Plib/libherwig58d.a(hwhigm.o)
                              /home/pcl2483/pedro/jadesoft/util/mcgen/Plib/libherwig58d.a(hwhigj.o) (hwhigm_)
/home/pcl2483/pedro/jadesoft/util/mcgen/Plib/libherwig58d.a(hwhigs.o)
                              /home/pcl2483/pedro/jadesoft/util/mcgen/Plib/libherwig58d.a(hwepro.o) (hwhigs_)
/home/pcl2483/pedro/jadesoft/util/mcgen/Plib/libherwig58d.a(hwhigt.o)
                              /home/pcl2483/pedro/jadesoft/util/mcgen/Plib/libherwig58d.a(hwhigs.o) (hwhigt_)
/home/pcl2483/pedro/jadesoft/util/mcgen/Plib/libherwig58d.a(hwhigw.o)
                              /home/pcl2483/pedro/jadesoft/util/mcgen/Plib/libherwig58d.a(hwepro.o) (hwhigw_)
/home/pcl2483/pedro/jadesoft/util/mcgen/Plib/libherwig58d.a(hwhigz.o)
                              /home/pcl2483/pedro/jadesoft/util/mcgen/Plib/libherwig58d.a(hwepro.o) (hwhigz_)
/home/pcl2483/pedro/jadesoft/util/mcgen/Plib/libherwig58d.a(hwhph2.o)
                              /home/pcl2483/pedro/jadesoft/util/mcgen/Plib/libherwig58d.a(hwepro.o) (hwhph2_)
/home/pcl2483/pedro/jadesoft/util/mcgen/Plib/libherwig58d.a(hwhpho.o)
                              /home/pcl2483/pedro/jadesoft/util/mcgen/Plib/libherwig58d.a(hwepro.o) (hwhpho_)
/home/pcl2483/pedro/jadesoft/util/mcgen/Plib/libherwig58d.a(hwhppb.o)
                              /home/pcl2483/pedro/jadesoft/util/mcgen/Plib/libherwig58d.a(hwhph2.o) (hwhppb_)
/home/pcl2483/pedro/jadesoft/util/mcgen/Plib/libherwig58d.a(hwhppe.o)
                              /home/pcl2483/pedro/jadesoft/util/mcgen/Plib/libherwig58d.a(hwepro.o) (hwhppe_)
/home/pcl2483/pedro/jadesoft/util/mcgen/Plib/libherwig58d.a(hwhpph.o)
                              /home/pcl2483/pedro/jadesoft/util/mcgen/Plib/libherwig58d.a(hwepro.o) (hwhpph_)
/home/pcl2483/pedro/jadesoft/util/mcgen/Plib/libherwig58d.a(hwhppm.o)
                              /home/pcl2483/pedro/jadesoft/util/mcgen/Plib/libherwig58d.a(hwepro.o) (hwhppm_)
/home/pcl2483/pedro/jadesoft/util/mcgen/Plib/libherwig58d.a(hwhppt.o)
                              /home/pcl2483/pedro/jadesoft/util/mcgen/Plib/libherwig58d.a(hwepro.o) (hwhppt_)
/home/pcl2483/pedro/jadesoft/util/mcgen/Plib/libherwig58d.a(hwhpqs.o)
                              /home/pcl2483/pedro/jadesoft/util/mcgen/Plib/libherwig58d.a(hwepro.o) (hwhpqs_)
/home/pcl2483/pedro/jadesoft/util/mcgen/Plib/libherwig58d.a(hwhqcd.o)
                              /home/pcl2483/pedro/jadesoft/util/mcgen/Plib/libherwig58d.a(hwepro.o) (hwhqcd_)
/home/pcl2483/pedro/jadesoft/util/mcgen/Plib/libherwig58d.a(hwhqcp.o)
                              /home/pcl2483/pedro/jadesoft/util/mcgen/Plib/libherwig58d.a(hwhhvy.o) (hwhqcp_)
/home/pcl2483/pedro/jadesoft/util/mcgen/Plib/libherwig58d.a(hwhw1j.o)
                              /home/pcl2483/pedro/jadesoft/util/mcgen/Plib/libherwig58d.a(hwepro.o) (hwhw1j_)
/home/pcl2483/pedro/jadesoft/util/mcgen/Plib/libherwig58d.a(hwhwex.o)
                              /home/pcl2483/pedro/jadesoft/util/mcgen/Plib/libherwig58d.a(hwepro.o) (hwhwex_)
/home/pcl2483/pedro/jadesoft/util/mcgen/Plib/libherwig58d.a(hwhwpr.o)
                              /home/pcl2483/pedro/jadesoft/util/mcgen/Plib/libherwig58d.a(hwepro.o) (hwhwpr_)
/home/pcl2483/pedro/jadesoft/util/mcgen/Plib/libherwig58d.a(hwigin.o)
                              /home/pcl2483/pedro/jadesoft/util/mcgen/Plib/libherwig58d.a(h58ddriv.o) (hwigin_)
/home/pcl2483/pedro/jadesoft/util/mcgen/Plib/libherwig58d.a(hwmwgt.o)
                              /home/pcl2483/pedro/jadesoft/util/mcgen/Plib/libherwig58d.a(hwepro.o) (hwmwgt_)
/home/pcl2483/pedro/jadesoft/util/mcgen/Plib/libherwig58d.a(hwrazm.o)
                              /home/pcl2483/pedro/jadesoft/util/mcgen/Plib/libherwig58d.a(hwbjco.o) (hwrazm_)
/home/pcl2483/pedro/jadesoft/util/mcgen/Plib/libherwig58d.a(hwrgau.o)
                              /home/pcl2483/pedro/jadesoft/util/mcgen/Plib/libherwig58d.a(hwbgen.o) (hwrgau_)
/home/pcl2483/pedro/jadesoft/util/mcgen/Plib/libherwig58d.a(hwrgen.o)
                              /home/pcl2483/pedro/jadesoft/util/mcgen/Plib/libherwig58d.a(hwbran.o) (hwrgen_)
/home/pcl2483/pedro/jadesoft/util/mcgen/Plib/libherwig58d.a(hwrint.o)
                              /home/pcl2483/pedro/jadesoft/util/mcgen/Plib/libherwig58d.a(hwbran.o) (hwrint_)
/home/pcl2483/pedro/jadesoft/util/mcgen/Plib/libherwig58d.a(hwrlog.o)
                              /home/pcl2483/pedro/jadesoft/util/mcgen/Plib/libherwig58d.a(hwbgen.o) (hwrlog_)
/home/pcl2483/pedro/jadesoft/util/mcgen/Plib/libherwig58d.a(hwrpow.o)
                              /home/pcl2483/pedro/jadesoft/util/mcgen/Plib/libherwig58d.a(hwhdyp.o) (hwrpow_)
/home/pcl2483/pedro/jadesoft/util/mcgen/Plib/libherwig58d.a(hwruni.o)
                              /home/pcl2483/pedro/jadesoft/util/mcgen/Plib/libherwig58d.a(hwbran.o) (hwruni_)
/home/pcl2483/pedro/jadesoft/util/mcgen/Plib/libherwig58d.a(hwsbrn.o)
                              /home/pcl2483/pedro/jadesoft/util/mcgen/Plib/libherwig58d.a(hwbgen.o) (hwsbrn_)
/home/pcl2483/pedro/jadesoft/util/mcgen/Plib/libherwig58d.a(hwsfbr.o)
                              /home/pcl2483/pedro/jadesoft/util/mcgen/Plib/libherwig58d.a(hwsbrn.o) (hwsfbr_)
/home/pcl2483/pedro/jadesoft/util/mcgen/Plib/libherwig58d.a(hwsfun.o)
                              /home/pcl2483/pedro/jadesoft/util/mcgen/Plib/libherwig58d.a(hwhbsg.o) (hwsfun_)
/home/pcl2483/pedro/jadesoft/util/mcgen/Plib/libherwig58d.a(hwsgam.o)
                              /home/pcl2483/pedro/jadesoft/util/mcgen/Plib/libherwig58d.a(hwsfun.o) (hwsgam_)
/home/pcl2483/pedro/jadesoft/util/mcgen/Plib/libherwig58d.a(hwsgen.o)
                              /home/pcl2483/pedro/jadesoft/util/mcgen/Plib/libherwig58d.a(hwhdyp.o) (hwsgen_)
/home/pcl2483/pedro/jadesoft/util/mcgen/Plib/libherwig58d.a(hwsgqq.o)
                              /home/pcl2483/pedro/jadesoft/util/mcgen/Plib/libherwig58d.a(hwsbrn.o) (hwsgqq_)
/home/pcl2483/pedro/jadesoft/util/mcgen/Plib/libherwig58d.a(hwsspc.o)
                              /home/pcl2483/pedro/jadesoft/util/mcgen/Plib/libherwig58d.a(hwbgen.o) (hwsspc_)
/home/pcl2483/pedro/jadesoft/util/mcgen/Plib/libherwig58d.a(hwssud.o)
                              /home/pcl2483/pedro/jadesoft/util/mcgen/Plib/libherwig58d.a(hwsbrn.o) (hwssud_)
/home/pcl2483/pedro/jadesoft/util/mcgen/Plib/libherwig58d.a(hwstab.o)
                              /home/pcl2483/pedro/jadesoft/util/mcgen/Plib/libherwig58d.a(hwsbrn.o) (hwstab_)
/home/pcl2483/pedro/jadesoft/util/mcgen/Plib/libherwig58d.a(hwsval.o)
                              /home/pcl2483/pedro/jadesoft/util/mcgen/Plib/libherwig58d.a(hwsbrn.o) (hwsval_)
/home/pcl2483/pedro/jadesoft/util/mcgen/Plib/libherwig58d.a(hwuaem.o)
                              /home/pcl2483/pedro/jadesoft/util/mcgen/Plib/libherwig58d.a(hwhbsg.o) (hwuaem_)
/home/pcl2483/pedro/jadesoft/util/mcgen/Plib/libherwig58d.a(hwuaer.o)
                              /home/pcl2483/pedro/jadesoft/util/mcgen/Plib/libherwig58d.a(hwuaem.o) (hwuaer_)
/home/pcl2483/pedro/jadesoft/util/mcgen/Plib/libherwig58d.a(hwualf.o)
                              /home/pcl2483/pedro/jadesoft/util/mcgen/Plib/libherwig58d.a(hwbran.o) (hwualf_)
/home/pcl2483/pedro/jadesoft/util/mcgen/Plib/libherwig58d.a(hwubst.o)
                              /home/pcl2483/pedro/jadesoft/util/mcgen/Plib/libherwig58d.a(hwepro.o) (hwubst_)
/home/pcl2483/pedro/jadesoft/util/mcgen/Plib/libherwig58d.a(hwucff.o)
                              /home/pcl2483/pedro/jadesoft/util/mcgen/Plib/libherwig58d.a(hwhbsg.o) (hwucff_)
/home/pcl2483/pedro/jadesoft/util/mcgen/Plib/libherwig58d.a(hwudat.o)
                              /home/pcl2483/pedro/jadesoft/util/mcgen/Plib/libherwig58d.a(fxhlms.o) (hwuwts_)
/home/pcl2483/pedro/jadesoft/util/mcgen/Plib/libherwig58d.a(hwuecm.o)
                              /home/pcl2483/pedro/jadesoft/util/mcgen/Plib/libherwig58d.a(hwhbki.o) (hwuecm_)
/home/pcl2483/pedro/jadesoft/util/mcgen/Plib/libherwig58d.a(hwueec.o)
                              /home/pcl2483/pedro/jadesoft/util/mcgen/Plib/libherwig58d.a(hwhdyp.o) (hwueec_)
/home/pcl2483/pedro/jadesoft/util/mcgen/Plib/libherwig58d.a(hwuepr.o)
                              mchw58d_105j.o (hwuepr_)
/home/pcl2483/pedro/jadesoft/util/mcgen/Plib/libherwig58d.a(hwufne.o)
                              /home/pcl2483/pedro/jadesoft/util/mcgen/Plib/libherwig58d.a(h58ddriv.o) (hwufne_)
/home/pcl2483/pedro/jadesoft/util/mcgen/Plib/libherwig58d.a(hwuinc.o)
                              /home/pcl2483/pedro/jadesoft/util/mcgen/Plib/libherwig58d.a(h58ddriv.o) (hwuinc_)
/home/pcl2483/pedro/jadesoft/util/mcgen/Plib/libherwig58d.a(hwuine.o)
                              /home/pcl2483/pedro/jadesoft/util/mcgen/Plib/libherwig58d.a(h58ddriv.o) (hwuine_)
/home/pcl2483/pedro/jadesoft/util/mcgen/Plib/libherwig58d.a(hwulb4.o)
                              /home/pcl2483/pedro/jadesoft/util/mcgen/Plib/libherwig58d.a(hwubst.o) (hwulb4_)
/home/pcl2483/pedro/jadesoft/util/mcgen/Plib/libherwig58d.a(hwuldo.o)
                              /home/pcl2483/pedro/jadesoft/util/mcgen/Plib/libherwig58d.a(hwbgen.o) (hwuldo_)
/home/pcl2483/pedro/jadesoft/util/mcgen/Plib/libherwig58d.a(hwulob.o)
                              /home/pcl2483/pedro/jadesoft/util/mcgen/Plib/libherwig58d.a(hwbjco.o) (hwulob_)
/home/pcl2483/pedro/jadesoft/util/mcgen/Plib/libherwig58d.a(hwulof.o)
                              /home/pcl2483/pedro/jadesoft/util/mcgen/Plib/libherwig58d.a(hwbjco.o) (hwulof_)
/home/pcl2483/pedro/jadesoft/util/mcgen/Plib/libherwig58d.a(hwumas.o)
                              /home/pcl2483/pedro/jadesoft/util/mcgen/Plib/libherwig58d.a(hwbjco.o) (hwumas_)
/home/pcl2483/pedro/jadesoft/util/mcgen/Plib/libherwig58d.a(hwupcm.o)
                              /home/pcl2483/pedro/jadesoft/util/mcgen/Plib/libherwig58d.a(hwcfor.o) (hwupcm_)
/home/pcl2483/pedro/jadesoft/util/mcgen/Plib/libherwig58d.a(hwures.o)
                              /home/pcl2483/pedro/jadesoft/util/mcgen/Plib/libherwig58d.a(hwuinc.o) (hwures_)
/home/pcl2483/pedro/jadesoft/util/mcgen/Plib/libherwig58d.a(hwurob.o)
                              /home/pcl2483/pedro/jadesoft/util/mcgen/Plib/libherwig58d.a(hwbjco.o) (hwurob_)
/home/pcl2483/pedro/jadesoft/util/mcgen/Plib/libherwig58d.a(hwurof.o)
                              /home/pcl2483/pedro/jadesoft/util/mcgen/Plib/libherwig58d.a(hwbjco.o) (hwurof_)
/home/pcl2483/pedro/jadesoft/util/mcgen/Plib/libherwig58d.a(hwurot.o)
                              /home/pcl2483/pedro/jadesoft/util/mcgen/Plib/libherwig58d.a(hwbjco.o) (hwurot_)
/home/pcl2483/pedro/jadesoft/util/mcgen/Plib/libherwig58d.a(hwusqr.o)
                              /home/pcl2483/pedro/jadesoft/util/mcgen/Plib/libherwig58d.a(hwbmas.o) (hwusqr_)
/home/pcl2483/pedro/jadesoft/util/mcgen/Plib/libherwig58d.a(hwutab.o)
                              /home/pcl2483/pedro/jadesoft/util/mcgen/Plib/libherwig58d.a(hwbran.o) (hwutab_)
/home/pcl2483/pedro/jadesoft/util/mcgen/Plib/libherwig58d.a(hwutim.o)
                              /home/pcl2483/pedro/jadesoft/util/mcgen/Plib/libherwig58d.a(hwuine.o) (hwutim_)
/home/pcl2483/pedro/jadesoft/util/mcgen/Plib/libherwig58d.a(hwvdif.o)
                              /home/pcl2483/pedro/jadesoft/util/mcgen/Plib/libherwig58d.a(hwbjco.o) (hwvdif_)
/home/pcl2483/pedro/jadesoft/util/mcgen/Plib/libherwig58d.a(hwvequ.o)
                              /home/pcl2483/pedro/jadesoft/util/mcgen/Plib/libherwig58d.a(hwbgen.o) (hwvequ_)
/home/pcl2483/pedro/jadesoft/util/mcgen/Plib/libherwig58d.a(hwvsca.o)
                              /home/pcl2483/pedro/jadesoft/util/mcgen/Plib/libherwig58d.a(hwbjco.o) (hwvsca_)
/home/pcl2483/pedro/jadesoft/util/mcgen/Plib/libherwig58d.a(hwvsum.o)
                              /home/pcl2483/pedro/jadesoft/util/mcgen/Plib/libherwig58d.a(hwbjco.o) (hwvsum_)
/home/pcl2483/pedro/jadesoft/util/mcgen/Plib/libherwig58d.a(hwvzro.o)
                              /home/pcl2483/pedro/jadesoft/util/mcgen/Plib/libherwig58d.a(hwbgen.o) (hwvzro_)
/home/pcl2483/pedro/jadesoft/util/mcgen/Plib/libherwig58d.a(hwwarn.o)
                              /home/pcl2483/pedro/jadesoft/util/mcgen/Plib/libherwig58d.a(hwbgen.o) (hwwarn_)
/home/pcl2483/pedro/jadesoft/util/mcgen/Plib/libherwig58d.a(pdfset.o)
                              /home/pcl2483/pedro/jadesoft/util/mcgen/Plib/libherwig58d.a(hwsfun.o) (pdfset_)
/home/pcl2483/pedro/jadesoft/util/mcgen/Plib/libherwig58d.a(sas1d.o)
                              /home/pcl2483/pedro/jadesoft/util/mcgen/Plib/libherwig58d.a(hwsfun.o) (sas1d_)
/home/pcl2483/pedro/jadesoft/util/mcgen/Plib/libherwig58d.a(structm.o)
                              /home/pcl2483/pedro/jadesoft/util/mcgen/Plib/libherwig58d.a(hwsfun.o) (structm_)
/home/pcl2483/pedro/jadesoft/util/mcgen/Plib/libherwig58d.a(hvcbvi.o)
                              /home/pcl2483/pedro/jadesoft/util/mcgen/Plib/libherwig58d.a(hwcfor.o) (hvcbvi_)
/home/pcl2483/pedro/jadesoft/util/mcgen/Plib/libherwig58d.a(hvhbvi.o)
                              /home/pcl2483/pedro/jadesoft/util/mcgen/Plib/libherwig58d.a(hwepro.o) (hvhbvi_)
/home/pcl2483/pedro/jadesoft/util/mcgen/Plib/libherwig58d.a(hwaend.o)
                              /home/pcl2483/pedro/jadesoft/util/mcgen/Plib/libherwig58d.a(hwwarn.o) (hwaend_)
/home/pcl2483/pedro/jadesoft/util/mcgen/Plib/libherwig58d.a(hwbazf.o)
                              /home/pcl2483/pedro/jadesoft/util/mcgen/Plib/libherwig58d.a(hwbspa.o) (hwbazf_)
/home/pcl2483/pedro/jadesoft/util/mcgen/Plib/libherwig58d.a(hwbcon.o)
                              /home/pcl2483/pedro/jadesoft/util/mcgen/Plib/libherwig58d.a(hwbgen.o) (hwbcon_)
/home/pcl2483/pedro/jadesoft/util/mcgen/Plib/libherwig58d.a(hwbded.o)
                              /home/pcl2483/pedro/jadesoft/util/mcgen/Plib/libherwig58d.a(hwbgen.o) (hwbded_)
/home/pcl2483/pedro/jadesoft/util/mcgen/Plib/libherwig58d.a(hwbdis.o)
                              /home/pcl2483/pedro/jadesoft/util/mcgen/Plib/libherwig58d.a(hwbgen.o) (hwbdis_)
/home/pcl2483/pedro/jadesoft/util/mcgen/Plib/libherwig58d.a(hwbfin.o)
                              /home/pcl2483/pedro/jadesoft/util/mcgen/Plib/libherwig58d.a(hwbgen.o) (hwbfin_)
/home/pcl2483/pedro/jadesoft/util/mcgen/Plib/libherwig58d.a(hwbsud.o)
                              /home/pcl2483/pedro/jadesoft/util/mcgen/Plib/libherwig58d.a(hwuinc.o) (hwbsud_)
/home/pcl2483/pedro/jadesoft/util/mcgen/Plib/libherwig58d.a(hwbsug.o)
                              /home/pcl2483/pedro/jadesoft/util/mcgen/Plib/libherwig58d.a(hwbsud.o) (hwbsug_)
/home/pcl2483/pedro/jadesoft/util/mcgen/Plib/libherwig58d.a(hwbsul.o)
                              /home/pcl2483/pedro/jadesoft/util/mcgen/Plib/libherwig58d.a(hwbsug.o) (hwbsul_)
/home/pcl2483/pedro/jadesoft/util/mcgen/Plib/libherwig58d.a(hwccut.o)
                              /home/pcl2483/pedro/jadesoft/util/mcgen/Plib/libherwig58d.a(hwcfor.o) (hwccut_)
/home/pcl2483/pedro/jadesoft/util/mcgen/Plib/libherwig58d.a(hwdboz.o)
                              /home/pcl2483/pedro/jadesoft/util/mcgen/Plib/libherwig58d.a(hwhegg.o) (hwdboz_)
/home/pcl2483/pedro/jadesoft/util/mcgen/Plib/libherwig58d.a(hwdhig.o)
                              /home/pcl2483/pedro/jadesoft/util/mcgen/Plib/libherwig58d.a(hwhigm.o) (hwdhig_)
/home/pcl2483/pedro/jadesoft/util/mcgen/Plib/libherwig58d.a(hwdpwt.o)
                              /home/pcl2483/pedro/jadesoft/util/mcgen/Plib/libherwig58d.a(hwhepg.o) (hwdpwt_)
/home/pcl2483/pedro/jadesoft/util/mcgen/Plib/libherwig58d.a(hwegam.o)
                              /home/pcl2483/pedro/jadesoft/util/mcgen/Plib/libherwig58d.a(hwepro.o) (hwegam_)
/home/pcl2483/pedro/jadesoft/util/mcgen/Plib/libherwig58d.a(hweisr.o)
                              /home/pcl2483/pedro/jadesoft/util/mcgen/Plib/libherwig58d.a(hwepro.o) (hweisr_)
/home/pcl2483/pedro/jadesoft/util/mcgen/Plib/libherwig58d.a(hweone.o)
                              /home/pcl2483/pedro/jadesoft/util/mcgen/Plib/libherwig58d.a(hwhigs.o) (hweone_)
/home/pcl2483/pedro/jadesoft/util/mcgen/Plib/libherwig58d.a(hwetwo.o)
                              /home/pcl2483/pedro/jadesoft/util/mcgen/Plib/libherwig58d.a(hwhdis.o) (hwetwo_)
/home/pcl2483/pedro/jadesoft/util/mcgen/Plib/libherwig58d.a(hwhew0.o)
                              /home/pcl2483/pedro/jadesoft/util/mcgen/Plib/libherwig58d.a(hwheww.o) (hwhew0_)
/home/pcl2483/pedro/jadesoft/util/mcgen/Plib/libherwig58d.a(hwhew1.o)
                              /home/pcl2483/pedro/jadesoft/util/mcgen/Plib/libherwig58d.a(hwheww.o) (hwhew1_)
/home/pcl2483/pedro/jadesoft/util/mcgen/Plib/libherwig58d.a(hwhew2.o)
                              /home/pcl2483/pedro/jadesoft/util/mcgen/Plib/libherwig58d.a(hwheww.o) (hwhew2_)
/home/pcl2483/pedro/jadesoft/util/mcgen/Plib/libherwig58d.a(hwhew3.o)
                              /home/pcl2483/pedro/jadesoft/util/mcgen/Plib/libherwig58d.a(hwheww.o) (hwhew3_)
/home/pcl2483/pedro/jadesoft/util/mcgen/Plib/libherwig58d.a(hwhew4.o)
                              /home/pcl2483/pedro/jadesoft/util/mcgen/Plib/libherwig58d.a(hwhew3.o) (hwhew4_)
/home/pcl2483/pedro/jadesoft/util/mcgen/Plib/libherwig58d.a(hwhew5.o)
                              /home/pcl2483/pedro/jadesoft/util/mcgen/Plib/libherwig58d.a(hwheww.o) (hwhew5_)
/home/pcl2483/pedro/jadesoft/util/mcgen/Plib/libherwig58d.a(hwhiga.o)
                              /home/pcl2483/pedro/jadesoft/util/mcgen/Plib/libherwig58d.a(hwhigj.o) (hwhiga_)
/home/pcl2483/pedro/jadesoft/util/mcgen/Plib/libherwig58d.a(hwhigb.o)
                              /home/pcl2483/pedro/jadesoft/util/mcgen/Plib/libherwig58d.a(hwhiga.o) (hwhigb_)
/home/pcl2483/pedro/jadesoft/util/mcgen/Plib/libherwig58d.a(hwhigy.o)
                              /home/pcl2483/pedro/jadesoft/util/mcgen/Plib/libherwig58d.a(hwhigz.o) (hwhigy_)
/home/pcl2483/pedro/jadesoft/util/mcgen/Plib/libherwig58d.a(hwrexq.o)
                              /home/pcl2483/pedro/jadesoft/util/mcgen/Plib/libherwig58d.a(hwccut.o) (hwrexq_)
/home/pcl2483/pedro/jadesoft/util/mcgen/Plib/libherwig58d.a(hwsdgg.o)
                              /home/pcl2483/pedro/jadesoft/util/mcgen/Plib/libherwig58d.a(hwsfun.o) (hwsdgg_)
/home/pcl2483/pedro/jadesoft/util/mcgen/Plib/libherwig58d.a(hwsdgq.o)
                              /home/pcl2483/pedro/jadesoft/util/mcgen/Plib/libherwig58d.a(hwsfun.o) (hwsdgq_)
/home/pcl2483/pedro/jadesoft/util/mcgen/Plib/libherwig58d.a(hwubpr.o)
                              /home/pcl2483/pedro/jadesoft/util/mcgen/Plib/libherwig58d.a(hwwarn.o) (hwubpr_)
/home/pcl2483/pedro/jadesoft/util/mcgen/Plib/libherwig58d.a(hwuci2.o)
                              /home/pcl2483/pedro/jadesoft/util/mcgen/Plib/libherwig58d.a(hwhigb.o) (hwuci2_)
/home/pcl2483/pedro/jadesoft/util/mcgen/Plib/libherwig58d.a(hwuedt.o)
                              /home/pcl2483/pedro/jadesoft/util/mcgen/Plib/libherwig58d.a(hwbded.o) (hwuedt_)
/home/pcl2483/pedro/jadesoft/util/mcgen/Plib/libherwig58d.a(hwuemv.o)
                              /home/pcl2483/pedro/jadesoft/util/mcgen/Plib/libherwig58d.a(hwbdis.o) (hwuemv_)
/home/pcl2483/pedro/jadesoft/util/mcgen/Plib/libherwig58d.a(hwugau.o)
                              /home/pcl2483/pedro/jadesoft/util/mcgen/Plib/libherwig58d.a(hwbsud.o) (hwugau_)
/home/pcl2483/pedro/jadesoft/util/mcgen/Plib/libherwig58d.a(hwuidt.o)
                              /home/pcl2483/pedro/jadesoft/util/mcgen/Plib/libherwig58d.a(hwuinc.o) (hwuidt_)
/home/pcl2483/pedro/jadesoft/util/mcgen/Plib/libherwig58d.a(hwulf4.o)
                              /home/pcl2483/pedro/jadesoft/util/mcgen/Plib/libherwig58d.a(hwulof.o) (hwulf4_)
/home/pcl2483/pedro/jadesoft/util/mcgen/Plib/libherwig58d.a(hwuli2.o)
                              /home/pcl2483/pedro/jadesoft/util/mcgen/Plib/libherwig58d.a(hwhigb.o) (hwuli2_)
/home/pcl2483/pedro/jadesoft/util/mcgen/Plib/libherwig58d.a(hwvdot.o)
                              /home/pcl2483/pedro/jadesoft/util/mcgen/Plib/libherwig58d.a(hwccut.o) (hwvdot_)
/home/pcl2483/pedro/jadesoft/util/mcgen/Plib/libherwig58d.a(pystig.o)
                              /home/pcl2483/pedro/jadesoft/util/mcgen/Plib/libherwig58d.a(sas1d.o) (pystig_)
/home/pcl2483/pedro/jadesoft/util/mcgen/Plib/libherwig58d.a(pystvg.o)
                              /home/pcl2483/pedro/jadesoft/util/mcgen/Plib/libherwig58d.a(sas1d.o) (pystvg_)
/home/pcl2483/pedro/jadesoft/util/mcgen/Plib/libherwig58d.a(hwbsu1.o)
                              /home/pcl2483/pedro/jadesoft/util/mcgen/Plib/libherwig58d.a(hwbsud.o) (hwbsu1_)
/home/pcl2483/pedro/jadesoft/util/mcgen/Plib/libherwig58d.a(hwbsu2.o)
                              /home/pcl2483/pedro/jadesoft/util/mcgen/Plib/libherwig58d.a(hwbsud.o) (hwbsu2_)
/home/pcl2483/pedro/jadesoft/util/mcgen/Plib/libherwig58d.a(hwdhgc.o)
                              /home/pcl2483/pedro/jadesoft/util/mcgen/Plib/libherwig58d.a(hwdhig.o) (hwdhgc_)
/home/pcl2483/pedro/jadesoft/util/mcgen/Plib/libherwig58d.a(hwdhgf.o)
                              /home/pcl2483/pedro/jadesoft/util/mcgen/Plib/libherwig58d.a(hwdhig.o) (hwdhgf_)
/home/pcl2483/pedro/jadesoft/util/mcgen/Plib/libherwig58d.a(hwhig1.o)
                              /home/pcl2483/pedro/jadesoft/util/mcgen/Plib/libherwig58d.a(hwhiga.o) (hwhig1_)
/home/pcl2483/pedro/jadesoft/util/mcgen/Plib/libjt74opal.a(luchge.o)
                              /home/pcl2483/pedro/jadesoft/util/mcgen/Plib/libmc105j.a(mcgeth.o) (luchge_)
/home/pcl2483/pedro/jadesoft/util/mcgen/Plib/libjt74opal.a(lucomp.o)
                              /home/pcl2483/pedro/jadesoft/util/mcgen/Plib/libmc105j.a(mcgeth.o) (lucomp_)
/home/pcl2483/pedro/jadesoft/util/mcgen/Plib/libjt74opal.a(ludata.o)
                              mchw58d_105j.o (gudatr_)
/home/pcl2483/pedro/jadesoft/util/mcgen/Plib/libjt74opal.a(luedit.o)
                              mchw58d_105j.o (luedit_)
/home/pcl2483/pedro/jadesoft/util/mcgen/Plib/libjt74opal.a(luerrm.o)
                              /home/pcl2483/pedro/jadesoft/util/mcgen/Plib/libjt74opal.a(luedit.o) (luerrm_)
/home/pcl2483/pedro/jadesoft/util/mcgen/Plib/libjt74opal.a(luexec.o)
                              mchw58d_105j.o (luexec_)
/home/pcl2483/pedro/jadesoft/util/mcgen/Plib/libjt74opal.a(luhepc.o)
                              mchw58d_105j.o (luhepc_)
/home/pcl2483/pedro/jadesoft/util/mcgen/Plib/libjt74opal.a(luindf.o)
                              /home/pcl2483/pedro/jadesoft/util/mcgen/Plib/libjt74opal.a(luexec.o) (luindf_)
/home/pcl2483/pedro/jadesoft/util/mcgen/Plib/libjt74opal.a(lukfdi.o)
                              /home/pcl2483/pedro/jadesoft/util/mcgen/Plib/libjt74opal.a(luindf.o) (lukfdi_)
/home/pcl2483/pedro/jadesoft/util/mcgen/Plib/libjt74opal.a(lulist.o)
                              mchw58d_105j.o (lulist_)
/home/pcl2483/pedro/jadesoft/util/mcgen/Plib/libjt74opal.a(lulogo.o)
                              /home/pcl2483/pedro/jadesoft/util/mcgen/Plib/libjt74opal.a(lulist.o) (lulogo_)
/home/pcl2483/pedro/jadesoft/util/mcgen/Plib/libjt74opal.a(luname.o)
                              /home/pcl2483/pedro/jadesoft/util/mcgen/Plib/libmc105j.a(mcstbl.o) (luname_)
/home/pcl2483/pedro/jadesoft/util/mcgen/Plib/libjt74opal.a(luprep.o)
                              /home/pcl2483/pedro/jadesoft/util/mcgen/Plib/libjt74opal.a(luexec.o) (luprep_)
/home/pcl2483/pedro/jadesoft/util/mcgen/Plib/libjt74opal.a(luptdi.o)
                              /home/pcl2483/pedro/jadesoft/util/mcgen/Plib/libjt74opal.a(luindf.o) (luptdi_)
/home/pcl2483/pedro/jadesoft/util/mcgen/Plib/libjt74opal.a(lurobo.o)
                              /home/pcl2483/pedro/jadesoft/util/mcgen/Plib/libjt74opal.a(luedit.o) (ludbrb_)
/home/pcl2483/pedro/jadesoft/util/mcgen/Plib/libjt74opal.a(lushow.o)
                              /home/pcl2483/pedro/jadesoft/util/mcgen/Plib/libjt74opal.a(luexec.o) (lushow_)
/home/pcl2483/pedro/jadesoft/util/mcgen/Plib/libjt74opal.a(lustrf.o)
                              /home/pcl2483/pedro/jadesoft/util/mcgen/Plib/libjt74opal.a(luexec.o) (lustrf_)
/home/pcl2483/pedro/jadesoft/util/mcgen/Plib/libjt74opal.a(lutabu.o)
                              mchw58d_105j.o (lutabu_)
/home/pcl2483/pedro/jadesoft/util/mcgen/Plib/libjt74opal.a(luzdis.o)
                              /home/pcl2483/pedro/jadesoft/util/mcgen/Plib/libjt74opal.a(luindf.o) (luzdis_)
/home/pcl2483/pedro/jadesoft/util/mcgen/Plib/libjt74opal.a(plu.o)
                              /home/pcl2483/pedro/jadesoft/util/mcgen/Plib/libmc105j.a(mcwrit.o) (plu_)
/home/pcl2483/pedro/jadesoft/util/mcgen/Plib/libjt74opal.a(rlu.o)
                              /home/pcl2483/pedro/jadesoft/util/mcgen/Plib/libherwig58d.a(hwrgen.o) (rlu_)
/home/pcl2483/pedro/jadesoft/util/mcgen/Plib/libjt74opal.a(ulangl.o)
                              /home/pcl2483/pedro/jadesoft/util/mcgen/Plib/libjt74opal.a(luedit.o) (ulangl_)
/home/pcl2483/pedro/jadesoft/util/mcgen/Plib/libjt74opal.a(ulmass.o)
                              /home/pcl2483/pedro/jadesoft/util/mcgen/Plib/libjt74opal.a(luindf.o) (ulmass_)
/home/pcl2483/pedro/jadesoft/util/mcgen/Plib/libjt74opal.a(luboei.o)
                              /home/pcl2483/pedro/jadesoft/util/mcgen/Plib/libjt74opal.a(luexec.o) (luboei_)
/home/pcl2483/pedro/jadesoft/util/mcgen/Plib/libjt74opal.a(ludecy.o)
                              /home/pcl2483/pedro/jadesoft/util/mcgen/Plib/libjt74opal.a(luexec.o) (ludecy_)
/home/pcl2483/pedro/jadesoft/util/mcgen/Plib/libjt74opal.a(lutaud.o)
                              /home/pcl2483/pedro/jadesoft/util/mcgen/Plib/libjt74opal.a(ludecy.o) (lutaud_)
/home/pcl2483/pedro/jadesoft/util/mcgen/Plib/libjt74opal.a(taupol.o)
                              /home/pcl2483/pedro/jadesoft/util/mcgen/Plib/libjt74opal.a(lutaud.o) (taupol_)
/home/pcl2483/pedro/jadesoft/util/mcgen/Plib/libjt74opal.a(dexay.o)
                              /home/pcl2483/pedro/jadesoft/util/mcgen/Plib/libjt74opal.a(lutaud.o) (dexay_)
/home/pcl2483/pedro/jadesoft/util/mcgen/Plib/libjt74opal.a(dexay1.o)
                              /home/pcl2483/pedro/jadesoft/util/mcgen/Plib/libjt74opal.a(dexay.o) (dexay1_)
/home/pcl2483/pedro/jadesoft/util/mcgen/Plib/libjt74opal.a(dexel.o)
                              /home/pcl2483/pedro/jadesoft/util/mcgen/Plib/libjt74opal.a(dexay.o) (dexel_)
/home/pcl2483/pedro/jadesoft/util/mcgen/Plib/libjt74opal.a(dexkk.o)
                              /home/pcl2483/pedro/jadesoft/util/mcgen/Plib/libjt74opal.a(dexay.o) (dexkk_)
/home/pcl2483/pedro/jadesoft/util/mcgen/Plib/libjt74opal.a(dexks.o)
                              /home/pcl2483/pedro/jadesoft/util/mcgen/Plib/libjt74opal.a(dexay.o) (dexks_)
/home/pcl2483/pedro/jadesoft/util/mcgen/Plib/libjt74opal.a(dexmu.o)
                              /home/pcl2483/pedro/jadesoft/util/mcgen/Plib/libjt74opal.a(dexay.o) (dexmu_)
/home/pcl2483/pedro/jadesoft/util/mcgen/Plib/libjt74opal.a(dexnew.o)
                              /home/pcl2483/pedro/jadesoft/util/mcgen/Plib/libjt74opal.a(dexay.o) (dexnew_)
/home/pcl2483/pedro/jadesoft/util/mcgen/Plib/libjt74opal.a(dexpi.o)
                              /home/pcl2483/pedro/jadesoft/util/mcgen/Plib/libjt74opal.a(dexay.o) (dexpi_)
/home/pcl2483/pedro/jadesoft/util/mcgen/Plib/libjt74opal.a(dexro.o)
                              /home/pcl2483/pedro/jadesoft/util/mcgen/Plib/libjt74opal.a(dexay.o) (dexro_)
/home/pcl2483/pedro/jadesoft/util/mcgen/Plib/libjt74opal.a(dwlnew.o)
                              /home/pcl2483/pedro/jadesoft/util/mcgen/Plib/libjt74opal.a(dexay1.o) (dwlnew_)
/home/pcl2483/pedro/jadesoft/util/mcgen/Plib/libjt74opal.a(dwluaa.o)
                              /home/pcl2483/pedro/jadesoft/util/mcgen/Plib/libjt74opal.a(dexay1.o) (dwluaa_)
/home/pcl2483/pedro/jadesoft/util/mcgen/Plib/libjt74opal.a(dwluel.o)
                              /home/pcl2483/pedro/jadesoft/util/mcgen/Plib/libjt74opal.a(dexay1.o) (dwluel_)
/home/pcl2483/pedro/jadesoft/util/mcgen/Plib/libjt74opal.a(dwlukk.o)
                              /home/pcl2483/pedro/jadesoft/util/mcgen/Plib/libjt74opal.a(dexay1.o) (dwlukk_)
/home/pcl2483/pedro/jadesoft/util/mcgen/Plib/libjt74opal.a(dwluks.o)
                              /home/pcl2483/pedro/jadesoft/util/mcgen/Plib/libjt74opal.a(dexay1.o) (dwluks_)
/home/pcl2483/pedro/jadesoft/util/mcgen/Plib/libjt74opal.a(dwlumu.o)
                              /home/pcl2483/pedro/jadesoft/util/mcgen/Plib/libjt74opal.a(dexay1.o) (dwlumu_)
/home/pcl2483/pedro/jadesoft/util/mcgen/Plib/libjt74opal.a(dwlupi.o)
                              /home/pcl2483/pedro/jadesoft/util/mcgen/Plib/libjt74opal.a(dexay1.o) (dwlupi_)
/home/pcl2483/pedro/jadesoft/util/mcgen/Plib/libjt74opal.a(dwluro.o)
                              /home/pcl2483/pedro/jadesoft/util/mcgen/Plib/libjt74opal.a(dexay1.o) (dwluro_)
/home/pcl2483/pedro/jadesoft/util/mcgen/Plib/libjt74opal.a(dwrph.o)
                              /home/pcl2483/pedro/jadesoft/util/mcgen/Plib/libjt74opal.a(dexay1.o) (dwrph_)
/home/pcl2483/pedro/jadesoft/util/mcgen/Plib/libjt74opal.a(filhep.o)
                              /home/pcl2483/pedro/jadesoft/util/mcgen/Plib/libjt74opal.a(dwlnew.o) (filhep_)
/home/pcl2483/pedro/jadesoft/util/mcgen/Plib/libjt74opal.a(initdk.o)
                              /home/pcl2483/pedro/jadesoft/util/mcgen/Plib/libjt74opal.a(lutaud.o) (initdk_)
/home/pcl2483/pedro/jadesoft/util/mcgen/Plib/libjt74opal.a(jaker.o)
                              /home/pcl2483/pedro/jadesoft/util/mcgen/Plib/libjt74opal.a(dexay1.o) (jaker_)
/home/pcl2483/pedro/jadesoft/util/mcgen/Plib/libjt74opal.a(lunpik.o)
                              /home/pcl2483/pedro/jadesoft/util/mcgen/Plib/libjt74opal.a(dwlnew.o) (lunpik_)
/home/pcl2483/pedro/jadesoft/util/mcgen/Plib/libjt74opal.a(dadmel.o)
                              /home/pcl2483/pedro/jadesoft/util/mcgen/Plib/libjt74opal.a(dexel.o) (dadmel_)
/home/pcl2483/pedro/jadesoft/util/mcgen/Plib/libjt74opal.a(dadmkk.o)
                              /home/pcl2483/pedro/jadesoft/util/mcgen/Plib/libjt74opal.a(dexkk.o) (dadmkk_)
/home/pcl2483/pedro/jadesoft/util/mcgen/Plib/libjt74opal.a(dadmks.o)
                              /home/pcl2483/pedro/jadesoft/util/mcgen/Plib/libjt74opal.a(dexks.o) (dadmks_)
/home/pcl2483/pedro/jadesoft/util/mcgen/Plib/libjt74opal.a(dadmmu.o)
                              /home/pcl2483/pedro/jadesoft/util/mcgen/Plib/libjt74opal.a(dexmu.o) (dadmmu_)
/home/pcl2483/pedro/jadesoft/util/mcgen/Plib/libjt74opal.a(dadmpi.o)
                              /home/pcl2483/pedro/jadesoft/util/mcgen/Plib/libjt74opal.a(dexpi.o) (dadmpi_)
/home/pcl2483/pedro/jadesoft/util/mcgen/Plib/libjt74opal.a(dadmro.o)
                              /home/pcl2483/pedro/jadesoft/util/mcgen/Plib/libjt74opal.a(dexro.o) (dadmro_)
/home/pcl2483/pedro/jadesoft/util/mcgen/Plib/libjt74opal.a(dadnew.o)
                              /home/pcl2483/pedro/jadesoft/util/mcgen/Plib/libjt74opal.a(dexnew.o) (dadnew_)
/home/pcl2483/pedro/jadesoft/util/mcgen/Plib/libjt74opal.a(dexaa.o)
                              /home/pcl2483/pedro/jadesoft/util/mcgen/Plib/libjt74opal.a(dexay.o) (dexaa_)
/home/pcl2483/pedro/jadesoft/util/mcgen/Plib/libjt74opal.a(dph4pi.o)
                              /home/pcl2483/pedro/jadesoft/util/mcgen/Plib/libjt74opal.a(dadnew.o) (dph4pi_)
/home/pcl2483/pedro/jadesoft/util/mcgen/Plib/libjt74opal.a(dph5pi.o)
                              /home/pcl2483/pedro/jadesoft/util/mcgen/Plib/libjt74opal.a(dadnew.o) (dph5pi_)
/home/pcl2483/pedro/jadesoft/util/mcgen/Plib/libjt74opal.a(dphnpi.o)
                              /home/pcl2483/pedro/jadesoft/util/mcgen/Plib/libjt74opal.a(dadnew.o) (dphnpi_)
/home/pcl2483/pedro/jadesoft/util/mcgen/Plib/libjt74opal.a(dphsel.o)
                              /home/pcl2483/pedro/jadesoft/util/mcgen/Plib/libjt74opal.a(dadmel.o) (dphsel_)
/home/pcl2483/pedro/jadesoft/util/mcgen/Plib/libjt74opal.a(dphsks.o)
                              /home/pcl2483/pedro/jadesoft/util/mcgen/Plib/libjt74opal.a(dadmks.o) (dphsks_)
/home/pcl2483/pedro/jadesoft/util/mcgen/Plib/libjt74opal.a(dphsmu.o)
                              /home/pcl2483/pedro/jadesoft/util/mcgen/Plib/libjt74opal.a(dadmmu.o) (dphsmu_)
/home/pcl2483/pedro/jadesoft/util/mcgen/Plib/libjt74opal.a(dphspk.o)
                              /home/pcl2483/pedro/jadesoft/util/mcgen/Plib/libjt74opal.a(dadnew.o) (dphspk_)
/home/pcl2483/pedro/jadesoft/util/mcgen/Plib/libjt74opal.a(dphsrk.o)
                              /home/pcl2483/pedro/jadesoft/util/mcgen/Plib/libjt74opal.a(dadnew.o) (dphsrk_)
/home/pcl2483/pedro/jadesoft/util/mcgen/Plib/libjt74opal.a(dphsro.o)
                              /home/pcl2483/pedro/jadesoft/util/mcgen/Plib/libjt74opal.a(dadmro.o) (dphsro_)
/home/pcl2483/pedro/jadesoft/util/mcgen/Plib/libjt74opal.a(dphtre.o)
                              /home/pcl2483/pedro/jadesoft/util/mcgen/Plib/libjt74opal.a(dphspk.o) (dphtre_)
/home/pcl2483/pedro/jadesoft/util/mcgen/Plib/libjt74opal.a(drcmu.o)
                              /home/pcl2483/pedro/jadesoft/util/mcgen/Plib/libjt74opal.a(dphsel.o) (drcmu_)
/home/pcl2483/pedro/jadesoft/util/mcgen/Plib/libjt74opal.a(dwluph.o)
                              /home/pcl2483/pedro/jadesoft/util/mcgen/Plib/libjt74opal.a(dwrph.o) (dwluph_)
/home/pcl2483/pedro/jadesoft/util/mcgen/Plib/libjt74opal.a(fpirho.o)
                              /home/pcl2483/pedro/jadesoft/util/mcgen/Plib/libjt74opal.a(dphsro.o) (fpirho_)
/home/pcl2483/pedro/jadesoft/util/mcgen/Plib/libjt74opal.a(fpirk.o)
                              /home/pcl2483/pedro/jadesoft/util/mcgen/Plib/libjt74opal.a(dphsrk.o) (fpirk_)
/home/pcl2483/pedro/jadesoft/util/mcgen/Plib/libjt74opal.a(rotor2.o)
                              /home/pcl2483/pedro/jadesoft/util/mcgen/Plib/libjt74opal.a(dadmel.o) (rotor2_)
/home/pcl2483/pedro/jadesoft/util/mcgen/Plib/libjt74opal.a(rotor3.o)
                              /home/pcl2483/pedro/jadesoft/util/mcgen/Plib/libjt74opal.a(dadmel.o) (rotor3_)
/home/pcl2483/pedro/jadesoft/util/mcgen/Plib/libjt74opal.a(rotpol.o)
                              /home/pcl2483/pedro/jadesoft/util/mcgen/Plib/libjt74opal.a(dph4pi.o) (rotpol_)
/home/pcl2483/pedro/jadesoft/util/mcgen/Plib/libjt74opal.a(rotpox.o)
                              /home/pcl2483/pedro/jadesoft/util/mcgen/Plib/libjt74opal.a(drcmu.o) (rotpox_)
/home/pcl2483/pedro/jadesoft/util/mcgen/Plib/libjt74opal.a(sigee.o)
                              /home/pcl2483/pedro/jadesoft/util/mcgen/Plib/libjt74opal.a(dphnpi.o) (sigee_)
/home/pcl2483/pedro/jadesoft/util/mcgen/Plib/libjt74opal.a(sphera.o)
                              /home/pcl2483/pedro/jadesoft/util/mcgen/Plib/libjt74opal.a(dadmkk.o) (sphera_)
/home/pcl2483/pedro/jadesoft/util/mcgen/Plib/libjt74opal.a(spherd.o)
                              /home/pcl2483/pedro/jadesoft/util/mcgen/Plib/libjt74opal.a(drcmu.o) (spherd_)
/home/pcl2483/pedro/jadesoft/util/mcgen/Plib/libjt74opal.a(bostd3.o)
                              /home/pcl2483/pedro/jadesoft/util/mcgen/Plib/libjt74opal.a(drcmu.o) (bostd3_)
/home/pcl2483/pedro/jadesoft/util/mcgen/Plib/libjt74opal.a(bostr3.o)
                              /home/pcl2483/pedro/jadesoft/util/mcgen/Plib/libjt74opal.a(dph4pi.o) (bostr3_)
/home/pcl2483/pedro/jadesoft/util/mcgen/Plib/libjt74opal.a(bwigs.o)
                              /home/pcl2483/pedro/jadesoft/util/mcgen/Plib/libjt74opal.a(dphsks.o) (bwigs_)
/home/pcl2483/pedro/jadesoft/util/mcgen/Plib/libjt74opal.a(choice.o)
                              /home/pcl2483/pedro/jadesoft/util/mcgen/Plib/libjt74opal.a(dph4pi.o) (choice_)
/home/pcl2483/pedro/jadesoft/util/mcgen/Plib/libjt74opal.a(dadmaa.o)
                              /home/pcl2483/pedro/jadesoft/util/mcgen/Plib/libjt74opal.a(dexaa.o) (dadmaa_)
/home/pcl2483/pedro/jadesoft/util/mcgen/Plib/libjt74opal.a(dam4pi.o)
                              /home/pcl2483/pedro/jadesoft/util/mcgen/Plib/libjt74opal.a(dph4pi.o) (dam4pi_)
/home/pcl2483/pedro/jadesoft/util/mcgen/Plib/libjt74opal.a(dampog.o)
                              /home/pcl2483/pedro/jadesoft/util/mcgen/Plib/libjt74opal.a(dphtre.o) (dampog_)
/home/pcl2483/pedro/jadesoft/util/mcgen/Plib/libjt74opal.a(damppk.o)
                              /home/pcl2483/pedro/jadesoft/util/mcgen/Plib/libjt74opal.a(dphtre.o) (damppk_)
/home/pcl2483/pedro/jadesoft/util/mcgen/Plib/libjt74opal.a(dampry.o)
                              /home/pcl2483/pedro/jadesoft/util/mcgen/Plib/libjt74opal.a(drcmu.o) (dampry_)
/home/pcl2483/pedro/jadesoft/util/mcgen/Plib/libjt74opal.a(dcdmas.o)
                              /home/pcl2483/pedro/jadesoft/util/mcgen/Plib/libjt74opal.a(dph5pi.o) (dcdmas_)
/home/pcl2483/pedro/jadesoft/util/mcgen/Plib/libjt74opal.a(dphsaa.o)
                              /home/pcl2483/pedro/jadesoft/util/mcgen/Plib/libjt74opal.a(dadmaa.o) (dphsaa_)
/home/pcl2483/pedro/jadesoft/util/mcgen/Plib/libjt74opal.a(form1.o)
                              /home/pcl2483/pedro/jadesoft/util/mcgen/Plib/libjt74opal.a(damppk.o) (form1_)
/home/pcl2483/pedro/jadesoft/util/mcgen/Plib/libjt74opal.a(form2.o)
                              /home/pcl2483/pedro/jadesoft/util/mcgen/Plib/libjt74opal.a(damppk.o) (form2_)
/home/pcl2483/pedro/jadesoft/util/mcgen/Plib/libjt74opal.a(form3.o)
                              /home/pcl2483/pedro/jadesoft/util/mcgen/Plib/libjt74opal.a(damppk.o) (form3_)
/home/pcl2483/pedro/jadesoft/util/mcgen/Plib/libjt74opal.a(form4.o)
                              /home/pcl2483/pedro/jadesoft/util/mcgen/Plib/libjt74opal.a(damppk.o) (form4_)
/home/pcl2483/pedro/jadesoft/util/mcgen/Plib/libjt74opal.a(form5.o)
                              /home/pcl2483/pedro/jadesoft/util/mcgen/Plib/libjt74opal.a(damppk.o) (form5_)
/home/pcl2483/pedro/jadesoft/util/mcgen/Plib/libjt74opal.a(formom.o)
                              /home/pcl2483/pedro/jadesoft/util/mcgen/Plib/libjt74opal.a(dampog.o) (formom_)
/home/pcl2483/pedro/jadesoft/util/mcgen/Plib/libjt74opal.a(fpik.o)
                              /home/pcl2483/pedro/jadesoft/util/mcgen/Plib/libjt74opal.a(fpirho.o) (fpik_)
/home/pcl2483/pedro/jadesoft/util/mcgen/Plib/libjt74opal.a(fpikm.o)
                              /home/pcl2483/pedro/jadesoft/util/mcgen/Plib/libjt74opal.a(fpirk.o) (fpikm_)
/home/pcl2483/pedro/jadesoft/util/mcgen/Plib/libjt74opal.a(fpikmd.o)
                              /home/pcl2483/pedro/jadesoft/util/mcgen/Plib/libjt74opal.a(form5.o) (fpikmd_)
/home/pcl2483/pedro/jadesoft/util/mcgen/Plib/libjt74opal.a(gfun.o)
                              /home/pcl2483/pedro/jadesoft/util/mcgen/Plib/libjt74opal.a(form1.o) (gfun_)
/home/pcl2483/pedro/jadesoft/util/mcgen/Plib/libjt74opal.a(prod5.o)
                              /home/pcl2483/pedro/jadesoft/util/mcgen/Plib/libjt74opal.a(damppk.o) (prod5_)
/home/pcl2483/pedro/jadesoft/util/mcgen/Plib/libjt74opal.a(rotod2.o)
                              /home/pcl2483/pedro/jadesoft/util/mcgen/Plib/libjt74opal.a(rotpox.o) (rotod2_)
/home/pcl2483/pedro/jadesoft/util/mcgen/Plib/libjt74opal.a(rotod3.o)
                              /home/pcl2483/pedro/jadesoft/util/mcgen/Plib/libjt74opal.a(rotpox.o) (rotod3_)
/home/pcl2483/pedro/jadesoft/util/mcgen/Plib/libjt74opal.a(sqm2.o)
                              /home/pcl2483/pedro/jadesoft/util/mcgen/Plib/libjt74opal.a(dampry.o) (sqm2_)
/home/pcl2483/pedro/jadesoft/util/mcgen/Plib/libjt74opal.a(thb.o)
                              /home/pcl2483/pedro/jadesoft/util/mcgen/Plib/libjt74opal.a(dampry.o) (thb_)
/home/pcl2483/pedro/jadesoft/util/mcgen/Plib/libjt74opal.a(wigfor.o)
                              /home/pcl2483/pedro/jadesoft/util/mcgen/Plib/libjt74opal.a(form1.o) (wigfor_)
/home/pcl2483/pedro/jadesoft/util/mcgen/Plib/libjt74opal.a(bwig.o)
                              /home/pcl2483/pedro/jadesoft/util/mcgen/Plib/libjt74opal.a(fpik.o) (bwig_)
/home/pcl2483/pedro/jadesoft/util/mcgen/Plib/libjt74opal.a(bwigm.o)
                              /home/pcl2483/pedro/jadesoft/util/mcgen/Plib/libjt74opal.a(form1.o) (bwigm_)
/home/pcl2483/pedro/jadesoft/util/mcgen/Plib/libjt74opal.a(claxi.o)
                              /home/pcl2483/pedro/jadesoft/util/mcgen/Plib/libjt74opal.a(dam4pi.o) (claxi_)
/home/pcl2483/pedro/jadesoft/util/mcgen/Plib/libjt74opal.a(clnut.o)
                              /home/pcl2483/pedro/jadesoft/util/mcgen/Plib/libjt74opal.a(dam4pi.o) (clnut_)
/home/pcl2483/pedro/jadesoft/util/mcgen/Plib/libjt74opal.a(clvec.o)
                              /home/pcl2483/pedro/jadesoft/util/mcgen/Plib/libjt74opal.a(dam4pi.o) (clvec_)
/home/pcl2483/pedro/jadesoft/util/mcgen/Plib/libjt74opal.a(curr.o)
                              /home/pcl2483/pedro/jadesoft/util/mcgen/Plib/libjt74opal.a(dam4pi.o) (curr_)
/home/pcl2483/pedro/jadesoft/util/mcgen/Plib/libjt74opal.a(dilog.o)
                              /home/pcl2483/pedro/jadesoft/util/mcgen/Plib/libjt74opal.a(thb.o) (dilog_)
/home/pcl2483/pedro/jadesoft/util/mcgen/Plib/libckern105.a(ckern.o)
                              mchw58d_105j.o (ckern_)
/home/pcl2483/pedro/jadesoft/util/mcgen/Plib/libckern105.a(cksord.o)
                              /home/pcl2483/pedro/jadesoft/util/mcgen/Plib/libckern105.a(ckern.o) (cksord_)
/home/pcl2483/pedro/jadesoft/util/mcgen/Plib/libckern105.a(cnjet.o)
                              mchw58d_105j.o (cnjet_)
/home/pcl2483/pedro/jadesoft/util/mcgen/Plib/libpx114.a(pxang3.o)
                              /home/pcl2483/pedro/jadesoft/util/mcgen/Plib/libmc105j.a(pxeecb.o) (pxang3_)
/home/pcl2483/pedro/jadesoft/util/mcgen/Plib/libpx114.a(pxanxy.o)
                              /home/pcl2483/pedro/jadesoft/util/mcgen/Plib/libmc105j.a(evwrtj.o) (pxanxy_)
/home/pcl2483/pedro/jadesoft/util/mcgen/Plib/libpx114.a(pxcone.o)
                              mchw58d_105j.o (pxcone_)
/home/pcl2483/pedro/jadesoft/util/mcgen/Plib/libpx114.a(pxcopv.o)
                              /home/pcl2483/pedro/jadesoft/util/mcgen/Plib/libmc105j.a(mcrnst.o) (pxcopv_)
/home/pcl2483/pedro/jadesoft/util/mcgen/Plib/libpx114.a(pxjpdg.o)
                              /home/pcl2483/pedro/jadesoft/util/mcgen/Plib/libmc105j.a(jtconv.o) (pxjpdg_)
/home/pcl2483/pedro/jadesoft/util/mcgen/Plib/libpx114.a(pxjsp3.o)
                              mchw58d_105j.o (pxjsp3_)
/home/pcl2483/pedro/jadesoft/util/mcgen/Plib/libpx114.a(pxlsp3.o)
                              mchw58d_105j.o (pxlsp3_)
/home/pcl2483/pedro/jadesoft/util/mcgen/Plib/libpx114.a(pxlth4.o)
                              mchw58d_105j.o (pxlth4_)
/home/pcl2483/pedro/jadesoft/util/mcgen/Plib/libpx114.a(pxlut3.o)
                              /home/pcl2483/pedro/jadesoft/util/mcgen/Plib/libpx114.a(pxlth4.o) (pxlut3_)
/home/pcl2483/pedro/jadesoft/util/mcgen/Plib/libpx114.a(pxlzf5.o)
                              mchw58d_105j.o (pxlzf5_)
/home/pcl2483/pedro/jadesoft/util/mcgen/Plib/libpx114.a(pxmmbb.o)
                              mchw58d_105j.o (pxmmbb_)
/home/pcl2483/pedro/jadesoft/util/mcgen/Plib/libpx114.a(pxnorv.o)
                              /home/pcl2483/pedro/jadesoft/util/mcgen/Plib/libpx114.a(pxcone.o) (pxnorv_)
/home/pcl2483/pedro/jadesoft/util/mcgen/Plib/libpx114.a(pxolap.o)
                              /home/pcl2483/pedro/jadesoft/util/mcgen/Plib/libpx114.a(pxcone.o) (pxolap_)
/home/pcl2483/pedro/jadesoft/util/mcgen/Plib/libpx114.a(pxord.o)
                              /home/pcl2483/pedro/jadesoft/util/mcgen/Plib/libpx114.a(pxcone.o) (pxord_)
/home/pcl2483/pedro/jadesoft/util/mcgen/Plib/libpx114.a(pxplt3.o)
                              mchw58d_105j.o (pxplt3_)
/home/pcl2483/pedro/jadesoft/util/mcgen/Plib/libpx114.a(pxplu3.o)
                              /home/pcl2483/pedro/jadesoft/util/mcgen/Plib/libpx114.a(pxlut3.o) (pxplu3_)
/home/pcl2483/pedro/jadesoft/util/mcgen/Plib/libpx114.a(pxprcv.o)
                              /home/pcl2483/pedro/jadesoft/util/mcgen/Plib/libmc105j.a(mcstbl.o) (pxprcv_)
/home/pcl2483/pedro/jadesoft/util/mcgen/Plib/libpx114.a(pxprrv.o)
                              /home/pcl2483/pedro/jadesoft/util/mcgen/Plib/libmc105j.a(mcwrit.o) (pxprrv_)
/home/pcl2483/pedro/jadesoft/util/mcgen/Plib/libpx114.a(pxrap4.o)
                              mchw58d_105j.o (pxrap4_)
/home/pcl2483/pedro/jadesoft/util/mcgen/Plib/libpx114.a(pxrmx3.o)
                              /home/pcl2483/pedro/jadesoft/util/mcgen/Plib/libpx114.a(pxlut3.o) (pxrmx3_)
/home/pcl2483/pedro/jadesoft/util/mcgen/Plib/libpx114.a(pxrob3.o)
                              /home/pcl2483/pedro/jadesoft/util/mcgen/Plib/libpx114.a(pxlut3.o) (pxrob3_)
/home/pcl2483/pedro/jadesoft/util/mcgen/Plib/libpx114.a(pxrof3.o)
                              /home/pcl2483/pedro/jadesoft/util/mcgen/Plib/libpx114.a(pxlut3.o) (pxrof3_)
/home/pcl2483/pedro/jadesoft/util/mcgen/Plib/libpx114.a(pxsear.o)
                              /home/pcl2483/pedro/jadesoft/util/mcgen/Plib/libpx114.a(pxcone.o) (pxsear_)
/home/pcl2483/pedro/jadesoft/util/mcgen/Plib/libpx114.a(pxsorv.o)
                              /home/pcl2483/pedro/jadesoft/util/mcgen/Plib/libpx114.a(pxord.o) (pxsorv_)
/home/pcl2483/pedro/jadesoft/util/mcgen/Plib/libpx114.a(pxtry.o)
                              /home/pcl2483/pedro/jadesoft/util/mcgen/Plib/libpx114.a(pxsear.o) (pxtry_)
/home/pcl2483/pedro/jadesoft/util/mcgen/Plib/libpx114.a(pxuvec.o)
                              /home/pcl2483/pedro/jadesoft/util/mcgen/Plib/libpx114.a(pxcone.o) (pxuvec_)
/home/pcl2483/pedro/jadesoft/util/mcgen/Plib/libpx114.a(pxzerv.o)
                              /home/pcl2483/pedro/jadesoft/util/mcgen/Plib/libpx114.a(pxcone.o) (pxzerv_)
/home/pcl2483/pedro/jadesoft/util/mcgen/Plib/libpx114.a(ykern.o)
                              mchw58d_105j.o (ykern_)
/home/pcl2483/pedro/jadesoft/util/mcgen/Plib/libpx114.a(ynjet.o)
                              mchw58d_105j.o (ynjet_)
/home/pcl2483/pedro/jadesoft/util/mcgen/Plib/libpx114.a(yyjet.o)
                              mchw58d_105j.o (yyjet_)
/home/pcl2483/pedro/jadesoft/util/mcgen/Plib/libpx114.a(pxaddv.o)
                              /home/pcl2483/pedro/jadesoft/util/mcgen/Plib/libpx114.a(pxcone.o) (pxaddv_)
/home/pcl2483/pedro/jadesoft/util/mcgen/Plib/libpx114.a(pxdiam.o)
                              /home/pcl2483/pedro/jadesoft/util/mcgen/Plib/libpx114.a(pxlsp3.o) (pxdiam_)
/home/pcl2483/pedro/jadesoft/util/mcgen/Plib/libpx114.a(pxmulm.o)
                              /home/pcl2483/pedro/jadesoft/util/mcgen/Plib/libpx114.a(pxdiam.o) (pxmulm_)
/home/pcl2483/pedro/jadesoft/util/mcgen/Plib/libpx114.a(pxnew.o)
                              /home/pcl2483/pedro/jadesoft/util/mcgen/Plib/libpx114.a(pxsear.o) (pxnew_)
/home/pcl2483/pedro/jadesoft/util/mcgen/Plib/libpx114.a(pxsame.o)
                              /home/pcl2483/pedro/jadesoft/util/mcgen/Plib/libpx114.a(pxsear.o) (pxsame_)
/home/pcl2483/pedro/jadesoft/util/mcgen/Plib/libpx114.a(pxunim.o)
                              /home/pcl2483/pedro/jadesoft/util/mcgen/Plib/libpx114.a(pxdiam.o) (pxunim_)
/cern/99/lib/libpacklib.a(ffgo.o)
                              /home/pcl2483/pedro/jadesoft/util/mcgen/Plib/libmc105j.a(mcinit.o) (ffgo_)
/cern/99/lib/libpacklib.a(ffinit.o)
                              /home/pcl2483/pedro/jadesoft/util/mcgen/Plib/libmc105j.a(mcinit.o) (ffinit_)
/cern/99/lib/libpacklib.a(ffkey.o)
                              mchw58d_105j.o (ffkey_)
/cern/99/lib/libpacklib.a(ffset.o)
                              /home/pcl2483/pedro/jadesoft/util/mcgen/Plib/libmc105j.a(mcinit.o) (ffset_)
/cern/99/lib/libpacklib.a(ffskip.o)
                              /cern/99/lib/libpacklib.a(ffgo.o) (ffskip_)
/cern/99/lib/libpacklib.a(ffupca.o)
                              /cern/99/lib/libpacklib.a(ffgo.o) (ffupca_)
/cern/99/lib/libpacklib.a(ffuser.o)
                              /cern/99/lib/libpacklib.a(ffinit.o) (ffuser_)
/cern/99/lib/libpacklib.a(ffuset.o)
                              /cern/99/lib/libpacklib.a(ffinit.o) (ffuset_)
/cern/99/lib/libpacklib.a(hrput.o)
                              mchw58d_105j.o (hrput_)
/cern/99/lib/libpacklib.a(hbook1.o)
                              mchw58d_105j.o (hbook1_)
/cern/99/lib/libpacklib.a(hbook2.o)
                              mchw58d_105j.o (hbook2_)
/cern/99/lib/libpacklib.a(hbookb.o)
                              mchw58d_105j.o (hbookb_)
/cern/99/lib/libpacklib.a(hbtit.o)
                              /cern/99/lib/libpacklib.a(hbook1.o) (hbtit_)
/cern/99/lib/libpacklib.a(hbug.o)
                              /cern/99/lib/libpacklib.a(hbook1.o) (hbug_)
/cern/99/lib/libpacklib.a(hcdir.o)
                              mchw58d_105j.o (hcdir_)
/cern/99/lib/libpacklib.a(hchnam.o)
                              /cern/99/lib/libpacklib.a(hcdir.o) (hchnam_)
/cern/99/lib/libpacklib.a(hdelet.o)
                              /cern/99/lib/libpacklib.a(hbook1.o) (hdelet_)
/cern/99/lib/libpacklib.a(hfill.o)
                              mchw58d_105j.o (hfill_)
/cern/99/lib/libpacklib.a(hfilpf.o)
                              /cern/99/lib/libpacklib.a(hfill.o) (hfilpf_)
/cern/99/lib/libpacklib.a(hgive.o)
                              mchw58d_105j.o (hgive_)
/cern/99/lib/libpacklib.a(hidopt.o)
                              mchw58d_105j.o (hidopt_)
/cern/99/lib/libpacklib.a(hlimit.o)
                              mchw58d_105j.o (hlimit_)
/cern/99/lib/libpacklib.a(hloop.o)
                              /cern/99/lib/libpacklib.a(hidopt.o) (hloop_)
/cern/99/lib/libpacklib.a(hmachi.o)
                              /cern/99/lib/libpacklib.a(hlimit.o) (hmachi_)
/cern/99/lib/libpacklib.a(hnoent.o)
                              mchw58d_105j.o (hnoent_)
/cern/99/lib/libpacklib.a(hopera.o)
                              mchw58d_105j.o (hopera_)
/cern/99/lib/libpacklib.a(hpaff.o)
                              /cern/99/lib/libpacklib.a(hcdir.o) (hpaff_)
/cern/99/lib/libpacklib.a(hpak.o)
                              mchw58d_105j.o (hpak_)
/cern/99/lib/libpacklib.a(hpake.o)
                              mchw58d_105j.o (hpake_)
/cern/99/lib/libpacklib.a(hpath.o)
                              /cern/99/lib/libpacklib.a(hcdir.o) (hpath_)
/cern/99/lib/libpacklib.a(hrebin.o)
                              mchw58d_105j.o (hrebin_)
/cern/99/lib/libpacklib.a(hreset.o)
                              /cern/99/lib/libpacklib.a(hopera.o) (hreset_)
/cern/99/lib/libpacklib.a(hrez0.o)
                              /cern/99/lib/libpacklib.a(hreset.o) (hrez0_)
/cern/99/lib/libpacklib.a(hsifla.o)
                              /cern/99/lib/libpacklib.a(hidopt.o) (hsifla_)
/cern/99/lib/libpacklib.a(hspace.o)
                              /cern/99/lib/libpacklib.a(hbook1.o) (hspace_)
/cern/99/lib/libpacklib.a(hstaf.o)
                              mchw58d_105j.o (hstaf_)
/cern/99/lib/libpacklib.a(hsupis.o)
                              /cern/99/lib/libpacklib.a(hreset.o) (hsupis_)
/cern/99/lib/libpacklib.a(huoptc.o)
                              /cern/99/lib/libpacklib.a(hrput.o) (huoptc_)
/cern/99/lib/libpacklib.a(hlogpf.o)
                              /cern/99/lib/libpacklib.a(hcdir.o) (hlogpf_)
/cern/99/lib/libpacklib.a(hoptpf.o)
                              /cern/99/lib/libpacklib.a(hstaf.o) (hoptpf_)
/cern/99/lib/libpacklib.a(hitoc.o)
                              /cern/99/lib/libpacklib.a(hchnam.o) (hitoc_)
/cern/99/lib/libpacklib.a(hnbufd.o)
                              /cern/99/lib/libpacklib.a(hdelet.o) (hnbufd_)
/cern/99/lib/libpacklib.a(hntmpd.o)
                              /cern/99/lib/libpacklib.a(hnbufd.o) (hntmpd_)
/cern/99/lib/libpacklib.a(hntrset.o)
                              /cern/99/lib/libpacklib.a(hreset.o) (hntrset_)
/cern/99/lib/libpacklib.a(fzin.o)
                              /cern/99/lib/libpacklib.a(hlogpf.o) (fzin_)
/cern/99/lib/libpacklib.a(fzirel.o)
                              /cern/99/lib/libpacklib.a(fzin.o) (fzirel_)
/cern/99/lib/libpacklib.a(fzloc.o)
                              /cern/99/lib/libpacklib.a(fzin.o) (fzloc_)
/cern/99/lib/libpacklib.a(mzbook.o)
                              /cern/99/lib/libpacklib.a(hbook1.o) (mzbook_)
/cern/99/lib/libpacklib.a(mzdrop.o)
                              /cern/99/lib/libpacklib.a(hdelet.o) (mzdrop_)
/cern/99/lib/libpacklib.a(mzebra.o)
                              /cern/99/lib/libpacklib.a(hlimit.o) (mzebra_)
/cern/99/lib/libpacklib.a(mzflag.o)
                              /cern/99/lib/libpacklib.a(mzdrop.o) (mzflag_)
/cern/99/lib/libpacklib.a(mzinco.o)
                              /cern/99/lib/libpacklib.a(mzebra.o) (mzinco_)
/cern/99/lib/libpacklib.a(mzlift.o)
                              /cern/99/lib/libpacklib.a(mzbook.o) (mzlift_)
/cern/99/lib/libpacklib.a(mzlink.o)
                              /cern/99/lib/libpacklib.a(hlimit.o) (mzlink_)
/cern/99/lib/libpacklib.a(mzneed.o)
                              /cern/99/lib/libpacklib.a(hspace.o) (mzneed_)
/cern/99/lib/libpacklib.a(mzpaw.o)
                              /cern/99/lib/libpacklib.a(hlimit.o) (mzpaw_)
/cern/99/lib/libpacklib.a(mzpush.o)
                              /cern/99/lib/libpacklib.a(hbook1.o) (mzpush_)
/cern/99/lib/libpacklib.a(mzstor.o)
                              /cern/99/lib/libpacklib.a(mzpaw.o) (mzstor_)
/cern/99/lib/libpacklib.a(mzvers.o)
                              /cern/99/lib/libpacklib.a(mzebra.o) (mzvers_)
/cern/99/lib/libpacklib.a(mzgar1.o)
                              /cern/99/lib/libpacklib.a(mzlift.o) (mzgar1_)
/cern/99/lib/libpacklib.a(mzgsta.o)
                              /cern/99/lib/libpacklib.a(mzgar1.o) (mzgsta_)
/cern/99/lib/libpacklib.a(mzmove.o)
                              /cern/99/lib/libpacklib.a(mzgar1.o) (mzmove_)
/cern/99/lib/libpacklib.a(mzrelb.o)
                              /cern/99/lib/libpacklib.a(fzirel.o) (mzrelb_)
/cern/99/lib/libpacklib.a(mzrell.o)
                              /cern/99/lib/libpacklib.a(fzirel.o) (mzrell_)
/cern/99/lib/libpacklib.a(mzrelx.o)
                              /cern/99/lib/libpacklib.a(mzpush.o) (mzrelx_)
/cern/99/lib/libpacklib.a(mztabf.o)
                              /cern/99/lib/libpacklib.a(mzgar1.o) (mztabf_)
/cern/99/lib/libpacklib.a(mztabm.o)
                              /cern/99/lib/libpacklib.a(mzpush.o) (mztabm_)
/cern/99/lib/libpacklib.a(mztabr.o)
                              /cern/99/lib/libpacklib.a(mzgar1.o) (mztabr_)
/cern/99/lib/libpacklib.a(mztabs.o)
                              /cern/99/lib/libpacklib.a(mzgar1.o) (mztabs_)
/cern/99/lib/libpacklib.a(mztabx.o)
                              /cern/99/lib/libpacklib.a(mzpush.o) (mztabx_)
/cern/99/lib/libpacklib.a(mzchln.o)
                              /cern/99/lib/libpacklib.a(mzrelb.o) (mzchln_)
/cern/99/lib/libpacklib.a(mzchls.o)
                              /cern/99/lib/libpacklib.a(mzdrop.o) (mzchls_)
/cern/99/lib/libpacklib.a(mzchnb.o)
                              /cern/99/lib/libpacklib.a(mzlift.o) (mzchnb_)
/cern/99/lib/libpacklib.a(mzfdiv.o)
                              /cern/99/lib/libpacklib.a(mzpush.o) (mzfdiv_)
/cern/99/lib/libpacklib.a(mzform.o)
                              /cern/99/lib/libpacklib.a(hlimit.o) (mzform_)
/cern/99/lib/libpacklib.a(mzioch.o)
                              /cern/99/lib/libpacklib.a(mzform.o) (mzioch_)
/cern/99/lib/libpacklib.a(mzresv.o)
                              /cern/99/lib/libpacklib.a(mzlift.o) (mzresv_)
/cern/99/lib/libpacklib.a(mzsdiv.o)
                              /cern/99/lib/libpacklib.a(fzin.o) (mzsdiv_)
/cern/99/lib/libpacklib.a(zvautx.o)
                              /cern/99/lib/libpacklib.a(fzin.o) (zvautx_)
/cern/99/lib/libpacklib.a(zfatal.o)
                              /cern/99/lib/libpacklib.a(fzin.o) (zfatal_)
/cern/99/lib/libpacklib.a(zfatam.o)
                              /cern/99/lib/libpacklib.a(mzebra.o) (zfatam_)
/cern/99/lib/libpacklib.a(ztell.o)
                              /cern/99/lib/libpacklib.a(mzgar1.o) (ztell_)
/cern/99/lib/libpacklib.a(ztelus.o)
                              /cern/99/lib/libpacklib.a(ztell.o) (ztelus_)
/cern/99/lib/libpacklib.a(izbcdt.o)
                              /cern/99/lib/libpacklib.a(mzioch.o) (izbcdt_)
/cern/99/lib/libpacklib.a(izhnum.o)
                              /cern/99/lib/libpacklib.a(mzinco.o) (izhnum_)
/cern/99/lib/libpacklib.a(zshunt.o)
                              /cern/99/lib/libpacklib.a(fzin.o) (zshunt_)
/cern/99/lib/libpacklib.a(rzcdir.o)
                              /cern/99/lib/libpacklib.a(hrput.o) (rzcdir_)
/cern/99/lib/libpacklib.a(rzdate.o)
                              /cern/99/lib/libpacklib.a(rzcdir.o) (rzdate_)
/cern/99/lib/libpacklib.a(rzfdir.o)
                              /cern/99/lib/libpacklib.a(rzcdir.o) (rzfdir_)
/cern/99/lib/libpacklib.a(rziodo.o)
                              /cern/99/lib/libpacklib.a(rzfdir.o) (rziodo_)
/cern/99/lib/libpacklib.a(rzpaff.o)
                              /cern/99/lib/libpacklib.a(rzcdir.o) (rzpaff_)
/cern/99/lib/libpacklib.a(rzpath.o)
                              /cern/99/lib/libpacklib.a(rzcdir.o) (rzpath_)
/cern/99/lib/libpacklib.a(rzrtop.o)
                              /cern/99/lib/libpacklib.a(rzcdir.o) (rzrtop_)
/cern/99/lib/libpacklib.a(rzsame.o)
                              /cern/99/lib/libpacklib.a(rzfdir.o) (rzsame_)
/cern/99/lib/libpacklib.a(rzsave.o)
                              /cern/99/lib/libpacklib.a(rzcdir.o) (rzsave_)
/cern/99/lib/libpacklib.a(rzstrir.o)
                              /cern/99/lib/libpacklib.a(rziodo.o) (rzstrir_)
/cern/99/lib/libpacklib.a(rzvcyc.o)
                              /cern/99/lib/libpacklib.a(rzfdir.o) (rzvcyc_)
/cern/99/lib/libpacklib.a(abend.o)
                              /cern/99/lib/libpacklib.a(zfatal.o) (abend_)
/cern/99/lib/libpacklib.a(datime.o)
                              /cern/99/lib/libpacklib.a(hmachi.o) (datime_)
/cern/99/lib/libpacklib.a(datimh.o)
                              /cern/99/lib/libpacklib.a(hmachi.o) (datimh_)
/cern/99/lib/libpacklib.a(jumpxn.o)
                              /cern/99/lib/libpacklib.a(ffuset.o) (jumpad_)
/cern/99/lib/libpacklib.a(locf.o)
                              /cern/99/lib/libpacklib.a(ffkey.o) (locf_)
/cern/99/lib/libpacklib.a(qnexte.o)
                              /cern/99/lib/libpacklib.a(ztell.o) (qnexte_)
/cern/99/lib/libpacklib.a(lenocc.o)
                              mchw58d_105j.o (lenocc_)
/cern/99/lib/libpacklib.a(vxinvb.o)
                              /cern/99/lib/libpacklib.a(rziodo.o) (vxinvb_)
/cern/99/lib/libpacklib.a(cfclos.o)
                              /cern/99/lib/libpacklib.a(rzstrir.o) (cfclos_)
/cern/99/lib/libpacklib.a(cfget.o)
                              /cern/99/lib/libpacklib.a(rziodo.o) (cfget_)
/cern/99/lib/libpacklib.a(cfput.o)
                              /cern/99/lib/libpacklib.a(rziodo.o) (cfput_)
/cern/99/lib/libpacklib.a(cfseek.o)
                              /cern/99/lib/libpacklib.a(rziodo.o) (cfseek_)
/cern/99/lib/libpacklib.a(cfopen.o)
                              /cern/99/lib/libpacklib.a(rzstrir.o) (cfopen_)
/cern/99/lib/libpacklib.a(cleft.o)
                              /cern/99/lib/libpacklib.a(mzebra.o) (cleft_)
/cern/99/lib/libpacklib.a(cltou.o)
                              /cern/99/lib/libpacklib.a(hidopt.o) (cltou_)
/cern/99/lib/libpacklib.a(cutol.o)
                              /cern/99/lib/libpacklib.a(cfopen.o) (cutol_)
/cern/99/lib/libpacklib.a(floarg.o)
                              /cern/99/lib/libpacklib.a(hbook1.o) (floarg_)
/cern/99/lib/libpacklib.a(intarg.o)
                              /cern/99/lib/libpacklib.a(hbook1.o) (intarg_)
/cern/99/lib/libpacklib.a(kerngt.o)
                              /cern/99/lib/libpacklib.a(mzvers.o) (kerngt_)
/cern/99/lib/libpacklib.a(uoptc.o)
                              /cern/99/lib/libpacklib.a(huoptc.o) (uoptc_)
/cern/99/lib/libpacklib.a(utrans.o)
                              /cern/99/lib/libpacklib.a(mzioch.o) (utrans_)
/cern/99/lib/libpacklib.a(ishftr.o)
                              /cern/99/lib/libpacklib.a(fzloc.o) (ishftr_)
/cern/99/lib/libpacklib.a(qnext.o)
                              /cern/99/lib/libpacklib.a(qnexte.o) (qnext_)
/cern/99/lib/libpacklib.a(ucopy2c.o)
                              /cern/99/lib/libpacklib.a(ffgo.o) (ucopy2_)
/cern/99/lib/libpacklib.a(iucomp.o)
                              /cern/99/lib/libpacklib.a(ffkey.o) (iucomp_)
/cern/99/lib/libpacklib.a(noarg.o)
                              /cern/99/lib/libpacklib.a(hbook1.o) (noarg_)
/cern/99/lib/libpacklib.a(sbit0.o)
                              /cern/99/lib/libpacklib.a(hopera.o) (sbit0_)
/cern/99/lib/libpacklib.a(sbit1.o)
                              /cern/99/lib/libpacklib.a(hbook1.o) (sbit1_)
/cern/99/lib/libpacklib.a(ublow.o)
                              /cern/99/lib/libpacklib.a(hmachi.o) (ublow_)
/cern/99/lib/libpacklib.a(ubunch.o)
                              /cern/99/lib/libpacklib.a(utrans.o) (ubunch_)
/cern/99/lib/libpacklib.a(ucopy.o)
                              /home/pcl2483/pedro/jadesoft/util/mcgen/Plib/libmc105j.a(mcstbl.o) (ucopy_)
/cern/99/lib/libpacklib.a(uctoh.o)
                              /cern/99/lib/libpacklib.a(ffgo.o) (uctoh_)
/cern/99/lib/libpacklib.a(uctoh1.o)
                              /cern/99/lib/libpacklib.a(mzinco.o) (uctoh1_)
/cern/99/lib/libpacklib.a(uhtoc.o)
                              mchw58d_105j.o (uhtoc_)
/cern/99/lib/libpacklib.a(vblank.o)
                              mchw58d_105j.o (vblank_)
/cern/99/lib/libpacklib.a(vfill.o)
                              /cern/99/lib/libpacklib.a(ffinit.o) (vfill_)
/cern/99/lib/libpacklib.a(vzero.o)
                              mchw58d_105j.o (vzero_)
/cern/99/lib/libpacklib.a(jbit.o)
                              /cern/99/lib/libpacklib.a(hdelet.o) (jbit_)
/cern/99/lib/libpacklib.a(jbyt.o)
                              /cern/99/lib/libpacklib.a(hidopt.o) (jbyt_)
/cern/99/lib/libpacklib.a(sbyt.o)
                              /cern/99/lib/libpacklib.a(hidopt.o) (sbyt_)
/cern/99/lib/libpacklib.a(locati.o)
                              /cern/99/lib/libpacklib.a(hbook1.o) (locati_)
/cern/99/lib/libpacklib.a(czgeta.o)
                              /cern/99/lib/libpacklib.a(hcdir.o) (czgeta_)
/cern/99/lib/libpacklib.a(czputa.o)
                              /cern/99/lib/libpacklib.a(hcdir.o) (czputa_)
/cern/99/lib/libpacklib.a(ffcard.o)
                              /cern/99/lib/libpacklib.a(ffgo.o) (ffcard_)
/cern/99/lib/libpacklib.a(fffind.o)
                              /cern/99/lib/libpacklib.a(ffgo.o) (fffind_)
/cern/99/lib/libpacklib.a(hqputf.o)
                              /cern/99/lib/libpacklib.a(hsupis.o) (hqputf_)
/cern/99/lib/libpacklib.a(hbpqry.o)
                              /cern/99/lib/libpacklib.a(hlogpf.o) (greppqry_)
/cern/99/lib/libpacklib.a(hrendc.o)
                              /cern/99/lib/libpacklib.a(hrput.o) (hrendc_)
/cern/99/lib/libpacklib.a(hropen.o)
                              /cern/99/lib/libpacklib.a(hrput.o) (hropen_)
/cern/99/lib/libpacklib.a(hrout.o)
                              /cern/99/lib/libpacklib.a(hrput.o) (hrout_)
/cern/99/lib/libpacklib.a(hrzcd.o)
                              /cern/99/lib/libpacklib.a(hcdir.o) (hrzcd_)
/cern/99/lib/libpacklib.a(hrzout.o)
                              /cern/99/lib/libpacklib.a(hrout.o) (hrzout_)
/cern/99/lib/libpacklib.a(hbar2.o)
                              /cern/99/lib/libpacklib.a(hopera.o) (hbar2_)
/cern/99/lib/libpacklib.a(hbarx.o)
                              /cern/99/lib/libpacklib.a(hopera.o) (hbarx_)
/cern/99/lib/libpacklib.a(hbary.o)
                              /cern/99/lib/libpacklib.a(hopera.o) (hbary_)
/cern/99/lib/libpacklib.a(hbin.o)
                              /cern/99/lib/libpacklib.a(hbook1.o) (hbin_)
/cern/99/lib/libpacklib.a(hcopy.o)
                              /cern/99/lib/libpacklib.a(hopera.o) (hcopy_)
/cern/99/lib/libpacklib.a(hcx.o)
                              /cern/99/lib/libpacklib.a(hbarx.o) (hcx_)
/cern/99/lib/libpacklib.a(hcxy.o)
                              /cern/99/lib/libpacklib.a(hopera.o) (hcxy_)
/cern/99/lib/libpacklib.a(hdcofl.o)
                              /cern/99/lib/libpacklib.a(hgive.o) (hdcofl_)
/cern/99/lib/libpacklib.a(hf1.o)
                              /cern/99/lib/libpacklib.a(hfill.o) (hf1_)
/cern/99/lib/libpacklib.a(hf1aut.o)
                              /cern/99/lib/libpacklib.a(hf1.o) (hf1aut_)
/cern/99/lib/libpacklib.a(hf2.o)
                              /cern/99/lib/libpacklib.a(hfill.o) (hf2_)
/cern/99/lib/libpacklib.a(hfcx.o)
                              /cern/99/lib/libpacklib.a(hpak.o) (hfcx_)
/cern/99/lib/libpacklib.a(hfcxy.o)
                              /cern/99/lib/libpacklib.a(hopera.o) (hfcxy_)
/cern/99/lib/libpacklib.a(hfidp.o)
                              /cern/99/lib/libpacklib.a(hfill.o) (hfidp_)
/cern/99/lib/libpacklib.a(hfind.o)
                              /cern/99/lib/libpacklib.a(hgive.o) (hfind_)
/cern/99/lib/libpacklib.a(hi.o)
                              /cern/99/lib/libpacklib.a(hrebin.o) (hi_)
/cern/99/lib/libpacklib.a(hie.o)
                              /cern/99/lib/libpacklib.a(hrebin.o) (hie_)
/cern/99/lib/libpacklib.a(hix.o)
                              /cern/99/lib/libpacklib.a(hrebin.o) (hix_)
/cern/99/lib/libpacklib.a(hlabeq.o)
                              /cern/99/lib/libpacklib.a(hopera.o) (hlabeq_)
/cern/99/lib/libpacklib.a(hmdir.o)
                              /cern/99/lib/libpacklib.a(hrout.o) (hmdir_)
/cern/99/lib/libpacklib.a(hoper1.o)
                              /cern/99/lib/libpacklib.a(hopera.o) (hoper1_)
/cern/99/lib/libpacklib.a(hoper1a.o)
                              /cern/99/lib/libpacklib.a(hopera.o) (hoper1a_)
/cern/99/lib/libpacklib.a(hnbfwr.o)
                              /cern/99/lib/libpacklib.a(hrout.o) (hnbfwr_)
/cern/99/lib/libpacklib.a(hnbuff.o)
                              /cern/99/lib/libpacklib.a(hnbfwr.o) (hnbuff_)
/cern/99/lib/libpacklib.a(hnmset.o)
                              /cern/99/lib/libpacklib.a(hntrset.o) (hnmset_)
/cern/99/lib/libpacklib.a(hntdel.o)
                              /cern/99/lib/libpacklib.a(hrendc.o) (hntdel_)
/cern/99/lib/libpacklib.a(hntmpf.o)
                              /cern/99/lib/libpacklib.a(hnbuff.o) (hntmpf_)
/cern/99/lib/libpacklib.a(fzidia.o)
                              /cern/99/lib/libpacklib.a(fzin.o) (fzidia_)
/cern/99/lib/libpacklib.a(fziffn.o)
                              /cern/99/lib/libpacklib.a(fzin.o) (fziffn_)
/cern/99/lib/libpacklib.a(fziffx.o)
                              /cern/99/lib/libpacklib.a(fzin.o) (fziffx_)
/cern/99/lib/libpacklib.a(fzilin.o)
                              /cern/99/lib/libpacklib.a(fzirel.o) (fzilin_)
/cern/99/lib/libpacklib.a(fzimtb.o)
                              /cern/99/lib/libpacklib.a(fzin.o) (fzimtb_)
/cern/99/lib/libpacklib.a(fzirec.o)
                              /cern/99/lib/libpacklib.a(fziffx.o) (fzirec_)
/cern/99/lib/libpacklib.a(fzitrn.o)
                              /cern/99/lib/libpacklib.a(fziffx.o) (fzitrn_)
/cern/99/lib/libpacklib.a(fzout.o)
                              /cern/99/lib/libpacklib.a(hrzout.o) (fzout_)
/cern/99/lib/libpacklib.a(fzitrx.o)
                              /cern/99/lib/libpacklib.a(fziffx.o) (fzitrx_)
/cern/99/lib/libpacklib.a(mzcopy.o)
                              /cern/99/lib/libpacklib.a(hcopy.o) (mzcopy_)
/cern/99/lib/libpacklib.a(mzpudx.o)
                              /cern/99/lib/libpacklib.a(mzpush.o) (mzpudx_)
/cern/99/lib/libpacklib.a(mzfgap.o)
                              /cern/99/lib/libpacklib.a(fzimtb.o) (mzfgap_)
/cern/99/lib/libpacklib.a(mzgarb.o)
                              /cern/99/lib/libpacklib.a(fzimtb.o) (mzgarb_)
/cern/99/lib/libpacklib.a(mztabc.o)
                              /cern/99/lib/libpacklib.a(mztabr.o) (mztabc_)
/cern/99/lib/libpacklib.a(mztabh.o)
                              /cern/99/lib/libpacklib.a(mztabc.o) (mztabh_)
/cern/99/lib/libpacklib.a(mzdvac.o)
                              /cern/99/lib/libpacklib.a(mzgarb.o) (mzdvac_)
/cern/99/lib/libpacklib.a(mziocf.o)
                              /cern/99/lib/libpacklib.a(mzioch.o) (mziocf_)
/cern/99/lib/libpacklib.a(mziocr.o)
                              /cern/99/lib/libpacklib.a(fziffx.o) (mziocr_)
/cern/99/lib/libpacklib.a(mzixco.o)
                              /cern/99/lib/libpacklib.a(fzimtb.o) (mzixco_)
/cern/99/lib/libpacklib.a(zabend.o)
                              /cern/99/lib/libpacklib.a(zfatal.o) (zabend_)
/cern/99/lib/libpacklib.a(zend.o)
                              /cern/99/lib/libpacklib.a(ztell.o) (zend_)
/cern/99/lib/libpacklib.a(zphase.o)
                              /cern/99/lib/libpacklib.a(zend.o) (zphase_)
/cern/99/lib/libpacklib.a(zpostm.o)
                              /cern/99/lib/libpacklib.a(zabend.o) (zpostm_)
/cern/99/lib/libpacklib.a(zhtoi.o)
                              /cern/99/lib/libpacklib.a(rzfdir.o) (zhtoi_)
/cern/99/lib/libpacklib.a(rzclos.o)
                              /cern/99/lib/libpacklib.a(hrendc.o) (rzclos_)
/cern/99/lib/libpacklib.a(rzend.o)
                              /cern/99/lib/libpacklib.a(hropen.o) (rzend_)
/cern/99/lib/libpacklib.a(rzfree.o)
                              /cern/99/lib/libpacklib.a(rzend.o) (rzfree_)
/cern/99/lib/libpacklib.a(rzmdir.o)
                              /cern/99/lib/libpacklib.a(hmdir.o) (rzmdir_)
/cern/99/lib/libpacklib.a(rzmods.o)
                              /cern/99/lib/libpacklib.a(rzmdir.o) (rzmods_)
/cern/99/lib/libpacklib.a(rzopen.o)
                              /cern/99/lib/libpacklib.a(hropen.o) (rzopen_)
/cern/99/lib/libpacklib.a(rzout.o)
                              /cern/99/lib/libpacklib.a(hrzout.o) (rzout_)
/cern/99/lib/libpacklib.a(rzstrip.o)
                              /cern/99/lib/libpacklib.a(rzstrir.o) (rzstrip_)
/cern/99/lib/libpacklib.a(rzused.o)
                              /cern/99/lib/libpacklib.a(rzmdir.o) (rzused_)
/cern/99/lib/libpacklib.a(close.o)
                              /cern/99/lib/libpacklib.a(cfclos.o) (rfio_close)
/cern/99/lib/libpacklib.a(error.o)
                              /cern/99/lib/libpacklib.a(cfget.o) (rfio_errno)
/cern/99/lib/libpacklib.a(lseek.o)
                              /cern/99/lib/libpacklib.a(cfseek.o) (rfio_lseek)
/cern/99/lib/libpacklib.a(open.o)
                              /cern/99/lib/libpacklib.a(close.o) (rfio_cleanup)
/cern/99/lib/libpacklib.a(parse.o)
                              /cern/99/lib/libpacklib.a(open.o) (rfio_parse)
/cern/99/lib/libpacklib.a(read.o)
                              /cern/99/lib/libpacklib.a(cfget.o) (rfio_read)
/cern/99/lib/libpacklib.a(serror.o)
                              /cern/99/lib/libpacklib.a(error.o) (sstrerror)
/cern/99/lib/libpacklib.a(setopt.o)
                              /cern/99/lib/libpacklib.a(open.o) (rfiosetopt)
/cern/99/lib/libpacklib.a(socket.o)
                              /cern/99/lib/libpacklib.a(close.o) (recvfunc)
/cern/99/lib/libpacklib.a(stream.o)
                              /cern/99/lib/libpacklib.a(open.o) (rfio_open_v3)
/cern/99/lib/libpacklib.a(trace.o)
                              /cern/99/lib/libpacklib.a(close.o) (print_trace)
/cern/99/lib/libpacklib.a(write.o)
                              /cern/99/lib/libpacklib.a(cfput.o) (rfio_write)
/cern/99/lib/libpacklib.a(cfopei.o)
                              /cern/99/lib/libpacklib.a(cfopen.o) (cfopei_)
/cern/99/lib/libpacklib.a(cfstat.o)
                              /cern/99/lib/libpacklib.a(rzopen.o) (cfstat_)
/cern/99/lib/libpacklib.a(fchtak.o)
                              /cern/99/lib/libpacklib.a(cfopei.o) (fchtak)
/cern/99/lib/libpacklib.a(gshowf.o)
                              /cern/99/lib/libpacklib.a(kerngt.o) (gshowf_)
/cern/99/lib/libpacklib.a(icluns.o)
                              /cern/99/lib/libpacklib.a(rzmdir.o) (icluns_)
/cern/99/lib/libpacklib.a(traceq.o)
                              /cern/99/lib/libpacklib.a(zpostm.o) (traceq_)
/cern/99/lib/libpacklib.a(xinbf.o)
                              /cern/99/lib/libpacklib.a(fziffn.o) (xinbf_)
/cern/99/lib/libpacklib.a(xinbs.o)
                              /cern/99/lib/libpacklib.a(fziffn.o) (xinbs_)
/cern/99/lib/libpacklib.a(halloc.o)
                              /cern/99/lib/libpacklib.a(hrendc.o) (hbfree_)
/cern/99/lib/libpacklib.a(hrfile.o)
                              /cern/99/lib/libpacklib.a(hropen.o) (hrfile_)
/cern/99/lib/libpacklib.a(hfc1.o)
                              /cern/99/lib/libpacklib.a(hoper1a.o) (hfc1_)
/cern/99/lib/libpacklib.a(hlccmp.o)
                              /cern/99/lib/libpacklib.a(hfc1.o) (hlccmp_)
/cern/99/lib/libpacklib.a(hlgnxt.o)
                              /cern/99/lib/libpacklib.a(hoper1a.o) (hlgnxt_)
/cern/99/lib/libpacklib.a(hlhcmp.o)
                              /cern/99/lib/libpacklib.a(hlccmp.o) (hlhcmp_)
/cern/99/lib/libpacklib.a(hlpos.o)
                              /cern/99/lib/libpacklib.a(hoper1a.o) (hlpos_)
/cern/99/lib/libpacklib.a(dzsnap.o)
                              /cern/99/lib/libpacklib.a(zpostm.o) (dzsnap_)
/cern/99/lib/libpacklib.a(dztext.o)
                              /cern/99/lib/libpacklib.a(dzsnap.o) (dztext_)
/cern/99/lib/libpacklib.a(zpage.o)
                              /cern/99/lib/libpacklib.a(dztext.o) (zpage_)
/cern/99/lib/libpacklib.a(fzipha.o)
                              /cern/99/lib/libpacklib.a(fzirec.o) (fzipha_)
/cern/99/lib/libpacklib.a(fziphd.o)
                              /cern/99/lib/libpacklib.a(fzirec.o) (fziphd_)
/cern/99/lib/libpacklib.a(fziphm.o)
                              /cern/99/lib/libpacklib.a(fzirec.o) (fziphm_)
/cern/99/lib/libpacklib.a(fziphr.o)
                              /cern/99/lib/libpacklib.a(fzirec.o) (fziphr_)
/cern/99/lib/libpacklib.a(fziprl.o)
                              /cern/99/lib/libpacklib.a(fziphm.o) (fziprl_)
/cern/99/lib/libpacklib.a(fzoffn.o)
                              /cern/99/lib/libpacklib.a(fzout.o) (fzoffn_)
/cern/99/lib/libpacklib.a(fzoffx.o)
                              /cern/99/lib/libpacklib.a(fzout.o) (fzoffx_)
/cern/99/lib/libpacklib.a(fzon1.o)
                              /cern/99/lib/libpacklib.a(fzoffn.o) (fzon1_)
/cern/99/lib/libpacklib.a(fzon2.o)
                              /cern/99/lib/libpacklib.a(fzoffn.o) (fzon2_)
/cern/99/lib/libpacklib.a(fzon3.o)
                              /cern/99/lib/libpacklib.a(fzoffn.o) (fzon3_)
/cern/99/lib/libpacklib.a(fzon4.o)
                              /cern/99/lib/libpacklib.a(fzoffn.o) (fzon4_)
/cern/99/lib/libpacklib.a(fzon5.o)
                              /cern/99/lib/libpacklib.a(fzoffn.o) (fzon5_)
/cern/99/lib/libpacklib.a(fzon6.o)
                              /cern/99/lib/libpacklib.a(fzoffn.o) (fzon6_)
/cern/99/lib/libpacklib.a(fzorec.o)
                              /cern/99/lib/libpacklib.a(fzoffx.o) (fzorec_)
/cern/99/lib/libpacklib.a(fzotab.o)
                              /cern/99/lib/libpacklib.a(fzout.o) (fzotab_)
/cern/99/lib/libpacklib.a(fzotrn.o)
                              /cern/99/lib/libpacklib.a(fzoffx.o) (fzotrn_)
/cern/99/lib/libpacklib.a(fzotxt.o)
                              /cern/99/lib/libpacklib.a(fzout.o) (fzotxt_)
/cern/99/lib/libpacklib.a(fzicv.o)
                              /cern/99/lib/libpacklib.a(fzitrx.o) (fzicv_)
/cern/99/lib/libpacklib.a(fzotrx.o)
                              /cern/99/lib/libpacklib.a(fzoffx.o) (fzotrx_)
/cern/99/lib/libpacklib.a(mzend.o)
                              /cern/99/lib/libpacklib.a(zend.o) (mzend_)
/cern/99/lib/libpacklib.a(mzmaps.o)
                              /cern/99/lib/libpacklib.a(zpostm.o) (mzmaps_)
/cern/99/lib/libpacklib.a(mzmark.o)
                              /cern/99/lib/libpacklib.a(fzotab.o) (mzmark_)
/cern/99/lib/libpacklib.a(mzwork.o)
                              /cern/99/lib/libpacklib.a(zphase.o) (mzwork_)
/cern/99/lib/libpacklib.a(zitoh.o)
                              /cern/99/lib/libpacklib.a(rzclos.o) (zitoh_)
/cern/99/lib/libpacklib.a(rzallo.o)
                              /cern/99/lib/libpacklib.a(rzmdir.o) (rzallo_)
/cern/99/lib/libpacklib.a(rzdelk.o)
                              /cern/99/lib/libpacklib.a(rzout.o) (rzdelk_)
/cern/99/lib/libpacklib.a(rzexpd.o)
                              /cern/99/lib/libpacklib.a(rzmdir.o) (rzexpd_)
/cern/99/lib/libpacklib.a(rzfile.o)
                              /cern/99/lib/libpacklib.a(hrfile.o) (rzfile_)
/cern/99/lib/libpacklib.a(rzllok.o)
                              /cern/99/lib/libpacklib.a(rzfile.o) (rzllok_)
/cern/99/lib/libpacklib.a(rzlock.o)
                              /cern/99/lib/libpacklib.a(rzfile.o) (rzlock_)
/cern/99/lib/libpacklib.a(rzmake.o)
                              /cern/99/lib/libpacklib.a(hrfile.o) (rzmake_)
/cern/99/lib/libpacklib.a(rzobkn.o)
                              /cern/99/lib/libpacklib.a(rzout.o) (rzobkn_)
/cern/99/lib/libpacklib.a(rzpurf.o)
                              /cern/99/lib/libpacklib.a(rzdelk.o) (rzpurf_)
/cern/99/lib/libpacklib.a(rzveri.o)
                              /cern/99/lib/libpacklib.a(rzfile.o) (rzveri_)
/cern/99/lib/libpacklib.a(rzwrt.o)
                              /cern/99/lib/libpacklib.a(rzobkn.o) (rzwrt_)
/cern/99/lib/libpacklib.a(connect.o)
                              /cern/99/lib/libpacklib.a(error.o) (rfio_connect)
/cern/99/lib/libpacklib.a(getacct.o)
                              /cern/99/lib/libpacklib.a(open.o) (getacct)
/cern/99/lib/libpacklib.a(getacctent.o)
                              /cern/99/lib/libpacklib.a(getacct.o) (getacctent)
/cern/99/lib/libpacklib.a(getconfent.o)
                              /cern/99/lib/libpacklib.a(open.o) (getconfent)
/cern/99/lib/libpacklib.a(getifnam.o)
                              /cern/99/lib/libpacklib.a(read.o) (getifnam)
/cern/99/lib/libpacklib.a(log.o)
                              /cern/99/lib/libpacklib.a(socket.o) (logfunc)
/cern/99/lib/libpacklib.a(remote.o)
                              /cern/99/lib/libpacklib.a(stream.o) (isremote)
/cern/99/lib/libpacklib.a(setnetio.o)
                              /cern/99/lib/libpacklib.a(stream.o) (setnetio)
/cern/99/lib/libpacklib.a(vxinvc.o)
                              /cern/99/lib/libpacklib.a(fziphm.o) (vxinvc_)
/cern/99/lib/libpacklib.a(cfstati.o)
                              /cern/99/lib/libpacklib.a(cfstat.o) (cfstati_)
/cern/99/lib/libpacklib.a(dzare1.o)
                              /cern/99/lib/libpacklib.a(dzsnap.o) (dzare1_)
/cern/99/lib/libpacklib.a(dzbkup.o)
                              /cern/99/lib/libpacklib.a(dzsnap.o) (dzbkup_)
/cern/99/lib/libpacklib.a(dzbkxr.o)
                              /cern/99/lib/libpacklib.a(dzsnap.o) (dzbkxr_)
/cern/99/lib/libpacklib.a(dzdata.o)
                              /cern/99/lib/libpacklib.a(dzsnap.o) (dzdata_)
/cern/99/lib/libpacklib.a(dzmap.o)
                              /cern/99/lib/libpacklib.a(dzsnap.o) (dzmap_)
/cern/99/lib/libpacklib.a(dzopt.o)
                              /cern/99/lib/libpacklib.a(dzsnap.o) (dzopt_)
/cern/99/lib/libpacklib.a(dzshpr.o)
                              /cern/99/lib/libpacklib.a(dzmap.o) (dzshpr_)
/cern/99/lib/libpacklib.a(dztyp.o)
                              /cern/99/lib/libpacklib.a(dzdata.o) (dztyp_)
/cern/99/lib/libpacklib.a(fziasc.o)
                              /cern/99/lib/libpacklib.a(fzipha.o) (fziasc_)
/cern/99/lib/libpacklib.a(fzichh.o)
                              /cern/99/lib/libpacklib.a(fzipha.o) (fzichh_)
/cern/99/lib/libpacklib.a(fzidum.o)
                              /cern/99/lib/libpacklib.a(fzipha.o) (fzidum_)
/cern/99/lib/libpacklib.a(fzophr.o)
                              /cern/99/lib/libpacklib.a(fzorec.o) (fzophr_)
/cern/99/lib/libpacklib.a(fzocv.o)
                              /cern/99/lib/libpacklib.a(fzotrx.o) (fzocv_)
/cern/99/lib/libpacklib.a(izbcd.o)
                              /cern/99/lib/libpacklib.a(dztyp.o) (izbcd_)
/cern/99/lib/libpacklib.a(rzdlok.o)
                              /cern/99/lib/libpacklib.a(rzfile.o) (rzdlok_)
/cern/99/lib/libpacklib.a(rzver1.o)
                              /cern/99/lib/libpacklib.a(rzveri.o) (rzver1_)
/cern/99/lib/libpacklib.a(rzver2.o)
                              /cern/99/lib/libpacklib.a(rzver1.o) (rzver2_)
/cern/99/lib/libpacklib.a(stat.o)
                              /cern/99/lib/libpacklib.a(cfstati.o) (rfio_stat)
/cern/99/lib/libpacklib.a(cfweof.o)
                              /cern/99/lib/libpacklib.a(fzophr.o) (cfweof_)
/cern/99/lib/libpacklib.a(iumode.o)
                              /cern/99/lib/libpacklib.a(dztyp.o) (iumode_)
/cern/99/lib/libpacklib.a(iufind.o)
                              /cern/99/lib/libpacklib.a(rzver1.o) (iufind_)
/cern/99/lib/libpacklib.a(iusame.o)
                              /cern/99/lib/libpacklib.a(dzdata.o) (iusame_)
/cern/99/lib/libpacklib.a(jrsbyt.o)
                              /cern/99/lib/libpacklib.a(dzmap.o) (jrsbyt_)
/cern/99/lib/libpacklib.a(ucopiv.o)
                              /cern/99/lib/libpacklib.a(dzshpr.o) (ucopiv_)
/cern/99/lib/libpacklib.a(dzbkdv.o)
                              /cern/99/lib/libpacklib.a(dzbkup.o) (dzbkdv_)
/cern/99/lib/libpacklib.a(dzbkhd.o)
                              /cern/99/lib/libpacklib.a(dzmap.o) (dzbkhd_)
/cern/99/lib/libpacklib.a(dziopr.o)
                              /cern/99/lib/libpacklib.a(dzshpr.o) (dziopr_)
/cern/99/lib/libpacklib.a(fzialn.o)
                              /cern/99/lib/libpacklib.a(fziasc.o) (fzialn_)
/cern/99/lib/libpacklib.a(fzoasc.o)
                              /cern/99/lib/libpacklib.a(fzophr.o) (fzoasc_)
/cern/99/lib/libpacklib.a(izchav.o)
                              /cern/99/lib/libpacklib.a(fzialn.o) (izchav_)
/cern/99/lib/libpacklib.a(rzprnk.o)
                              /cern/99/lib/libpacklib.a(rzver1.o) (rzprnk_)
/cern/99/lib/libpacklib.a(mstat.o)
                              /cern/99/lib/libpacklib.a(stat.o) (rfio_smstat)
/cern/99/lib/libpacklib.a(dziopd.o)
                              /cern/99/lib/libpacklib.a(dziopr.o) (dziopd_)
/cern/99/lib/libpacklib.a(dzioph.o)
                              /cern/99/lib/libpacklib.a(dziopr.o) (dzioph_)
/cern/99/lib/libpacklib.a(fzoaln.o)
                              /cern/99/lib/libpacklib.a(fzoasc.o) (fzoaln_)
/cern/99/lib/libpacklib.a(fzoapk.o)
                              /cern/99/lib/libpacklib.a(fzoasc.o) (fzoapk_)
/cern/99/lib/libpacklib.a(uh1toc.o)
                              /cern/99/lib/libpacklib.a(fzoaln.o) (uh1toc_)
/cern/99/lib/libmathlib.a(dsyev.o)
                              /home/pcl2483/pedro/jadesoft/util/mcgen/Plib/libpx114.a(pxjsp3.o) (dsyev_)
/cern/99/lib/libmathlib.a(dsytrd.o)
                              /cern/99/lib/libmathlib.a(dsyev.o) (dsytrd_)
/cern/99/lib/libmathlib.a(ilaenv.o)
                              /cern/99/lib/libmathlib.a(dsytrd.o) (ilaenv_)
/cern/99/lib/libmathlib.a(lsame.o)
                              /cern/99/lib/libmathlib.a(dsyev.o) (lsame_)
/cern/99/lib/libmathlib.a(xerbla.o)
                              /cern/99/lib/libmathlib.a(dsyev.o) (xerbla_)
/cern/99/lib/libmathlib.a(dscal.o)
                              /cern/99/lib/libmathlib.a(dsyev.o) (dscal_)
/cern/99/lib/libmathlib.a(dsyr2k.o)
                              /cern/99/lib/libmathlib.a(dsytrd.o) (dsyr2k_)
/cern/99/lib/libmathlib.a(dlamch.o)
                              /cern/99/lib/libmathlib.a(dsyev.o) (dlamch_)
/cern/99/lib/libmathlib.a(dlansy.o)
                              /cern/99/lib/libmathlib.a(dsyev.o) (dlansy_)
/cern/99/lib/libmathlib.a(dlascl.o)
                              /cern/99/lib/libmathlib.a(dsyev.o) (dlascl_)
/cern/99/lib/libmathlib.a(dlassq.o)
                              /cern/99/lib/libmathlib.a(dlansy.o) (dlassq_)
/cern/99/lib/libmathlib.a(dlatrd.o)
                              /cern/99/lib/libmathlib.a(dsytrd.o) (dlatrd_)
/cern/99/lib/libmathlib.a(dorgtr.o)
                              /cern/99/lib/libmathlib.a(dsyev.o) (dorgtr_)
/cern/99/lib/libmathlib.a(dsteqr.o)
                              /cern/99/lib/libmathlib.a(dsyev.o) (dsteqr_)
/cern/99/lib/libmathlib.a(dsterf.o)
                              /cern/99/lib/libmathlib.a(dsyev.o) (dsterf_)
/cern/99/lib/libmathlib.a(dsytd2.o)
                              /cern/99/lib/libmathlib.a(dsytrd.o) (dsytd2_)
/cern/99/lib/libmathlib.a(daxpy.o)
                              /cern/99/lib/libmathlib.a(dlatrd.o) (daxpy_)
/cern/99/lib/libmathlib.a(ddot.o)
                              /cern/99/lib/libmathlib.a(dlatrd.o) (ddot_)
/cern/99/lib/libmathlib.a(dgemv.o)
                              /cern/99/lib/libmathlib.a(dlatrd.o) (dgemv_)
/cern/99/lib/libmathlib.a(dswap.o)
                              /cern/99/lib/libmathlib.a(dsteqr.o) (dswap_)
/cern/99/lib/libmathlib.a(dsymv.o)
                              /cern/99/lib/libmathlib.a(dlatrd.o) (dsymv_)
/cern/99/lib/libmathlib.a(dsyr2.o)
                              /cern/99/lib/libmathlib.a(dsytd2.o) (dsyr2_)
/cern/99/lib/libmathlib.a(dlae2.o)
                              /cern/99/lib/libmathlib.a(dsteqr.o) (dlae2_)
/cern/99/lib/libmathlib.a(dlaev2.o)
                              /cern/99/lib/libmathlib.a(dsteqr.o) (dlaev2_)
/cern/99/lib/libmathlib.a(dlanst.o)
                              /cern/99/lib/libmathlib.a(dsteqr.o) (dlanst_)
/cern/99/lib/libmathlib.a(dlapy2.o)
                              /cern/99/lib/libmathlib.a(dsteqr.o) (dlapy2_)
/cern/99/lib/libmathlib.a(dlarfg.o)
                              /cern/99/lib/libmathlib.a(dlatrd.o) (dlarfg_)
/cern/99/lib/libmathlib.a(dlartg.o)
                              /cern/99/lib/libmathlib.a(dsteqr.o) (dlartg_)
/cern/99/lib/libmathlib.a(dlaset.o)
                              /cern/99/lib/libmathlib.a(dsteqr.o) (dlaset_)
/cern/99/lib/libmathlib.a(dlasr.o)
                              /cern/99/lib/libmathlib.a(dsteqr.o) (dlasr_)
/cern/99/lib/libmathlib.a(dlasrt.o)
                              /cern/99/lib/libmathlib.a(dsteqr.o) (dlasrt_)
/cern/99/lib/libmathlib.a(dorgql.o)
                              /cern/99/lib/libmathlib.a(dorgtr.o) (dorgql_)
/cern/99/lib/libmathlib.a(dorgqr.o)
                              /cern/99/lib/libmathlib.a(dorgtr.o) (dorgqr_)
/cern/99/lib/libmathlib.a(dnrm2.o)
                              /cern/99/lib/libmathlib.a(dlarfg.o) (dnrm2_)
/cern/99/lib/libmathlib.a(dlarfb.o)
                              /cern/99/lib/libmathlib.a(dorgql.o) (dlarfb_)
/cern/99/lib/libmathlib.a(dlarft.o)
                              /cern/99/lib/libmathlib.a(dorgql.o) (dlarft_)
/cern/99/lib/libmathlib.a(dorg2l.o)
                              /cern/99/lib/libmathlib.a(dorgql.o) (dorg2l_)
/cern/99/lib/libmathlib.a(dorg2r.o)
                              /cern/99/lib/libmathlib.a(dorgqr.o) (dorg2r_)
/cern/99/lib/libmathlib.a(dcopy.o)
                              /cern/99/lib/libmathlib.a(dlarfb.o) (dcopy_)
/cern/99/lib/libmathlib.a(dgemm.o)
                              /cern/99/lib/libmathlib.a(dlarfb.o) (dgemm_)
/cern/99/lib/libmathlib.a(dtrmm.o)
                              /cern/99/lib/libmathlib.a(dlarfb.o) (dtrmm_)
/cern/99/lib/libmathlib.a(dtrmv.o)
                              /cern/99/lib/libmathlib.a(dlarft.o) (dtrmv_)
/cern/99/lib/libmathlib.a(dlarf.o)
                              /cern/99/lib/libmathlib.a(dorg2l.o) (dlarf_)
/cern/99/lib/libmathlib.a(dger.o)
                              /cern/99/lib/libmathlib.a(dlarf.o) (dger_)
/usr/lib/libc_nonshared.a(atexit.oS)
                              /lib/libnsl.so.1 (atexit)
/usr/lib/gcc-lib/i686-pc-linux-gnu/2.95.3/libg2c.a(close.o)
                              mchw58d_105j.o (f_clos)
/usr/lib/gcc-lib/i686-pc-linux-gnu/2.95.3/libg2c.a(dolio.o)
                              mchw58d_105j.o (do_lio)
/usr/lib/gcc-lib/i686-pc-linux-gnu/2.95.3/libg2c.a(due.o)
                              /cern/99/lib/libpacklib.a(rziodo.o) (s_rdue)
/usr/lib/gcc-lib/i686-pc-linux-gnu/2.95.3/libg2c.a(endfile.o)
                              /cern/99/lib/libpacklib.a(fzoffn.o) (f_end)
/usr/lib/gcc-lib/i686-pc-linux-gnu/2.95.3/libg2c.a(err.o)
                              /usr/lib/gcc-lib/i686-pc-linux-gnu/2.95.3/libg2c.a(close.o) (f__fatal)
/usr/lib/gcc-lib/i686-pc-linux-gnu/2.95.3/libg2c.a(fmt.o)
                              mchw58d_105j.o (do_fio)
/usr/lib/gcc-lib/i686-pc-linux-gnu/2.95.3/libg2c.a(iio.o)
                              /cern/99/lib/libpacklib.a(hlogpf.o) (s_rsfi)
/usr/lib/gcc-lib/i686-pc-linux-gnu/2.95.3/libg2c.a(inquire.o)
                              /cern/99/lib/libpacklib.a(rzopen.o) (f_inqu)
/usr/lib/gcc-lib/i686-pc-linux-gnu/2.95.3/libg2c.a(lread.o)
                              /cern/99/lib/libpacklib.a(rzstrip.o) (e_rsle)
/usr/lib/gcc-lib/i686-pc-linux-gnu/2.95.3/libg2c.a(open.o)
                              /usr/lib/gcc-lib/i686-pc-linux-gnu/2.95.3/libg2c.a(endfile.o) (f__r_mode)
/usr/lib/gcc-lib/i686-pc-linux-gnu/2.95.3/libg2c.a(rdfmt.o)
                              /usr/lib/gcc-lib/i686-pc-linux-gnu/2.95.3/libg2c.a(iio.o) (rd_ed)
/usr/lib/gcc-lib/i686-pc-linux-gnu/2.95.3/libg2c.a(rewind.o)
                              /home/pcl2483/pedro/jadesoft/util/mcgen/Plib/libmc105j.a(mcrnst.o) (f_rew)
/usr/lib/gcc-lib/i686-pc-linux-gnu/2.95.3/libg2c.a(rsfe.o)
                              /usr/lib/gcc-lib/i686-pc-linux-gnu/2.95.3/libg2c.a(lread.o) (xrd_SL)
/usr/lib/gcc-lib/i686-pc-linux-gnu/2.95.3/libg2c.a(sfe.o)
                              /home/pcl2483/pedro/jadesoft/util/mcgen/Plib/libmc105j.a(mcrnst.o) (e_rsfe)
/usr/lib/gcc-lib/i686-pc-linux-gnu/2.95.3/libg2c.a(sue.o)
                              /home/pcl2483/pedro/jadesoft/util/mcgen/Plib/libherwig58d.a(hwbsud.o) (s_rsue)
/usr/lib/gcc-lib/i686-pc-linux-gnu/2.95.3/libg2c.a(uio.o)
                              /usr/lib/gcc-lib/i686-pc-linux-gnu/2.95.3/libg2c.a(sue.o) (f__reclen)
/usr/lib/gcc-lib/i686-pc-linux-gnu/2.95.3/libg2c.a(util.o)
                              /usr/lib/gcc-lib/i686-pc-linux-gnu/2.95.3/libg2c.a(inquire.o) (g_char)
/usr/lib/gcc-lib/i686-pc-linux-gnu/2.95.3/libg2c.a(wrtfmt.o)
                              /usr/lib/gcc-lib/i686-pc-linux-gnu/2.95.3/libg2c.a(iio.o) (w_ed)
/usr/lib/gcc-lib/i686-pc-linux-gnu/2.95.3/libg2c.a(wsfe.o)
                              mchw58d_105j.o (s_wsfe)
/usr/lib/gcc-lib/i686-pc-linux-gnu/2.95.3/libg2c.a(wsle.o)
                              mchw58d_105j.o (s_wsle)
/usr/lib/gcc-lib/i686-pc-linux-gnu/2.95.3/libg2c.a(main.o)
                              /usr/lib/crt1.o (main)
/usr/lib/gcc-lib/i686-pc-linux-gnu/2.95.3/libg2c.a(s_stop.o)
                              mchw58d_105j.o (s_stop)
/usr/lib/gcc-lib/i686-pc-linux-gnu/2.95.3/libg2c.a(sig_die.o)
                              /usr/lib/gcc-lib/i686-pc-linux-gnu/2.95.3/libg2c.a(err.o) (sig_die)
/usr/lib/gcc-lib/i686-pc-linux-gnu/2.95.3/libg2c.a(setarg.o)
                              /usr/lib/gcc-lib/i686-pc-linux-gnu/2.95.3/libg2c.a(main.o) (f_setarg)
/usr/lib/gcc-lib/i686-pc-linux-gnu/2.95.3/libg2c.a(setsig.o)
                              /usr/lib/gcc-lib/i686-pc-linux-gnu/2.95.3/libg2c.a(main.o) (f_setsig)
/usr/lib/gcc-lib/i686-pc-linux-gnu/2.95.3/libg2c.a(pow_dd.o)
                              mchw58d_105j.o (pow_dd)
/usr/lib/gcc-lib/i686-pc-linux-gnu/2.95.3/libg2c.a(pow_zz.o)
                              /home/pcl2483/pedro/jadesoft/util/mcgen/Plib/libherwig58d.a(hwbded.o) (pow_zz)
/usr/lib/gcc-lib/i686-pc-linux-gnu/2.95.3/libg2c.a(c_abs.o)
                              /home/pcl2483/pedro/jadesoft/util/mcgen/Plib/libjt74opal.a(dph5pi.o) (c_abs)
/usr/lib/gcc-lib/i686-pc-linux-gnu/2.95.3/libg2c.a(z_log.o)
                              /home/pcl2483/pedro/jadesoft/util/mcgen/Plib/libherwig58d.a(hwhigb.o) (z_log)
/usr/lib/gcc-lib/i686-pc-linux-gnu/2.95.3/libg2c.a(z_sqrt.o)
                              /home/pcl2483/pedro/jadesoft/util/mcgen/Plib/libherwig58d.a(hwhigy.o) (z_sqrt)
/usr/lib/gcc-lib/i686-pc-linux-gnu/2.95.3/libg2c.a(r_lg10.o)
                              mchw58d_105j.o (r_lg10)
/usr/lib/gcc-lib/i686-pc-linux-gnu/2.95.3/libg2c.a(r_mod.o)
                              /cern/99/lib/libpacklib.a(hf1aut.o) (r_mod)
/usr/lib/gcc-lib/i686-pc-linux-gnu/2.95.3/libg2c.a(i_indx.o)
                              /home/pcl2483/pedro/jadesoft/util/mcgen/Plib/libmc105j.a(mcgetf.o) (i_indx)
/usr/lib/gcc-lib/i686-pc-linux-gnu/2.95.3/libg2c.a(l_gt.o)
                              /cern/99/lib/libpacklib.a(fffind.o) (l_gt)
/usr/lib/gcc-lib/i686-pc-linux-gnu/2.95.3/libg2c.a(l_lt.o)
                              /cern/99/lib/libpacklib.a(fffind.o) (l_lt)
/usr/lib/gcc-lib/i686-pc-linux-gnu/2.95.3/libg2c.a(s_cat.o)
                              mchw58d_105j.o (s_cat)
/usr/lib/gcc-lib/i686-pc-linux-gnu/2.95.3/libg2c.a(s_cmp.o)
                              /home/pcl2483/pedro/jadesoft/util/mcgen/Plib/libherwig58d.a(hwsfun.o) (s_cmp)
/usr/lib/gcc-lib/i686-pc-linux-gnu/2.95.3/libg2c.a(s_copy.o)
                              mchw58d_105j.o (s_copy)
/usr/lib/gcc-lib/i686-pc-linux-gnu/2.95.3/libg2c.a(lnblnk_.o)
                              /cern/99/lib/libpacklib.a(cfopen.o) (G77_lnblnk_0)
/usr/lib/gcc-lib/i686-pc-linux-gnu/2.95.3/libg2c.a(fmtlib.o)
                              /usr/lib/gcc-lib/i686-pc-linux-gnu/2.95.3/libg2c.a(wrtfmt.o) (f__icvt)
/usr/lib/gcc-lib/i686-pc-linux-gnu/2.95.3/libg2c.a(lwrite.o)
                              /usr/lib/gcc-lib/i686-pc-linux-gnu/2.95.3/libg2c.a(wsle.o) (L_len)
/usr/lib/gcc-lib/i686-pc-linux-gnu/2.95.3/libg2c.a(wref.o)
                              /usr/lib/gcc-lib/i686-pc-linux-gnu/2.95.3/libg2c.a(wrtfmt.o) (wrt_E)
/usr/lib/gcc-lib/i686-pc-linux-gnu/2.95.3/libg2c.a(F77_aloc.o)
                              /usr/lib/gcc-lib/i686-pc-linux-gnu/2.95.3/libg2c.a(s_cat.o) (F77_aloc)
/usr/lib/gcc-lib/i686-pc-linux-gnu/2.95.3/libg2c.a(cabs.o)
                              /usr/lib/gcc-lib/i686-pc-linux-gnu/2.95.3/libg2c.a(pow_zz.o) (f__cabs)
/usr/lib/gcc-lib/i686-pc-linux-gnu/2.95.3/libg2c.a(exit_.o)
                              /usr/lib/gcc-lib/i686-pc-linux-gnu/2.95.3/libg2c.a(F77_aloc.o) (G77_exit_0)

Allocating common symbols
Common symbol       size              file

taubra_             0xf4              /home/pcl2483/pedro/jadesoft/util/mcgen/Plib/libjt74opal.a(initdk.o)
ffchar_             0x84              /cern/99/lib/libpacklib.a(ffgo.o)
hcpia1_             0x440             /cern/99/lib/libpacklib.a(hcdir.o)
zceta_              0x800             /cern/99/lib/libpacklib.a(mzebra.o)
hcset_              0x4               /cern/99/lib/libpacklib.a(hmachi.o)
hwbeam_             0x10              /home/pcl2483/pedro/jadesoft/util/mcgen/Plib/libherwig58d.a(fxhlms.o)
hcform_             0x34              /cern/99/lib/libpacklib.a(hbook1.o)
pawc_               0xc3500           mchw58d_105j.o
mzca_               0x1c8             /cern/99/lib/libpacklib.a(fzin.o)
f__ltype            0x4               /usr/lib/gcc-lib/i686-pc-linux-gnu/2.95.3/libg2c.a(lread.o)
zbcdch_             0x60              /cern/99/lib/libpacklib.a(mzebra.o)
idfc_               0x4               /home/pcl2483/pedro/jadesoft/util/mcgen/Plib/libjt74opal.a(dexay.o)
ztellc_             0x8               /cern/99/lib/libpacklib.a(ztell.o)
czsock_             0xe10             /cern/99/lib/libpacklib.a(czgeta.o)
f__recloc           0x4               /usr/lib/gcc-lib/i686-pc-linux-gnu/2.95.3/libg2c.a(sue.o)
rzcount_            0x8               /cern/99/lib/libpacklib.a(mzebra.o)
jaki_               0x14              /home/pcl2483/pedro/jadesoft/util/mcgen/Plib/libjt74opal.a(dexay.o)
hcmail_             0x80              /cern/99/lib/libpacklib.a(hbug.o)
f__icnum            0x4               /usr/lib/gcc-lib/i686-pc-linux-gnu/2.95.3/libg2c.a(iio.o)
f(short, void, int, char)
                    0x4               /usr/lib/gcc-lib/i686-pc-linux-gnu/2.95.3/libg2c.a(err.o)
f__hiwater          0x4               /usr/lib/gcc-lib/i686-pc-linux-gnu/2.95.3/libg2c.a(err.o)
cfread_             0x87c             /cern/99/lib/libpacklib.a(ffgo.o)
f(long double,  *)  0x4               /usr/lib/gcc-lib/i686-pc-linux-gnu/2.95.3/libg2c.a(fmt.o)
f__nonl             0x4               /usr/lib/gcc-lib/i686-pc-linux-gnu/2.95.3/libg2c.a(fmt.o)
mzioc_              0x350             /cern/99/lib/libpacklib.a(fziffx.o)
hcqcom_             0x2ff8            /cern/99/lib/libpacklib.a(hqputf.o)
goxtra_             0x194             /home/pcl2483/pedro/jadesoft/util/mcgen/Plib/libjt74opal.a(luzdis.o)
zkrakc_             0x508             /cern/99/lib/libpacklib.a(mzform.o)
hwhewr_             0x2440            /home/pcl2483/pedro/jadesoft/util/mcgen/Plib/libherwig58d.a(hwheww.o)
f__putn             0x4               /usr/lib/gcc-lib/i686-pc-linux-gnu/2.95.3/libg2c.a(err.o)
gujets_             0x3a984           mchw58d_105j.o
hwshwr_             0x5dc8            /home/pcl2483/pedro/jadesoft/util/mcgen/Plib/libherwig58d.a(hwbgen.o)
zheadp_             0x6c              /cern/99/lib/libpacklib.a(mzebra.o)
hwhewq_             0x498             /home/pcl2483/pedro/jadesoft/util/mcgen/Plib/libherwig58d.a(hwheww.o)
zvfaut_             0x48              /cern/99/lib/libpacklib.a(fzin.o)
f__fmtlen           0x4               /usr/lib/gcc-lib/i686-pc-linux-gnu/2.95.3/libg2c.a(err.o)
hwdbug_             0x4               /home/pcl2483/pedro/jadesoft/util/mcgen/Plib/libherwig58d.a(hwufne.o)
rzcl_               0x2c              /cern/99/lib/libpacklib.a(rzcdir.o)
mzct_               0xd4              /cern/99/lib/libpacklib.a(fzin.o)
dzc1ch_             0x55d             /cern/99/lib/libpacklib.a(dzsnap.o)
pypars_             0xc80             /home/pcl2483/pedro/jadesoft/util/mcgen/Plib/libjt74opal.a(lulogo.o)
hpevt_              0x260             /home/pcl2483/pedro/jadesoft/util/mcgen/Plib/libjt74opal.a(ludecy.o)
hcpiaf_             0x150             /cern/99/lib/libpacklib.a(hcdir.o)
taurad_             0xc               /home/pcl2483/pedro/jadesoft/util/mcgen/Plib/libjt74opal.a(initdk.o)
f__elist            0x4               /usr/lib/gcc-lib/i686-pc-linux-gnu/2.95.3/libg2c.a(err.o)
hcverc_             0xa               /cern/99/lib/libpacklib.a(hmachi.o)
hcvers_             0x84              /cern/99/lib/libpacklib.a(hmachi.o)
hwhewp_             0x3c0             /home/pcl2483/pedro/jadesoft/util/mcgen/Plib/libherwig58d.a(hwheww.o)
rzckey_             0x3f4             /cern/99/lib/libpacklib.a(rzopen.o)
rzcycle_            0x28              /cern/99/lib/libpacklib.a(rzfdir.o)
parmas_             0x40              /home/pcl2483/pedro/jadesoft/util/mcgen/Plib/libjt74opal.a(initdk.o)
mzcc_               0x694             /cern/99/lib/libpacklib.a(fzin.o)
f__sequential       0x4               /usr/lib/gcc-lib/i686-pc-linux-gnu/2.95.3/libg2c.a(err.o)
l_getc              0x4               /usr/lib/gcc-lib/i686-pc-linux-gnu/2.95.3/libg2c.a(lread.o)
hwarea_             0x2d8             /home/pcl2483/pedro/jadesoft/util/mcgen/Plib/libherwig58d.a(hwhbgf.o)
rzbuff_             0x8800            /cern/99/lib/libpacklib.a(rziodo.o)
fzhci_              0x28              /cern/99/lib/libpacklib.a(fzipha.o)
chcprd_             0x3200            /home/pcl2483/pedro/jadesoft/util/mcgen/Plib/libmc105j.a(evwrtj.o)
hw58op_             0x8               /home/pcl2483/pedro/jadesoft/util/mcgen/Plib/libherwig58d.a(hwhepa.o)
serrno              0x4               /cern/99/lib/libpacklib.a(serror.o)
decpar_             0x18              /home/pcl2483/pedro/jadesoft/util/mcgen/Plib/libjt74opal.a(initdk.o)
f__fmtbuf           0x4               /usr/lib/gcc-lib/i686-pc-linux-gnu/2.95.3/libg2c.a(err.o)
hcnt_               0x10              /cern/99/lib/libpacklib.a(hmachi.o)
hcqcod_             0xfa0             /cern/99/lib/libpacklib.a(hqputf.o)
hcfile_             0xfa0             /cern/99/lib/libpacklib.a(hcdir.o)
rzdirc_             0x12c0            /cern/99/lib/libpacklib.a(rzcdir.o)
f__Aquote           0x4               /usr/lib/gcc-lib/i686-pc-linux-gnu/2.95.3/libg2c.a(lwrite.o)
jzuc_               0x40              /cern/99/lib/libpacklib.a(mzebra.o)
rzcstri_            0x604             /cern/99/lib/libpacklib.a(mzebra.o)
znatur_             0x10              /cern/99/lib/libpacklib.a(mzebra.o)
fzcx_               0x11c             /cern/99/lib/libpacklib.a(fzloc.o)
zstate_             0x40              /cern/99/lib/libpacklib.a(fzloc.o)
taukle_             0x10              /home/pcl2483/pedro/jadesoft/util/mcgen/Plib/libjt74opal.a(dwluks.o)
decmp2_             0x429             /home/pcl2483/pedro/jadesoft/util/mcgen/Plib/libjt74opal.a(dexay.o)
f__lioproc          0x4               /usr/lib/gcc-lib/i686-pc-linux-gnu/2.95.3/libg2c.a(lread.o)
fzcocc_             0xa4              /cern/99/lib/libpacklib.a(fzin.o)
f__parenlvl         0x4               /usr/lib/gcc-lib/i686-pc-linux-gnu/2.95.3/libg2c.a(fmt.o)
ckcom_              0x10b3c           /home/pcl2483/pedro/jadesoft/util/mcgen/Plib/libckern105.a(ckern.o)
l_ungetc            0x4               /usr/lib/gcc-lib/i686-pc-linux-gnu/2.95.3/libg2c.a(lread.o)
f__getn             0x4               /usr/lib/gcc-lib/i686-pc-linux-gnu/2.95.3/libg2c.a(err.o)
hwparc_             0x1f40            /home/pcl2483/pedro/jadesoft/util/mcgen/Plib/libherwig58d.a(fxhlms.o)
gswprm_             0x30              /home/pcl2483/pedro/jadesoft/util/mcgen/Plib/libjt74opal.a(initdk.o)
l_eof               0x4               /usr/lib/gcc-lib/i686-pc-linux-gnu/2.95.3/libg2c.a(lread.o)
yint_               0x4e2c            /home/pcl2483/pedro/jadesoft/util/mcgen/Plib/libpx114.a(ykern.o)
hcrecv_             0x4               /cern/99/lib/libpacklib.a(hmachi.o)
zunitz_             0x10              /cern/99/lib/libpacklib.a(fzin.o)
f__curunit          0x4               /usr/lib/gcc-lib/i686-pc-linux-gnu/2.95.3/libg2c.a(err.o)
L_len               0x4               /usr/lib/gcc-lib/i686-pc-linux-gnu/2.95.3/libg2c.a(lwrite.o)
f__doned            0x4               /usr/lib/gcc-lib/i686-pc-linux-gnu/2.95.3/libg2c.a(err.o)
hcbook_             0xcc              /cern/99/lib/libpacklib.a(hbook1.o)
cprod_              0x7560            /home/pcl2483/pedro/jadesoft/util/mcgen/Plib/libmc105j.a(evwrtj.o)
f(char, float)      0x4               /usr/lib/gcc-lib/i686-pc-linux-gnu/2.95.3/libg2c.a(err.o)
f__external         0x4               /usr/lib/gcc-lib/i686-pc-linux-gnu/2.95.3/libg2c.a(err.o)
f__icend            0x4               /usr/lib/gcc-lib/i686-pc-linux-gnu/2.95.3/libg2c.a(iio.o)
hwtabc_             0x14              /home/pcl2483/pedro/jadesoft/util/mcgen/Plib/libherwig58d.a(hwsbrn.o)
f__workdone         0x4               /usr/lib/gcc-lib/i686-pc-linux-gnu/2.95.3/libg2c.a(fmt.o)
f__reading          0x4               /usr/lib/gcc-lib/i686-pc-linux-gnu/2.95.3/libg2c.a(err.o)
f__icptr            0x4               /usr/lib/gcc-lib/i686-pc-linux-gnu/2.95.3/libg2c.a(err.o)
f__donewrec         0x4               /usr/lib/gcc-lib/i686-pc-linux-gnu/2.95.3/libg2c.a(err.o)
f__init             0x4               /usr/lib/gcc-lib/i686-pc-linux-gnu/2.95.3/libg2c.a(err.o)
rzclun_             0x2c              /cern/99/lib/libpacklib.a(mzebra.o)
cl1dec_             0x4               /home/pcl2483/pedro/jadesoft/util/mcgen/Plib/libherwig58d.a(h58ddriv.o)
czbufc_             0x200             /cern/99/lib/libpacklib.a(hlogpf.o)
fzci_               0x138             /cern/99/lib/libpacklib.a(fzin.o)
hcprin_             0x1a0             /cern/99/lib/libpacklib.a(hbook1.o)
f__doed             0x4               /usr/lib/gcc-lib/i686-pc-linux-gnu/2.95.3/libg2c.a(err.o)
dg_                 0x4               /home/pcl2483/pedro/jadesoft/util/mcgen/Plib/libherwig58d.a(hwsdgq.o)
hcdirc_             0x1900            /cern/99/lib/libpacklib.a(hcdir.o)
hcfitn_             0x118             /cern/99/lib/libpacklib.a(hsupis.o)
rfilefdt            0x400             /cern/99/lib/libpacklib.a(open.o)
f__revloc           0x4               /usr/lib/gcc-lib/i686-pc-linux-gnu/2.95.3/libg2c.a(fmt.o)
arbit_              0x8               /home/pcl2483/pedro/jadesoft/util/mcgen/Plib/libjt74opal.a(curr.o)
f__ret              0x28              /usr/lib/gcc-lib/i686-pc-linux-gnu/2.95.3/libg2c.a(fmt.o)
f(char, long *, short __restrict)
                    0x4               /usr/lib/gcc-lib/i686-pc-linux-gnu/2.95.3/libg2c.a(err.o)
nml_read            0x4               /usr/lib/gcc-lib/i686-pc-linux-gnu/2.95.3/libg2c.a(lread.o)
hwhard_             0x454             /home/pcl2483/pedro/jadesoft/util/mcgen/Plib/libherwig58d.a(fxhlms.o)
mzcwk_              0x5000            /cern/99/lib/libpacklib.a(mzflag.o)
mzcl_               0x70              /cern/99/lib/libpacklib.a(mzbook.o)
quest_              0x190             /cern/99/lib/libpacklib.a(hcdir.o)
hcflag_             0x2c              /cern/99/lib/libpacklib.a(hbook1.o)
f__doend            0x4               /usr/lib/gcc-lib/i686-pc-linux-gnu/2.95.3/libg2c.a(err.o)
hcbits_             0x94              /cern/99/lib/libpacklib.a(hfill.o)
hwsint_             0x10              /home/pcl2483/pedro/jadesoft/util/mcgen/Plib/libherwig58d.a(hwbsud.o)
hwumap_             0x1f44            /home/pcl2483/pedro/jadesoft/util/mcgen/Plib/libherwig58d.a(hwuedt.o)
hwbrch_             0x94              /home/pcl2483/pedro/jadesoft/util/mcgen/Plib/libherwig58d.a(fxhlms.o)
lujets_             0xdac4            /home/pcl2483/pedro/jadesoft/util/mcgen/Plib/libmc105j.a(mcgeth.o)
ffcomm_             0x194             /cern/99/lib/libpacklib.a(ffgo.o)
rzcout_             0x18              /cern/99/lib/libpacklib.a(rzout.o)
fzcf_               0x90              /cern/99/lib/libpacklib.a(fzloc.o)
zbcd_               0x32c             /cern/99/lib/libpacklib.a(fzin.o)
zebq_               0x1a0             /cern/99/lib/libpacklib.a(fzin.o)
f__cblank           0x4               /usr/lib/gcc-lib/i686-pc-linux-gnu/2.95.3/libg2c.a(err.o)
rzcstrc_            0x4a80            /cern/99/lib/libpacklib.a(mzebra.o)
cints_              0xe0              /home/pcl2483/pedro/jadesoft/util/mcgen/Plib/libherwig58d.a(hwhiga.o)
slate_              0xa0              /cern/99/lib/libpacklib.a(hmachi.o)
f__cnt              0x28              /usr/lib/gcc-lib/i686-pc-linux-gnu/2.95.3/libg2c.a(fmt.o)
f__scale            0x4               /usr/lib/gcc-lib/i686-pc-linux-gnu/2.95.3/libg2c.a(err.o)
hcunit_             0xc               /cern/99/lib/libpacklib.a(hbug.o)
hwbosc_             0xbc68            /home/pcl2483/pedro/jadesoft/util/mcgen/Plib/libherwig58d.a(fxhlms.o)
f__lchar            0x4               /usr/lib/gcc-lib/i686-pc-linux-gnu/2.95.3/libg2c.a(lread.o)
fzcseg_             0xfc              /cern/99/lib/libpacklib.a(fzin.o)
rfio_buf            0x2000            /cern/99/lib/libpacklib.a(open.o)
rzbmap_             0x24              /cern/99/lib/libpacklib.a(rzveri.o)
rzover_             0x194             /cern/99/lib/libpacklib.a(rzveri.o)
w50516_             0x4               /home/pcl2483/pedro/jadesoft/util/mcgen/Plib/libherwig58d.a(hwuinc.o)
f(char *)           0x4               /usr/lib/gcc-lib/i686-pc-linux-gnu/2.95.3/libg2c.a(fmt.o)
zlimit_             0x8               /cern/99/lib/libpacklib.a(mzflag.o)
hcopt_              0x28              /cern/99/lib/libpacklib.a(hbook1.o)
hcminpu_            0xfa0             /cern/99/lib/libpacklib.a(hmachi.o)
hntcur_             0x4               /cern/99/lib/libpacklib.a(hntrset.o)
mcuffr_             0x74              mchw58d_105j.o
inout_              0x8               /home/pcl2483/pedro/jadesoft/util/mcgen/Plib/libjt74opal.a(dexay.o)
mzcb_               0x70              /cern/99/lib/libpacklib.a(fzin.o)
f__recpos           0x4               /usr/lib/gcc-lib/i686-pc-linux-gnu/2.95.3/libg2c.a(err.o)
hcfitr_             0x14              /cern/99/lib/libpacklib.a(hmachi.o)
hwpart_             0xbb88            /home/pcl2483/pedro/jadesoft/util/mcgen/Plib/libherwig58d.a(fxhlms.o)
f__dorevert         0x4               /usr/lib/gcc-lib/i686-pc-linux-gnu/2.95.3/libg2c.a(err.o)
hwrpin_             0x1c              /home/pcl2483/pedro/jadesoft/util/mcgen/Plib/libherwig58d.a(hwrpow.o)
czcbuf_             0x4               /cern/99/lib/libpacklib.a(hmachi.o)
hcache_             0x194             /cern/99/lib/libpacklib.a(hdelet.o)
rzch_               0x1fe             /cern/99/lib/libpacklib.a(rzcdir.o)
testa1_             0x4               /home/pcl2483/pedro/jadesoft/util/mcgen/Plib/libjt74opal.a(dampog.o)
zmach_              0x24              /cern/99/lib/libpacklib.a(fzin.o)
hcminp1_            0x8               /cern/99/lib/libpacklib.a(hmachi.o)
f__lquit            0x4               /usr/lib/gcc-lib/i686-pc-linux-gnu/2.95.3/libg2c.a(lread.o)
rzdirn_             0xc               /cern/99/lib/libpacklib.a(rzcdir.o)
f__formatted        0x4               /usr/lib/gcc-lib/i686-pc-linux-gnu/2.95.3/libg2c.a(err.o)
small_              0x10              /home/pcl2483/pedro/jadesoft/util/mcgen/Plib/libherwig58d.a(hwhiga.o)
mcffr_              0x1c4             mchw58d_105j.o
ycl_                0x4e70            /home/pcl2483/pedro/jadesoft/util/mcgen/Plib/libpx114.a(ykern.o)
taubmc_             0x168             /home/pcl2483/pedro/jadesoft/util/mcgen/Plib/libjt74opal.a(dexay.o)
f__xargv            0x4               /usr/lib/gcc-lib/i686-pc-linux-gnu/2.95.3/libg2c.a(setarg.o)
f(char,  *)         0x4               /usr/lib/gcc-lib/i686-pc-linux-gnu/2.95.3/libg2c.a(fmt.o)
hcfits_             0x1b4             /cern/99/lib/libpacklib.a(hsupis.o)
mzcn_               0x24              /cern/99/lib/libpacklib.a(fzin.o)
hcdirn_             0x26c             /cern/99/lib/libpacklib.a(hcdir.o)
f__xargc            0x4               /usr/lib/gcc-lib/i686-pc-linux-gnu/2.95.3/libg2c.a(setarg.o)
f__ly               0x8               /usr/lib/gcc-lib/i686-pc-linux-gnu/2.95.3/libg2c.a(lread.o)
f__units            0x12c0            /usr/lib/gcc-lib/i686-pc-linux-gnu/2.95.3/libg2c.a(err.o)
f__cursor           0x4               /usr/lib/gcc-lib/i686-pc-linux-gnu/2.95.3/libg2c.a(err.o)
hwproc_             0x28              /home/pcl2483/pedro/jadesoft/util/mcgen/Plib/libherwig58d.a(fxhlms.o)
hwevnt_             0x1fb0            /home/pcl2483/pedro/jadesoft/util/mcgen/Plib/libherwig58d.a(fxhlms.o)
ludat1_             0x1e0             /home/pcl2483/pedro/jadesoft/util/mcgen/Plib/libmc105j.a(jtconv.o)
qedprm_             0x18              /home/pcl2483/pedro/jadesoft/util/mcgen/Plib/libjt74opal.a(initdk.o)
hwusud_             0x18018           /home/pcl2483/pedro/jadesoft/util/mcgen/Plib/libherwig58d.a(fxhlms.o)
phoqed_             0x28              /home/pcl2483/pedro/jadesoft/util/mcgen/Plib/libjt74opal.a(filhep.o)
hepevt_             0x2ee08           mchw58d_105j.o
f(long, long long)  0x8               /usr/lib/gcc-lib/i686-pc-linux-gnu/2.95.3/libg2c.a(lread.o)
f__reclen           0x4               /usr/lib/gcc-lib/i686-pc-linux-gnu/2.95.3/libg2c.a(uio.o)
dzc1_               0xa0              /cern/99/lib/libpacklib.a(dzsnap.o)
zunit_              0x1c              /cern/99/lib/libpacklib.a(fzin.o)
f__lcount           0x4               /usr/lib/gcc-lib/i686-pc-linux-gnu/2.95.3/libg2c.a(lread.o)
hcpar0_             0x24              /cern/99/lib/libpacklib.a(hmachi.o)
hwpram_             0x4a4             /home/pcl2483/pedro/jadesoft/util/mcgen/Plib/libherwig58d.a(fxhlms.o)
hwparp_             0x6590            /home/pcl2483/pedro/jadesoft/util/mcgen/Plib/libherwig58d.a(fxhlms.o)
hcpiac_             0x150             /cern/99/lib/libpacklib.a(hcdir.o)

Memory Configuration

Name             Origin             Length             Attributes
*default*        0x00000000         0xffffffff

Linker script and memory map

LOAD /usr/lib/crt1.o
LOAD /usr/lib/crti.o
LOAD /usr/lib/gcc-lib/i686-pc-linux-gnu/2.95.3/crtbegin.o
LOAD mchw58d_105j.o
LOAD /home/pcl2483/pedro/jadesoft/util/mcgen/Plib/libmc105j.a
LOAD /home/pcl2483/pedro/jadesoft/util/mcgen/Plib/libherwig58d.a
LOAD /home/pcl2483/pedro/jadesoft/util/mcgen/Plib/libjt74opal.a
LOAD /home/pcl2483/pedro/jadesoft/util/mcgen/Plib/libckern105.a
LOAD /home/pcl2483/pedro/jadesoft/util/mcgen/Plib/libpx114.a
LOAD /cern/99/lib/libgraflib.a
LOAD /cern/99/lib/libgrafX11.a
LOAD /cern/99/lib/libpacklib.a
LOAD /cern/99/lib/libmathlib.a
LOAD /cern/99/lib/libkernlib.a
LOAD /lib/libnsl.so.1
LOAD /usr/lib/libc.so
START GROUP
LOAD /lib/libc.so.6
LOAD /usr/lib/libc_nonshared.a
END GROUP
LOAD /usr/lib/gcc-lib/i686-pc-linux-gnu/2.95.3/libg2c.a
LOAD /usr/lib/libm.so
LOAD /usr/lib/gcc-lib/i686-pc-linux-gnu/2.95.3/libgcc.a
LOAD /usr/lib/libc.so
START GROUP
LOAD /lib/libc.so.6
LOAD /usr/lib/libc_nonshared.a
END GROUP
LOAD /usr/lib/gcc-lib/i686-pc-linux-gnu/2.95.3/libgcc.a
LOAD /usr/lib/gcc-lib/i686-pc-linux-gnu/2.95.3/crtend.o
LOAD /usr/lib/crtn.o
                0x080480f4                . = (0x8048000 + SIZEOF_HEADERS)

.interp         0x080480f4       0x13
 *(.interp)
 .interp        0x080480f4       0x13 /usr/lib/crt1.o

.note.ABI-tag   0x08048108       0x20
 .note.ABI-tag  0x08048108       0x20 /usr/lib/crt1.o

.hash           0x08048128      0x394
 *(.hash)
 .hash          0x08048128      0x394 /usr/lib/crt1.o

.dynsym         0x080484bc      0x820
 *(.dynsym)
 .dynsym        0x080484bc      0x820 /usr/lib/crt1.o

.dynstr         0x08048cdc      0x415
 *(.dynstr)
 .dynstr        0x08048cdc      0x415 /usr/lib/crt1.o

.gnu.version    0x080490f2      0x104
 *(.gnu.version)
 .gnu.version   0x080490f2      0x104 /usr/lib/crt1.o

.gnu.version_d
 *(.gnu.version_d)

.gnu.version_r  0x080491f8       0x60
 *(.gnu.version_r)
 .gnu.version_r
                0x080491f8       0x60 /usr/lib/crt1.o

.rel.dyn        0x08049258       0x58
 *(.rel.init)
 *(.rel.text .rel.text.* .rel.gnu.linkonce.t.*)
 *(.rel.fini)
 *(.rel.rodata .rel.rodata.* .rel.gnu.linkonce.r.*)
 *(.rel.data .rel.data.* .rel.gnu.linkonce.d.*)
 *(.rel.tdata .rel.tdata.* .rel.gnu.linkonce.td.*)
 *(.rel.tbss .rel.tbss.* .rel.gnu.linkonce.tb.*)
 *(.rel.ctors)
 *(.rel.dtors)
 *(.rel.got)
 .rel.got       0x08049258       0x10 /usr/lib/crt1.o
 *(.rel.bss .rel.bss.* .rel.gnu.linkonce.b.*)
 .rel.bss       0x08049268       0x48 /usr/lib/crt1.o

.rela.dyn
 *(.rela.init)
 *(.rela.text .rela.text.* .rela.gnu.linkonce.t.*)
 *(.rela.fini)
 *(.rela.rodata .rela.rodata.* .rela.gnu.linkonce.r.*)
 *(.rela.data .rela.data.* .rela.gnu.linkonce.d.*)
 *(.rela.tdata .rela.tdata.* .rela.gnu.linkonce.td.*)
 *(.rela.tbss .rela.tbss.* .rela.gnu.linkonce.tb.*)
 *(.rela.ctors)
 *(.rela.dtors)
 *(.rela.got)
 *(.rela.bss .rela.bss.* .rela.gnu.linkonce.b.*)

.rel.plt        0x080492b0      0x3a0
 *(.rel.plt)
 .rel.plt       0x080492b0      0x3a0 /usr/lib/crt1.o

.rela.plt
 *(.rela.plt)

.init           0x08049650       0x25
 *(.init)
 .init          0x08049650       0x18 /usr/lib/crti.o
                0x08049650                _init
 .init          0x08049668        0x5 /usr/lib/gcc-lib/i686-pc-linux-gnu/2.95.3/crtbegin.o
 .init          0x0804966d        0x5 /usr/lib/gcc-lib/i686-pc-linux-gnu/2.95.3/crtend.o
 .init          0x08049672        0x3 /usr/lib/crtn.o

.plt            0x08049678      0x750
 *(.plt)
 .plt           0x08049678      0x750 /usr/lib/crt1.o
                0x08049688                __umoddi3@@GLIBC_2.0
                0x08049698                readlink@@GLIBC_2.0
                0x080496a8                cos@@GLIBC_2.0
                0x080496b8                ntohl@@GLIBC_2.0
                0x080496c8                inet_netof@@GLIBC_2.0
                0x080496d8                __strtod_internal@@GLIBC_2.0
                0x080496e8                ferror@@GLIBC_2.0
                0x080496f8                vsprintf@@GLIBC_2.0
                0x08049708                strchr@@GLIBC_2.0
                0x08049718                feof@@GLIBC_2.0
                0x08049728                atan@@GLIBC_2.0
                0x08049738                ungetc@@GLIBC_2.0
                0x08049748                getpid@@GLIBC_2.0
                0x08049758                __register_frame_info@@GLIBC_2.0
                0x08049768                write@@GLIBC_2.0
                0x08049778                localtime@@GLIBC_2.0
                0x08049788                fileno@@GLIBC_2.0
                0x08049798                strcmp@@GLIBC_2.0
                0x080497a8                close@@GLIBC_2.0
                0x080497b8                asin@@GLIBC_2.0
                0x080497c8                perror@@GLIBC_2.0
                0x080497d8                fprintf@@GLIBC_2.0
                0x080497e8                tmpfile@@GLIBC_2.1
                0x080497f8                tempnam@@GLIBC_2.0
                0x08049808                getenv@@GLIBC_2.0
                0x08049818                umask@@GLIBC_2.0
                0x08049828                signal@@GLIBC_2.0
                0x08049838                fflush@@GLIBC_2.0
                0x08049848                getservbyname@@GLIBC_2.0
                0x08049858                unlink@@GLIBC_2.0
                0x08049868                freopen@@GLIBC_2.0
                0x08049878                select@@GLIBC_2.0
                0x08049888                htonl@@GLIBC_2.0
                0x08049898                __cxa_atexit@@GLIBC_2.1.3
                0x080498a8                getpwuid@@GLIBC_2.0
                0x080498b8                __errno_location@@GLIBC_2.0
                0x080498c8                pow@@GLIBC_2.0
                0x080498d8                rewind@@GLIBC_2.0
                0x080498e8                ftell@@GLIBC_2.0
                0x080498f8                gethostbyaddr@@GLIBC_2.0
                0x08049908                chmod@@GLIBC_2.0
                0x08049918                access@@GLIBC_2.0
                0x08049928                inet_ntoa@@GLIBC_2.0
                0x08049938                malloc@@GLIBC_2.0
                0x08049948                fread@@GLIBC_2.0
                0x08049958                memmove@@GLIBC_2.0
                0x08049968                clearerr@@GLIBC_2.0
                0x08049978                __deregister_frame_info@@GLIBC_2.0
                0x08049988                syslog@@GLIBC_2.0
                0x08049998                getsockopt@@GLIBC_2.0
                0x080499a8                abort@@GLIBC_2.0
                0x080499b8                __sigsetjmp@@GLIBC_2.0
                0x080499c8                __xstat@@GLIBC_2.0
                0x080499d8                setsockopt@@GLIBC_2.0
                0x080499e8                getpeername@@GLIBC_2.0
                0x080499f8                vfprintf@@GLIBC_2.0
                0x08049a08                fseek@@GLIBC_2.0
                0x08049a18                time@@GLIBC_2.0
                0x08049a28                fgets@@GLIBC_2.0
                0x08049a38                ntohs@@GLIBC_2.0
                0x08049a48                __fxstat@@GLIBC_2.0
                0x08049a58                fputs@@GLIBC_2.0
                0x08049a68                strstr@@GLIBC_2.0
                0x08049a78                longjmp@@GLIBC_2.0
                0x08049a88                sleep@@GLIBC_2.0
                0x08049a98                __strtol_internal@@GLIBC_2.0
                0x08049aa8                __udivdi3@@GLIBC_2.0
                0x08049ab8                atan2@@GLIBC_2.0
                0x08049ac8                strncmp@@GLIBC_2.0
                0x08049ad8                inet_addr@@GLIBC_2.0
                0x08049ae8                floor@@GLIBC_2.0
                0x08049af8                __libc_start_main@@GLIBC_2.0
                0x08049b08                exp@@GLIBC_2.0
                0x08049b18                realloc@@GLIBC_2.0
                0x08049b28                tan@@GLIBC_2.0
                0x08049b38                printf@@GLIBC_2.0
                0x08049b48                getuid@@GLIBC_2.0
                0x08049b58                lseek@@GLIBC_2.0
                0x08049b68                memcpy@@GLIBC_2.0
                0x08049b78                sqrt@@GLIBC_2.0
                0x08049b88                fclose@@GLIBC_2.1
                0x08049b98                getsockname@@GLIBC_2.0
                0x08049ba8                strrchr@@GLIBC_2.0
                0x08049bb8                ctime@@GLIBC_2.0
                0x08049bc8                isdigit@@GLIBC_2.0
                0x08049bd8                gethostname@@GLIBC_2.0
                0x08049be8                open@@GLIBC_2.0
                0x08049bf8                gethostbyname@@GLIBC_2.0
                0x08049c08                exit@@GLIBC_2.0
                0x08049c18                atoi@@GLIBC_2.0
                0x08049c28                getegid@@GLIBC_2.0
                0x08049c38                calloc@@GLIBC_2.0
                0x08049c48                sscanf@@GLIBC_2.0
                0x08049c58                _IO_putc@@GLIBC_2.0
                0x08049c68                free@@GLIBC_2.0
                0x08049c78                send@@GLIBC_2.0
                0x08049c88                ioctl@@GLIBC_2.0
                0x08049c98                htons@@GLIBC_2.0
                0x08049ca8                isatty@@GLIBC_2.0
                0x08049cb8                acos@@GLIBC_2.0
                0x08049cc8                memset@@GLIBC_2.0
                0x08049cd8                connect@@GLIBC_2.0
                0x08049ce8                strncpy@@GLIBC_2.0
                0x08049cf8                drem@@GLIBC_2.0
                0x08049d08                fopen@@GLIBC_2.1
                0x08049d18                strtok@@GLIBC_2.0
                0x08049d28                recv@@GLIBC_2.0
                0x08049d38                sprintf@@GLIBC_2.0
                0x08049d48                fwrite@@GLIBC_2.0
                0x08049d58                sin@@GLIBC_2.0
                0x08049d68                socket@@GLIBC_2.0
                0x08049d78                _IO_getc@@GLIBC_2.0
                0x08049d88                log@@GLIBC_2.0
                0x08049d98                read@@GLIBC_2.0
                0x08049da8                geteuid@@GLIBC_2.0
                0x08049db8                strcpy@@GLIBC_2.0

.text           0x08049dd0   0x1387f0
 *(.text .stub .text.* .gnu.linkonce.t.*)
 .text          0x08049dd0       0x24 /usr/lib/crt1.o
                0x08049dd0                _start
 .text          0x08049df4       0x24 /usr/lib/crti.o
 *fill*         0x08049e18        0x8 90909090
 .text          0x08049e20       0xa0 /usr/lib/gcc-lib/i686-pc-linux-gnu/2.95.3/crtbegin.o
 .text          0x08049ec0     0xc2fc mchw58d_105j.o
                0x0804f368                mcusev_
                0x080551c8                meanjet_
                0x0804a150                hwconv_
                0x0804a738                mcevbl_
                0x08050b44                fin3out_
                0x0804a740                mcpobl_
                0x0804a954                mcusin_
                0x08053798                jtfill_
                0x08053120                mcanal_
                0x08052a5c                qqctrk_
                0x08049ec0                MAIN__
                0x08052960                qqboos_
                0x08052c84                mcfima_
                0x08054d18                ytest_
                0x08050c90                mcfill_
                0x080500bc                mcusfi_
                0x0804a748                mcusff_
 *fill*         0x080561bc        0x4 90909090
 .text          0x080561c0      0x1e9 /home/pcl2483/pedro/jadesoft/util/mcgen/Plib/libmc105j.a(mcgetf.o)
                0x080561c0                mcgetf_
 *fill*         0x080563a9        0x7 90909090
 .text          0x080563b0      0x6ac /home/pcl2483/pedro/jadesoft/util/mcgen/Plib/libmc105j.a(mcgeth.o)
                0x080563b0                mcgeth_
 *fill*         0x08056a5c        0x4 90909090
 .text          0x08056a60      0x69f /home/pcl2483/pedro/jadesoft/util/mcgen/Plib/libmc105j.a(mcgetp.o)
                0x08056a60                mcgetp_
 *fill*         0x080570ff        0x1 90909090
 .text          0x08057100      0x504 /home/pcl2483/pedro/jadesoft/util/mcgen/Plib/libmc105j.a(mcinit.o)
                0x08057100                mcinit_
 *fill*         0x08057604        0xc 90909090
 .text          0x08057610      0x243 /home/pcl2483/pedro/jadesoft/util/mcgen/Plib/libmc105j.a(mcstbl.o)
                0x08057610                mcstbl_
 *fill*         0x08057853        0xd 90909090
 .text          0x08057860      0x8db /home/pcl2483/pedro/jadesoft/util/mcgen/Plib/libmc105j.a(mcwrit.o)
                0x08057860                mcwrit_
 *fill*         0x0805813b        0x5 90909090
 .text          0x08058140      0xd64 /home/pcl2483/pedro/jadesoft/util/mcgen/Plib/libmc105j.a(pxeecb.o)
                0x08058140                pxeecb_
 *fill*         0x08058ea4        0xc 90909090
 .text          0x08058eb0      0xe91 /home/pcl2483/pedro/jadesoft/util/mcgen/Plib/libmc105j.a(evwrtj.o)
                0x08058eb0                evwrtj_
 *fill*         0x08059d41        0xf 90909090
 .text          0x08059d50      0x166 /home/pcl2483/pedro/jadesoft/util/mcgen/Plib/libmc105j.a(incprd.o)
                0x08059d50                incprd_
 *fill*         0x08059eb6        0xa 90909090
 .text          0x08059ec0      0x16b /home/pcl2483/pedro/jadesoft/util/mcgen/Plib/libmc105j.a(jadeco.o)
                0x08059ec0                jadeco_
 *fill*         0x0805a02b        0x5 90909090
 .text          0x0805a030      0xcd0 /home/pcl2483/pedro/jadesoft/util/mcgen/Plib/libmc105j.a(jtconv.o)
                0x0805a030                jtconv_
 .text          0x0805ad00      0x539 /home/pcl2483/pedro/jadesoft/util/mcgen/Plib/libmc105j.a(mcrnst.o)
                0x0805ad00                mcrnst_
 *fill*         0x0805b239        0x7 90909090
 .text          0x0805b240        0x9 /home/pcl2483/pedro/jadesoft/util/mcgen/Plib/libmc105j.a(ntcprd.o)
                0x0805b240                ntcprd_
 *fill*         0x0805b249        0x7 90909090
 .text          0x0805b250      0x81b /home/pcl2483/pedro/jadesoft/util/mcgen/Plib/libmc105j.a(prcprd.o)
                0x0805b250                prcprd_
 *fill*         0x0805ba6b        0x5 90909090
 .text          0x0805ba70      0x6c4 /home/pcl2483/pedro/jadesoft/util/mcgen/Plib/libmc105j.a(wrcprd.o)
                0x0805ba70                wrcprd_
 *fill*         0x0805c134        0xc 90909090
 .text          0x0805c140      0x27d /home/pcl2483/pedro/jadesoft/util/mcgen/Plib/libherwig58d.a(fxhlms.o)
                0x0805c140                fxhlms_
 *fill*         0x0805c3bd        0x3 90909090
 .text          0x0805c3c0      0x54f /home/pcl2483/pedro/jadesoft/util/mcgen/Plib/libherwig58d.a(h58ddriv.o)
                0x0805c3c0                h58ddriv_
 *fill*         0x0805c90f        0x1 90909090
 .text          0x0805c910      0xf2b /home/pcl2483/pedro/jadesoft/util/mcgen/Plib/libherwig58d.a(hwbgen.o)
                0x0805c910                hwbgen_
 *fill*         0x0805d83b        0x5 90909090
 .text          0x0805d840     0x34d7 /home/pcl2483/pedro/jadesoft/util/mcgen/Plib/libherwig58d.a(hwbjco.o)
                0x0805d840                hwbjco_
 *fill*         0x08060d17        0x9 90909090
 .text          0x08060d20      0x6b7 /home/pcl2483/pedro/jadesoft/util/mcgen/Plib/libherwig58d.a(hwbmas.o)
                0x08060d20                hwbmas_
 *fill*         0x080613d7        0x9 90909090
 .text          0x080613e0     0x2e48 /home/pcl2483/pedro/jadesoft/util/mcgen/Plib/libherwig58d.a(hwbran.o)
                0x080613e0                hwbran_
 *fill*         0x08064228        0x8 90909090
 .text          0x08064230      0xa67 /home/pcl2483/pedro/jadesoft/util/mcgen/Plib/libherwig58d.a(hwbspa.o)
                0x08064230                hwbspa_
 *fill*         0x08064c97        0x9 90909090
 .text          0x08064ca0      0x3c4 /home/pcl2483/pedro/jadesoft/util/mcgen/Plib/libherwig58d.a(hwbspn.o)
                0x08064ca0                hwbspn_
 *fill*         0x08065064        0xc 90909090
 .text          0x08065070      0xccf /home/pcl2483/pedro/jadesoft/util/mcgen/Plib/libherwig58d.a(hwbtim.o)
                0x08065070                hwbtim_
 *fill*         0x08065d3f        0x1 90909090
 .text          0x08065d40       0xa4 /home/pcl2483/pedro/jadesoft/util/mcgen/Plib/libherwig58d.a(hwbvmc.o)
                0x08065d40                hwbvmc_
 *fill*         0x08065de4        0xc 90909090
 .text          0x08065df0      0x344 /home/pcl2483/pedro/jadesoft/util/mcgen/Plib/libherwig58d.a(hwcdec.o)
                0x08065df0                hwcdec_
 *fill*         0x08066134        0xc 90909090
 .text          0x08066140       0x7a /home/pcl2483/pedro/jadesoft/util/mcgen/Plib/libherwig58d.a(hwcfla.o)
                0x08066140                hwcfla_
 *fill*         0x080661ba        0x6 90909090
 .text          0x080661c0     0x1180 /home/pcl2483/pedro/jadesoft/util/mcgen/Plib/libherwig58d.a(hwcfor.o)
                0x080661c0                hwcfor_
 .text          0x08067340      0x9f6 /home/pcl2483/pedro/jadesoft/util/mcgen/Plib/libherwig58d.a(hwcgsp.o)
                0x08067340                hwcgsp_
 *fill*         0x08067d36        0xa 90909090
 .text          0x08067d40     0x11fd /home/pcl2483/pedro/jadesoft/util/mcgen/Plib/libherwig58d.a(hwchad.o)
                0x08067d68                hwchad_
 *fill*         0x08068f3d        0x3 90909090
 .text          0x08068f40      0xc81 /home/pcl2483/pedro/jadesoft/util/mcgen/Plib/libherwig58d.a(hwdhqk.o)
                0x08068f40                hwdhqk_
 *fill*         0x08069bc1        0xf 90909090
 .text          0x08069bd0       0xda /home/pcl2483/pedro/jadesoft/util/mcgen/Plib/libherwig58d.a(hwdidp.o)
                0x08069bd0                hwdidp_
 *fill*         0x08069caa        0x6 90909090
 .text          0x08069cb0      0x2f0 /home/pcl2483/pedro/jadesoft/util/mcgen/Plib/libherwig58d.a(hwdthr.o)
                0x08069cb0                hwdthr_
 .text          0x08069fa0       0x34 /home/pcl2483/pedro/jadesoft/util/mcgen/Plib/libherwig58d.a(hwdtop.o)
                0x08069fa0                hwdtop_
 .text          0x08069fd4      0x16c /home/pcl2483/pedro/jadesoft/util/mcgen/Plib/libherwig58d.a(hwdtwo.o)
                0x08069fd4                hwdtwo_
 .text          0x0806a140       0x34 /home/pcl2483/pedro/jadesoft/util/mcgen/Plib/libherwig58d.a(hwdwwt.o)
                0x0806a140                hwdwwt_
 *fill*         0x0806a174        0xc 90909090
 .text          0x0806a180      0x243 /home/pcl2483/pedro/jadesoft/util/mcgen/Plib/libherwig58d.a(hwefin.o)
                0x0806a180                hwefin_
 *fill*         0x0806a3c3        0xd 90909090
 .text          0x0806a3d0      0x259 /home/pcl2483/pedro/jadesoft/util/mcgen/Plib/libherwig58d.a(hweini.o)
                0x0806a3d0                hweini_
 *fill*         0x0806a629        0x7 90909090
 .text          0x0806a630      0xca2 /home/pcl2483/pedro/jadesoft/util/mcgen/Plib/libherwig58d.a(hwepro.o)
                0x0806a630                hwepro_
 *fill*         0x0806b2d2        0xe 90909090
 .text          0x0806b2e0     0x129e /home/pcl2483/pedro/jadesoft/util/mcgen/Plib/libherwig58d.a(hwhbgf.o)
                0x0806b2e0                hwhbgf_
 *fill*         0x0806c57e        0x2 90909090
 .text          0x0806c580     0x15d3 /home/pcl2483/pedro/jadesoft/util/mcgen/Plib/libherwig58d.a(hwhbki.o)
                0x0806c580                hwhbki_
 *fill*         0x0806db53        0xd 90909090
 .text          0x0806db60     0x2bdc /home/pcl2483/pedro/jadesoft/util/mcgen/Plib/libherwig58d.a(hwhbrn.o)
                0x0806db60                hwhbrn_
 *fill*         0x0807073c        0x4 90909090
 .text          0x08070740     0x19e2 /home/pcl2483/pedro/jadesoft/util/mcgen/Plib/libherwig58d.a(hwhbsg.o)
                0x08070740                hwhbsg_
 *fill*         0x08072122        0xe 90909090
 .text          0x08072130     0x1cea /home/pcl2483/pedro/jadesoft/util/mcgen/Plib/libherwig58d.a(hwhdis.o)
                0x08072130                hwhdis_
 *fill*         0x08073e1a        0x6 90909090
 .text          0x08073e20      0x5ce /home/pcl2483/pedro/jadesoft/util/mcgen/Plib/libherwig58d.a(hwhdyp.o)
                0x08073e20                hwhdyp_
 *fill*         0x080743ee        0x2 90909090
 .text          0x080743f0     0x2159 /home/pcl2483/pedro/jadesoft/util/mcgen/Plib/libherwig58d.a(hwhegg.o)
                0x080743f0                hwhegg_
 *fill*         0x08076549        0x7 90909090
 .text          0x08076550      0xe04 /home/pcl2483/pedro/jadesoft/util/mcgen/Plib/libherwig58d.a(hwhegw.o)
                0x08076550                hwhegw_
 *fill*         0x08077354        0xc 90909090
 .text          0x08077360     0x15a0 /home/pcl2483/pedro/jadesoft/util/mcgen/Plib/libherwig58d.a(hwhegx.o)
                0x08077360                hwhegx_
 .text          0x08078900      0xd25 /home/pcl2483/pedro/jadesoft/util/mcgen/Plib/libherwig58d.a(hwhepa.o)
                0x08078900                hwhepa_
 *fill*         0x08079625        0xb 90909090
 .text          0x08079630      0xb86 /home/pcl2483/pedro/jadesoft/util/mcgen/Plib/libherwig58d.a(hwhepg.o)
                0x08079630                hwhepg_
 *fill*         0x0807a1b6        0xa 90909090
 .text          0x0807a1c0     0x1687 /home/pcl2483/pedro/jadesoft/util/mcgen/Plib/libherwig58d.a(hwheww.o)
                0x0807a1c0                hwheww_
 *fill*         0x0807b847        0x9 90909090
 .text          0x0807b850     0x15f2 /home/pcl2483/pedro/jadesoft/util/mcgen/Plib/libherwig58d.a(hwhhvy.o)
                0x0807b850                hwhhvy_
 *fill*         0x0807ce42        0xe 90909090
 .text          0x0807ce50      0xbff /home/pcl2483/pedro/jadesoft/util/mcgen/Plib/libherwig58d.a(hwhigj.o)
                0x0807ce50                hwhigj_
 *fill*         0x0807da4f        0x1 90909090
 .text          0x0807da50      0x953 /home/pcl2483/pedro/jadesoft/util/mcgen/Plib/libherwig58d.a(hwhigm.o)
                0x0807dab4                hwhigm_
 *fill*         0x0807e3a3        0xd 90909090
 .text          0x0807e3b0      0x8ad /home/pcl2483/pedro/jadesoft/util/mcgen/Plib/libherwig58d.a(hwhigs.o)
                0x0807e3b0                hwhigs_
 *fill*         0x0807ec5d        0x3 90909090
 .text          0x0807ec60      0x1f5 /home/pcl2483/pedro/jadesoft/util/mcgen/Plib/libherwig58d.a(hwhigt.o)
                0x0807ec60                hwhigt_
 *fill*         0x0807ee55        0xb 90909090
 .text          0x0807ee60     0x2421 /home/pcl2483/pedro/jadesoft/util/mcgen/Plib/libherwig58d.a(hwhigw.o)
                0x0807ee60                hwhigw_
 *fill*         0x08081281        0xf 90909090
 .text          0x08081290     0x1773 /home/pcl2483/pedro/jadesoft/util/mcgen/Plib/libherwig58d.a(hwhigz.o)
                0x08081290                hwhigz_
 *fill*         0x08082a03        0xd 90909090
 .text          0x08082a10      0x8b9 /home/pcl2483/pedro/jadesoft/util/mcgen/Plib/libherwig58d.a(hwhph2.o)
                0x08082a10                hwhph2_
 *fill*         0x080832c9        0x7 90909090
 .text          0x080832d0      0xbd9 /home/pcl2483/pedro/jadesoft/util/mcgen/Plib/libherwig58d.a(hwhpho.o)
                0x080832d0                hwhpho_
 *fill*         0x08083ea9        0x3 90909090
 .text          0x08083eac      0x2e0 /home/pcl2483/pedro/jadesoft/util/mcgen/Plib/libherwig58d.a(hwhppb.o)
                0x08083eac                hwhppb_
 *fill*         0x0808418c        0x4 90909090
 .text          0x08084190      0x76e /home/pcl2483/pedro/jadesoft/util/mcgen/Plib/libherwig58d.a(hwhppe.o)
                0x08084190                hwhppe_
 *fill*         0x080848fe        0x2 90909090
 .text          0x08084900      0x5ba /home/pcl2483/pedro/jadesoft/util/mcgen/Plib/libherwig58d.a(hwhpph.o)
                0x08084900                hwhpph_
 *fill*         0x08084eba        0x6 90909090
 .text          0x08084ec0     0x193d /home/pcl2483/pedro/jadesoft/util/mcgen/Plib/libherwig58d.a(hwhppm.o)
                0x08084ec0                hwhppm_
 *fill*         0x080867fd        0x3 90909090
 .text          0x08086800      0x750 /home/pcl2483/pedro/jadesoft/util/mcgen/Plib/libherwig58d.a(hwhppt.o)
                0x08086800                hwhppt_
 .text          0x08086f50      0x624 /home/pcl2483/pedro/jadesoft/util/mcgen/Plib/libherwig58d.a(hwhpqs.o)
                0x08086f50                hwhpqs_
 *fill*         0x08087574        0xc 90909090
 .text          0x08087580     0x1a32 /home/pcl2483/pedro/jadesoft/util/mcgen/Plib/libherwig58d.a(hwhqcd.o)
                0x08087580                hwhqcd_
 *fill*         0x08088fb2        0xe 90909090
 .text          0x08088fc0      0x1cb /home/pcl2483/pedro/jadesoft/util/mcgen/Plib/libherwig58d.a(hwhqcp.o)
                0x08088fc0                hwhqcp_
 *fill*         0x0808918b        0x5 90909090
 .text          0x08089190      0xfd3 /home/pcl2483/pedro/jadesoft/util/mcgen/Plib/libherwig58d.a(hwhw1j.o)
                0x08089190                hwhw1j_
 *fill*         0x0808a163        0xd 90909090
 .text          0x0808a170      0x7d0 /home/pcl2483/pedro/jadesoft/util/mcgen/Plib/libherwig58d.a(hwhwex.o)
                0x0808a170                hwhwex_
 .text          0x0808a940      0xac1 /home/pcl2483/pedro/jadesoft/util/mcgen/Plib/libherwig58d.a(hwhwpr.o)
                0x0808a940                hwhwpr_
 *fill*         0x0808b401        0xf 90909090
 .text          0x0808b410      0xbf8 /home/pcl2483/pedro/jadesoft/util/mcgen/Plib/libherwig58d.a(hwigin.o)
                0x0808b410                hwigin_
 *fill*         0x0808c008        0x8 90909090
 .text          0x0808c010      0x36b /home/pcl2483/pedro/jadesoft/util/mcgen/Plib/libherwig58d.a(hwmwgt.o)
                0x0808c010                hwmwgt_
 *fill*         0x0808c37b        0x5 90909090
 .text          0x0808c380       0xfc /home/pcl2483/pedro/jadesoft/util/mcgen/Plib/libherwig58d.a(hwrazm.o)
                0x0808c380                hwrazm_
 *fill*         0x0808c47c        0x4 90909090
 .text          0x0808c480       0xfa /home/pcl2483/pedro/jadesoft/util/mcgen/Plib/libherwig58d.a(hwrgau.o)
                0x0808c480                hwrgau_
 *fill*         0x0808c57a        0x6 90909090
 .text          0x0808c580      0x114 /home/pcl2483/pedro/jadesoft/util/mcgen/Plib/libherwig58d.a(hwrgen.o)
                0x0808c654                hwrset_
                0x0808c634                hwrgen_
                0x0808c674                hwrget_
 *fill*         0x0808c694        0xc 90909090
 .text          0x0808c6a0       0x94 /home/pcl2483/pedro/jadesoft/util/mcgen/Plib/libherwig58d.a(hwrint.o)
                0x0808c6a0                hwrint_
 *fill*         0x0808c734        0xc 90909090
 .text          0x0808c740       0x54 /home/pcl2483/pedro/jadesoft/util/mcgen/Plib/libherwig58d.a(hwrlog.o)
                0x0808c740                hwrlog_
 *fill*         0x0808c794        0xc 90909090
 .text          0x0808c7a0      0x124 /home/pcl2483/pedro/jadesoft/util/mcgen/Plib/libherwig58d.a(hwrpow.o)
                0x0808c7a0                hwrpow_
 *fill*         0x0808c8c4        0xc 90909090
 .text          0x0808c8d0       0x44 /home/pcl2483/pedro/jadesoft/util/mcgen/Plib/libherwig58d.a(hwruni.o)
                0x0808c8d0                hwruni_
 *fill*         0x0808c914        0xc 90909090
 .text          0x0808c920     0x21b3 /home/pcl2483/pedro/jadesoft/util/mcgen/Plib/libherwig58d.a(hwsbrn.o)
                0x0808c920                hwsbrn_
 *fill*         0x0808ead3        0xd 90909090
 .text          0x0808eae0      0xac9 /home/pcl2483/pedro/jadesoft/util/mcgen/Plib/libherwig58d.a(hwsfbr.o)
                0x0808eae0                hwsfbr_
 *fill*         0x0808f5a9        0x7 90909090
 .text          0x0808f5b0     0x27c0 /home/pcl2483/pedro/jadesoft/util/mcgen/Plib/libherwig58d.a(hwsfun.o)
                0x0808f5b0                hwsfun_
 .text          0x08091d70      0x14c /home/pcl2483/pedro/jadesoft/util/mcgen/Plib/libherwig58d.a(hwsgam.o)
                0x08091d70                hwsgam_
 *fill*         0x08091ebc        0x4 90909090
 .text          0x08091ec0      0x1c6 /home/pcl2483/pedro/jadesoft/util/mcgen/Plib/libherwig58d.a(hwsgen.o)
                0x08091ec0                hwsgen_
 *fill*         0x08092086        0xa 90909090
 .text          0x08092090      0x123 /home/pcl2483/pedro/jadesoft/util/mcgen/Plib/libherwig58d.a(hwsgqq.o)
                0x08092090                hwsgqq_
 *fill*         0x080921b3        0xd 90909090
 .text          0x080921c0      0x7b2 /home/pcl2483/pedro/jadesoft/util/mcgen/Plib/libherwig58d.a(hwsspc.o)
                0x080921c0                hwsspc_
 *fill*         0x08092972        0xe 90909090
 .text          0x08092980      0x157 /home/pcl2483/pedro/jadesoft/util/mcgen/Plib/libherwig58d.a(hwssud.o)
                0x08092980                hwssud_
 *fill*         0x08092ad7        0x9 90909090
 .text          0x08092ae0      0x68b /home/pcl2483/pedro/jadesoft/util/mcgen/Plib/libherwig58d.a(hwstab.o)
                0x08092ae0                hwstab_
 *fill*         0x0809316b        0x5 90909090
 .text          0x08093170      0x174 /home/pcl2483/pedro/jadesoft/util/mcgen/Plib/libherwig58d.a(hwsval.o)
                0x08093170                hwsval_
 *fill*         0x080932e4        0xc 90909090
 .text          0x080932f0      0x2be /home/pcl2483/pedro/jadesoft/util/mcgen/Plib/libherwig58d.a(hwuaem.o)
                0x080932f0                hwuaem_
 *fill*         0x080935ae        0x2 90909090
 .text          0x080935b0      0x199 /home/pcl2483/pedro/jadesoft/util/mcgen/Plib/libherwig58d.a(hwuaer.o)
                0x080935b0                hwuaer_
 *fill*         0x08093749        0x7 90909090
 .text          0x08093750      0x95d /home/pcl2483/pedro/jadesoft/util/mcgen/Plib/libherwig58d.a(hwualf.o)
                0x08093750                hwualf_
 *fill*         0x080940ad        0x3 90909090
 .text          0x080940b0      0x41c /home/pcl2483/pedro/jadesoft/util/mcgen/Plib/libherwig58d.a(hwubst.o)
                0x080940b0                hwubst_
 .text          0x080944cc     0x196d /home/pcl2483/pedro/jadesoft/util/mcgen/Plib/libherwig58d.a(hwucff.o)
                0x080944cc                hwucff_
 *fill*         0x08095e39        0x3 90909090
 .text          0x08095e3c        0x7 /home/pcl2483/pedro/jadesoft/util/mcgen/Plib/libherwig58d.a(hwudat.o)
                0x08095e3c                hwudat_
 *fill*         0x08095e43        0x1 90909090
 .text          0x08095e44       0x48 /home/pcl2483/pedro/jadesoft/util/mcgen/Plib/libherwig58d.a(hwuecm.o)
                0x08095e44                hwuecm_
 *fill*         0x08095e8c        0x4 90909090
 .text          0x08095e90      0x169 /home/pcl2483/pedro/jadesoft/util/mcgen/Plib/libherwig58d.a(hwueec.o)
                0x08095e90                hwueec_
 *fill*         0x08095ff9        0x7 90909090
 .text          0x08096000     0x1197 /home/pcl2483/pedro/jadesoft/util/mcgen/Plib/libherwig58d.a(hwuepr.o)
                0x08096000                hwuepr_
 *fill*         0x08097197        0x9 90909090
 .text          0x080971a0       0x99 /home/pcl2483/pedro/jadesoft/util/mcgen/Plib/libherwig58d.a(hwufne.o)
                0x080971a0                hwufne_
 *fill*         0x08097239        0x7 90909090
 .text          0x08097240     0x26e9 /home/pcl2483/pedro/jadesoft/util/mcgen/Plib/libherwig58d.a(hwuinc.o)
                0x08097240                hwuinc_
 *fill*         0x08099929        0x7 90909090
 .text          0x08099930      0x237 /home/pcl2483/pedro/jadesoft/util/mcgen/Plib/libherwig58d.a(hwuine.o)
                0x08099930                hwuine_
 *fill*         0x08099b67        0x9 90909090
 .text          0x08099b70      0x114 /home/pcl2483/pedro/jadesoft/util/mcgen/Plib/libherwig58d.a(hwulb4.o)
                0x08099b70                hwulb4_
 *fill*         0x08099c84        0xc 90909090
 .text          0x08099c90       0x46 /home/pcl2483/pedro/jadesoft/util/mcgen/Plib/libherwig58d.a(hwuldo.o)
                0x08099c90                hwuldo_
 *fill*         0x08099cd6        0xa 90909090
 .text          0x08099ce0       0x34 /home/pcl2483/pedro/jadesoft/util/mcgen/Plib/libherwig58d.a(hwulob.o)
                0x08099ce0                hwulob_
 *fill*         0x08099d14        0xc 90909090
 .text          0x08099d20       0x34 /home/pcl2483/pedro/jadesoft/util/mcgen/Plib/libherwig58d.a(hwulof.o)
                0x08099d20                hwulof_
 .text          0x08099d54       0x5f /home/pcl2483/pedro/jadesoft/util/mcgen/Plib/libherwig58d.a(hwumas.o)
                0x08099d54                hwumas_
 *fill*         0x08099db3        0xd 90909090
 .text          0x08099dc0      0x104 /home/pcl2483/pedro/jadesoft/util/mcgen/Plib/libherwig58d.a(hwupcm.o)
                0x08099dc0                hwupcm_
 *fill*         0x08099ec4        0xc 90909090
 .text          0x08099ed0      0xc6b /home/pcl2483/pedro/jadesoft/util/mcgen/Plib/libherwig58d.a(hwures.o)
                0x08099ed0                hwures_
 *fill*         0x0809ab3b        0x5 90909090
 .text          0x0809ab40       0xb4 /home/pcl2483/pedro/jadesoft/util/mcgen/Plib/libherwig58d.a(hwurob.o)
                0x0809ab40                hwurob_
 *fill*         0x0809abf4        0xc 90909090
 .text          0x0809ac00       0xb4 /home/pcl2483/pedro/jadesoft/util/mcgen/Plib/libherwig58d.a(hwurof.o)
                0x0809ac00                hwurof_
 *fill*         0x0809acb4        0xc 90909090
 .text          0x0809acc0      0x241 /home/pcl2483/pedro/jadesoft/util/mcgen/Plib/libherwig58d.a(hwurot.o)
                0x0809acc0                hwurot_
 *fill*         0x0809af01        0x3 90909090
 .text          0x0809af04       0x4f /home/pcl2483/pedro/jadesoft/util/mcgen/Plib/libherwig58d.a(hwusqr.o)
                0x0809af04                hwusqr_
 *fill*         0x0809af53        0xd 90909090
 .text          0x0809af60      0xa7c /home/pcl2483/pedro/jadesoft/util/mcgen/Plib/libherwig58d.a(hwutab.o)
                0x0809af60                hwutab_
 *fill*         0x0809b9dc        0x4 90909090
 .text          0x0809b9e0       0x14 /home/pcl2483/pedro/jadesoft/util/mcgen/Plib/libherwig58d.a(hwutim.o)
                0x0809b9e0                hwutim_
 *fill*         0x0809b9f4        0xc 90909090
 .text          0x0809ba00      0x13f /home/pcl2483/pedro/jadesoft/util/mcgen/Plib/libherwig58d.a(hwvdif.o)
                0x0809ba00                hwvdif_
 *fill*         0x0809bb3f        0x1 90909090
 .text          0x0809bb40       0xe1 /home/pcl2483/pedro/jadesoft/util/mcgen/Plib/libherwig58d.a(hwvequ.o)
                0x0809bb40                hwvequ_
 *fill*         0x0809bc21        0xf 90909090
 .text          0x0809bc30       0xec /home/pcl2483/pedro/jadesoft/util/mcgen/Plib/libherwig58d.a(hwvsca.o)
                0x0809bc30                hwvsca_
 *fill*         0x0809bd1c        0x4 90909090
 .text          0x0809bd20      0x13f /home/pcl2483/pedro/jadesoft/util/mcgen/Plib/libherwig58d.a(hwvsum.o)
                0x0809bd20                hwvsum_
 *fill*         0x0809be5f        0x1 90909090
 .text          0x0809be60       0x7c /home/pcl2483/pedro/jadesoft/util/mcgen/Plib/libherwig58d.a(hwvzro.o)
                0x0809be60                hwvzro_
 *fill*         0x0809bedc        0x4 90909090
 .text          0x0809bee0      0x284 /home/pcl2483/pedro/jadesoft/util/mcgen/Plib/libherwig58d.a(hwwarn.o)
                0x0809bee0                hwwarn_
 *fill*         0x0809c164        0xc 90909090
 .text          0x0809c170        0x9 /home/pcl2483/pedro/jadesoft/util/mcgen/Plib/libherwig58d.a(pdfset.o)
                0x0809c170                pdfset_
 *fill*         0x0809c179        0x7 90909090
 .text          0x0809c180      0x90f /home/pcl2483/pedro/jadesoft/util/mcgen/Plib/libherwig58d.a(sas1d.o)
                0x0809c180                sas1d_
 *fill*         0x0809ca8f        0x1 90909090
 .text          0x0809ca90        0x9 /home/pcl2483/pedro/jadesoft/util/mcgen/Plib/libherwig58d.a(structm.o)
                0x0809ca90                structm_
 *fill*         0x0809ca99        0x7 90909090
 .text          0x0809caa0       0x34 /home/pcl2483/pedro/jadesoft/util/mcgen/Plib/libherwig58d.a(hvcbvi.o)
                0x0809caa0                hvcbvi_
 *fill*         0x0809cad4        0xc 90909090
 .text          0x0809cae0       0x34 /home/pcl2483/pedro/jadesoft/util/mcgen/Plib/libherwig58d.a(hvhbvi.o)
                0x0809cae0                hvhbvi_
 *fill*         0x0809cb14        0xc 90909090
 .text          0x0809cb20        0x9 /home/pcl2483/pedro/jadesoft/util/mcgen/Plib/libherwig58d.a(hwaend.o)
                0x0809cb20                hwaend_
 *fill*         0x0809cb29        0x7 90909090
 .text          0x0809cb30      0x468 /home/pcl2483/pedro/jadesoft/util/mcgen/Plib/libherwig58d.a(hwbazf.o)
                0x0809cb30                hwbazf_
 *fill*         0x0809cf98        0x8 90909090
 .text          0x0809cfa0      0x52c /home/pcl2483/pedro/jadesoft/util/mcgen/Plib/libherwig58d.a(hwbcon.o)
                0x0809cfa0                hwbcon_
 *fill*         0x0809d4cc        0x4 90909090
 .text          0x0809d4d0     0x1f12 /home/pcl2483/pedro/jadesoft/util/mcgen/Plib/libherwig58d.a(hwbded.o)
                0x0809d51c                hwbded_
 *fill*         0x0809f3e2        0xe 90909090
 .text          0x0809f3f0     0x4682 /home/pcl2483/pedro/jadesoft/util/mcgen/Plib/libherwig58d.a(hwbdis.o)
                0x0809f3f0                hwbdis_
 *fill*         0x080a3a72        0xe 90909090
 .text          0x080a3a80      0x6f9 /home/pcl2483/pedro/jadesoft/util/mcgen/Plib/libherwig58d.a(hwbfin.o)
                0x080a3a80                hwbfin_
 *fill*         0x080a4179        0x7 90909090
 .text          0x080a4180     0x11c2 /home/pcl2483/pedro/jadesoft/util/mcgen/Plib/libherwig58d.a(hwbsud.o)
                0x080a4180                hwbsud_
 *fill*         0x080a5342        0xe 90909090
 .text          0x080a5350       0x74 /home/pcl2483/pedro/jadesoft/util/mcgen/Plib/libherwig58d.a(hwbsug.o)
                0x080a5350                hwbsug_
 *fill*         0x080a53c4        0xc 90909090
 .text          0x080a53d0      0x5e7 /home/pcl2483/pedro/jadesoft/util/mcgen/Plib/libherwig58d.a(hwbsul.o)
                0x080a5450                hwbsul_
 *fill*         0x080a59b7        0x9 90909090
 .text          0x080a59c0      0xafe /home/pcl2483/pedro/jadesoft/util/mcgen/Plib/libherwig58d.a(hwccut.o)
                0x080a59c0                hwccut_
 *fill*         0x080a64be        0x2 90909090
 .text          0x080a64c0      0x809 /home/pcl2483/pedro/jadesoft/util/mcgen/Plib/libherwig58d.a(hwdboz.o)
                0x080a64c0                hwdboz_
 *fill*         0x080a6cc9        0x7 90909090
 .text          0x080a6cd0     0x185f /home/pcl2483/pedro/jadesoft/util/mcgen/Plib/libherwig58d.a(hwdhig.o)
                0x080a6cd0                hwdhig_
 *fill*         0x080a852f        0x1 90909090
 .text          0x080a8530       0x24 /home/pcl2483/pedro/jadesoft/util/mcgen/Plib/libherwig58d.a(hwdpwt.o)
                0x080a8530                hwdpwt_
 *fill*         0x080a8554        0xc 90909090
 .text          0x080a8560     0x12fd /home/pcl2483/pedro/jadesoft/util/mcgen/Plib/libherwig58d.a(hwegam.o)
                0x080a8560                hwegam_
 *fill*         0x080a985d        0x3 90909090
 .text          0x080a9860     0x2109 /home/pcl2483/pedro/jadesoft/util/mcgen/Plib/libherwig58d.a(hweisr.o)
                0x080a9860                hweisr_
 *fill*         0x080ab969        0x7 90909090
 .text          0x080ab970      0x5f9 /home/pcl2483/pedro/jadesoft/util/mcgen/Plib/libherwig58d.a(hweone.o)
                0x080ab970                hweone_
 *fill*         0x080abf69        0x7 90909090
 .text          0x080abf70      0xa83 /home/pcl2483/pedro/jadesoft/util/mcgen/Plib/libherwig58d.a(hwetwo.o)
                0x080abf70                hwetwo_
 *fill*         0x080ac9f3        0xd 90909090
 .text          0x080aca00      0x446 /home/pcl2483/pedro/jadesoft/util/mcgen/Plib/libherwig58d.a(hwhew0.o)
                0x080aca00                hwhew0_
 *fill*         0x080ace46        0xa 90909090
 .text          0x080ace50      0x240 /home/pcl2483/pedro/jadesoft/util/mcgen/Plib/libherwig58d.a(hwhew1.o)
                0x080ace50                hwhew1_
 .text          0x080ad090      0xd9f /home/pcl2483/pedro/jadesoft/util/mcgen/Plib/libherwig58d.a(hwhew2.o)
                0x080ad090                hwhew2_
 *fill*         0x080ade2f        0x1 90909090
 .text          0x080ade30      0x864 /home/pcl2483/pedro/jadesoft/util/mcgen/Plib/libherwig58d.a(hwhew3.o)
                0x080ade30                hwhew3_
 *fill*         0x080ae694        0xc 90909090
 .text          0x080ae6a0      0x1e2 /home/pcl2483/pedro/jadesoft/util/mcgen/Plib/libherwig58d.a(hwhew4.o)
                0x080ae6a0                hwhew4_
 *fill*         0x080ae882        0xe 90909090
 .text          0x080ae890     0x11b1 /home/pcl2483/pedro/jadesoft/util/mcgen/Plib/libherwig58d.a(hwhew5.o)
                0x080ae890                hwhew5_
 *fill*         0x080afa41        0xf 90909090
 .text          0x080afa50     0x1037 /home/pcl2483/pedro/jadesoft/util/mcgen/Plib/libherwig58d.a(hwhiga.o)
                0x080afa50                hwhiga_
 *fill*         0x080b0a87        0x9 90909090
 .text          0x080b0a90     0x1287 /home/pcl2483/pedro/jadesoft/util/mcgen/Plib/libherwig58d.a(hwhigb.o)
                0x080b1c98                hwhigc_
                0x080b1cd8                hwhigd_
                0x080b1c58                hwhigb_
 *fill*         0x080b1d17        0x9 90909090
 .text          0x080b1d20     0x1deb /home/pcl2483/pedro/jadesoft/util/mcgen/Plib/libherwig58d.a(hwhigy.o)
                0x080b37b0                hwhigy_
 *fill*         0x080b3b0b        0x5 90909090
 .text          0x080b3b10      0x11b /home/pcl2483/pedro/jadesoft/util/mcgen/Plib/libherwig58d.a(hwrexq.o)
                0x080b3b10                hwrexq_
 *fill*         0x080b3c2b        0x5 90909090
 .text          0x080b3c30      0x270 /home/pcl2483/pedro/jadesoft/util/mcgen/Plib/libherwig58d.a(hwsdgg.o)
                0x080b3c30                hwsdgg_
 .text          0x080b3ea0      0x655 /home/pcl2483/pedro/jadesoft/util/mcgen/Plib/libherwig58d.a(hwsdgq.o)
                0x080b3ea0                hwsdgq_
 *fill*         0x080b44f5        0xb 90909090
 .text          0x080b4500      0x216 /home/pcl2483/pedro/jadesoft/util/mcgen/Plib/libherwig58d.a(hwubpr.o)
                0x080b4500                hwubpr_
 *fill*         0x080b4716        0xa 90909090
 .text          0x080b4720      0x3e9 /home/pcl2483/pedro/jadesoft/util/mcgen/Plib/libherwig58d.a(hwuci2.o)
                0x080b4720                hwuci2_
 *fill*         0x080b4b09        0x7 90909090
 .text          0x080b4b10      0x811 /home/pcl2483/pedro/jadesoft/util/mcgen/Plib/libherwig58d.a(hwuedt.o)
                0x080b4b10                hwuedt_
 *fill*         0x080b5321        0xf 90909090
 .text          0x080b5330      0x3bd /home/pcl2483/pedro/jadesoft/util/mcgen/Plib/libherwig58d.a(hwuemv.o)
                0x080b5330                hwuemv_
 *fill*         0x080b56ed        0x3 90909090
 .text          0x080b56f0      0x30d /home/pcl2483/pedro/jadesoft/util/mcgen/Plib/libherwig58d.a(hwugau.o)
                0x080b56f0                hwugau_
 *fill*         0x080b59fd        0x3 90909090
 .text          0x080b5a00      0x284 /home/pcl2483/pedro/jadesoft/util/mcgen/Plib/libherwig58d.a(hwuidt.o)
                0x080b5a00                hwuidt_
 *fill*         0x080b5c84        0xc 90909090
 .text          0x080b5c90      0x114 /home/pcl2483/pedro/jadesoft/util/mcgen/Plib/libherwig58d.a(hwulf4.o)
                0x080b5c90                hwulf4_
 *fill*         0x080b5da4        0xc 90909090
 .text          0x080b5db0      0xfef /home/pcl2483/pedro/jadesoft/util/mcgen/Plib/libherwig58d.a(hwuli2.o)
                0x080b66a4                hwuli2_
 *fill*         0x080b6d9f        0x1 90909090
 .text          0x080b6da0      0x10b /home/pcl2483/pedro/jadesoft/util/mcgen/Plib/libherwig58d.a(hwvdot.o)
                0x080b6da0                hwvdot_
 *fill*         0x080b6eab        0x5 90909090
 .text          0x080b6eb0     0x1775 /home/pcl2483/pedro/jadesoft/util/mcgen/Plib/libherwig58d.a(pystig.o)
                0x080b6eb0                pystig_
 *fill*         0x080b8625        0xb 90909090
 .text          0x080b8630      0xed4 /home/pcl2483/pedro/jadesoft/util/mcgen/Plib/libherwig58d.a(pystvg.o)
                0x080b8630                pystvg_
 *fill*         0x080b9504        0xc 90909090
 .text          0x080b9510       0x64 /home/pcl2483/pedro/jadesoft/util/mcgen/Plib/libherwig58d.a(hwbsu1.o)
                0x080b9510                hwbsu1_
 *fill*         0x080b9574        0xc 90909090
 .text          0x080b9580       0x44 /home/pcl2483/pedro/jadesoft/util/mcgen/Plib/libherwig58d.a(hwbsu2.o)
                0x080b9580                hwbsu2_
 *fill*         0x080b95c4        0xc 90909090
 .text          0x080b95d0      0x121 /home/pcl2483/pedro/jadesoft/util/mcgen/Plib/libherwig58d.a(hwdhgc.o)
                0x080b95d0                hwdhgc_
 *fill*         0x080b96f1        0xf 90909090
 .text          0x080b9700      0x5a9 /home/pcl2483/pedro/jadesoft/util/mcgen/Plib/libherwig58d.a(hwdhgf.o)
                0x080b9700                hwdhgf_
 *fill*         0x080b9ca9        0x7 90909090
 .text          0x080b9cb0     0x2094 /home/pcl2483/pedro/jadesoft/util/mcgen/Plib/libherwig58d.a(hwhig1.o)
                0x080bbcec                hwhig5_
                0x080bbc94                hwhig2_
                0x080bbc3c                hwhig1_
 *fill*         0x080bbd44        0xc 90909090
 .text          0x080bbd50      0x552 /home/pcl2483/pedro/jadesoft/util/mcgen/Plib/libjt74opal.a(luchge.o)
                0x080bbd50                luchge_
 *fill*         0x080bc2a2        0xe 90909090
 .text          0x080bc2b0      0x957 /home/pcl2483/pedro/jadesoft/util/mcgen/Plib/libjt74opal.a(lucomp.o)
                0x080bc2b0                lucomp_
 *fill*         0x080bcc07        0x1 90909090
 .text          0x080bcc08        0x7 /home/pcl2483/pedro/jadesoft/util/mcgen/Plib/libjt74opal.a(ludata.o)
                0x080bcc08                ludata_
 *fill*         0x080bcc0f        0x1 90909090
 .text          0x080bcc10     0x2a61 /home/pcl2483/pedro/jadesoft/util/mcgen/Plib/libjt74opal.a(luedit.o)
                0x080bcc10                luedit_
 *fill*         0x080bf671        0xf 90909090
 .text          0x080bf680      0x2c2 /home/pcl2483/pedro/jadesoft/util/mcgen/Plib/libjt74opal.a(luerrm.o)
                0x080bf680                luerrm_
 *fill*         0x080bf942        0xe 90909090
 .text          0x080bf950      0xa45 /home/pcl2483/pedro/jadesoft/util/mcgen/Plib/libjt74opal.a(luexec.o)
                0x080bf950                luexec_
 *fill*         0x080c0395        0xb 90909090
 .text          0x080c03a0     0x14ee /home/pcl2483/pedro/jadesoft/util/mcgen/Plib/libjt74opal.a(luhepc.o)
                0x080c03a0                luhepc_
 *fill*         0x080c188e        0x2 90909090
 .text          0x080c1890     0x4bef /home/pcl2483/pedro/jadesoft/util/mcgen/Plib/libjt74opal.a(luindf.o)
                0x080c1890                luindf_
 *fill*         0x080c647f        0x1 90909090
 .text          0x080c6480     0x31f6 /home/pcl2483/pedro/jadesoft/util/mcgen/Plib/libjt74opal.a(lukfdi.o)
                0x080c6480                lukfdi_
 *fill*         0x080c9676        0xa 90909090
 .text          0x080c9680     0x2766 /home/pcl2483/pedro/jadesoft/util/mcgen/Plib/libjt74opal.a(lulist.o)
                0x080c9680                lulist_
 *fill*         0x080cbde6        0xa 90909090
 .text          0x080cbdf0      0x69a /home/pcl2483/pedro/jadesoft/util/mcgen/Plib/libjt74opal.a(lulogo.o)
                0x080cbdf0                lulogo_
 *fill*         0x080cc48a        0x6 90909090
 .text          0x080cc490      0xdd4 /home/pcl2483/pedro/jadesoft/util/mcgen/Plib/libjt74opal.a(luname.o)
                0x080cc490                luname_
 *fill*         0x080cd264        0xc 90909090
 .text          0x080cd270     0x39ef /home/pcl2483/pedro/jadesoft/util/mcgen/Plib/libjt74opal.a(luprep.o)
                0x080cd270                luprep_
 *fill*         0x080d0c5f        0x1 90909090
 .text          0x080d0c60      0x177 /home/pcl2483/pedro/jadesoft/util/mcgen/Plib/libjt74opal.a(luptdi.o)
                0x080d0c60                luptdi_
 *fill*         0x080d0dd7        0x9 90909090
 .text          0x080d0de0      0xc9b /home/pcl2483/pedro/jadesoft/util/mcgen/Plib/libjt74opal.a(lurobo.o)
                0x080d1a00                lurobo_
                0x080d1a3c                ludbrb_
 *fill*         0x080d1a7b        0x5 90909090
 .text          0x080d1a80     0x9eb1 /home/pcl2483/pedro/jadesoft/util/mcgen/Plib/libjt74opal.a(lushow.o)
                0x080d1a80                lushow_
 *fill*         0x080db931        0xf 90909090
 .text          0x080db940     0xb76f /home/pcl2483/pedro/jadesoft/util/mcgen/Plib/libjt74opal.a(lustrf.o)
                0x080dbaa8                lustrf_
 *fill*         0x080e70af        0x1 90909090
 .text          0x080e70b0     0x60f3 /home/pcl2483/pedro/jadesoft/util/mcgen/Plib/libjt74opal.a(lutabu.o)
                0x080e70b0                lutabu_
 *fill*         0x080ed1a3        0xd 90909090
 .text          0x080ed1b0      0xc5b /home/pcl2483/pedro/jadesoft/util/mcgen/Plib/libjt74opal.a(luzdis.o)
                0x080ed1b0                luzdis_
 *fill*         0x080ede0b        0x5 90909090
 .text          0x080ede10      0xa80 /home/pcl2483/pedro/jadesoft/util/mcgen/Plib/libjt74opal.a(plu.o)
                0x080ede10                plu_
 .text          0x080ee890      0x597 /home/pcl2483/pedro/jadesoft/util/mcgen/Plib/libjt74opal.a(rlu.o)
                0x080ee890                rlu_
 *fill*         0x080eee27        0x9 90909090
 .text          0x080eee30      0x139 /home/pcl2483/pedro/jadesoft/util/mcgen/Plib/libjt74opal.a(ulangl.o)
                0x080eee30                ulangl_
 *fill*         0x080eef69        0x7 90909090
 .text          0x080eef70      0x92a /home/pcl2483/pedro/jadesoft/util/mcgen/Plib/libjt74opal.a(ulmass.o)
                0x080eef70                ulmass_
 *fill*         0x080ef89a        0x6 90909090
 .text          0x080ef8a0     0x1e4f /home/pcl2483/pedro/jadesoft/util/mcgen/Plib/libjt74opal.a(luboei.o)
                0x080ef8a0                luboei_
 *fill*         0x080f16ef        0x1 90909090
 .text          0x080f16f0     0x7150 /home/pcl2483/pedro/jadesoft/util/mcgen/Plib/libjt74opal.a(ludecy.o)
                0x080f18a8                ludecy_
 .text          0x080f8840     0x123c /home/pcl2483/pedro/jadesoft/util/mcgen/Plib/libjt74opal.a(lutaud.o)
                0x080f8840                lutaud_
 *fill*         0x080f9a7c        0x4 90909090
 .text          0x080f9a80      0x205 /home/pcl2483/pedro/jadesoft/util/mcgen/Plib/libjt74opal.a(taupol.o)
                0x080f9a80                taupol_
 *fill*         0x080f9c85        0xb 90909090
 .text          0x080f9c90      0x776 /home/pcl2483/pedro/jadesoft/util/mcgen/Plib/libjt74opal.a(dexay.o)
                0x080f9c90                dexay_
 *fill*         0x080fa406        0xa 90909090
 .text          0x080fa410      0x42c /home/pcl2483/pedro/jadesoft/util/mcgen/Plib/libjt74opal.a(dexay1.o)
                0x080fa410                dexay1_
 *fill*         0x080fa83c        0x4 90909090
 .text          0x080fa840      0x154 /home/pcl2483/pedro/jadesoft/util/mcgen/Plib/libjt74opal.a(dexel.o)
                0x080fa840                dexel_
 *fill*         0x080fa994        0xc 90909090
 .text          0x080fa9a0      0x104 /home/pcl2483/pedro/jadesoft/util/mcgen/Plib/libjt74opal.a(dexkk.o)
                0x080fa9a0                dexkk_
 *fill*         0x080faaa4        0xc 90909090
 .text          0x080faab0      0x164 /home/pcl2483/pedro/jadesoft/util/mcgen/Plib/libjt74opal.a(dexks.o)
                0x080faab0                dexks_
 *fill*         0x080fac14        0xc 90909090
 .text          0x080fac20      0x164 /home/pcl2483/pedro/jadesoft/util/mcgen/Plib/libjt74opal.a(dexmu.o)
                0x080fac20                dexmu_
 *fill*         0x080fad84        0xc 90909090
 .text          0x080fad90      0x15c /home/pcl2483/pedro/jadesoft/util/mcgen/Plib/libjt74opal.a(dexnew.o)
                0x080fad90                dexnew_
 *fill*         0x080faeec        0x4 90909090
 .text          0x080faef0      0x104 /home/pcl2483/pedro/jadesoft/util/mcgen/Plib/libjt74opal.a(dexpi.o)
                0x080faef0                dexpi_
 *fill*         0x080faff4        0xc 90909090
 .text          0x080fb000      0x15a /home/pcl2483/pedro/jadesoft/util/mcgen/Plib/libjt74opal.a(dexro.o)
                0x080fb000                dexro_
 *fill*         0x080fb15a        0x6 90909090
 .text          0x080fb160      0x1bc /home/pcl2483/pedro/jadesoft/util/mcgen/Plib/libjt74opal.a(dwlnew.o)
                0x080fb160                dwlnew_
 *fill*         0x080fb31c        0x4 90909090
 .text          0x080fb320      0x268 /home/pcl2483/pedro/jadesoft/util/mcgen/Plib/libjt74opal.a(dwluaa.o)
                0x080fb320                dwluaa_
 *fill*         0x080fb588        0x8 90909090
 .text          0x080fb590      0x104 /home/pcl2483/pedro/jadesoft/util/mcgen/Plib/libjt74opal.a(dwluel.o)
                0x080fb590                dwluel_
 *fill*         0x080fb694        0xc 90909090
 .text          0x080fb6a0       0xb5 /home/pcl2483/pedro/jadesoft/util/mcgen/Plib/libjt74opal.a(dwlukk.o)
                0x080fb6a0                dwlukk_
 *fill*         0x080fb755        0xb 90909090
 .text          0x080fb760      0x244 /home/pcl2483/pedro/jadesoft/util/mcgen/Plib/libjt74opal.a(dwluks.o)
                0x080fb760                dwluks_
 *fill*         0x080fb9a4        0xc 90909090
 .text          0x080fb9b0      0x104 /home/pcl2483/pedro/jadesoft/util/mcgen/Plib/libjt74opal.a(dwlumu.o)
                0x080fb9b0                dwlumu_
 *fill*         0x080fbab4        0xc 90909090
 .text          0x080fbac0       0xab /home/pcl2483/pedro/jadesoft/util/mcgen/Plib/libjt74opal.a(dwlupi.o)
                0x080fbac0                dwlupi_
 *fill*         0x080fbb6b        0x5 90909090
 .text          0x080fbb70      0x134 /home/pcl2483/pedro/jadesoft/util/mcgen/Plib/libjt74opal.a(dwluro.o)
                0x080fbb70                dwluro_
 *fill*         0x080fbca4        0xc 90909090
 .text          0x080fbcb0       0xda /home/pcl2483/pedro/jadesoft/util/mcgen/Plib/libjt74opal.a(dwrph.o)
                0x080fbcb0                dwrph_
 *fill*         0x080fbd8a        0x6 90909090
 .text          0x080fbd90      0x391 /home/pcl2483/pedro/jadesoft/util/mcgen/Plib/libjt74opal.a(filhep.o)
                0x080fbd90                filhep_
 *fill*         0x080fc121        0xf 90909090
 .text          0x080fc130      0xd35 /home/pcl2483/pedro/jadesoft/util/mcgen/Plib/libjt74opal.a(initdk.o)
                0x080fc130                initdk_
 *fill*         0x080fce65        0xb 90909090
 .text          0x080fce70      0x170 /home/pcl2483/pedro/jadesoft/util/mcgen/Plib/libjt74opal.a(jaker.o)
                0x080fce70                jaker_
 .text          0x080fcfe0      0x214 /home/pcl2483/pedro/jadesoft/util/mcgen/Plib/libjt74opal.a(lunpik.o)
                0x080fcfe0                lunpik_
 *fill*         0x080fd1f4        0xc 90909090
 .text          0x080fd200      0x5a8 /home/pcl2483/pedro/jadesoft/util/mcgen/Plib/libjt74opal.a(dadmel.o)
                0x080fd200                dadmel_
 *fill*         0x080fd7a8        0x8 90909090
 .text          0x080fd7b0      0x577 /home/pcl2483/pedro/jadesoft/util/mcgen/Plib/libjt74opal.a(dadmkk.o)
                0x080fd7b0                dadmkk_
 *fill*         0x080fdd27        0x9 90909090
 .text          0x080fdd30      0x5b8 /home/pcl2483/pedro/jadesoft/util/mcgen/Plib/libjt74opal.a(dadmks.o)
                0x080fdd30                dadmks_
 *fill*         0x080fe2e8        0x8 90909090
 .text          0x080fe2f0      0x598 /home/pcl2483/pedro/jadesoft/util/mcgen/Plib/libjt74opal.a(dadmmu.o)
                0x080fe2f0                dadmmu_
 *fill*         0x080fe888        0x8 90909090
 .text          0x080fe890      0x56d /home/pcl2483/pedro/jadesoft/util/mcgen/Plib/libjt74opal.a(dadmpi.o)
                0x080fe890                dadmpi_
 *fill*         0x080fedfd        0x3 90909090
 .text          0x080fee00      0x558 /home/pcl2483/pedro/jadesoft/util/mcgen/Plib/libjt74opal.a(dadmro.o)
                0x080fee00                dadmro_
 *fill*         0x080ff358        0x8 90909090
 .text          0x080ff360      0xace /home/pcl2483/pedro/jadesoft/util/mcgen/Plib/libjt74opal.a(dadnew.o)
                0x080ff360                dadnew_
 *fill*         0x080ffe2e        0x2 90909090
 .text          0x080ffe30      0x185 /home/pcl2483/pedro/jadesoft/util/mcgen/Plib/libjt74opal.a(dexaa.o)
                0x080ffe30                dexaa_
 *fill*         0x080fffb5        0xb 90909090
 .text          0x080fffc0     0x1f8c /home/pcl2483/pedro/jadesoft/util/mcgen/Plib/libjt74opal.a(dph4pi.o)
                0x08100014                dph4pi_
 *fill*         0x08101f4c        0x4 90909090
 .text          0x08101f50     0x17fc /home/pcl2483/pedro/jadesoft/util/mcgen/Plib/libjt74opal.a(dph5pi.o)
                0x08102084                dph5pi_
 *fill*         0x0810374c        0x4 90909090
 .text          0x08103750     0x192f /home/pcl2483/pedro/jadesoft/util/mcgen/Plib/libjt74opal.a(dphnpi.o)
                0x08103810                dphnpi_
 *fill*         0x0810507f        0x1 90909090
 .text          0x08105080      0x17b /home/pcl2483/pedro/jadesoft/util/mcgen/Plib/libjt74opal.a(dphsel.o)
                0x08105080                dphsel_
 *fill*         0x081051fb        0x5 90909090
 .text          0x08105200     0x138f /home/pcl2483/pedro/jadesoft/util/mcgen/Plib/libjt74opal.a(dphsks.o)
                0x08105200                dphsks_
 *fill*         0x0810658f        0x1 90909090
 .text          0x08106590      0x17b /home/pcl2483/pedro/jadesoft/util/mcgen/Plib/libjt74opal.a(dphsmu.o)
                0x08106590                dphsmu_
 *fill*         0x0810670b        0x5 90909090
 .text          0x08106710      0x1b9 /home/pcl2483/pedro/jadesoft/util/mcgen/Plib/libjt74opal.a(dphspk.o)
                0x08106710                dphspk_
 *fill*         0x081068c9        0x7 90909090
 .text          0x081068d0      0x870 /home/pcl2483/pedro/jadesoft/util/mcgen/Plib/libjt74opal.a(dphsrk.o)
                0x081068d0                dphsrk_
 .text          0x08107140      0x85f /home/pcl2483/pedro/jadesoft/util/mcgen/Plib/libjt74opal.a(dphsro.o)
                0x08107140                dphsro_
 *fill*         0x0810799f        0x1 90909090
 .text          0x081079a0     0x13cd /home/pcl2483/pedro/jadesoft/util/mcgen/Plib/libjt74opal.a(dphtre.o)
                0x081079f4                dphtre_
 *fill*         0x08108d6d        0x3 90909090
 .text          0x08108d70      0xcee /home/pcl2483/pedro/jadesoft/util/mcgen/Plib/libjt74opal.a(drcmu.o)
                0x08108d70                drcmu_
 *fill*         0x08109a5e        0x2 90909090
 .text          0x08109a60       0x87 /home/pcl2483/pedro/jadesoft/util/mcgen/Plib/libjt74opal.a(dwluph.o)
                0x08109a60                dwluph_
 *fill*         0x08109ae7        0x1 90909090
 .text          0x08109ae8       0x3d /home/pcl2483/pedro/jadesoft/util/mcgen/Plib/libjt74opal.a(fpirho.o)
                0x08109ae8                fpirho_
 *fill*         0x08109b25        0x3 90909090
 .text          0x08109b28       0x44 /home/pcl2483/pedro/jadesoft/util/mcgen/Plib/libjt74opal.a(fpirk.o)
                0x08109b28                fpirk_
 *fill*         0x08109b6c        0x4 90909090
 .text          0x08109b70      0x109 /home/pcl2483/pedro/jadesoft/util/mcgen/Plib/libjt74opal.a(rotor2.o)
                0x08109b70                rotor2_
 *fill*         0x08109c79        0x7 90909090
 .text          0x08109c80       0xf9 /home/pcl2483/pedro/jadesoft/util/mcgen/Plib/libjt74opal.a(rotor3.o)
                0x08109c80                rotor3_
 *fill*         0x08109d79        0x7 90909090
 .text          0x08109d80       0x3a /home/pcl2483/pedro/jadesoft/util/mcgen/Plib/libjt74opal.a(rotpol.o)
                0x08109d80                rotpol_
 *fill*         0x08109dba        0x6 90909090
 .text          0x08109dc0       0x3a /home/pcl2483/pedro/jadesoft/util/mcgen/Plib/libjt74opal.a(rotpox.o)
                0x08109dc0                rotpox_
 *fill*         0x08109dfa        0x6 90909090
 .text          0x08109e00      0x67c /home/pcl2483/pedro/jadesoft/util/mcgen/Plib/libjt74opal.a(sigee.o)
                0x08109e00                sigee_
 .text          0x0810a47c      0x11d /home/pcl2483/pedro/jadesoft/util/mcgen/Plib/libjt74opal.a(sphera.o)
                0x0810a47c                sphera_
 *fill*         0x0810a599        0x3 90909090
 .text          0x0810a59c      0x115 /home/pcl2483/pedro/jadesoft/util/mcgen/Plib/libjt74opal.a(spherd.o)
                0x0810a59c                spherd_
 *fill*         0x0810a6b1        0xf 90909090
 .text          0x0810a6c0       0xff /home/pcl2483/pedro/jadesoft/util/mcgen/Plib/libjt74opal.a(bostd3.o)
                0x0810a6c0                bostd3_
 *fill*         0x0810a7bf        0x1 90909090
 .text          0x0810a7c0       0xff /home/pcl2483/pedro/jadesoft/util/mcgen/Plib/libjt74opal.a(bostr3.o)
                0x0810a7c0                bostr3_
 *fill*         0x0810a8bf        0x1 90909090
 .text          0x0810a8c0      0x267 /home/pcl2483/pedro/jadesoft/util/mcgen/Plib/libjt74opal.a(bwigs.o)
                0x0810a964                bwigs_
 *fill*         0x0810ab27        0x9 90909090
 .text          0x0810ab30      0x5b8 /home/pcl2483/pedro/jadesoft/util/mcgen/Plib/libjt74opal.a(choice.o)
                0x0810ab30                choice_
 *fill*         0x0810b0e8        0x8 90909090
 .text          0x0810b0f0      0x508 /home/pcl2483/pedro/jadesoft/util/mcgen/Plib/libjt74opal.a(dadmaa.o)
                0x0810b0f0                dadmaa_
 *fill*         0x0810b5f8        0x8 90909090
 .text          0x0810b600      0x27e /home/pcl2483/pedro/jadesoft/util/mcgen/Plib/libjt74opal.a(dam4pi.o)
                0x0810b600                dam4pi_
 *fill*         0x0810b87e        0x2 90909090
 .text          0x0810b880      0xb17 /home/pcl2483/pedro/jadesoft/util/mcgen/Plib/libjt74opal.a(dampog.o)
                0x0810b880                dampog_
 *fill*         0x0810c397        0x9 90909090
 .text          0x0810c3a0     0x1aaf /home/pcl2483/pedro/jadesoft/util/mcgen/Plib/libjt74opal.a(damppk.o)
                0x0810c3a0                damppk_
 *fill*         0x0810de4f        0x1 90909090
 .text          0x0810de50       0xa8 /home/pcl2483/pedro/jadesoft/util/mcgen/Plib/libjt74opal.a(dampry.o)
                0x0810de50                dampry_
 *fill*         0x0810def8        0x8 90909090
 .text          0x0810df00      0x1da /home/pcl2483/pedro/jadesoft/util/mcgen/Plib/libjt74opal.a(dcdmas.o)
                0x0810df00                dcdmas_
 *fill*         0x0810e0da        0x6 90909090
 .text          0x0810e0e0       0xe5 /home/pcl2483/pedro/jadesoft/util/mcgen/Plib/libjt74opal.a(dphsaa.o)
                0x0810e0e0                dphsaa_
 *fill*         0x0810e1c5        0xb 90909090
 .text          0x0810e1d0      0x6d8 /home/pcl2483/pedro/jadesoft/util/mcgen/Plib/libjt74opal.a(form1.o)
                0x0810e2a8                form1_
 *fill*         0x0810e8a8        0x8 90909090
 .text          0x0810e8b0      0x7c8 /home/pcl2483/pedro/jadesoft/util/mcgen/Plib/libjt74opal.a(form2.o)
                0x0810e988                form2_
 *fill*         0x0810f078        0x8 90909090
 .text          0x0810f080       0x54 /home/pcl2483/pedro/jadesoft/util/mcgen/Plib/libjt74opal.a(form3.o)
                0x0810f080                form3_
 *fill*         0x0810f0d4        0xc 90909090
 .text          0x0810f0e0      0x966 /home/pcl2483/pedro/jadesoft/util/mcgen/Plib/libjt74opal.a(form4.o)
                0x0810f1b8                form4_
 *fill*         0x0810fa46        0xa 90909090
 .text          0x0810fa50      0x69b /home/pcl2483/pedro/jadesoft/util/mcgen/Plib/libjt74opal.a(form5.o)
                0x0810fa50                form5_
 *fill*         0x081100eb        0x5 90909090
 .text          0x081100f0      0x371 /home/pcl2483/pedro/jadesoft/util/mcgen/Plib/libjt74opal.a(formom.o)
                0x081101d4                formom_
 *fill*         0x08110461        0xf 90909090
 .text          0x08110470      0x153 /home/pcl2483/pedro/jadesoft/util/mcgen/Plib/libjt74opal.a(fpik.o)
                0x08110470                fpik_
 *fill*         0x081105c3        0xd 90909090
 .text          0x081105d0      0x16c /home/pcl2483/pedro/jadesoft/util/mcgen/Plib/libjt74opal.a(fpikm.o)
                0x081105d0                fpikm_
 *fill*         0x0811073c        0x4 90909090
 .text          0x08110740      0x1ec /home/pcl2483/pedro/jadesoft/util/mcgen/Plib/libjt74opal.a(fpikmd.o)
                0x08110740                fpikmd_
 *fill*         0x0811092c        0x4 90909090
 .text          0x08110930      0x1ba /home/pcl2483/pedro/jadesoft/util/mcgen/Plib/libjt74opal.a(gfun.o)
                0x08110930                gfun_
 *fill*         0x08110aea        0x6 90909090
 .text          0x08110af0      0x369 /home/pcl2483/pedro/jadesoft/util/mcgen/Plib/libjt74opal.a(prod5.o)
                0x08110b88                prod5_
 *fill*         0x08110e59        0x7 90909090
 .text          0x08110e60      0x109 /home/pcl2483/pedro/jadesoft/util/mcgen/Plib/libjt74opal.a(rotod2.o)
                0x08110e60                rotod2_
 *fill*         0x08110f69        0x7 90909090
 .text          0x08110f70      0x109 /home/pcl2483/pedro/jadesoft/util/mcgen/Plib/libjt74opal.a(rotod3.o)
                0x08110f70                rotod3_
 *fill*         0x08111079        0x7 90909090
 .text          0x08111080      0xe1b /home/pcl2483/pedro/jadesoft/util/mcgen/Plib/libjt74opal.a(sqm2.o)
                0x08111080                sqm2_
 *fill*         0x08111e9b        0x5 90909090
 .text          0x08111ea0      0xc54 /home/pcl2483/pedro/jadesoft/util/mcgen/Plib/libjt74opal.a(thb.o)
                0x08111ea0                thb_
 *fill*         0x08112af4        0xc 90909090
 .text          0x08112b00       0xe4 /home/pcl2483/pedro/jadesoft/util/mcgen/Plib/libjt74opal.a(wigfor.o)
                0x08112b00                wigfor_
 *fill*         0x08112be4        0xc 90909090
 .text          0x08112bf0      0x1ff /home/pcl2483/pedro/jadesoft/util/mcgen/Plib/libjt74opal.a(bwig.o)
                0x08112bf0                bwig_
 *fill*         0x08112def        0x1 90909090
 .text          0x08112df0      0x250 /home/pcl2483/pedro/jadesoft/util/mcgen/Plib/libjt74opal.a(bwigm.o)
                0x08112df0                bwigm_
 .text          0x08113040      0x36b /home/pcl2483/pedro/jadesoft/util/mcgen/Plib/libjt74opal.a(claxi.o)
                0x08113104                claxi_
 *fill*         0x081133ab        0x5 90909090
 .text          0x081133b0       0xc4 /home/pcl2483/pedro/jadesoft/util/mcgen/Plib/libjt74opal.a(clnut.o)
                0x081133b0                clnut_
 *fill*         0x08113474        0xc 90909090
 .text          0x08113480      0x1c0 /home/pcl2483/pedro/jadesoft/util/mcgen/Plib/libjt74opal.a(clvec.o)
                0x08113480                clvec_
 .text          0x08113640     0x194f /home/pcl2483/pedro/jadesoft/util/mcgen/Plib/libjt74opal.a(curr.o)
                0x08113718                curr_
 *fill*         0x08114f8f        0x1 90909090
 .text          0x08114f90      0x50d /home/pcl2483/pedro/jadesoft/util/mcgen/Plib/libjt74opal.a(dilog.o)
                0x08114f90                dilog_
 *fill*         0x0811549d        0x3 90909090
 .text          0x081154a0     0x1786 /home/pcl2483/pedro/jadesoft/util/mcgen/Plib/libckern105.a(ckern.o)
                0x081154a0                ckern_
 *fill*         0x08116c26        0xa 90909090
 .text          0x08116c30      0x42f /home/pcl2483/pedro/jadesoft/util/mcgen/Plib/libckern105.a(cksord.o)
                0x08116c30                cksord_
 *fill*         0x0811705f        0x1 90909090
 .text          0x08117060      0x1b5 /home/pcl2483/pedro/jadesoft/util/mcgen/Plib/libckern105.a(cnjet.o)
                0x08117060                cnjet_
 *fill*         0x08117215        0xb 90909090
 .text          0x08117220      0x217 /home/pcl2483/pedro/jadesoft/util/mcgen/Plib/libpx114.a(pxang3.o)
                0x08117220                pxang3_
 *fill*         0x08117437        0x9 90909090
 .text          0x08117440      0x17f /home/pcl2483/pedro/jadesoft/util/mcgen/Plib/libpx114.a(pxanxy.o)
                0x08117440                pxanxy_
 *fill*         0x081175bf        0x1 90909090
 .text          0x081175c0      0xa8f /home/pcl2483/pedro/jadesoft/util/mcgen/Plib/libpx114.a(pxcone.o)
                0x081175c0                pxcone_
 *fill*         0x0811804f        0x1 90909090
 .text          0x08118050       0x6b /home/pcl2483/pedro/jadesoft/util/mcgen/Plib/libpx114.a(pxcopv.o)
                0x08118050                pxcopv_
 *fill*         0x081180bb        0x5 90909090
 .text          0x081180c0      0x322 /home/pcl2483/pedro/jadesoft/util/mcgen/Plib/libpx114.a(pxjpdg.o)
                0x081180c0                pxjpdg_
 *fill*         0x081183e2        0xe 90909090
 .text          0x081183f0      0x70f /home/pcl2483/pedro/jadesoft/util/mcgen/Plib/libpx114.a(pxjsp3.o)
                0x081183f0                pxjsp3_
 *fill*         0x08118aff        0x1 90909090
 .text          0x08118b00      0x835 /home/pcl2483/pedro/jadesoft/util/mcgen/Plib/libpx114.a(pxlsp3.o)
                0x08118b00                pxlsp3_
 *fill*         0x08119335        0xb 90909090
 .text          0x08119340      0x3f2 /home/pcl2483/pedro/jadesoft/util/mcgen/Plib/libpx114.a(pxlth4.o)
                0x08119340                pxlth4_
 *fill*         0x08119732        0xe 90909090
 .text          0x08119740     0x2507 /home/pcl2483/pedro/jadesoft/util/mcgen/Plib/libpx114.a(pxlut3.o)
                0x08119740                pxlut3_
 *fill*         0x0811bc47        0x9 90909090
 .text          0x0811bc50      0x11a /home/pcl2483/pedro/jadesoft/util/mcgen/Plib/libpx114.a(pxlzf5.o)
                0x0811bc50                pxlzf5_
 *fill*         0x0811bd6a        0x6 90909090
 .text          0x0811bd70      0x4b2 /home/pcl2483/pedro/jadesoft/util/mcgen/Plib/libpx114.a(pxmmbb.o)
                0x0811bd70                pxmmbb_
 *fill*         0x0811c222        0xe 90909090
 .text          0x0811c230      0x131 /home/pcl2483/pedro/jadesoft/util/mcgen/Plib/libpx114.a(pxnorv.o)
                0x0811c230                pxnorv_
 *fill*         0x0811c361        0xf 90909090
 .text          0x0811c370      0x63c /home/pcl2483/pedro/jadesoft/util/mcgen/Plib/libpx114.a(pxolap.o)
                0x0811c370                pxolap_
 *fill*         0x0811c9ac        0x4 90909090
 .text          0x0811c9b0      0x361 /home/pcl2483/pedro/jadesoft/util/mcgen/Plib/libpx114.a(pxord.o)
                0x0811c9b0                pxord_
 *fill*         0x0811cd11        0xf 90909090
 .text          0x0811cd20      0x1dd /home/pcl2483/pedro/jadesoft/util/mcgen/Plib/libpx114.a(pxplt3.o)
                0x0811cd20                pxplt3_
 *fill*         0x0811cefd        0x3 90909090
 .text          0x0811cf00      0x12c /home/pcl2483/pedro/jadesoft/util/mcgen/Plib/libpx114.a(pxplu3.o)
                0x0811cf00                pxplu3_
 *fill*         0x0811d02c        0x4 90909090
 .text          0x0811d030      0x301 /home/pcl2483/pedro/jadesoft/util/mcgen/Plib/libpx114.a(pxprcv.o)
                0x0811d030                pxprcv_
 *fill*         0x0811d331        0xf 90909090
 .text          0x0811d340      0x2ed /home/pcl2483/pedro/jadesoft/util/mcgen/Plib/libpx114.a(pxprrv.o)
                0x0811d340                pxprrv_
 *fill*         0x0811d62d        0x3 90909090
 .text          0x0811d630      0x1e9 /home/pcl2483/pedro/jadesoft/util/mcgen/Plib/libpx114.a(pxrap4.o)
                0x0811d630                pxrap4_
 *fill*         0x0811d819        0x7 90909090
 .text          0x0811d820      0x22d /home/pcl2483/pedro/jadesoft/util/mcgen/Plib/libpx114.a(pxrmx3.o)
                0x0811d820                pxrmx3_
 *fill*         0x0811da4d        0x3 90909090
 .text          0x0811da50       0xb5 /home/pcl2483/pedro/jadesoft/util/mcgen/Plib/libpx114.a(pxrob3.o)
                0x0811da50                pxrob3_
 *fill*         0x0811db05        0xb 90909090
 .text          0x0811db10       0xb5 /home/pcl2483/pedro/jadesoft/util/mcgen/Plib/libpx114.a(pxrof3.o)
                0x0811db10                pxrof3_
 *fill*         0x0811dbc5        0xb 90909090
 .text          0x0811dbd0      0x329 /home/pcl2483/pedro/jadesoft/util/mcgen/Plib/libpx114.a(pxsear.o)
                0x0811dbd0                pxsear_
 *fill*         0x0811def9        0x7 90909090
 .text          0x0811df00      0x37f /home/pcl2483/pedro/jadesoft/util/mcgen/Plib/libpx114.a(pxsorv.o)
                0x0811df00                pxsorv_
 *fill*         0x0811e27f        0x1 90909090
 .text          0x0811e280      0x2d2 /home/pcl2483/pedro/jadesoft/util/mcgen/Plib/libpx114.a(pxtry.o)
                0x0811e280                pxtry_
 *fill*         0x0811e552        0xe 90909090
 .text          0x0811e560      0x1ac /home/pcl2483/pedro/jadesoft/util/mcgen/Plib/libpx114.a(pxuvec.o)
                0x0811e560                pxuvec_
 *fill*         0x0811e70c        0x4 90909090
 .text          0x0811e710       0x49 /home/pcl2483/pedro/jadesoft/util/mcgen/Plib/libpx114.a(pxzerv.o)
                0x0811e710                pxzerv_
 *fill*         0x0811e759        0x7 90909090
 .text          0x0811e760     0x1dee /home/pcl2483/pedro/jadesoft/util/mcgen/Plib/libpx114.a(ykern.o)
                0x0811ed68                ykern_
 *fill*         0x0812054e        0x2 90909090
 .text          0x08120550      0x134 /home/pcl2483/pedro/jadesoft/util/mcgen/Plib/libpx114.a(ynjet.o)
                0x08120550                ynjet_
 *fill*         0x08120684        0xc 90909090
 .text          0x08120690      0x175 /home/pcl2483/pedro/jadesoft/util/mcgen/Plib/libpx114.a(yyjet.o)
                0x08120690                yyjet_
 *fill*         0x08120805        0xb 90909090
 .text          0x08120810       0x8b /home/pcl2483/pedro/jadesoft/util/mcgen/Plib/libpx114.a(pxaddv.o)
                0x08120810                pxaddv_
 *fill*         0x0812089b        0x5 90909090
 .text          0x081208a0      0xcdc /home/pcl2483/pedro/jadesoft/util/mcgen/Plib/libpx114.a(pxdiam.o)
                0x081208a0                pxdiam_
 *fill*         0x0812157c        0x4 90909090
 .text          0x08121580      0x3cf /home/pcl2483/pedro/jadesoft/util/mcgen/Plib/libpx114.a(pxmulm.o)
                0x08121580                pxmulm_
 *fill*         0x0812194f        0x1 90909090
 .text          0x08121950       0xea /home/pcl2483/pedro/jadesoft/util/mcgen/Plib/libpx114.a(pxnew.o)
                0x08121950                pxnew_
 *fill*         0x08121a3a        0x6 90909090
 .text          0x08121a40       0x81 /home/pcl2483/pedro/jadesoft/util/mcgen/Plib/libpx114.a(pxsame.o)
                0x08121a40                pxsame_
 *fill*         0x08121ac1        0xf 90909090
 .text          0x08121ad0      0x1ff /home/pcl2483/pedro/jadesoft/util/mcgen/Plib/libpx114.a(pxunim.o)
                0x08121ad0                pxunim_
 *fill*         0x08121ccf        0x1 90909090
 .text          0x08121cd0     0x175a /cern/99/lib/libpacklib.a(ffgo.o)
                0x08121cd0                ffgo_
 *fill*         0x0812342a        0x2 90909090
 .text          0x0812342c      0x267 /cern/99/lib/libpacklib.a(ffinit.o)
                0x0812342c                ffinit_
 *fill*         0x08123693        0x1 90909090
 .text          0x08123694      0x270 /cern/99/lib/libpacklib.a(ffkey.o)
                0x08123694                ffkey_
 .text          0x08123904      0x21c /cern/99/lib/libpacklib.a(ffset.o)
                0x08123904                ffset_
 .text          0x08123b20       0x54 /cern/99/lib/libpacklib.a(ffskip.o)
                0x08123b20                ffskip_
 .text          0x08123b74       0x6f /cern/99/lib/libpacklib.a(ffupca.o)
                0x08123b74                ffupca_
 *fill*         0x08123be3        0x1 90909090
 .text          0x08123be4        0x7 /cern/99/lib/libpacklib.a(ffuser.o)
                0x08123be4                ffuser_
 *fill*         0x08123beb        0x1 90909090
 .text          0x08123bec       0x15 /cern/99/lib/libpacklib.a(ffuset.o)
                0x08123bec                ffuset_
 *fill*         0x08123c01        0x3 90909090
 .text          0x08123c04      0x19b /cern/99/lib/libpacklib.a(hrput.o)
                0x08123c04                hrput_
 *fill*         0x08123d9f        0x1 90909090
 .text          0x08123da0      0x5eb /cern/99/lib/libpacklib.a(hbook1.o)
                0x08123da0                hbook1_
 *fill*         0x0812438b        0x1 90909090
 .text          0x0812438c      0x680 /cern/99/lib/libpacklib.a(hbook2.o)
                0x0812438c                hbook2_
 .text          0x08124a0c      0x5bb /cern/99/lib/libpacklib.a(hbookb.o)
                0x08124a0c                hbookb_
 *fill*         0x08124fc7        0x1 90909090
 .text          0x08124fc8       0x5d /cern/99/lib/libpacklib.a(hbtit.o)
                0x08124fc8                hbtit_
 *fill*         0x08125025        0x3 90909090
 .text          0x08125028      0x1cb /cern/99/lib/libpacklib.a(hbug.o)
                0x08125028                hbug_
 *fill*         0x081251f3        0x1 90909090
 .text          0x081251f4      0x634 /cern/99/lib/libpacklib.a(hcdir.o)
                0x081251f4                hcdir_
 .text          0x08125828      0x158 /cern/99/lib/libpacklib.a(hchnam.o)
                0x08125828                hchnam_
 .text          0x08125980      0x30a /cern/99/lib/libpacklib.a(hdelet.o)
                0x08125980                hdelet_
 *fill*         0x08125c8a        0x2 90909090
 .text          0x08125c8c      0x1a8 /cern/99/lib/libpacklib.a(hfill.o)
                0x08125c8c                hfill_
 .text          0x08125e34      0x369 /cern/99/lib/libpacklib.a(hfilpf.o)
                0x08125e34                hfilpf_
 *fill*         0x0812619d        0x3 90909090
 .text          0x081261a0      0x244 /cern/99/lib/libpacklib.a(hgive.o)
                0x081261a0                hgive_
 .text          0x081263e4      0xa55 /cern/99/lib/libpacklib.a(hidopt.o)
                0x081263e4                hidopt_
 *fill*         0x08126e39        0x3 90909090
 .text          0x08126e3c      0x2e4 /cern/99/lib/libpacklib.a(hlimit.o)
                0x08126e3c                hlimit_
 .text          0x08127120       0xff /cern/99/lib/libpacklib.a(hloop.o)
                0x08127120                hloop_
 *fill*         0x0812721f        0x1 90909090
 .text          0x08127220      0x543 /cern/99/lib/libpacklib.a(hmachi.o)
                0x08127220                hmachi_
 *fill*         0x08127763        0x1 90909090
 .text          0x08127764       0x5e /cern/99/lib/libpacklib.a(hnoent.o)
                0x08127764                hnoent_
 *fill*         0x081277c2        0x2 90909090
 .text          0x081277c4      0xfc5 /cern/99/lib/libpacklib.a(hopera.o)
                0x081277c4                hopera_
 *fill*         0x08128789        0x3 90909090
 .text          0x0812878c      0x1b3 /cern/99/lib/libpacklib.a(hpaff.o)
                0x0812878c                hpaff_
 *fill*         0x0812893f        0x1 90909090
 .text          0x08128940      0x283 /cern/99/lib/libpacklib.a(hpak.o)
                0x08128940                hpak_
 *fill*         0x08128bc3        0x1 90909090
 .text          0x08128bc4      0x175 /cern/99/lib/libpacklib.a(hpake.o)
                0x08128bc4                hpake_
 *fill*         0x08128d39        0x3 90909090
 .text          0x08128d3c      0x61e /cern/99/lib/libpacklib.a(hpath.o)
                0x08128d3c                hpath_
 *fill*         0x0812935a        0x2 90909090
 .text          0x0812935c      0x4ce /cern/99/lib/libpacklib.a(hrebin.o)
                0x0812935c                hrebin_
 *fill*         0x0812982a        0x2 90909090
 .text          0x0812982c      0x64a /cern/99/lib/libpacklib.a(hreset.o)
                0x0812982c                hreset_
 *fill*         0x08129e76        0x2 90909090
 .text          0x08129e78       0xca /cern/99/lib/libpacklib.a(hrez0.o)
                0x08129e78                hrez0_
 *fill*         0x08129f42        0x2 90909090
 .text          0x08129f44       0x90 /cern/99/lib/libpacklib.a(hsifla.o)
                0x08129f44                hsifla_
 .text          0x08129fd4       0x8a /cern/99/lib/libpacklib.a(hspace.o)
                0x08129fd4                hspace_
 *fill*         0x0812a05e        0x2 90909090
 .text          0x0812a060       0x5f /cern/99/lib/libpacklib.a(hstaf.o)
                0x0812a060                hstaf_
 *fill*         0x0812a0bf        0x1 90909090
 .text          0x0812a0c0      0xbf4 /cern/99/lib/libpacklib.a(hsupis.o)
                0x0812a0c0                hsupis_
 .text          0x0812acb4       0x48 /cern/99/lib/libpacklib.a(huoptc.o)
                0x0812acb4                huoptc_
 .text          0x0812acfc      0x1d6 /cern/99/lib/libpacklib.a(hlogpf.o)
                0x0812acfc                hlogpf_
 *fill*         0x0812aed2        0x2 90909090
 .text          0x0812aed4       0x7f /cern/99/lib/libpacklib.a(hoptpf.o)
                0x0812aed4                hoptpf_
 *fill*         0x0812af53        0x1 90909090
 .text          0x0812af54      0x130 /cern/99/lib/libpacklib.a(hitoc.o)
                0x0812af54                hitoc_
 .text          0x0812b084       0xdf /cern/99/lib/libpacklib.a(hnbufd.o)
                0x0812b084                hnbufd_
 *fill*         0x0812b163        0x1 90909090
 .text          0x0812b164       0xd1 /cern/99/lib/libpacklib.a(hntmpd.o)
                0x0812b164                hntmpd_
 *fill*         0x0812b235        0x3 90909090
 .text          0x0812b238      0x2ef /cern/99/lib/libpacklib.a(hntrset.o)
                0x0812b238                hntrset_
 *fill*         0x0812b527        0x1 90909090
 .text          0x0812b528      0xa4e /cern/99/lib/libpacklib.a(fzin.o)
                0x0812b528                fzin_
 *fill*         0x0812bf76        0x2 90909090
 .text          0x0812bf78      0x2e2 /cern/99/lib/libpacklib.a(fzirel.o)
                0x0812bf78                fzirel_
 *fill*         0x0812c25a        0x2 90909090
 .text          0x0812c25c      0x5e6 /cern/99/lib/libpacklib.a(fzloc.o)
                0x0812c25c                fzloc_
 *fill*         0x0812c842        0x2 90909090
 .text          0x0812c844      0x132 /cern/99/lib/libpacklib.a(mzbook.o)
                0x0812c844                mzbook_
 *fill*         0x0812c976        0x2 90909090
 .text          0x0812c978      0x2ea /cern/99/lib/libpacklib.a(mzdrop.o)
                0x0812c978                mzdrop_
 *fill*         0x0812cc62        0x2 90909090
 .text          0x0812cc64      0x11a /cern/99/lib/libpacklib.a(mzebra.o)
                0x0812cc64                mzebra_
 *fill*         0x0812cd7e        0x2 90909090
 .text          0x0812cd80      0x532 /cern/99/lib/libpacklib.a(mzflag.o)
                0x0812cd80                mzflag_
 *fill*         0x0812d2b2        0x2 90909090
 .text          0x0812d2b4      0x42c /cern/99/lib/libpacklib.a(mzinco.o)
                0x0812d2b4                mzinco_
 .text          0x0812d6e0      0xd0e /cern/99/lib/libpacklib.a(mzlift.o)
                0x0812d6e0                mzlift_
 *fill*         0x0812e3ee        0x2 90909090
 .text          0x0812e3f0      0x5ef /cern/99/lib/libpacklib.a(mzlink.o)
                0x0812e3f0                mzlink_
 *fill*         0x0812e9df        0x1 90909090
 .text          0x0812e9e0      0x1ea /cern/99/lib/libpacklib.a(mzneed.o)
                0x0812e9e0                mzneed_
 *fill*         0x0812ebca        0x2 90909090
 .text          0x0812ebcc       0xb0 /cern/99/lib/libpacklib.a(mzpaw.o)
                0x0812ebcc                mzpaw_
 .text          0x0812ec7c      0xf06 /cern/99/lib/libpacklib.a(mzpush.o)
                0x0812ec7c                mzpush_
 *fill*         0x0812fb82        0x2 90909090
 .text          0x0812fb84      0x9fe /cern/99/lib/libpacklib.a(mzstor.o)
                0x0812fb84                mzstor_
 *fill*         0x08130582        0x2 90909090
 .text          0x08130584      0x100 /cern/99/lib/libpacklib.a(mzvers.o)
                0x08130584                mzvers_
 .text          0x08130684      0x503 /cern/99/lib/libpacklib.a(mzgar1.o)
                0x08130684                mzgar1_
 *fill*         0x08130b87        0x1 90909090
 .text          0x08130b88       0x71 /cern/99/lib/libpacklib.a(mzgsta.o)
                0x08130b88                mzgsta_
 *fill*         0x08130bf9        0x3 90909090
 .text          0x08130bfc      0x33b /cern/99/lib/libpacklib.a(mzmove.o)
                0x08130bfc                mzmove_
 *fill*         0x08130f37        0x1 90909090
 .text          0x08130f38      0x673 /cern/99/lib/libpacklib.a(mzrelb.o)
                0x08130f38                mzrelb_
 *fill*         0x081315ab        0x1 90909090
 .text          0x081315ac      0x4f9 /cern/99/lib/libpacklib.a(mzrell.o)
                0x081315ac                mzrell_
 *fill*         0x08131aa5        0x3 90909090
 .text          0x08131aa8       0x8c /cern/99/lib/libpacklib.a(mzrelx.o)
                0x08131aa8                mzrelx_
 .text          0x08131b34      0x3ac /cern/99/lib/libpacklib.a(mztabf.o)
                0x08131b34                mztabf_
 .text          0x08131ee0      0x2d0 /cern/99/lib/libpacklib.a(mztabm.o)
                0x08131ee0                mztabm_
 .text          0x081321b0      0x3e5 /cern/99/lib/libpacklib.a(mztabr.o)
                0x081321b0                mztabr_
 *fill*         0x08132595        0x3 90909090
 .text          0x08132598       0x79 /cern/99/lib/libpacklib.a(mztabs.o)
                0x08132598                mztabs_
 *fill*         0x08132611        0x3 90909090
 .text          0x08132614      0x13d /cern/99/lib/libpacklib.a(mztabx.o)
                0x08132614                mztabx_
 *fill*         0x08132751        0x3 90909090
 .text          0x08132754      0x29c /cern/99/lib/libpacklib.a(mzchln.o)
                0x08132754                mzchln_
 .text          0x081329f0      0x1f0 /cern/99/lib/libpacklib.a(mzchls.o)
                0x081329f0                mzchls_
 .text          0x08132be0       0xa4 /cern/99/lib/libpacklib.a(mzchnb.o)
                0x08132be0                mzchnb_
 .text          0x08132c84      0x12c /cern/99/lib/libpacklib.a(mzfdiv.o)
                0x08132c84                mzfdiv_
 .text          0x08132db0      0x35a /cern/99/lib/libpacklib.a(mzform.o)
                0x08132db0                mzform_
 *fill*         0x0813310a        0x2 90909090
 .text          0x0813310c     0x1613 /cern/99/lib/libpacklib.a(mzioch.o)
                0x0813310c                mzioch_
 *fill*         0x0813471f        0x1 90909090
 .text          0x08134720      0x388 /cern/99/lib/libpacklib.a(mzresv.o)
                0x08134720                mzresv_
 .text          0x08134aa8      0x295 /cern/99/lib/libpacklib.a(mzsdiv.o)
                0x08134aa8                mzsdiv_
 *fill*         0x08134d3d        0x3 90909090
 .text          0x08134d40        0x7 /cern/99/lib/libpacklib.a(zvautx.o)
                0x08134d40                zvautx_
 *fill*         0x08134d47        0x1 90909090
 .text          0x08134d48      0x402 /cern/99/lib/libpacklib.a(zfatal.o)
                0x08134d48                zfatal_
 *fill*         0x0813514a        0x2 90909090
 .text          0x0813514c       0x9c /cern/99/lib/libpacklib.a(zfatam.o)
                0x0813514c                zfatam_
 .text          0x081351e8      0x1c0 /cern/99/lib/libpacklib.a(ztell.o)
                0x081351e8                ztell_
 .text          0x081353a8        0x7 /cern/99/lib/libpacklib.a(ztelus.o)
                0x081353a8                ztelus_
 *fill*         0x081353af        0x1 90909090
 .text          0x081353b0       0xbd /cern/99/lib/libpacklib.a(izbcdt.o)
                0x081353b0                izbcdt_
 *fill*         0x0813546d        0x3 90909090
 .text          0x08135470       0x48 /cern/99/lib/libpacklib.a(izhnum.o)
                0x08135470                izhnum_
 .text          0x081354b8      0x5b5 /cern/99/lib/libpacklib.a(zshunt.o)
                0x081354b8                zshunt_
 *fill*         0x08135a6d        0x3 90909090
 .text          0x08135a70      0x597 /cern/99/lib/libpacklib.a(rzcdir.o)
                0x08135a70                rzcdir_
 *fill*         0x08136007        0x1 90909090
 .text          0x08136008      0x340 /cern/99/lib/libpacklib.a(rzdate.o)
                0x08136008                rzdate_
 .text          0x08136348      0x77d /cern/99/lib/libpacklib.a(rzfdir.o)
                0x08136348                rzfdir_
 *fill*         0x08136ac5        0x3 90909090
 .text          0x08136ac8      0x412 /cern/99/lib/libpacklib.a(rziodo.o)
                0x08136ac8                rziodo_
 *fill*         0x08136eda        0x2 90909090
 .text          0x08136edc      0x1df /cern/99/lib/libpacklib.a(rzpaff.o)
                0x08136edc                rzpaff_
 *fill*         0x081370bb        0x1 90909090
 .text          0x081370bc      0x660 /cern/99/lib/libpacklib.a(rzpath.o)
                0x081370bc                rzpath_
 .text          0x0813771c      0x24b /cern/99/lib/libpacklib.a(rzrtop.o)
                0x0813771c                rzrtop_
 *fill*         0x08137967        0x1 90909090
 .text          0x08137968       0x57 /cern/99/lib/libpacklib.a(rzsame.o)
                0x08137968                rzsame_
 *fill*         0x081379bf        0x1 90909090
 .text          0x081379c0      0x593 /cern/99/lib/libpacklib.a(rzsave.o)
                0x081379c0                rzsave_
 *fill*         0x08137f53        0x1 90909090
 .text          0x08137f54      0x189 /cern/99/lib/libpacklib.a(rzstrir.o)
                0x08137f54                rzstrir_
 *fill*         0x081380dd        0x3 90909090
 .text          0x081380e0       0xf0 /cern/99/lib/libpacklib.a(rzvcyc.o)
                0x081380e0                rzvcyc_
 .text          0x081381d0        0x7 /cern/99/lib/libpacklib.a(abend.o)
                0x081381d0                abend_
 *fill*         0x081381d7        0x9 90909090
 .text          0x081381e0       0xfe /cern/99/lib/libpacklib.a(datime.o)
                0x081381e0                datime_
 *fill*         0x081382de        0x2 90909090
 .text          0x081382e0      0x2f7 /cern/99/lib/libpacklib.a(datimh.o)
                0x081382e0                datimh_
 *fill*         0x081385d7        0x9 90909090
 .text          0x081385e0      0x1d0 /cern/99/lib/libpacklib.a(jumpxn.o)
                0x081386f0                jumpx7_
                0x08138610                jumpx1_
                0x081385e0                jumpad_
                0x08138730                jumpx8_
                0x081386c0                jumpx6_
                0x08138770                jumpx9_
                0x081385f0                jumpst_
                0x08138600                jumpx0_
                0x08138690                jumpx5_
                0x08138640                jumpx3_
                0x08138620                jumpx2_
                0x08138660                jumpx4_
 .text          0x081387b0        0x8 /cern/99/lib/libpacklib.a(locf.o)
                0x081387b0                locf_
 *fill*         0x081387b8        0x8 90909090
 .text          0x081387c0       0x3f /cern/99/lib/libpacklib.a(qnexte.o)
                0x081387c0                qnexte_
 *fill*         0x081387ff        0x1 90909090
 .text          0x08138800       0x7d /cern/99/lib/libpacklib.a(lenocc.o)
                0x08138800                lenocc_
 *fill*         0x0813887d        0x3 90909090
 .text          0x08138880       0x45 /cern/99/lib/libpacklib.a(vxinvb.o)
                0x08138880                vxinvb_
 *fill*         0x081388c5        0xb 90909090
 .text          0x081388d0       0x10 /cern/99/lib/libpacklib.a(cfclos.o)
                0x081388d0                cfclos_
 .text          0x081388e0       0x8b /cern/99/lib/libpacklib.a(cfget.o)
                0x081388e0                cfget_
 *fill*         0x0813896b        0x5 90909090
 .text          0x08138970       0x5f /cern/99/lib/libpacklib.a(cfput.o)
                0x08138970                cfput_
 *fill*         0x081389cf        0x1 90909090
 .text          0x081389d0       0x55 /cern/99/lib/libpacklib.a(cfseek.o)
                0x081389d0                cfseek_
 *fill*         0x08138a25        0x3 90909090
 .text          0x08138a28      0x150 /cern/99/lib/libpacklib.a(cfopen.o)
                0x08138a28                cfopen_
 .text          0x08138b78       0xfe /cern/99/lib/libpacklib.a(cleft.o)
                0x08138b78                cleft_
 *fill*         0x08138c76        0x2 90909090
 .text          0x08138c78       0x75 /cern/99/lib/libpacklib.a(cltou.o)
                0x08138c78                cltou_
 *fill*         0x08138ced        0x3 90909090
 .text          0x08138cf0       0x75 /cern/99/lib/libpacklib.a(cutol.o)
                0x08138cf0                cutol_
 *fill*         0x08138d65        0x3 90909090
 .text          0x08138d68       0x52 /cern/99/lib/libpacklib.a(floarg.o)
                0x08138d68                floarg_
 *fill*         0x08138dba        0x2 90909090
 .text          0x08138dbc       0x69 /cern/99/lib/libpacklib.a(intarg.o)
                0x08138dbc                intarg_
 *fill*         0x08138e25        0x3 90909090
 .text          0x08138e28       0x2a /cern/99/lib/libpacklib.a(kerngt.o)
                0x08138e28                kerngt_
 *fill*         0x08138e52        0x2 90909090
 .text          0x08138e54       0x6e /cern/99/lib/libpacklib.a(uoptc.o)
                0x08138e54                uoptc_
 *fill*         0x08138ec2        0x2 90909090
 .text          0x08138ec4      0x2b1 /cern/99/lib/libpacklib.a(utrans.o)
                0x08138ec4                utrans_
 *fill*         0x08139175        0xb 90909090
 .text          0x08139180        0xf /cern/99/lib/libpacklib.a(ishftr.o)
                0x08139180                ishftr_
 *fill*         0x0813918f        0x1 90909090
 .text          0x08139190        0x7 /cern/99/lib/libpacklib.a(qnext.o)
                0x08139190                qnext_
 *fill*         0x08139197        0x9 90909090
 .text          0x081391a0       0x3a /cern/99/lib/libpacklib.a(ucopy2c.o)
                0x081391a0                ucopy2_
 *fill*         0x081391da        0x2 90909090
 .text          0x081391dc       0x50 /cern/99/lib/libpacklib.a(iucomp.o)
                0x081391dc                iucomp_
 .text          0x0813922c        0x7 /cern/99/lib/libpacklib.a(noarg.o)
                0x0813922c                noarg_
 *fill*         0x08139233        0x1 90909090
 .text          0x08139234       0x19 /cern/99/lib/libpacklib.a(sbit0.o)
                0x08139234                sbit0_
 *fill*         0x0813924d        0x3 90909090
 .text          0x08139250       0x1d /cern/99/lib/libpacklib.a(sbit1.o)
                0x08139250                sbit1_
 *fill*         0x0813926d        0x3 90909090
 .text          0x08139270      0x1b3 /cern/99/lib/libpacklib.a(ublow.o)
                0x08139270                ublow_
 *fill*         0x08139423        0x1 90909090
 .text          0x08139424      0x14b /cern/99/lib/libpacklib.a(ubunch.o)
                0x08139424                ubunch_
 *fill*         0x0813956f        0x1 90909090
 .text          0x08139570       0x4b /cern/99/lib/libpacklib.a(ucopy.o)
                0x08139570                ucopy_
 *fill*         0x081395bb        0x1 90909090
 .text          0x081395bc      0x22b /cern/99/lib/libpacklib.a(uctoh.o)
                0x081395bc                uctoh_
 *fill*         0x081397e7        0x1 90909090
 .text          0x081397e8       0x6f /cern/99/lib/libpacklib.a(uctoh1.o)
                0x081397e8                uctoh1_
 *fill*         0x08139857        0x1 90909090
 .text          0x08139858      0x20f /cern/99/lib/libpacklib.a(uhtoc.o)
                0x08139858                uhtoc_
 *fill*         0x08139a67        0x1 90909090
 .text          0x08139a68       0x3d /cern/99/lib/libpacklib.a(vblank.o)
                0x08139a68                vblank_
 *fill*         0x08139aa5        0x3 90909090
 .text          0x08139aa8       0x3d /cern/99/lib/libpacklib.a(vfill.o)
                0x08139aa8                vfill_
 *fill*         0x08139ae5        0x3 90909090
 .text          0x08139ae8       0x3a /cern/99/lib/libpacklib.a(vzero.o)
                0x08139ae8                vzero_
 *fill*         0x08139b22        0x2 90909090
 .text          0x08139b24       0x23 /cern/99/lib/libpacklib.a(jbit.o)
                0x08139b24                jbit_
 *fill*         0x08139b47        0x1 90909090
 .text          0x08139b48       0x45 /cern/99/lib/libpacklib.a(jbyt.o)
                0x08139b48                jbyt_
 *fill*         0x08139b8d        0x3 90909090
 .text          0x08139b90       0x57 /cern/99/lib/libpacklib.a(sbyt.o)
                0x08139b90                sbyt_
 *fill*         0x08139be7        0x1 90909090
 .text          0x08139be8       0x8d /cern/99/lib/libpacklib.a(locati.o)
                0x08139be8                locati_
 *fill*         0x08139c75        0x3 90909090
 .text          0x08139c78       0x86 /cern/99/lib/libpacklib.a(czgeta.o)
                0x08139c78                czgeta_
 *fill*         0x08139cfe        0x2 90909090
 .text          0x08139d00       0x86 /cern/99/lib/libpacklib.a(czputa.o)
                0x08139d00                czputa_
 *fill*         0x08139d86        0x2 90909090
 .text          0x08139d88      0x7cb /cern/99/lib/libpacklib.a(ffcard.o)
                0x08139d88                ffcard_
 *fill*         0x0813a553        0x1 90909090
 .text          0x0813a554       0xc6 /cern/99/lib/libpacklib.a(fffind.o)
                0x0813a554                fffind_
 *fill*         0x0813a61a        0x2 90909090
 .text          0x0813a61c      0x395 /cern/99/lib/libpacklib.a(hqputf.o)
                0x0813a61c                hqputf_
 *fill*         0x0813a9b1        0xf 90909090
 .text          0x0813a9c0      0x52c /cern/99/lib/libpacklib.a(hbpqry.o)
                0x0813ac50                GetPiafVersion
                0x0813ac30                SetVers
                0x0813ad10                greppqry_
                0x0813ac40                setpiafver_
                0x0813ac60                igetpiafver_
                0x0813ac70                GrepPqryStr
 .text          0x0813aeec      0x1ba /cern/99/lib/libpacklib.a(hrendc.o)
                0x0813b090                hrend_
                0x0813b078                hrendc_
 *fill*         0x0813b0a6        0x2 90909090
 .text          0x0813b0a8      0x23a /cern/99/lib/libpacklib.a(hropen.o)
                0x0813b0a8                hropen_
 *fill*         0x0813b2e2        0x2 90909090
 .text          0x0813b2e4      0x7d4 /cern/99/lib/libpacklib.a(hrout.o)
                0x0813b2e4                hrout_
 .text          0x0813bab8       0x94 /cern/99/lib/libpacklib.a(hrzcd.o)
                0x0813bab8                hrzcd_
 .text          0x0813bb4c      0x180 /cern/99/lib/libpacklib.a(hrzout.o)
                0x0813bb4c                hrzout_
 .text          0x0813bccc      0x1ea /cern/99/lib/libpacklib.a(hbar2.o)
                0x0813bccc                hbar2_
 *fill*         0x0813beb6        0x2 90909090
 .text          0x0813beb8      0x512 /cern/99/lib/libpacklib.a(hbarx.o)
                0x0813beb8                hbarx_
 *fill*         0x0813c3ca        0x2 90909090
 .text          0x0813c3cc      0x416 /cern/99/lib/libpacklib.a(hbary.o)
                0x0813c3cc                hbary_
 *fill*         0x0813c7e2        0x2 90909090
 .text          0x0813c7e4      0x3b1 /cern/99/lib/libpacklib.a(hbin.o)
                0x0813c7e4                hbin_
 *fill*         0x0813cb95        0x3 90909090
 .text          0x0813cb98      0x3c6 /cern/99/lib/libpacklib.a(hcopy.o)
                0x0813cb98                hcopy_
 *fill*         0x0813cf5e        0x2 90909090
 .text          0x0813cf60      0x435 /cern/99/lib/libpacklib.a(hcx.o)
                0x0813cf60                hcx_
 *fill*         0x0813d395        0x3 90909090
 .text          0x0813d398      0x153 /cern/99/lib/libpacklib.a(hcxy.o)
                0x0813d398                hcxy_
 *fill*         0x0813d4eb        0x1 90909090
 .text          0x0813d4ec       0x95 /cern/99/lib/libpacklib.a(hdcofl.o)
                0x0813d4ec                hdcofl_
 *fill*         0x0813d581        0x3 90909090
 .text          0x0813d584      0x46c /cern/99/lib/libpacklib.a(hf1.o)
                0x0813d584                hf1_
 .text          0x0813d9f0      0x710 /cern/99/lib/libpacklib.a(hf1aut.o)
                0x0813d9f0                hf1aut_
 .text          0x0813e100      0x39b /cern/99/lib/libpacklib.a(hf2.o)
                0x0813e100                hf2_
 *fill*         0x0813e49b        0x1 90909090
 .text          0x0813e49c      0x2bd /cern/99/lib/libpacklib.a(hfcx.o)
                0x0813e49c                hfcx_
 *fill*         0x0813e759        0x3 90909090
 .text          0x0813e75c      0x191 /cern/99/lib/libpacklib.a(hfcxy.o)
                0x0813e75c                hfcxy_
 *fill*         0x0813e8ed        0x3 90909090
 .text          0x0813e8f0      0x2ab /cern/99/lib/libpacklib.a(hfidp.o)
                0x0813e8f0                hfidp_
 *fill*         0x0813eb9b        0x1 90909090
 .text          0x0813eb9c       0xff /cern/99/lib/libpacklib.a(hfind.o)
                0x0813eb9c                hfind_
 *fill*         0x0813ec9b        0x1 90909090
 .text          0x0813ec9c       0x32 /cern/99/lib/libpacklib.a(hi.o)
                0x0813ec9c                hi_
 *fill*         0x0813ecce        0x2 90909090
 .text          0x0813ecd0       0x8f /cern/99/lib/libpacklib.a(hie.o)
                0x0813ecd0                hie_
 *fill*         0x0813ed5f        0x1 90909090
 .text          0x0813ed60       0x88 /cern/99/lib/libpacklib.a(hix.o)
                0x0813ed60                hix_
 .text          0x0813ede8      0x1a9 /cern/99/lib/libpacklib.a(hlabeq.o)
                0x0813ede8                hlabeq_
 *fill*         0x0813ef91        0x3 90909090
 .text          0x0813ef94      0x3e6 /cern/99/lib/libpacklib.a(hmdir.o)
                0x0813ef94                hmdir_
 *fill*         0x0813f37a        0x2 90909090
 .text          0x0813f37c      0x9a3 /cern/99/lib/libpacklib.a(hoper1.o)
                0x0813f37c                hoper1_
 *fill*         0x0813fd1f        0x1 90909090
 .text          0x0813fd20       0xc4 /cern/99/lib/libpacklib.a(hoper1a.o)
                0x0813fd20                hoper1a_
 .text          0x0813fde4      0x313 /cern/99/lib/libpacklib.a(hnbfwr.o)
                0x0813fde4                hnbfwr_
 *fill*         0x081400f7        0x1 90909090
 .text          0x081400f8       0xbc /cern/99/lib/libpacklib.a(hnbuff.o)
                0x081400f8                hnbuff_
 .text          0x081401b4      0x13d /cern/99/lib/libpacklib.a(hnmset.o)
                0x081401b4                hnmset_
 *fill*         0x081402f1        0x3 90909090
 .text          0x081402f4      0x165 /cern/99/lib/libpacklib.a(hntdel.o)
                0x081402f4                hntdel_
 *fill*         0x08140459        0x3 90909090
 .text          0x0814045c       0xc6 /cern/99/lib/libpacklib.a(hntmpf.o)
                0x0814045c                hntmpf_
 *fill*         0x08140522        0x2 90909090
 .text          0x08140524      0x5ea /cern/99/lib/libpacklib.a(fzidia.o)
                0x08140524                fzidia_
 *fill*         0x08140b0e        0x2 90909090
 .text          0x08140b10      0xf4c /cern/99/lib/libpacklib.a(fziffn.o)
                0x08140b10                fziffn_
 .text          0x08141a5c     0x1315 /cern/99/lib/libpacklib.a(fziffx.o)
                0x08141a5c                fziffx_
 *fill*         0x08142d71        0x3 90909090
 .text          0x08142d74      0x16b /cern/99/lib/libpacklib.a(fzilin.o)
                0x08142d74                fzilin_
 *fill*         0x08142edf        0x1 90909090
 .text          0x08142ee0      0xb22 /cern/99/lib/libpacklib.a(fzimtb.o)
                0x08142ee0                fzimtb_
 *fill*         0x08143a02        0x2 90909090
 .text          0x08143a04      0xa42 /cern/99/lib/libpacklib.a(fzirec.o)
                0x08143a04                fzirec_
 *fill*         0x08144446        0x2 90909090
 .text          0x08144448      0x13e /cern/99/lib/libpacklib.a(fzitrn.o)
                0x08144448                fzitrn_
 *fill*         0x08144586        0x2 90909090
 .text          0x08144588      0xd51 /cern/99/lib/libpacklib.a(fzout.o)
                0x08144588                fzout_
 *fill*         0x081452d9        0x3 90909090
 .text          0x081452dc      0x16e /cern/99/lib/libpacklib.a(fzitrx.o)
                0x081452dc                fzitrx_
 *fill*         0x0814544a        0x2 90909090
 .text          0x0814544c      0xa62 /cern/99/lib/libpacklib.a(mzcopy.o)
                0x0814544c                mzcopy_
 *fill*         0x08145eae        0x2 90909090
 .text          0x08145eb0      0x136 /cern/99/lib/libpacklib.a(mzpudx.o)
                0x08145eb0                mzpudx_
 *fill*         0x08145fe6        0x2 90909090
 .text          0x08145fe8      0x4cc /cern/99/lib/libpacklib.a(mzfgap.o)
                0x08145fe8                mzfgap_
 .text          0x081464b4      0x229 /cern/99/lib/libpacklib.a(mzgarb.o)
                0x081464b4                mzgarb_
 *fill*         0x081466dd        0x3 90909090
 .text          0x081466e0      0x279 /cern/99/lib/libpacklib.a(mztabc.o)
                0x081466e0                mztabc_
 *fill*         0x08146959        0x3 90909090
 .text          0x0814695c      0x2d5 /cern/99/lib/libpacklib.a(mztabh.o)
                0x0814695c                mztabh_
 *fill*         0x08146c31        0x3 90909090
 .text          0x08146c34      0x1fa /cern/99/lib/libpacklib.a(mzdvac.o)
                0x08146c34                mzdvac_
 *fill*         0x08146e2e        0x2 90909090
 .text          0x08146e30       0x9b /cern/99/lib/libpacklib.a(mziocf.o)
                0x08146e30                mziocf_
 *fill*         0x08146ecb        0x1 90909090
 .text          0x08146ecc      0x6d2 /cern/99/lib/libpacklib.a(mziocr.o)
                0x08146ecc                mziocr_
 *fill*         0x0814759e        0x2 90909090
 .text          0x081475a0      0x2c0 /cern/99/lib/libpacklib.a(mzixco.o)
                0x081475a0                mzixco_
 .text          0x08147860       0x33 /cern/99/lib/libpacklib.a(zabend.o)
                0x08147860                zabend_
 *fill*         0x08147893        0x1 90909090
 .text          0x08147894       0x2f /cern/99/lib/libpacklib.a(zend.o)
                0x08147894                zend_
 *fill*         0x081478c3        0x1 90909090
 .text          0x081478c4      0x21d /cern/99/lib/libpacklib.a(zphase.o)
                0x081478c4                zphase_
 *fill*         0x08147ae1        0x3 90909090
 .text          0x08147ae4      0x1e8 /cern/99/lib/libpacklib.a(zpostm.o)
                0x08147ae4                zpostm_
 .text          0x08147ccc       0xc5 /cern/99/lib/libpacklib.a(zhtoi.o)
                0x08147ccc                zhtoi_
 *fill*         0x08147d91        0x3 90909090
 .text          0x08147d94      0x2ee /cern/99/lib/libpacklib.a(rzclos.o)
                0x08147d94                rzclos_
 *fill*         0x08148082        0x2 90909090
 .text          0x08148084      0x1e7 /cern/99/lib/libpacklib.a(rzend.o)
                0x08148084                rzend_
 *fill*         0x0814826b        0x1 90909090
 .text          0x0814826c      0x446 /cern/99/lib/libpacklib.a(rzfree.o)
                0x0814826c                rzfree_
 *fill*         0x081486b2        0x2 90909090
 .text          0x081486b4      0x8df /cern/99/lib/libpacklib.a(rzmdir.o)
                0x081486b4                rzmdir_
 *fill*         0x08148f93        0x1 90909090
 .text          0x08148f94      0x1bc /cern/99/lib/libpacklib.a(rzmods.o)
                0x08148f94                rzmods_
 .text          0x08149150      0xc44 /cern/99/lib/libpacklib.a(rzopen.o)
                0x08149150                rzopen_
 .text          0x08149d94     0x12ab /cern/99/lib/libpacklib.a(rzout.o)
                0x08149d94                rzout_
 *fill*         0x0814b03f        0x1 90909090
 .text          0x0814b040      0x238 /cern/99/lib/libpacklib.a(rzstrip.o)
                0x0814b040                rzstrip_
 .text          0x0814b278      0x419 /cern/99/lib/libpacklib.a(rzused.o)
                0x0814b278                rzused_
 *fill*         0x0814b691        0x3 90909090
 .text          0x0814b694      0x39f /cern/99/lib/libpacklib.a(close.o)
                0x0814b6d4                rfio_close_v2
                0x0814b694                rfio_close
 *fill*         0x0814ba33        0x1 90909090
 .text          0x0814ba34      0x2cd /cern/99/lib/libpacklib.a(error.o)
                0x0814ba34                rfio_errmsg
                0x0814bcc8                rfio_perror
                0x0814bbc4                rfio_serror
 *fill*         0x0814bd01        0x3 90909090
 .text          0x0814bd04      0xa11 /cern/99/lib/libpacklib.a(lseek.o)
                0x0814bd04                rfio_lseek
 *fill*         0x0814c715        0x3 90909090
 .text          0x0814c718      0xc87 /cern/99/lib/libpacklib.a(open.o)
                0x0814cb0c                rfio_open_ext
                0x0814cae4                rfio_open_v2
                0x0814ca10                rfio_open
                0x0814d38c                rfio_setup
                0x0814c910                rfio_cleanup
 *fill*         0x0814d39f        0x1 90909090
 .text          0x0814d3a0      0x381 /cern/99/lib/libpacklib.a(parse.o)
                0x0814d3a0                rfio_parseln
                0x0814d70c                rfio_parse
 *fill*         0x0814d721        0x3 90909090
 .text          0x0814d724      0xcb8 /cern/99/lib/libpacklib.a(read.o)
                0x0814d770                rfio_read_v2
                0x0814dfd0                rfio_filbuf
                0x0814d724                rfio_read
 .text          0x0814e3dc       0xc7 /cern/99/lib/libpacklib.a(serror.o)
                0x0814e3dc                sstrerror
                0x0814e430                sperror
 *fill*         0x0814e4a3        0x1 90909090
 .text          0x0814e4a4       0xba /cern/99/lib/libpacklib.a(setopt.o)
                0x0814e50c                rfioreadopt
                0x0814e4a4                rfiosetopt
 *fill*         0x0814e55e        0x2 90909090
 .text          0x0814e560      0x207 /cern/99/lib/libpacklib.a(socket.o)
                0x0814e664                s_send
                0x0814e6f4                s_ioctl
                0x0814e740                getiostat
                0x0814e6e0                s_errmsg
                0x0814e720                setrtimo
                0x0814e708                s_nrecv
                0x0814e5f4                s_recv
                0x0814e6d0                s_close
 *fill*         0x0814e767        0x1 90909090
 .text          0x0814e768     0x23a1 /cern/99/lib/libpacklib.a(stream.o)
                0x0814ea88                rfio_open_ext_v3
                0x0814ea60                rfio_open_v3
                0x0814e960                rfio_cleanup_v3
                0x0814fad0                rfio_write_v3
                0x0814f3b0                rfio_setup_v3
                0x0814fe90                rfio_close_v3
                0x08150ab4                set_snd_sockparam
                0x0814f3c4                rfio_read_v3
                0x08150a5c                set_rcv_sockparam
 *fill*         0x08150b09        0x3 90909090
 .text          0x08150b0c       0xfc /cern/99/lib/libpacklib.a(trace.o)
                0x08150b98                init_trace
                0x08150b0c                print_trace
                0x08150bf4                end_trace
 .text          0x08150c08      0x58d /cern/99/lib/libpacklib.a(write.o)
                0x08150c08                rfio_write
                0x08150c54                rfio_write_v2
 *fill*         0x08151195        0xb 90909090
 .text          0x081511a0      0x147 /cern/99/lib/libpacklib.a(cfopei.o)
                0x081511a0                cfopei_
 *fill*         0x081512e7        0x1 90909090
 .text          0x081512e8       0x32 /cern/99/lib/libpacklib.a(cfstat.o)
                0x081512e8                cfstat_
 *fill*         0x0815131a        0x6 90909090
 .text          0x08151320       0x3c /cern/99/lib/libpacklib.a(fchtak.o)
                0x08151320                fchtak
 .text          0x0815135c       0x5f /cern/99/lib/libpacklib.a(gshowf.o)
                0x0815135c                gshowf_
 *fill*         0x081513bb        0x1 90909090
 .text          0x081513bc       0x52 /cern/99/lib/libpacklib.a(icluns.o)
                0x081513bc                icluns_
 *fill*         0x0815140e        0x2 90909090
 .text          0x08151410       0x38 /cern/99/lib/libpacklib.a(traceq.o)
                0x08151410                traceq_
 .text          0x08151448       0x83 /cern/99/lib/libpacklib.a(xinbf.o)
                0x08151448                xinbf_
 *fill*         0x081514cb        0x1 90909090
 .text          0x081514cc      0x114 /cern/99/lib/libpacklib.a(xinbs.o)
                0x081514cc                xinbs_
 .text          0x081515e0      0xa5c /cern/99/lib/libpacklib.a(halloc.o)
                0x08151af0                hbprnt_
                0x08151a70                hbfreec_
                0x08151ab0                hbsmax_
                0x08151aa0                hbvm_
                0x08151f30                hballo1_
                0x08151c40                hbinit1_
                0x081519f0                hbfree_
                0x08151ae0                hbgmax_
 .text          0x0815203c      0x4d0 /cern/99/lib/libpacklib.a(hrfile.o)
                0x0815203c                hrfile_
 .text          0x0815250c      0x8b5 /cern/99/lib/libpacklib.a(hfc1.o)
                0x0815250c                hfc1_
 *fill*         0x08152dc1        0x3 90909090
 .text          0x08152dc4       0x38 /cern/99/lib/libpacklib.a(hlccmp.o)
                0x08152dc4                hlccmp_
 .text          0x08152dfc      0x151 /cern/99/lib/libpacklib.a(hlgnxt.o)
                0x08152dfc                hlgnxt_
 *fill*         0x08152f4d        0x3 90909090
 .text          0x08152f50       0x7e /cern/99/lib/libpacklib.a(hlhcmp.o)
                0x08152f50                hlhcmp_
 *fill*         0x08152fce        0x2 90909090
 .text          0x08152fd0      0x364 /cern/99/lib/libpacklib.a(hlpos.o)
                0x08152fd0                hlpos_
 .text          0x08153334      0xd10 /cern/99/lib/libpacklib.a(dzsnap.o)
                0x08153334                dzsnap_
 .text          0x08154044      0x28b /cern/99/lib/libpacklib.a(dztext.o)
                0x08154044                dztext_
 *fill*         0x081542cf        0x1 90909090
 .text          0x081542d0       0xe9 /cern/99/lib/libpacklib.a(zpage.o)
                0x081542d0                zpage_
 *fill*         0x081543b9        0x3 90909090
 .text          0x081543bc      0x551 /cern/99/lib/libpacklib.a(fzipha.o)
                0x081543bc                fzipha_
 *fill*         0x0815490d        0x3 90909090
 .text          0x08154910      0x93f /cern/99/lib/libpacklib.a(fziphd.o)
                0x08154910                fziphd_
 *fill*         0x0815524f        0x1 90909090
 .text          0x08155250      0x425 /cern/99/lib/libpacklib.a(fziphm.o)
                0x08155250                fziphm_
 *fill*         0x08155675        0x3 90909090
 .text          0x08155678      0x8fa /cern/99/lib/libpacklib.a(fziphr.o)
                0x08155678                fziphr_
 *fill*         0x08155f72        0x2 90909090
 .text          0x08155f74      0x111 /cern/99/lib/libpacklib.a(fziprl.o)
                0x08155f74                fziprl_
 *fill*         0x08156085        0x3 90909090
 .text          0x08156088      0xb9d /cern/99/lib/libpacklib.a(fzoffn.o)
                0x08156088                fzoffn_
 *fill*         0x08156c25        0x3 90909090
 .text          0x08156c28      0x602 /cern/99/lib/libpacklib.a(fzoffx.o)
                0x08156c28                fzoffx_
 *fill*         0x0815722a        0x2 90909090
 .text          0x0815722c       0x84 /cern/99/lib/libpacklib.a(fzon1.o)
                0x0815722c                fzon1_
 .text          0x081572b0       0xa8 /cern/99/lib/libpacklib.a(fzon2.o)
                0x081572b0                fzon2_
 .text          0x08157358       0xd1 /cern/99/lib/libpacklib.a(fzon3.o)
                0x08157358                fzon3_
 *fill*         0x08157429        0x3 90909090
 .text          0x0815742c       0xf5 /cern/99/lib/libpacklib.a(fzon4.o)
                0x0815742c                fzon4_
 *fill*         0x08157521        0x3 90909090
 .text          0x08157524      0x122 /cern/99/lib/libpacklib.a(fzon5.o)
                0x08157524                fzon5_
 *fill*         0x08157646        0x2 90909090
 .text          0x08157648      0x148 /cern/99/lib/libpacklib.a(fzon6.o)
                0x08157648                fzon6_
 .text          0x08157790      0x75c /cern/99/lib/libpacklib.a(fzorec.o)
                0x08157790                fzorec_
 .text          0x08157eec      0xa3e /cern/99/lib/libpacklib.a(fzotab.o)
                0x08157eec                fzotab_
 *fill*         0x0815892a        0x2 90909090
 .text          0x0815892c       0xf6 /cern/99/lib/libpacklib.a(fzotrn.o)
                0x0815892c                fzotrn_
 *fill*         0x08158a22        0x2 90909090
 .text          0x08158a24       0x98 /cern/99/lib/libpacklib.a(fzotxt.o)
                0x08158a24                fzotxt_
 .text          0x08158abc      0x402 /cern/99/lib/libpacklib.a(fzicv.o)
                0x08158abc                fzicv_
 *fill*         0x08158ebe        0x2 90909090
 .text          0x08158ec0      0x13a /cern/99/lib/libpacklib.a(fzotrx.o)
                0x08158ec0                fzotrx_
 *fill*         0x08158ffa        0x2 90909090
 .text          0x08158ffc       0x8e /cern/99/lib/libpacklib.a(mzend.o)
                0x08158ffc                mzend_
 *fill*         0x0815908a        0x2 90909090
 .text          0x0815908c      0x379 /cern/99/lib/libpacklib.a(mzmaps.o)
                0x0815908c                mzmaps_
 *fill*         0x08159405        0x3 90909090
 .text          0x08159408      0x5fe /cern/99/lib/libpacklib.a(mzmark.o)
                0x08159408                mzmark_
 *fill*         0x08159a06        0x2 90909090
 .text          0x08159a08      0x436 /cern/99/lib/libpacklib.a(mzwork.o)
                0x08159a08                mzwork_
 *fill*         0x08159e3e        0x2 90909090
 .text          0x08159e40       0xb2 /cern/99/lib/libpacklib.a(zitoh.o)
                0x08159e40                zitoh_
 *fill*         0x08159ef2        0x2 90909090
 .text          0x08159ef4      0x221 /cern/99/lib/libpacklib.a(rzallo.o)
                0x08159ef4                rzallo_
 *fill*         0x0815a115        0x3 90909090
 .text          0x0815a118     0x19c1 /cern/99/lib/libpacklib.a(rzdelk.o)
                0x0815a118                rzdelk_
 *fill*         0x0815bad9        0x3 90909090
 .text          0x0815badc      0x455 /cern/99/lib/libpacklib.a(rzexpd.o)
                0x0815badc                rzexpd_
 *fill*         0x0815bf31        0x3 90909090
 .text          0x0815bf34      0xb3a /cern/99/lib/libpacklib.a(rzfile.o)
                0x0815bf34                rzfile_
 *fill*         0x0815ca6e        0x2 90909090
 .text          0x0815ca70      0x3fd /cern/99/lib/libpacklib.a(rzllok.o)
                0x0815ca70                rzllok_
 *fill*         0x0815ce6d        0x3 90909090
 .text          0x0815ce70      0x9ae /cern/99/lib/libpacklib.a(rzlock.o)
                0x0815ce70                rzlock_
 *fill*         0x0815d81e        0x2 90909090
 .text          0x0815d820      0xd0b /cern/99/lib/libpacklib.a(rzmake.o)
                0x0815d820                rzmake_
 *fill*         0x0815e52b        0x1 90909090
 .text          0x0815e52c      0x318 /cern/99/lib/libpacklib.a(rzobkn.o)
                0x0815e52c                rzobkn_
 .text          0x0815e844      0x499 /cern/99/lib/libpacklib.a(rzpurf.o)
                0x0815e844                rzpurf_
 *fill*         0x0815ecdd        0x3 90909090
 .text          0x0815ece0      0x5dd /cern/99/lib/libpacklib.a(rzveri.o)
                0x0815ece0                rzveri_
 *fill*         0x0815f2bd        0x3 90909090
 .text          0x0815f2c0      0x4eb /cern/99/lib/libpacklib.a(rzwrt.o)
                0x0815f2c0                rzwrt_
 *fill*         0x0815f7ab        0x1 90909090
 .text          0x0815f7ac      0x6da /cern/99/lib/libpacklib.a(connect.o)
                0x0815fe7c                rfio_lasthost
                0x0815f7ac                rfio_connect
 *fill*         0x0815fe86        0x2 90909090
 .text          0x0815fe88       0xa9 /cern/99/lib/libpacklib.a(getacct.o)
                0x0815fe88                getacct
 *fill*         0x0815ff31        0x3 90909090
 .text          0x0815ff34      0x19b /cern/99/lib/libpacklib.a(getacctent.o)
                0x0815ff34                getacctent
 *fill*         0x081600cf        0x1 90909090
 .text          0x081600d0      0x129 /cern/99/lib/libpacklib.a(getconfent.o)
                0x081600d0                getconfent
 *fill*         0x081601f9        0x3 90909090
 .text          0x081601fc      0x22b /cern/99/lib/libpacklib.a(getifnam.o)
                0x081601fc                getifnam
 *fill*         0x08160427        0x1 90909090
 .text          0x08160428      0x256 /cern/99/lib/libpacklib.a(log.o)
                0x081604d8                logit
                0x08160428                initlog
                0x08160674                getloglv
 *fill*         0x0816067e        0x2 90909090
 .text          0x08160680      0x5ad /cern/99/lib/libpacklib.a(remote.o)
                0x08160680                isremote
 *fill*         0x08160c2d        0x3 90909090
 .text          0x08160c30       0x20 /cern/99/lib/libpacklib.a(setnetio.o)
                0x08160c30                setnetio
 .text          0x08160c50       0x4b /cern/99/lib/libpacklib.a(vxinvc.o)
                0x08160c50                vxinvc_
 *fill*         0x08160c9b        0x5 90909090
 .text          0x08160ca0       0xa9 /cern/99/lib/libpacklib.a(cfstati.o)
                0x08160ca0                cfstati_
 *fill*         0x08160d49        0x3 90909090
 .text          0x08160d4c      0xb4f /cern/99/lib/libpacklib.a(dzare1.o)
                0x08160d4c                dzare1_
 *fill*         0x0816189b        0x1 90909090
 .text          0x0816189c      0x5a5 /cern/99/lib/libpacklib.a(dzbkup.o)
                0x0816189c                dzbkup_
 *fill*         0x08161e41        0x3 90909090
 .text          0x08161e44      0x6e0 /cern/99/lib/libpacklib.a(dzbkxr.o)
                0x08161e44                dzbkxr_
 .text          0x08162524      0x9e3 /cern/99/lib/libpacklib.a(dzdata.o)
                0x08162524                dzdata_
 *fill*         0x08162f07        0x1 90909090
 .text          0x08162f08      0x5c9 /cern/99/lib/libpacklib.a(dzmap.o)
                0x08162f08                dzmap_
 *fill*         0x081634d1        0x3 90909090
 .text          0x081634d4       0xac /cern/99/lib/libpacklib.a(dzopt.o)
                0x081634d4                dzopt_
 .text          0x08163580      0x546 /cern/99/lib/libpacklib.a(dzshpr.o)
                0x08163580                dzshpr_
 *fill*         0x08163ac6        0x2 90909090
 .text          0x08163ac8      0x33f /cern/99/lib/libpacklib.a(dztyp.o)
                0x08163ac8                dztyp_
 *fill*         0x08163e07        0x1 90909090
 .text          0x08163e08      0x7a6 /cern/99/lib/libpacklib.a(fziasc.o)
                0x08163e08                fziasc_
 *fill*         0x081645ae        0x2 90909090
 .text          0x081645b0      0x262 /cern/99/lib/libpacklib.a(fzichh.o)
                0x081645b0                fzichh_
 *fill*         0x08164812        0x2 90909090
 .text          0x08164814      0x101 /cern/99/lib/libpacklib.a(fzidum.o)
                0x08164814                fzidum_
 *fill*         0x08164915        0x3 90909090
 .text          0x08164918      0x615 /cern/99/lib/libpacklib.a(fzophr.o)
                0x08164918                fzophr_
 *fill*         0x08164f2d        0x3 90909090
 .text          0x08164f30      0x3e6 /cern/99/lib/libpacklib.a(fzocv.o)
                0x08164f30                fzocv_
 *fill*         0x08165316        0x2 90909090
 .text          0x08165318       0x19 /cern/99/lib/libpacklib.a(izbcd.o)
                0x08165318                izbcd_
 *fill*         0x08165331        0x3 90909090
 .text          0x08165334      0x180 /cern/99/lib/libpacklib.a(rzdlok.o)
                0x08165334                rzdlok_
 .text          0x081654b4      0xea5 /cern/99/lib/libpacklib.a(rzver1.o)
                0x081654b4                rzver1_
 *fill*         0x08166359        0x3 90909090
 .text          0x0816635c      0x267 /cern/99/lib/libpacklib.a(rzver2.o)
                0x0816635c                rzver2_
 *fill*         0x081665c3        0x1 90909090
 .text          0x081665c4       0xf8 /cern/99/lib/libpacklib.a(stat.o)
                0x081665c4                rfio_stat
 .text          0x081666bc       0x10 /cern/99/lib/libpacklib.a(cfweof.o)
                0x081666bc                cfweof_
 .text          0x081666cc       0x41 /cern/99/lib/libpacklib.a(iumode.o)
                0x081666cc                iumode_
 *fill*         0x0816670d        0x3 90909090
 .text          0x08166710       0x50 /cern/99/lib/libpacklib.a(iufind.o)
                0x08166710                iufind_
 .text          0x08166760       0x98 /cern/99/lib/libpacklib.a(iusame.o)
                0x08166760                iusame_
 .text          0x081667f8       0x5d /cern/99/lib/libpacklib.a(jrsbyt.o)
                0x081667f8                jrsbyt_
 *fill*         0x08166855        0x3 90909090
 .text          0x08166858       0x58 /cern/99/lib/libpacklib.a(ucopiv.o)
                0x08166858                ucopiv_
 .text          0x081668b0      0x149 /cern/99/lib/libpacklib.a(dzbkdv.o)
                0x081668b0                dzbkdv_
 *fill*         0x081669f9        0x3 90909090
 .text          0x081669fc      0x3de /cern/99/lib/libpacklib.a(dzbkhd.o)
                0x081669fc                dzbkhd_
 *fill*         0x08166dda        0x2 90909090
 .text          0x08166ddc      0x166 /cern/99/lib/libpacklib.a(dziopr.o)
                0x08166ddc                dziopr_
 *fill*         0x08166f42        0x2 90909090
 .text          0x08166f44      0x247 /cern/99/lib/libpacklib.a(fzialn.o)
                0x08166f44                fzialn_
 *fill*         0x0816718b        0x1 90909090
 .text          0x0816718c      0x5a0 /cern/99/lib/libpacklib.a(fzoasc.o)
                0x0816718c                fzoasc_
 .text          0x0816772c       0x5f /cern/99/lib/libpacklib.a(izchav.o)
                0x0816772c                izchav_
 *fill*         0x0816778b        0x1 90909090
 .text          0x0816778c      0x429 /cern/99/lib/libpacklib.a(rzprnk.o)
                0x0816778c                rzprnk_
 *fill*         0x08167bb5        0x3 90909090
 .text          0x08167bb8      0x74b /cern/99/lib/libpacklib.a(mstat.o)
                0x08168218                rfio_end
                0x08167bb8                rfio_mstat
                0x08167d74                rfio_smstat
 *fill*         0x08168303        0x1 90909090
 .text          0x08168304      0x983 /cern/99/lib/libpacklib.a(dziopd.o)
                0x08168304                dziopd_
 *fill*         0x08168c87        0x1 90909090
 .text          0x08168c88      0x6b8 /cern/99/lib/libpacklib.a(dzioph.o)
                0x08168c88                dzioph_
 .text          0x08169340      0x1ca /cern/99/lib/libpacklib.a(fzoaln.o)
                0x08169340                fzoaln_
 *fill*         0x0816950a        0x2 90909090
 .text          0x0816950c      0x3e2 /cern/99/lib/libpacklib.a(fzoapk.o)
                0x0816950c                fzoapk_
 *fill*         0x081698ee        0x2 90909090
 .text          0x081698f0       0x6b /cern/99/lib/libpacklib.a(uh1toc.o)
                0x081698f0                uh1toc_
 *fill*         0x0816995b        0x1 90909090
 .text          0x0816995c      0x450 /cern/99/lib/libmathlib.a(dsyev.o)
                0x0816995c                dsyev_
 .text          0x08169dac      0x5e9 /cern/99/lib/libmathlib.a(dsytrd.o)
                0x08169dac                dsytrd_
 *fill*         0x0816a395        0x3 90909090
 .text          0x0816a398      0xb97 /cern/99/lib/libmathlib.a(ilaenv.o)
                0x0816a398                ilaenv_
 *fill*         0x0816af2f        0x1 90909090
 .text          0x0816af30       0x78 /cern/99/lib/libmathlib.a(lsame.o)
                0x0816af30                lsame_
 .text          0x0816afa8       0x40 /cern/99/lib/libmathlib.a(xerbla.o)
                0x0816afa8                xerbla_
 .text          0x0816afe8      0x195 /cern/99/lib/libmathlib.a(dscal.o)
                0x0816afe8                dscal_
 *fill*         0x0816b17d        0x3 90909090
 .text          0x0816b180      0xb9f /cern/99/lib/libmathlib.a(dsyr2k.o)
                0x0816b180                dsyr2k_
 *fill*         0x0816bd1f        0x1 90909090
 .text          0x0816bd20     0x17fd /cern/99/lib/libmathlib.a(dlamch.o)
                0x0816cf48                dlamc3_
                0x0816c690                dlamc2_
                0x0816c1f0                dlamc1_
                0x0816d21c                dlamc5_
                0x0816bd20                dlamch_
                0x0816cf64                dlamc4_
 *fill*         0x0816d51d        0x3 90909090
 .text          0x0816d520      0x5c8 /cern/99/lib/libmathlib.a(dlansy.o)
                0x0816d520                dlansy_
 .text          0x0816dae8      0x7ff /cern/99/lib/libmathlib.a(dlascl.o)
                0x0816dae8                dlascl_
 *fill*         0x0816e2e7        0x1 90909090
 .text          0x0816e2e8       0xb4 /cern/99/lib/libmathlib.a(dlassq.o)
                0x0816e2e8                dlassq_
 .text          0x0816e39c      0x8eb /cern/99/lib/libmathlib.a(dlatrd.o)
                0x0816e39c                dlatrd_
 *fill*         0x0816ec87        0x1 90909090
 .text          0x0816ec88      0x377 /cern/99/lib/libmathlib.a(dorgtr.o)
                0x0816ec88                dorgtr_
 *fill*         0x0816efff        0x1 90909090
 .text          0x0816f000     0x123e /cern/99/lib/libmathlib.a(dsteqr.o)
                0x0816f000                dsteqr_
 *fill*         0x0817023e        0x2 90909090
 .text          0x08170240      0xd63 /cern/99/lib/libmathlib.a(dsterf.o)
                0x08170240                dsterf_
 *fill*         0x08170fa3        0x1 90909090
 .text          0x08170fa4      0x561 /cern/99/lib/libmathlib.a(dsytd2.o)
                0x08170fa4                dsytd2_
 *fill*         0x08171505        0x3 90909090
 .text          0x08171508      0x1ec /cern/99/lib/libmathlib.a(daxpy.o)
                0x08171508                daxpy_
 .text          0x081716f4      0x1eb /cern/99/lib/libmathlib.a(ddot.o)
                0x081716f4                ddot_
 *fill*         0x081718df        0x1 90909090
 .text          0x081718e0      0x6ec /cern/99/lib/libmathlib.a(dgemv.o)
                0x081718e0                dgemv_
 .text          0x08171fcc      0x201 /cern/99/lib/libmathlib.a(dswap.o)
                0x08171fcc                dswap_
 *fill*         0x081721cd        0x3 90909090
 .text          0x081721d0      0x848 /cern/99/lib/libmathlib.a(dsymv.o)
                0x081721d0                dsymv_
 .text          0x08172a18      0x658 /cern/99/lib/libmathlib.a(dsyr2.o)
                0x08172a18                dsyr2_
 .text          0x08173070      0x1a0 /cern/99/lib/libmathlib.a(dlae2.o)
                0x08173070                dlae2_
 .text          0x08173210      0x331 /cern/99/lib/libmathlib.a(dlaev2.o)
                0x08173210                dlaev2_
 *fill*         0x08173541        0x3 90909090
 .text          0x08173544      0x2b4 /cern/99/lib/libmathlib.a(dlanst.o)
                0x08173544                dlanst_
 .text          0x081737f8       0xb3 /cern/99/lib/libmathlib.a(dlapy2.o)
                0x081737f8                dlapy2_
 *fill*         0x081738ab        0x1 90909090
 .text          0x081738ac      0x237 /cern/99/lib/libmathlib.a(dlarfg.o)
                0x081738ac                dlarfg_
 *fill*         0x08173ae3        0x1 90909090
 .text          0x08173ae4      0x3fc /cern/99/lib/libmathlib.a(dlartg.o)
                0x08173ae4                dlartg_
 .text          0x08173ee0      0x1d8 /cern/99/lib/libmathlib.a(dlaset.o)
                0x08173ee0                dlaset_
 .text          0x081740b8      0xf86 /cern/99/lib/libmathlib.a(dlasr.o)
                0x081740b8                dlasr_
 *fill*         0x0817503e        0x2 90909090
 .text          0x08175040      0x583 /cern/99/lib/libmathlib.a(dlasrt.o)
                0x08175040                dlasrt_
 *fill*         0x081755c3        0x1 90909090
 .text          0x081755c4      0x5eb /cern/99/lib/libmathlib.a(dorgql.o)
                0x081755c4                dorgql_
 *fill*         0x08175baf        0x1 90909090
 .text          0x08175bb0      0x59e /cern/99/lib/libmathlib.a(dorgqr.o)
                0x08175bb0                dorgqr_
 *fill*         0x0817614e        0x2 90909090
 .text          0x08176150      0x14f /cern/99/lib/libmathlib.a(dnrm2.o)
                0x08176150                dnrm2_
 *fill*         0x0817629f        0x1 90909090
 .text          0x081762a0     0x1586 /cern/99/lib/libmathlib.a(dlarfb.o)
                0x081762a0                dlarfb_
 *fill*         0x08177826        0x2 90909090
 .text          0x08177828      0x5c3 /cern/99/lib/libmathlib.a(dlarft.o)
                0x08177828                dlarft_
 *fill*         0x08177deb        0x1 90909090
 .text          0x08177dec      0x317 /cern/99/lib/libmathlib.a(dorg2l.o)
                0x08177dec                dorg2l_
 *fill*         0x08178103        0x1 90909090
 .text          0x08178104      0x2cb /cern/99/lib/libmathlib.a(dorg2r.o)
                0x08178104                dorg2r_
 *fill*         0x081783cf        0x1 90909090
 .text          0x081783d0      0x1eb /cern/99/lib/libmathlib.a(dcopy.o)
                0x081783d0                dcopy_
 *fill*         0x081785bb        0x1 90909090
 .text          0x081785bc      0x94b /cern/99/lib/libmathlib.a(dgemm.o)
                0x081785bc                dgemm_
 *fill*         0x08178f07        0x1 90909090
 .text          0x08178f08      0xd56 /cern/99/lib/libmathlib.a(dtrmm.o)
                0x08178f08                dtrmm_
 *fill*         0x08179c5e        0x2 90909090
 .text          0x08179c60      0x9e2 /cern/99/lib/libmathlib.a(dtrmv.o)
                0x08179c60                dtrmv_
 *fill*         0x0817a642        0x2 90909090
 .text          0x0817a644      0x101 /cern/99/lib/libmathlib.a(dlarf.o)
                0x0817a644                dlarf_
 *fill*         0x0817a745        0x3 90909090
 .text          0x0817a748      0x2d4 /cern/99/lib/libmathlib.a(dger.o)
                0x0817a748                dger_
 *fill*         0x0817aa1c        0x4 90909090
 .text          0x0817aa20       0x40 /usr/lib/libc_nonshared.a(atexit.oS)
                0x0817aa20                atexit
 .text          0x0817aa60      0x1a0 /usr/lib/gcc-lib/i686-pc-linux-gnu/2.95.3/libg2c.a(close.o)
                0x0817ab50                f_exit
                0x0817abac                G77_flush_0
                0x0817aa60                f_clos
 .text          0x0817ac00       0x28 /usr/lib/gcc-lib/i686-pc-linux-gnu/2.95.3/libg2c.a(dolio.o)
                0x0817ac00                do_lio
 *fill*         0x0817ac28        0x8 90909090
 .text          0x0817ac30      0x3f0 /usr/lib/gcc-lib/i686-pc-linux-gnu/2.95.3/libg2c.a(due.o)
                0x0817aecc                s_wdue
                0x0817ae4c                s_rdue
                0x0817aff8                e_wdue
                0x0817ac30                c_due
                0x0817af4c                e_rdue
 .text          0x0817b020      0x340 /usr/lib/gcc-lib/i686-pc-linux-gnu/2.95.3/libg2c.a(endfile.o)
                0x0817b168                t_runc
                0x0817b020                f_end
 .text          0x0817b360      0x4c0 /usr/lib/gcc-lib/i686-pc-linux-gnu/2.95.3/libg2c.a(err.o)
                0x0817b70c                f__nowwriting
                0x0817b360                f__canseek
                0x0817b59c                f_init
                0x0817b3ec                f__fatal
                0x0817b650                f__nowreading
                0x0817b7d8                err(float, long)
 .text          0x0817b820      0xc50 /usr/lib/gcc-lib/i686-pc-linux-gnu/2.95.3/libg2c.a(fmt.o)
                0x0817c414                fmt_bg
                0x0817c0fc                do_fio
                0x0817c3f0                en_fio
                0x0817c020                pars_f
 .text          0x0817c470      0x4d0 /usr/lib/gcc-lib/i686-pc-linux-gnu/2.95.3/libg2c.a(iio.o)
                0x0817c6a4                iw_rev
                0x0817c74c                z_wnew
                0x0817c4ec                z_putc
                0x0817c82c                e_rsfi
                0x0817c584                c_si
                0x0817c524                z_rnew
                0x0817c470                z_getc
                0x0817c6e8                s_rsfi
                0x0817c84c                e_wsfi
                0x0817c7c8                s_wsfi
 .text          0x0817c940      0x3d0 /usr/lib/gcc-lib/i686-pc-linux-gnu/2.95.3/libg2c.a(inquire.o)
                0x0817c940                f_inqu
 .text          0x0817cd10     0x1340 /usr/lib/gcc-lib/i686-pc-linux-gnu/2.95.3/libg2c.a(lread.o)
                0x0817cd10                t_getc
                0x0817df28                s_rsle
                0x0817dbc0                l_read
                0x0817cd70                e_rsle
                0x0817da70                c_le
 .text          0x0817e050      0x930 /usr/lib/gcc-lib/i686-pc-linux-gnu/2.95.3/libg2c.a(open.o)
                0x0817e0f8                f__putbuf
                0x0817e1c8                x_putc
                0x0817e268                f_open
                0x0817e8a4                fk_open
 .text          0x0817e980      0xc60 /usr/lib/gcc-lib/i686-pc-linux-gnu/2.95.3/libg2c.a(rdfmt.o)
                0x0817f334                rd_ed
                0x0817f50c                rd_ned
 .text          0x0817f5e0      0x100 /usr/lib/gcc-lib/i686-pc-linux-gnu/2.95.3/libg2c.a(rewind.o)
                0x0817f5e0                f_rew
 .text          0x0817f6e0      0x300 /usr/lib/gcc-lib/i686-pc-linux-gnu/2.95.3/libg2c.a(rsfe.o)
                0x0817f738                x_getc
                0x0817f7cc                x_endp
                0x0817f804                s_rsfe
                0x0817f7f0                x_rev
                0x0817f6e0                xrd_SL
 .text          0x0817f9e0      0x140 /usr/lib/gcc-lib/i686-pc-linux-gnu/2.95.3/libg2c.a(sfe.o)
                0x0817fa04                c_sfe
                0x0817faf4                e_wsfe
                0x0817f9e0                e_rsfe
 .text          0x0817fb20      0x400 /usr/lib/gcc-lib/i686-pc-linux-gnu/2.95.3/libg2c.a(sue.o)
                0x0817fb20                c_sue
                0x0817fee4                e_rsue
                0x0817fd9c                s_wsue
                0x0817fe64                e_wsue
                0x0817fc5c                s_rsue
 .text          0x0817ff20      0x230 /usr/lib/gcc-lib/i686-pc-linux-gnu/2.95.3/libg2c.a(uio.o)
                0x08180114                do_uio
                0x0817ff20                do_us
                0x08180004                do_ud
 .text          0x08180150       0xc0 /usr/lib/gcc-lib/i686-pc-linux-gnu/2.95.3/libg2c.a(util.o)
                0x08180150                g_char
                0x08180194                b_char
                0x081801d0                f__inode
 .text          0x08180210      0xab0 /usr/lib/gcc-lib/i686-pc-linux-gnu/2.95.3/libg2c.a(wrtfmt.o)
                0x08180a98                w_ed
                0x08180bf0                w_ned
                0x08180888                wrt_L
 .text          0x08180cc0      0x2a0 /usr/lib/gcc-lib/i686-pc-linux-gnu/2.95.3/libg2c.a(wsfe.o)
                0x08180cc0                x_wSL
                0x08180da4                s_wsfe
 .text          0x08180f60       0xf0 /usr/lib/gcc-lib/i686-pc-linux-gnu/2.95.3/libg2c.a(wsle.o)
                0x0818101c                e_wsle
                0x08180f60                s_wsle
 .text          0x08181050       0x40 /usr/lib/gcc-lib/i686-pc-linux-gnu/2.95.3/libg2c.a(main.o)
                0x08181050                main
 .text          0x08181090       0x70 /usr/lib/gcc-lib/i686-pc-linux-gnu/2.95.3/libg2c.a(s_stop.o)
                0x08181090                s_stop
 .text          0x08181100       0x70 /usr/lib/gcc-lib/i686-pc-linux-gnu/2.95.3/libg2c.a(sig_die.o)
                0x08181100                sig_die
 .text          0x08181170       0x18 /usr/lib/gcc-lib/i686-pc-linux-gnu/2.95.3/libg2c.a(setarg.o)
                0x08181170                f_setarg
 .text          0x08181188      0x140 /usr/lib/gcc-lib/i686-pc-linux-gnu/2.95.3/libg2c.a(setsig.o)
                0x08181230                f_setsig
 .text          0x081812c8       0x28 /usr/lib/gcc-lib/i686-pc-linux-gnu/2.95.3/libg2c.a(pow_dd.o)
                0x081812c8                pow_dd
 .text          0x081812f0       0xb8 /usr/lib/gcc-lib/i686-pc-linux-gnu/2.95.3/libg2c.a(pow_zz.o)
                0x081812f0                pow_zz
 .text          0x081813a8       0x24 /usr/lib/gcc-lib/i686-pc-linux-gnu/2.95.3/libg2c.a(c_abs.o)
                0x081813a8                c_abs
 .text          0x081813cc       0x48 /usr/lib/gcc-lib/i686-pc-linux-gnu/2.95.3/libg2c.a(z_log.o)
                0x081813cc                z_log
 *fill*         0x08181414        0xc 90909090
 .text          0x08181420       0xc0 /usr/lib/gcc-lib/i686-pc-linux-gnu/2.95.3/libg2c.a(z_sqrt.o)
                0x08181420                z_sqrt
 .text          0x081814e0       0x24 /usr/lib/gcc-lib/i686-pc-linux-gnu/2.95.3/libg2c.a(r_lg10.o)
                0x081814e0                r_lg10
 *fill*         0x08181504        0xc 90909090
 .text          0x08181510       0x80 /usr/lib/gcc-lib/i686-pc-linux-gnu/2.95.3/libg2c.a(r_mod.o)
                0x08181510                r_mod
 .text          0x08181590       0x60 /usr/lib/gcc-lib/i686-pc-linux-gnu/2.95.3/libg2c.a(i_indx.o)
                0x08181590                i_indx
 .text          0x081815f0       0x2c /usr/lib/gcc-lib/i686-pc-linux-gnu/2.95.3/libg2c.a(l_gt.o)
                0x081815f0                l_gt
 .text          0x0818161c       0x28 /usr/lib/gcc-lib/i686-pc-linux-gnu/2.95.3/libg2c.a(l_lt.o)
                0x0818161c                l_lt
 *fill*         0x08181644        0xc 90909090
 .text          0x08181650       0xf0 /usr/lib/gcc-lib/i686-pc-linux-gnu/2.95.3/libg2c.a(s_cat.o)
                0x08181650                s_cat
 .text          0x08181740       0x90 /usr/lib/gcc-lib/i686-pc-linux-gnu/2.95.3/libg2c.a(s_cmp.o)
                0x08181740                s_cmp
 .text          0x081817d0       0xa0 /usr/lib/gcc-lib/i686-pc-linux-gnu/2.95.3/libg2c.a(s_copy.o)
                0x081817d0                s_copy
 .text          0x08181870       0x20 /usr/lib/gcc-lib/i686-pc-linux-gnu/2.95.3/libg2c.a(lnblnk_.o)
                0x08181870                G77_lnblnk_0
 .text          0x08181890       0xc0 /usr/lib/gcc-lib/i686-pc-linux-gnu/2.95.3/libg2c.a(fmtlib.o)
                0x08181890                f__icvt
 .text          0x08181950      0x4f0 /usr/lib/gcc-lib/i686-pc-linux-gnu/2.95.3/libg2c.a(lwrite.o)
                0x08181d60                l_write
 .text          0x08181e40      0x670 /usr/lib/gcc-lib/i686-pc-linux-gnu/2.95.3/libg2c.a(wref.o)
                0x08181e40                wrt_E
                0x081822a8                wrt_F
 .text          0x081824b0       0x4c /usr/lib/gcc-lib/i686-pc-linux-gnu/2.95.3/libg2c.a(F77_aloc.o)
                0x081824b0                F77_aloc
 .text          0x081824fc       0x68 /usr/lib/gcc-lib/i686-pc-linux-gnu/2.95.3/libg2c.a(cabs.o)
                0x081824fc                f__cabs
 .text          0x08182564       0x14 /usr/lib/gcc-lib/i686-pc-linux-gnu/2.95.3/libg2c.a(exit_.o)
                0x08182564                G77_exit_0
 *fill*         0x08182578        0x8 90909090
 .text          0x08182580       0x40 /usr/lib/gcc-lib/i686-pc-linux-gnu/2.95.3/crtend.o
 *(.gnu.warning)

.fini           0x081825c0       0x1c
 *(.fini)
 .fini          0x081825c0       0x14 /usr/lib/crti.o
                0x081825c0                _fini
 .fini          0x081825d4        0x5 /usr/lib/gcc-lib/i686-pc-linux-gnu/2.95.3/crtbegin.o
 .fini          0x081825d9        0x3 /usr/lib/crtn.o
                0x081825dc                PROVIDE (__etext, .)
                0x081825dc                PROVIDE (_etext, .)
                0x081825dc                PROVIDE (etext, .)

.rodata         0x081825e0     0xe582
 *(.rodata .rodata.* .gnu.linkonce.r.*)
 .rodata        0x081825e0        0x8 /usr/lib/crt1.o
                0x081825e0                _fp_hw
                0x081825e4                _IO_stdin_used
 *fill*         0x081825e8       0x18 00
 .rodata        0x08182600     0x12f8 mchw58d_105j.o
 .rodata        0x081838f8       0x14 /home/pcl2483/pedro/jadesoft/util/mcgen/Plib/libmc105j.a(mcgetf.o)
 .rodata        0x0818390c       0x2c /home/pcl2483/pedro/jadesoft/util/mcgen/Plib/libmc105j.a(mcgeth.o)
 .rodata        0x08183938       0x12 /home/pcl2483/pedro/jadesoft/util/mcgen/Plib/libmc105j.a(mcgetp.o)
 *fill*         0x0818394a        0x2 00
 .rodata        0x0818394c      0x110 /home/pcl2483/pedro/jadesoft/util/mcgen/Plib/libmc105j.a(mcinit.o)
 *fill*         0x08183a5c        0x4 00
 .rodata        0x08183a60       0xf8 /home/pcl2483/pedro/jadesoft/util/mcgen/Plib/libmc105j.a(mcstbl.o)
 *fill*         0x08183b58        0x8 00
 .rodata        0x08183b60      0x20c /home/pcl2483/pedro/jadesoft/util/mcgen/Plib/libmc105j.a(mcwrit.o)
 *fill*         0x08183d6c       0x14 00
 .rodata        0x08183d80      0x168 /home/pcl2483/pedro/jadesoft/util/mcgen/Plib/libmc105j.a(pxeecb.o)
 *fill*         0x08183ee8       0x18 00
 .rodata        0x08183f00      0x23c /home/pcl2483/pedro/jadesoft/util/mcgen/Plib/libmc105j.a(evwrtj.o)
 .rodata        0x0818413c       0x1c /home/pcl2483/pedro/jadesoft/util/mcgen/Plib/libmc105j.a(incprd.o)
 *fill*         0x08184158        0x8 00
 .rodata        0x08184160      0x24c /home/pcl2483/pedro/jadesoft/util/mcgen/Plib/libmc105j.a(jtconv.o)
 *fill*         0x081843ac       0x14 00
 .rodata        0x081843c0       0x58 /home/pcl2483/pedro/jadesoft/util/mcgen/Plib/libmc105j.a(mcrnst.o)
 *fill*         0x08184418        0x8 00
 .rodata        0x08184420      0x1a8 /home/pcl2483/pedro/jadesoft/util/mcgen/Plib/libmc105j.a(prcprd.o)
 *fill*         0x081845c8       0x18 00
 .rodata        0x081845e0       0x48 /home/pcl2483/pedro/jadesoft/util/mcgen/Plib/libmc105j.a(wrcprd.o)
 *fill*         0x08184628       0x18 00
 .rodata        0x08184640       0xd4 /home/pcl2483/pedro/jadesoft/util/mcgen/Plib/libherwig58d.a(fxhlms.o)
 *fill*         0x08184714        0xc 00
 .rodata        0x08184720      0x2e0 /home/pcl2483/pedro/jadesoft/util/mcgen/Plib/libherwig58d.a(h58ddriv.o)
 .rodata        0x08184a00       0x98 /home/pcl2483/pedro/jadesoft/util/mcgen/Plib/libherwig58d.a(hwbgen.o)
 .rodata        0x08184a98       0x74 /home/pcl2483/pedro/jadesoft/util/mcgen/Plib/libherwig58d.a(hwbjco.o)
 *fill*         0x08184b0c        0x4 00
 .rodata        0x08184b10        0x8 /home/pcl2483/pedro/jadesoft/util/mcgen/Plib/libherwig58d.a(hwbmas.o)
 .rodata        0x08184b18       0xa4 /home/pcl2483/pedro/jadesoft/util/mcgen/Plib/libherwig58d.a(hwbran.o)
 *fill*         0x08184bbc        0x4 00
 .rodata        0x08184bc0       0x24 /home/pcl2483/pedro/jadesoft/util/mcgen/Plib/libherwig58d.a(hwbspa.o)
 .rodata        0x08184be4        0x4 /home/pcl2483/pedro/jadesoft/util/mcgen/Plib/libherwig58d.a(hwbspn.o)
 .rodata        0x08184be8       0x28 /home/pcl2483/pedro/jadesoft/util/mcgen/Plib/libherwig58d.a(hwbtim.o)
 .rodata        0x08184c10        0xc /home/pcl2483/pedro/jadesoft/util/mcgen/Plib/libherwig58d.a(hwcdec.o)
 *fill*         0x08184c1c        0x4 00
 .rodata        0x08184c20       0x50 /home/pcl2483/pedro/jadesoft/util/mcgen/Plib/libherwig58d.a(hwcfor.o)
 .rodata        0x08184c70       0x30 /home/pcl2483/pedro/jadesoft/util/mcgen/Plib/libherwig58d.a(hwcgsp.o)
 .rodata        0x08184ca0       0x60 /home/pcl2483/pedro/jadesoft/util/mcgen/Plib/libherwig58d.a(hwchad.o)
 .rodata        0x08184d00       0x24 /home/pcl2483/pedro/jadesoft/util/mcgen/Plib/libherwig58d.a(hwdhqk.o)
 .rodata        0x08184d24        0x4 /home/pcl2483/pedro/jadesoft/util/mcgen/Plib/libherwig58d.a(hwdidp.o)
 .rodata        0x08184d28       0x30 /home/pcl2483/pedro/jadesoft/util/mcgen/Plib/libherwig58d.a(hwdthr.o)
 .rodata        0x08184d58        0x8 /home/pcl2483/pedro/jadesoft/util/mcgen/Plib/libherwig58d.a(hwdtop.o)
 .rodata        0x08184d60       0x24 /home/pcl2483/pedro/jadesoft/util/mcgen/Plib/libherwig58d.a(hwdtwo.o)
 *fill*         0x08184d84        0x4 00
 .rodata        0x08184d88       0x18 /home/pcl2483/pedro/jadesoft/util/mcgen/Plib/libherwig58d.a(hwefin.o)
 .rodata        0x08184da0       0x10 /home/pcl2483/pedro/jadesoft/util/mcgen/Plib/libherwig58d.a(hweini.o)
 .rodata        0x08184db0       0x48 /home/pcl2483/pedro/jadesoft/util/mcgen/Plib/libherwig58d.a(hwepro.o)
 .rodata        0x08184df8       0x24 /home/pcl2483/pedro/jadesoft/util/mcgen/Plib/libherwig58d.a(hwhbgf.o)
 *fill*         0x08184e1c        0x4 00
 .rodata        0x08184e20       0x28 /home/pcl2483/pedro/jadesoft/util/mcgen/Plib/libherwig58d.a(hwhbki.o)
 .rodata        0x08184e48       0x70 /home/pcl2483/pedro/jadesoft/util/mcgen/Plib/libherwig58d.a(hwhbrn.o)
 .rodata        0x08184eb8       0x70 /home/pcl2483/pedro/jadesoft/util/mcgen/Plib/libherwig58d.a(hwhbsg.o)
 .rodata        0x08184f28       0x40 /home/pcl2483/pedro/jadesoft/util/mcgen/Plib/libherwig58d.a(hwhdis.o)
 .rodata        0x08184f68       0x30 /home/pcl2483/pedro/jadesoft/util/mcgen/Plib/libherwig58d.a(hwhdyp.o)
 .rodata        0x08184f98       0x98 /home/pcl2483/pedro/jadesoft/util/mcgen/Plib/libherwig58d.a(hwhegg.o)
 .rodata        0x08185030       0x48 /home/pcl2483/pedro/jadesoft/util/mcgen/Plib/libherwig58d.a(hwhegw.o)
 .rodata        0x08185078       0x30 /home/pcl2483/pedro/jadesoft/util/mcgen/Plib/libherwig58d.a(hwhegx.o)
 .rodata        0x081850a8       0x48 /home/pcl2483/pedro/jadesoft/util/mcgen/Plib/libherwig58d.a(hwhepa.o)
 .rodata        0x081850f0       0x50 /home/pcl2483/pedro/jadesoft/util/mcgen/Plib/libherwig58d.a(hwhepg.o)
 .rodata        0x08185140       0x60 /home/pcl2483/pedro/jadesoft/util/mcgen/Plib/libherwig58d.a(hwheww.o)
 .rodata        0x081851a0       0x9c /home/pcl2483/pedro/jadesoft/util/mcgen/Plib/libherwig58d.a(hwhhvy.o)
 *fill*         0x0818523c        0x4 00
 .rodata        0x08185240       0x64 /home/pcl2483/pedro/jadesoft/util/mcgen/Plib/libherwig58d.a(hwhigj.o)
 *fill*         0x081852a4        0x4 00
 .rodata        0x081852a8       0x2c /home/pcl2483/pedro/jadesoft/util/mcgen/Plib/libherwig58d.a(hwhigm.o)
 *fill*         0x081852d4        0x4 00
 .rodata        0x081852d8       0x38 /home/pcl2483/pedro/jadesoft/util/mcgen/Plib/libherwig58d.a(hwhigs.o)
 .rodata        0x08185310       0x38 /home/pcl2483/pedro/jadesoft/util/mcgen/Plib/libherwig58d.a(hwhigt.o)
 .rodata        0x08185348       0x64 /home/pcl2483/pedro/jadesoft/util/mcgen/Plib/libherwig58d.a(hwhigw.o)
 *fill*         0x081853ac        0x4 00
 .rodata        0x081853b0       0x80 /home/pcl2483/pedro/jadesoft/util/mcgen/Plib/libherwig58d.a(hwhigz.o)
 .rodata        0x08185430       0x44 /home/pcl2483/pedro/jadesoft/util/mcgen/Plib/libherwig58d.a(hwhph2.o)
 *fill*         0x08185474        0x4 00
 .rodata        0x08185478       0x64 /home/pcl2483/pedro/jadesoft/util/mcgen/Plib/libherwig58d.a(hwhpho.o)
 *fill*         0x081854dc        0x4 00
 .rodata        0x081854e0       0x18 /home/pcl2483/pedro/jadesoft/util/mcgen/Plib/libherwig58d.a(hwhppb.o)
 .rodata        0x081854f8       0x34 /home/pcl2483/pedro/jadesoft/util/mcgen/Plib/libherwig58d.a(hwhppe.o)
 *fill*         0x0818552c        0x4 00
 .rodata        0x08185530       0x28 /home/pcl2483/pedro/jadesoft/util/mcgen/Plib/libherwig58d.a(hwhpph.o)
 .rodata        0x08185558       0x74 /home/pcl2483/pedro/jadesoft/util/mcgen/Plib/libherwig58d.a(hwhppm.o)
 *fill*         0x081855cc        0x4 00
 .rodata        0x081855d0       0x38 /home/pcl2483/pedro/jadesoft/util/mcgen/Plib/libherwig58d.a(hwhppt.o)
 .rodata        0x08185608       0x30 /home/pcl2483/pedro/jadesoft/util/mcgen/Plib/libherwig58d.a(hwhpqs.o)
 .rodata        0x08185638       0xd0 /home/pcl2483/pedro/jadesoft/util/mcgen/Plib/libherwig58d.a(hwhqcd.o)
 .rodata        0x08185708        0x4 /home/pcl2483/pedro/jadesoft/util/mcgen/Plib/libherwig58d.a(hwhqcp.o)
 *fill*         0x0818570c        0x4 00
 .rodata        0x08185710       0x54 /home/pcl2483/pedro/jadesoft/util/mcgen/Plib/libherwig58d.a(hwhw1j.o)
 *fill*         0x08185764        0x4 00
 .rodata        0x08185768       0x48 /home/pcl2483/pedro/jadesoft/util/mcgen/Plib/libherwig58d.a(hwhwex.o)
 .rodata        0x081857b0       0x48 /home/pcl2483/pedro/jadesoft/util/mcgen/Plib/libherwig58d.a(hwhwpr.o)
 .rodata        0x081857f8      0x188 /home/pcl2483/pedro/jadesoft/util/mcgen/Plib/libherwig58d.a(hwigin.o)
 .rodata        0x08185980       0xb0 /home/pcl2483/pedro/jadesoft/util/mcgen/Plib/libherwig58d.a(hwmwgt.o)
 .rodata        0x08185a30        0x8 /home/pcl2483/pedro/jadesoft/util/mcgen/Plib/libherwig58d.a(hwrazm.o)
 .rodata        0x08185a38       0x10 /home/pcl2483/pedro/jadesoft/util/mcgen/Plib/libherwig58d.a(hwrgen.o)
 .rodata        0x08185a48        0x4 /home/pcl2483/pedro/jadesoft/util/mcgen/Plib/libherwig58d.a(hwrint.o)
 .rodata        0x08185a4c        0x4 /home/pcl2483/pedro/jadesoft/util/mcgen/Plib/libherwig58d.a(hwrlog.o)
 .rodata        0x08185a50       0x10 /home/pcl2483/pedro/jadesoft/util/mcgen/Plib/libherwig58d.a(hwrpow.o)
 .rodata        0x08185a60       0x70 /home/pcl2483/pedro/jadesoft/util/mcgen/Plib/libherwig58d.a(hwsbrn.o)
 .rodata        0x08185ad0       0x1c /home/pcl2483/pedro/jadesoft/util/mcgen/Plib/libherwig58d.a(hwsfbr.o)
 *fill*         0x08185aec        0x4 00
 .rodata        0x08185af0       0xd8 /home/pcl2483/pedro/jadesoft/util/mcgen/Plib/libherwig58d.a(hwsfun.o)
 .rodata        0x08185bc8       0x10 /home/pcl2483/pedro/jadesoft/util/mcgen/Plib/libherwig58d.a(hwsgam.o)
 .rodata        0x08185bd8        0xc /home/pcl2483/pedro/jadesoft/util/mcgen/Plib/libherwig58d.a(hwsgen.o)
 .rodata        0x08185be4        0x4 /home/pcl2483/pedro/jadesoft/util/mcgen/Plib/libherwig58d.a(hwsgqq.o)
 .rodata        0x08185be8       0x28 /home/pcl2483/pedro/jadesoft/util/mcgen/Plib/libherwig58d.a(hwsspc.o)
 .rodata        0x08185c10       0x10 /home/pcl2483/pedro/jadesoft/util/mcgen/Plib/libherwig58d.a(hwstab.o)
 .rodata        0x08185c20        0xc /home/pcl2483/pedro/jadesoft/util/mcgen/Plib/libherwig58d.a(hwsval.o)
 *fill*         0x08185c2c        0x4 00
 .rodata        0x08185c30       0x28 /home/pcl2483/pedro/jadesoft/util/mcgen/Plib/libherwig58d.a(hwuaem.o)
 .rodata        0x08185c58       0x38 /home/pcl2483/pedro/jadesoft/util/mcgen/Plib/libherwig58d.a(hwuaer.o)
 .rodata        0x08185c90       0x88 /home/pcl2483/pedro/jadesoft/util/mcgen/Plib/libherwig58d.a(hwualf.o)
 .rodata        0x08185d18       0x18 /home/pcl2483/pedro/jadesoft/util/mcgen/Plib/libherwig58d.a(hwubst.o)
 .rodata        0x08185d30        0x8 /home/pcl2483/pedro/jadesoft/util/mcgen/Plib/libherwig58d.a(hwucff.o)
 .rodata        0x08185d38        0xc /home/pcl2483/pedro/jadesoft/util/mcgen/Plib/libherwig58d.a(hwueec.o)
 .rodata        0x08185d44        0x8 /home/pcl2483/pedro/jadesoft/util/mcgen/Plib/libherwig58d.a(hwuepr.o)
 .rodata        0x08185d4c       0x10 /home/pcl2483/pedro/jadesoft/util/mcgen/Plib/libherwig58d.a(hwufne.o)
 *fill*         0x08185d5c        0x4 00
 .rodata        0x08185d60      0x184 /home/pcl2483/pedro/jadesoft/util/mcgen/Plib/libherwig58d.a(hwuinc.o)
 .rodata        0x08185ee4       0x1c /home/pcl2483/pedro/jadesoft/util/mcgen/Plib/libherwig58d.a(hwuine.o)
 .rodata        0x08185f00       0x10 /home/pcl2483/pedro/jadesoft/util/mcgen/Plib/libherwig58d.a(hwupcm.o)
 .rodata        0x08185f10       0x24 /home/pcl2483/pedro/jadesoft/util/mcgen/Plib/libherwig58d.a(hwures.o)
 *fill*         0x08185f34        0x4 00
 .rodata        0x08185f38        0x8 /home/pcl2483/pedro/jadesoft/util/mcgen/Plib/libherwig58d.a(hwutab.o)
 .rodata        0x08185f40        0x4 /home/pcl2483/pedro/jadesoft/util/mcgen/Plib/libherwig58d.a(hwutim.o)
 .rodata        0x08185f44        0x8 /home/pcl2483/pedro/jadesoft/util/mcgen/Plib/libherwig58d.a(hwwarn.o)
 .rodata        0x08185f4c       0x28 /home/pcl2483/pedro/jadesoft/util/mcgen/Plib/libherwig58d.a(sas1d.o)
 *fill*         0x08185f74        0x4 00
 .rodata        0x08185f78        0x8 /home/pcl2483/pedro/jadesoft/util/mcgen/Plib/libherwig58d.a(hwbazf.o)
 .rodata        0x08185f80        0xc /home/pcl2483/pedro/jadesoft/util/mcgen/Plib/libherwig58d.a(hwbcon.o)
 *fill*         0x08185f8c        0x4 00
 .rodata        0x08185f90       0xb4 /home/pcl2483/pedro/jadesoft/util/mcgen/Plib/libherwig58d.a(hwbded.o)
 *fill*         0x08186044        0x4 00
 .rodata        0x08186048       0xf4 /home/pcl2483/pedro/jadesoft/util/mcgen/Plib/libherwig58d.a(hwbdis.o)
 .rodata        0x0818613c       0x10 /home/pcl2483/pedro/jadesoft/util/mcgen/Plib/libherwig58d.a(hwbfin.o)
 *fill*         0x0818614c        0x4 00
 .rodata        0x08186150       0x74 /home/pcl2483/pedro/jadesoft/util/mcgen/Plib/libherwig58d.a(hwbsud.o)
 *fill*         0x081861c4        0x4 00
 .rodata        0x081861c8        0x8 /home/pcl2483/pedro/jadesoft/util/mcgen/Plib/libherwig58d.a(hwbsug.o)
 .rodata        0x081861d0       0x3c /home/pcl2483/pedro/jadesoft/util/mcgen/Plib/libherwig58d.a(hwbsul.o)
 *fill*         0x0818620c        0x4 00
 .rodata        0x08186210       0x20 /home/pcl2483/pedro/jadesoft/util/mcgen/Plib/libherwig58d.a(hwccut.o)
 .rodata        0x08186230       0x2c /home/pcl2483/pedro/jadesoft/util/mcgen/Plib/libherwig58d.a(hwdboz.o)
 *fill*         0x0818625c        0x4 00
 .rodata        0x08186260       0xc0 /home/pcl2483/pedro/jadesoft/util/mcgen/Plib/libherwig58d.a(hwdhig.o)
 .rodata        0x08186320       0x44 /home/pcl2483/pedro/jadesoft/util/mcgen/Plib/libherwig58d.a(hwegam.o)
 *fill*         0x08186364        0x4 00
 .rodata        0x08186368       0x74 /home/pcl2483/pedro/jadesoft/util/mcgen/Plib/libherwig58d.a(hweisr.o)
 *fill*         0x081863dc        0x4 00
 .rodata        0x081863e0       0x14 /home/pcl2483/pedro/jadesoft/util/mcgen/Plib/libherwig58d.a(hweone.o)
 *fill*         0x081863f4        0x4 00
 .rodata        0x081863f8       0x20 /home/pcl2483/pedro/jadesoft/util/mcgen/Plib/libherwig58d.a(hwetwo.o)
 .rodata        0x08186418       0x28 /home/pcl2483/pedro/jadesoft/util/mcgen/Plib/libherwig58d.a(hwhew0.o)
 .rodata        0x08186440       0x28 /home/pcl2483/pedro/jadesoft/util/mcgen/Plib/libherwig58d.a(hwhew2.o)
 .rodata        0x08186468       0x48 /home/pcl2483/pedro/jadesoft/util/mcgen/Plib/libherwig58d.a(hwhew3.o)
 .rodata        0x081864b0       0x10 /home/pcl2483/pedro/jadesoft/util/mcgen/Plib/libherwig58d.a(hwhew4.o)
 .rodata        0x081864c0       0x60 /home/pcl2483/pedro/jadesoft/util/mcgen/Plib/libherwig58d.a(hwhiga.o)
 .rodata        0x08186520       0x40 /home/pcl2483/pedro/jadesoft/util/mcgen/Plib/libherwig58d.a(hwhigb.o)
 .rodata        0x08186560       0x98 /home/pcl2483/pedro/jadesoft/util/mcgen/Plib/libherwig58d.a(hwhigy.o)
 .rodata        0x081865f8       0x18 /home/pcl2483/pedro/jadesoft/util/mcgen/Plib/libherwig58d.a(hwrexq.o)
 .rodata        0x08186610        0x8 /home/pcl2483/pedro/jadesoft/util/mcgen/Plib/libherwig58d.a(hwsdgg.o)
 .rodata        0x08186618       0x3c /home/pcl2483/pedro/jadesoft/util/mcgen/Plib/libherwig58d.a(hwsdgq.o)
 .rodata        0x08186654        0x4 /home/pcl2483/pedro/jadesoft/util/mcgen/Plib/libherwig58d.a(hwubpr.o)
 .rodata        0x08186658       0x40 /home/pcl2483/pedro/jadesoft/util/mcgen/Plib/libherwig58d.a(hwuci2.o)
 .rodata        0x08186698        0x4 /home/pcl2483/pedro/jadesoft/util/mcgen/Plib/libherwig58d.a(hwuedt.o)
 .rodata        0x0818669c        0x4 /home/pcl2483/pedro/jadesoft/util/mcgen/Plib/libherwig58d.a(hwuemv.o)
 .rodata        0x081866a0       0x1c /home/pcl2483/pedro/jadesoft/util/mcgen/Plib/libherwig58d.a(hwugau.o)
 .rodata        0x081866bc       0x18 /home/pcl2483/pedro/jadesoft/util/mcgen/Plib/libherwig58d.a(hwuidt.o)
 *fill*         0x081866d4        0x4 00
 .rodata        0x081866d8       0x28 /home/pcl2483/pedro/jadesoft/util/mcgen/Plib/libherwig58d.a(hwuli2.o)
 .rodata        0x08186700       0x90 /home/pcl2483/pedro/jadesoft/util/mcgen/Plib/libherwig58d.a(pystig.o)
 .rodata        0x08186790       0xc8 /home/pcl2483/pedro/jadesoft/util/mcgen/Plib/libherwig58d.a(pystvg.o)
 .rodata        0x08186858       0x20 /home/pcl2483/pedro/jadesoft/util/mcgen/Plib/libherwig58d.a(hwdhgc.o)
 .rodata        0x08186878       0x18 /home/pcl2483/pedro/jadesoft/util/mcgen/Plib/libherwig58d.a(hwdhgf.o)
 .rodata        0x08186890       0x38 /home/pcl2483/pedro/jadesoft/util/mcgen/Plib/libherwig58d.a(hwhig1.o)
 *fill*         0x081868c8       0x18 00
 .rodata        0x081868e0       0x44 /home/pcl2483/pedro/jadesoft/util/mcgen/Plib/libjt74opal.a(luedit.o)
 .rodata        0x08186924        0x8 /home/pcl2483/pedro/jadesoft/util/mcgen/Plib/libjt74opal.a(luerrm.o)
 *fill*         0x0818692c       0x14 00
 .rodata        0x08186940       0xbc /home/pcl2483/pedro/jadesoft/util/mcgen/Plib/libjt74opal.a(luexec.o)
 *fill*         0x081869fc        0x4 00
 .rodata        0x08186a00       0xfc /home/pcl2483/pedro/jadesoft/util/mcgen/Plib/libjt74opal.a(luhepc.o)
 *fill*         0x08186afc        0x4 00
 .rodata        0x08186b00      0x130 /home/pcl2483/pedro/jadesoft/util/mcgen/Plib/libjt74opal.a(luindf.o)
 *fill*         0x08186c30       0x10 00
 .rodata        0x08186c40       0x90 /home/pcl2483/pedro/jadesoft/util/mcgen/Plib/libjt74opal.a(lukfdi.o)
 .rodata        0x08186cd0       0x30 /home/pcl2483/pedro/jadesoft/util/mcgen/Plib/libjt74opal.a(lulist.o)
 .rodata        0x08186d00      0x1dc /home/pcl2483/pedro/jadesoft/util/mcgen/Plib/libjt74opal.a(lulogo.o)
 .rodata        0x08186edc       0xc0 /home/pcl2483/pedro/jadesoft/util/mcgen/Plib/libjt74opal.a(luname.o)
 *fill*         0x08186f9c        0x4 00
 .rodata        0x08186fa0      0x1a8 /home/pcl2483/pedro/jadesoft/util/mcgen/Plib/libjt74opal.a(luprep.o)
 .rodata        0x08187148        0x8 /home/pcl2483/pedro/jadesoft/util/mcgen/Plib/libjt74opal.a(luptdi.o)
 *fill*         0x08187150       0x10 00
 .rodata        0x08187160       0x7c /home/pcl2483/pedro/jadesoft/util/mcgen/Plib/libjt74opal.a(lurobo.o)
 *fill*         0x081871dc        0x4 00
 .rodata        0x081871e0      0x11c /home/pcl2483/pedro/jadesoft/util/mcgen/Plib/libjt74opal.a(lushow.o)
 *fill*         0x081872fc        0x4 00
 .rodata        0x08187300      0x160 /home/pcl2483/pedro/jadesoft/util/mcgen/Plib/libjt74opal.a(lustrf.o)
 .rodata        0x08187460       0x74 /home/pcl2483/pedro/jadesoft/util/mcgen/Plib/libjt74opal.a(lutabu.o)
 *fill*         0x081874d4        0x4 00
 .rodata        0x081874d8       0x3c /home/pcl2483/pedro/jadesoft/util/mcgen/Plib/libjt74opal.a(luzdis.o)
 .rodata        0x08187514       0x14 /home/pcl2483/pedro/jadesoft/util/mcgen/Plib/libjt74opal.a(plu.o)
 .rodata        0x08187528       0x10 /home/pcl2483/pedro/jadesoft/util/mcgen/Plib/libjt74opal.a(rlu.o)
 .rodata        0x08187538        0x8 /home/pcl2483/pedro/jadesoft/util/mcgen/Plib/libjt74opal.a(ulangl.o)
 .rodata        0x08187540       0x14 /home/pcl2483/pedro/jadesoft/util/mcgen/Plib/libjt74opal.a(ulmass.o)
 *fill*         0x08187554        0xc 00
 .rodata        0x08187560       0x68 /home/pcl2483/pedro/jadesoft/util/mcgen/Plib/libjt74opal.a(luboei.o)
 *fill*         0x081875c8       0x18 00
 .rodata        0x081875e0       0xf8 /home/pcl2483/pedro/jadesoft/util/mcgen/Plib/libjt74opal.a(ludecy.o)
 .rodata        0x081876d8       0x1c /home/pcl2483/pedro/jadesoft/util/mcgen/Plib/libjt74opal.a(lutaud.o)
 .rodata        0x081876f4       0x28 /home/pcl2483/pedro/jadesoft/util/mcgen/Plib/libjt74opal.a(taupol.o)
 .rodata        0x0818771c        0x8 /home/pcl2483/pedro/jadesoft/util/mcgen/Plib/libjt74opal.a(dexay.o)
 .rodata        0x08187724        0x4 /home/pcl2483/pedro/jadesoft/util/mcgen/Plib/libjt74opal.a(dexay1.o)
 .rodata        0x08187728       0x10 /home/pcl2483/pedro/jadesoft/util/mcgen/Plib/libjt74opal.a(dexel.o)
 .rodata        0x08187738       0x10 /home/pcl2483/pedro/jadesoft/util/mcgen/Plib/libjt74opal.a(dexkk.o)
 .rodata        0x08187748       0x10 /home/pcl2483/pedro/jadesoft/util/mcgen/Plib/libjt74opal.a(dexks.o)
 .rodata        0x08187758       0x10 /home/pcl2483/pedro/jadesoft/util/mcgen/Plib/libjt74opal.a(dexmu.o)
 .rodata        0x08187768       0x10 /home/pcl2483/pedro/jadesoft/util/mcgen/Plib/libjt74opal.a(dexnew.o)
 .rodata        0x08187778       0x10 /home/pcl2483/pedro/jadesoft/util/mcgen/Plib/libjt74opal.a(dexpi.o)
 .rodata        0x08187788       0x10 /home/pcl2483/pedro/jadesoft/util/mcgen/Plib/libjt74opal.a(dexro.o)
 .rodata        0x08187798        0x8 /home/pcl2483/pedro/jadesoft/util/mcgen/Plib/libjt74opal.a(dwlnew.o)
 .rodata        0x081877a0       0x18 /home/pcl2483/pedro/jadesoft/util/mcgen/Plib/libjt74opal.a(dwluaa.o)
 .rodata        0x081877b8        0x8 /home/pcl2483/pedro/jadesoft/util/mcgen/Plib/libjt74opal.a(dwluel.o)
 .rodata        0x081877c0        0x8 /home/pcl2483/pedro/jadesoft/util/mcgen/Plib/libjt74opal.a(dwlukk.o)
 .rodata        0x081877c8       0x14 /home/pcl2483/pedro/jadesoft/util/mcgen/Plib/libjt74opal.a(dwluks.o)
 .rodata        0x081877dc        0x8 /home/pcl2483/pedro/jadesoft/util/mcgen/Plib/libjt74opal.a(dwlumu.o)
 .rodata        0x081877e4        0x8 /home/pcl2483/pedro/jadesoft/util/mcgen/Plib/libjt74opal.a(dwlupi.o)
 .rodata        0x081877ec       0x18 /home/pcl2483/pedro/jadesoft/util/mcgen/Plib/libjt74opal.a(dwluro.o)
 .rodata        0x08187804        0x4 /home/pcl2483/pedro/jadesoft/util/mcgen/Plib/libjt74opal.a(dwrph.o)
 *fill*         0x08187808       0x18 00
 .rodata        0x08187820      0x2d0 /home/pcl2483/pedro/jadesoft/util/mcgen/Plib/libjt74opal.a(initdk.o)
 .rodata        0x08187af0       0x28 /home/pcl2483/pedro/jadesoft/util/mcgen/Plib/libjt74opal.a(lunpik.o)
 .rodata        0x08187b18       0x10 /home/pcl2483/pedro/jadesoft/util/mcgen/Plib/libjt74opal.a(dadmel.o)
 .rodata        0x08187b28       0x10 /home/pcl2483/pedro/jadesoft/util/mcgen/Plib/libjt74opal.a(dadmkk.o)
 .rodata        0x08187b38       0x10 /home/pcl2483/pedro/jadesoft/util/mcgen/Plib/libjt74opal.a(dadmks.o)
 .rodata        0x08187b48       0x10 /home/pcl2483/pedro/jadesoft/util/mcgen/Plib/libjt74opal.a(dadmmu.o)
 .rodata        0x08187b58       0x10 /home/pcl2483/pedro/jadesoft/util/mcgen/Plib/libjt74opal.a(dadmpi.o)
 .rodata        0x08187b68       0x10 /home/pcl2483/pedro/jadesoft/util/mcgen/Plib/libjt74opal.a(dadmro.o)
 .rodata        0x08187b78        0xc /home/pcl2483/pedro/jadesoft/util/mcgen/Plib/libjt74opal.a(dadnew.o)
 .rodata        0x08187b84       0x10 /home/pcl2483/pedro/jadesoft/util/mcgen/Plib/libjt74opal.a(dexaa.o)
 *fill*         0x08187b94        0x4 00
 .rodata        0x08187b98       0x44 /home/pcl2483/pedro/jadesoft/util/mcgen/Plib/libjt74opal.a(dph4pi.o)
 *fill*         0x08187bdc        0x4 00
 .rodata        0x08187be0       0x24 /home/pcl2483/pedro/jadesoft/util/mcgen/Plib/libjt74opal.a(dph5pi.o)
 .rodata        0x08187c04       0x10 /home/pcl2483/pedro/jadesoft/util/mcgen/Plib/libjt74opal.a(dphnpi.o)
 .rodata        0x08187c14        0x8 /home/pcl2483/pedro/jadesoft/util/mcgen/Plib/libjt74opal.a(dphsks.o)
 .rodata        0x08187c1c        0x8 /home/pcl2483/pedro/jadesoft/util/mcgen/Plib/libjt74opal.a(dphsrk.o)
 .rodata        0x08187c24        0x8 /home/pcl2483/pedro/jadesoft/util/mcgen/Plib/libjt74opal.a(dphsro.o)
 .rodata        0x08187c2c       0x14 /home/pcl2483/pedro/jadesoft/util/mcgen/Plib/libjt74opal.a(dphtre.o)
 .rodata        0x08187c40       0x60 /home/pcl2483/pedro/jadesoft/util/mcgen/Plib/libjt74opal.a(drcmu.o)
 .rodata        0x08187ca0       0x10 /home/pcl2483/pedro/jadesoft/util/mcgen/Plib/libjt74opal.a(dwluph.o)
 .rodata        0x08187cb0       0x1c /home/pcl2483/pedro/jadesoft/util/mcgen/Plib/libjt74opal.a(sigee.o)
 .rodata        0x08187ccc        0x4 /home/pcl2483/pedro/jadesoft/util/mcgen/Plib/libjt74opal.a(sphera.o)
 .rodata        0x08187cd0        0x4 /home/pcl2483/pedro/jadesoft/util/mcgen/Plib/libjt74opal.a(spherd.o)
 *fill*         0x08187cd4        0x4 00
 .rodata        0x08187cd8        0x8 /home/pcl2483/pedro/jadesoft/util/mcgen/Plib/libjt74opal.a(bostd3.o)
 .rodata        0x08187ce0        0x4 /home/pcl2483/pedro/jadesoft/util/mcgen/Plib/libjt74opal.a(bostr3.o)
 .rodata        0x08187ce4       0x14 /home/pcl2483/pedro/jadesoft/util/mcgen/Plib/libjt74opal.a(bwigs.o)
 .rodata        0x08187cf8       0x3c /home/pcl2483/pedro/jadesoft/util/mcgen/Plib/libjt74opal.a(choice.o)
 .rodata        0x08187d34       0x10 /home/pcl2483/pedro/jadesoft/util/mcgen/Plib/libjt74opal.a(dadmaa.o)
 .rodata        0x08187d44        0x4 /home/pcl2483/pedro/jadesoft/util/mcgen/Plib/libjt74opal.a(dam4pi.o)
 .rodata        0x08187d48        0xc /home/pcl2483/pedro/jadesoft/util/mcgen/Plib/libjt74opal.a(dampog.o)
 *fill*         0x08187d54        0xc 00
 .rodata        0x08187d60       0xa4 /home/pcl2483/pedro/jadesoft/util/mcgen/Plib/libjt74opal.a(damppk.o)
 *fill*         0x08187e04        0x4 00
 .rodata        0x08187e08        0x8 /home/pcl2483/pedro/jadesoft/util/mcgen/Plib/libjt74opal.a(dampry.o)
 .rodata        0x08187e10       0x30 /home/pcl2483/pedro/jadesoft/util/mcgen/Plib/libjt74opal.a(dcdmas.o)
 .rodata        0x08187e40       0x18 /home/pcl2483/pedro/jadesoft/util/mcgen/Plib/libjt74opal.a(form1.o)
 .rodata        0x08187e58       0x18 /home/pcl2483/pedro/jadesoft/util/mcgen/Plib/libjt74opal.a(form2.o)
 .rodata        0x08187e70        0x8 /home/pcl2483/pedro/jadesoft/util/mcgen/Plib/libjt74opal.a(form3.o)
 .rodata        0x08187e78       0x24 /home/pcl2483/pedro/jadesoft/util/mcgen/Plib/libjt74opal.a(form4.o)
 .rodata        0x08187e9c       0x14 /home/pcl2483/pedro/jadesoft/util/mcgen/Plib/libjt74opal.a(form5.o)
 .rodata        0x08187eb0       0x38 /home/pcl2483/pedro/jadesoft/util/mcgen/Plib/libjt74opal.a(formom.o)
 .rodata        0x08187ee8       0x1c /home/pcl2483/pedro/jadesoft/util/mcgen/Plib/libjt74opal.a(fpik.o)
 .rodata        0x08187f04       0x1c /home/pcl2483/pedro/jadesoft/util/mcgen/Plib/libjt74opal.a(fpikm.o)
 .rodata        0x08187f20       0x28 /home/pcl2483/pedro/jadesoft/util/mcgen/Plib/libjt74opal.a(fpikmd.o)
 .rodata        0x08187f48       0x20 /home/pcl2483/pedro/jadesoft/util/mcgen/Plib/libjt74opal.a(gfun.o)
 .rodata        0x08187f68       0x20 /home/pcl2483/pedro/jadesoft/util/mcgen/Plib/libjt74opal.a(prod5.o)
 .rodata        0x08187f88       0x10 /home/pcl2483/pedro/jadesoft/util/mcgen/Plib/libjt74opal.a(sqm2.o)
 .rodata        0x08187f98       0x54 /home/pcl2483/pedro/jadesoft/util/mcgen/Plib/libjt74opal.a(thb.o)
 .rodata        0x08187fec       0x10 /home/pcl2483/pedro/jadesoft/util/mcgen/Plib/libjt74opal.a(bwig.o)
 .rodata        0x08187ffc        0x4 /home/pcl2483/pedro/jadesoft/util/mcgen/Plib/libjt74opal.a(bwigm.o)
 .rodata        0x08188000       0x20 /home/pcl2483/pedro/jadesoft/util/mcgen/Plib/libjt74opal.a(claxi.o)
 .rodata        0x08188020        0x4 /home/pcl2483/pedro/jadesoft/util/mcgen/Plib/libjt74opal.a(clvec.o)
 *fill*         0x08188024        0x4 00
 .rodata        0x08188028       0x40 /home/pcl2483/pedro/jadesoft/util/mcgen/Plib/libjt74opal.a(curr.o)
 .rodata        0x08188068      0x120 /home/pcl2483/pedro/jadesoft/util/mcgen/Plib/libjt74opal.a(dilog.o)
 *fill*         0x08188188       0x18 00
 .rodata        0x081881a0      0x168 /home/pcl2483/pedro/jadesoft/util/mcgen/Plib/libckern105.a(ckern.o)
 *fill*         0x08188308       0x18 00
 .rodata        0x08188320       0x5c /home/pcl2483/pedro/jadesoft/util/mcgen/Plib/libckern105.a(cksord.o)
 *fill*         0x0818837c        0x4 00
 .rodata        0x08188380       0xb8 /home/pcl2483/pedro/jadesoft/util/mcgen/Plib/libckern105.a(cnjet.o)
 .rodata        0x08188438       0x24 /home/pcl2483/pedro/jadesoft/util/mcgen/Plib/libpx114.a(pxang3.o)
 *fill*         0x0818845c        0x4 00
 .rodata        0x08188460       0x20 /home/pcl2483/pedro/jadesoft/util/mcgen/Plib/libpx114.a(pxanxy.o)
 .rodata        0x08188480      0x178 /home/pcl2483/pedro/jadesoft/util/mcgen/Plib/libpx114.a(pxcone.o)
 *fill*         0x081885f8        0x8 00
 .rodata        0x08188600       0x3c /home/pcl2483/pedro/jadesoft/util/mcgen/Plib/libpx114.a(pxjpdg.o)
 *fill*         0x0818863c        0x4 00
 .rodata        0x08188640       0x98 /home/pcl2483/pedro/jadesoft/util/mcgen/Plib/libpx114.a(pxjsp3.o)
 *fill*         0x081886d8        0x8 00
 .rodata        0x081886e0       0x88 /home/pcl2483/pedro/jadesoft/util/mcgen/Plib/libpx114.a(pxlsp3.o)
 *fill*         0x08188768       0x18 00
 .rodata        0x08188780       0xec /home/pcl2483/pedro/jadesoft/util/mcgen/Plib/libpx114.a(pxlth4.o)
 *fill*         0x0818886c       0x14 00
 .rodata        0x08188880       0x68 /home/pcl2483/pedro/jadesoft/util/mcgen/Plib/libpx114.a(pxlut3.o)
 .rodata        0x081888e8       0x2c /home/pcl2483/pedro/jadesoft/util/mcgen/Plib/libpx114.a(pxmmbb.o)
 .rodata        0x08188914        0x4 /home/pcl2483/pedro/jadesoft/util/mcgen/Plib/libpx114.a(pxolap.o)
 .rodata        0x08188918        0x1 /home/pcl2483/pedro/jadesoft/util/mcgen/Plib/libpx114.a(pxord.o)
 *fill*         0x08188919        0x3 00
 .rodata        0x0818891c       0x38 /home/pcl2483/pedro/jadesoft/util/mcgen/Plib/libpx114.a(pxprcv.o)
 .rodata        0x08188954       0x2c /home/pcl2483/pedro/jadesoft/util/mcgen/Plib/libpx114.a(pxprrv.o)
 .rodata        0x08188980       0x10 /home/pcl2483/pedro/jadesoft/util/mcgen/Plib/libpx114.a(pxrap4.o)
 *fill*         0x08188990       0x10 00
 .rodata        0x081889a0       0x34 /home/pcl2483/pedro/jadesoft/util/mcgen/Plib/libpx114.a(pxsear.o)
 *fill*         0x081889d4        0xc 00
 .rodata        0x081889e0       0x5c /home/pcl2483/pedro/jadesoft/util/mcgen/Plib/libpx114.a(pxsorv.o)
 *fill*         0x08188a3c        0x4 00
 .rodata        0x08188a40       0x34 /home/pcl2483/pedro/jadesoft/util/mcgen/Plib/libpx114.a(pxuvec.o)
 .rodata        0x08188a74       0x40 /home/pcl2483/pedro/jadesoft/util/mcgen/Plib/libpx114.a(ykern.o)
 .rodata        0x08188ab4        0x4 /home/pcl2483/pedro/jadesoft/util/mcgen/Plib/libpx114.a(ynjet.o)
 .rodata        0x08188ab8        0x8 /home/pcl2483/pedro/jadesoft/util/mcgen/Plib/libpx114.a(yyjet.o)
 .rodata        0x08188ac0      0x288 /home/pcl2483/pedro/jadesoft/util/mcgen/Plib/libpx114.a(pxdiam.o)
 *fill*         0x08188d48       0x18 00
 .rodata        0x08188d60      0x2d0 /cern/99/lib/libpacklib.a(ffgo.o)
 .rodata        0x08189030       0x3c /cern/99/lib/libpacklib.a(ffinit.o)
 .rodata        0x0818906c        0xc /cern/99/lib/libpacklib.a(ffkey.o)
 .rodata        0x08189078       0x14 /cern/99/lib/libpacklib.a(ffset.o)
 .rodata        0x0818908c        0x1 /cern/99/lib/libpacklib.a(ffskip.o)
 *fill*         0x0818908d        0x3 00
 .rodata        0x08189090       0x18 /cern/99/lib/libpacklib.a(hrput.o)
 *fill*         0x081890a8       0x18 00
 .rodata        0x081890c0       0xa4 /cern/99/lib/libpacklib.a(hbook1.o)
 *fill*         0x08189164       0x1c 00
 .rodata        0x08189180       0xb0 /cern/99/lib/libpacklib.a(hbook2.o)
 *fill*         0x08189230       0x10 00
 .rodata        0x08189240       0xb0 /cern/99/lib/libpacklib.a(hbookb.o)
 .rodata        0x081892f0        0x1 /cern/99/lib/libpacklib.a(hbtit.o)
 *fill*         0x081892f1        0x3 00
 .rodata        0x081892f4       0x34 /cern/99/lib/libpacklib.a(hbug.o)
 *fill*         0x08189328       0x18 00
 .rodata        0x08189340       0xb8 /cern/99/lib/libpacklib.a(hcdir.o)
 .rodata        0x081893f8       0x10 /cern/99/lib/libpacklib.a(hchnam.o)
 .rodata        0x08189408       0x24 /cern/99/lib/libpacklib.a(hdelet.o)
 .rodata        0x0818942c       0x14 /cern/99/lib/libpacklib.a(hfill.o)
 .rodata        0x08189440        0xc /cern/99/lib/libpacklib.a(hfilpf.o)
 .rodata        0x0818944c        0xc /cern/99/lib/libpacklib.a(hgive.o)
 .rodata        0x08189458      0x100 /cern/99/lib/libpacklib.a(hidopt.o)
 *fill*         0x08189558        0x8 00
 .rodata        0x08189560      0x138 /cern/99/lib/libpacklib.a(hlimit.o)
 .rodata        0x08189698       0x11 /cern/99/lib/libpacklib.a(hloop.o)
 *fill*         0x081896a9        0x3 00
 .rodata        0x081896ac       0x60 /cern/99/lib/libpacklib.a(hmachi.o)
 .rodata        0x0818970c        0xc /cern/99/lib/libpacklib.a(hnoent.o)
 *fill*         0x08189718        0x8 00
 .rodata        0x08189720       0x58 /cern/99/lib/libpacklib.a(hopera.o)
 .rodata        0x08189778       0x14 /cern/99/lib/libpacklib.a(hpaff.o)
 .rodata        0x0818978c       0x14 /cern/99/lib/libpacklib.a(hpak.o)
 .rodata        0x081897a0        0xc /cern/99/lib/libpacklib.a(hpake.o)
 .rodata        0x081897ac        0x8 /cern/99/lib/libpacklib.a(hpath.o)
 *fill*         0x081897b4        0x4 00
 .rodata        0x081897b8       0x10 /cern/99/lib/libpacklib.a(hrebin.o)
 *fill*         0x081897c8       0x18 00
 .rodata        0x081897e0       0x88 /cern/99/lib/libpacklib.a(hreset.o)
 .rodata        0x08189868        0x4 /cern/99/lib/libpacklib.a(hsifla.o)
 .rodata        0x0818986c       0x1c /cern/99/lib/libpacklib.a(hspace.o)
 .rodata        0x08189888        0x3 /cern/99/lib/libpacklib.a(hstaf.o)
 *fill*         0x0818988b        0x1 00
 .rodata        0x0818988c       0x64 /cern/99/lib/libpacklib.a(hsupis.o)
 .rodata        0x081898f0       0x1c /cern/99/lib/libpacklib.a(hlogpf.o)
 .rodata        0x0818990c       0x14 /cern/99/lib/libpacklib.a(hoptpf.o)
 .rodata        0x08189920        0xc /cern/99/lib/libpacklib.a(hitoc.o)
 .rodata        0x0818992c        0x2 /cern/99/lib/libpacklib.a(hnbufd.o)
 .rodata        0x0818992e        0x2 /cern/99/lib/libpacklib.a(hntmpd.o)
 *fill*         0x08189930       0x10 00
 .rodata        0x08189940       0x9c /cern/99/lib/libpacklib.a(hntrset.o)
 .rodata        0x081899dc       0x20 /cern/99/lib/libpacklib.a(fzin.o)
 .rodata        0x081899fc        0x8 /cern/99/lib/libpacklib.a(fzloc.o)
 .rodata        0x08189a04        0x8 /cern/99/lib/libpacklib.a(mzbook.o)
 .rodata        0x08189a0c       0x14 /cern/99/lib/libpacklib.a(mzdrop.o)
 .rodata        0x08189a20       0x34 /cern/99/lib/libpacklib.a(mzebra.o)
 .rodata        0x08189a54        0x8 /cern/99/lib/libpacklib.a(mzflag.o)
 *fill*         0x08189a5c        0x4 00
 .rodata        0x08189a60       0xc8 /cern/99/lib/libpacklib.a(mzinco.o)
 .rodata        0x08189b28       0x10 /cern/99/lib/libpacklib.a(mzlift.o)
 .rodata        0x08189b38       0x1c /cern/99/lib/libpacklib.a(mzlink.o)
 .rodata        0x08189b54        0xc /cern/99/lib/libpacklib.a(mzneed.o)
 .rodata        0x08189b60        0xc /cern/99/lib/libpacklib.a(mzpaw.o)
 .rodata        0x08189b6c       0x18 /cern/99/lib/libpacklib.a(mzpush.o)
 .rodata        0x08189b84       0x2c /cern/99/lib/libpacklib.a(mzstor.o)
 .rodata        0x08189bb0        0x8 /cern/99/lib/libpacklib.a(mzvers.o)
 .rodata        0x08189bb8        0x8 /cern/99/lib/libpacklib.a(mzgar1.o)
 .rodata        0x08189bc0        0x4 /cern/99/lib/libpacklib.a(mzrelb.o)
 .rodata        0x08189bc4        0x4 /cern/99/lib/libpacklib.a(mzrell.o)
 .rodata        0x08189bc8        0x4 /cern/99/lib/libpacklib.a(mzchln.o)
 .rodata        0x08189bcc        0x4 /cern/99/lib/libpacklib.a(mzchls.o)
 .rodata        0x08189bd0        0x4 /cern/99/lib/libpacklib.a(mzfdiv.o)
 .rodata        0x08189bd4       0x24 /cern/99/lib/libpacklib.a(mzform.o)
 .rodata        0x08189bf8       0x10 /cern/99/lib/libpacklib.a(mzioch.o)
 .rodata        0x08189c08        0xc /cern/99/lib/libpacklib.a(zfatal.o)
 .rodata        0x08189c14        0x4 /cern/99/lib/libpacklib.a(zfatam.o)
 .rodata        0x08189c18       0x18 /cern/99/lib/libpacklib.a(ztell.o)
 .rodata        0x08189c30        0x8 /cern/99/lib/libpacklib.a(zshunt.o)
 .rodata        0x08189c38       0x14 /cern/99/lib/libpacklib.a(rzcdir.o)
 .rodata        0x08189c4c        0x8 /cern/99/lib/libpacklib.a(rzdate.o)
 *fill*         0x08189c54        0xc 00
 .rodata        0x08189c60      0x144 /cern/99/lib/libpacklib.a(rzfdir.o)
 .rodata        0x08189da4        0x8 /cern/99/lib/libpacklib.a(rziodo.o)
 .rodata        0x08189dac       0x14 /cern/99/lib/libpacklib.a(rzpaff.o)
 .rodata        0x08189dc0        0x4 /cern/99/lib/libpacklib.a(rzpath.o)
 .rodata        0x08189dc4       0x10 /cern/99/lib/libpacklib.a(rzrtop.o)
 .rodata        0x08189dd4        0x4 /cern/99/lib/libpacklib.a(rzsave.o)
 .rodata        0x08189dd8       0x1c /cern/99/lib/libpacklib.a(rzstrir.o)
 .rodata        0x08189df4       0x10 /cern/99/lib/libpacklib.a(cfget.o)
 .rodata        0x08189e04       0x10 /cern/99/lib/libpacklib.a(cfput.o)
 .rodata        0x08189e14       0x11 /cern/99/lib/libpacklib.a(cfseek.o)
 *fill*         0x08189e25        0x3 00
 .rodata        0x08189e28        0xc /cern/99/lib/libpacklib.a(cfopen.o)
 .rodata        0x08189e34        0x1 /cern/99/lib/libpacklib.a(cleft.o)
 *fill*         0x08189e35        0xb 00
 .rodata        0x08189e40       0x30 /cern/99/lib/libpacklib.a(kerngt.o)
 .rodata        0x08189e70       0x10 /cern/99/lib/libpacklib.a(ublow.o)
 .rodata        0x08189e80        0x4 /cern/99/lib/libpacklib.a(ubunch.o)
 .rodata        0x08189e84        0x4 /cern/99/lib/libpacklib.a(uctoh.o)
 .rodata        0x08189e88        0x4 /cern/99/lib/libpacklib.a(uctoh1.o)
 .rodata        0x08189e8c        0x4 /cern/99/lib/libpacklib.a(sbyt.o)
 .rodata        0x08189e90        0x8 /cern/99/lib/libpacklib.a(czgeta.o)
 .rodata        0x08189e98        0x8 /cern/99/lib/libpacklib.a(czputa.o)
 .rodata        0x08189ea0       0xcc /cern/99/lib/libpacklib.a(ffcard.o)
 .rodata        0x08189f6c        0x4 /cern/99/lib/libpacklib.a(fffind.o)
 *fill*         0x08189f70       0x10 00
 .rodata        0x08189f80       0x4c /cern/99/lib/libpacklib.a(hqputf.o)
 .rodata        0x08189fcc       0x1b /cern/99/lib/libpacklib.a(hbpqry.o)
 .rodata        0x08189fe7        0x7 /cern/99/lib/libpacklib.a(hrendc.o)
 *fill*         0x08189fee        0x2 00
 .rodata        0x08189ff0       0x34 /cern/99/lib/libpacklib.a(hropen.o)
 *fill*         0x0818a024       0x1c 00
 .rodata        0x0818a040      0x108 /cern/99/lib/libpacklib.a(hrout.o)
 *fill*         0x0818a148       0x18 00
 .rodata        0x0818a160       0x5c /cern/99/lib/libpacklib.a(hrzout.o)
 .rodata        0x0818a1bc       0x1c /cern/99/lib/libpacklib.a(hbar2.o)
 .rodata        0x0818a1d8       0x2c /cern/99/lib/libpacklib.a(hbarx.o)
 .rodata        0x0818a204       0x28 /cern/99/lib/libpacklib.a(hbary.o)
 .rodata        0x0818a22c       0x20 /cern/99/lib/libpacklib.a(hbin.o)
 *fill*         0x0818a24c       0x14 00
 .rodata        0x0818a260       0x64 /cern/99/lib/libpacklib.a(hcopy.o)
 *fill*         0x0818a2c4        0x4 00
 .rodata        0x0818a2c8       0x30 /cern/99/lib/libpacklib.a(hcx.o)
 .rodata        0x0818a2f8        0x4 /cern/99/lib/libpacklib.a(hdcofl.o)
 .rodata        0x0818a2fc       0x14 /cern/99/lib/libpacklib.a(hf1.o)
 .rodata        0x0818a310       0x20 /cern/99/lib/libpacklib.a(hf1aut.o)
 .rodata        0x0818a330        0x4 /cern/99/lib/libpacklib.a(hf2.o)
 .rodata        0x0818a334       0x18 /cern/99/lib/libpacklib.a(hfcx.o)
 .rodata        0x0818a34c        0xc /cern/99/lib/libpacklib.a(hfcxy.o)
 .rodata        0x0818a358       0x18 /cern/99/lib/libpacklib.a(hfind.o)
 .rodata        0x0818a370        0xc /cern/99/lib/libpacklib.a(hi.o)
 .rodata        0x0818a37c       0x14 /cern/99/lib/libpacklib.a(hie.o)
 .rodata        0x0818a390        0x6 /cern/99/lib/libpacklib.a(hix.o)
 *fill*         0x0818a396        0xa 00
 .rodata        0x0818a3a0       0x73 /cern/99/lib/libpacklib.a(hlabeq.o)
 *fill*         0x0818a413        0xd 00
 .rodata        0x0818a420       0x98 /cern/99/lib/libpacklib.a(hmdir.o)
 .rodata        0x0818a4b8       0x18 /cern/99/lib/libpacklib.a(hoper1.o)
 .rodata        0x0818a4d0        0x1 /cern/99/lib/libpacklib.a(hoper1a.o)
 *fill*         0x0818a4d1        0xf 00
 .rodata        0x0818a4e0       0xb0 /cern/99/lib/libpacklib.a(hnbfwr.o)
 *fill*         0x0818a590       0x10 00
 .rodata        0x0818a5a0       0x5c /cern/99/lib/libpacklib.a(hnbuff.o)
 .rodata        0x0818a5fc       0x15 /cern/99/lib/libpacklib.a(hnmset.o)
 *fill*         0x0818a611        0xf 00
 .rodata        0x0818a620       0x84 /cern/99/lib/libpacklib.a(hntdel.o)
 .rodata        0x0818a6a4       0x3c /cern/99/lib/libpacklib.a(hntmpf.o)
 .rodata        0x0818a6e0       0xec /cern/99/lib/libpacklib.a(fzidia.o)
 .rodata        0x0818a7cc       0x18 /cern/99/lib/libpacklib.a(fziffn.o)
 .rodata        0x0818a7e4       0x18 /cern/99/lib/libpacklib.a(fziffx.o)
 .rodata        0x0818a7fc        0x4 /cern/99/lib/libpacklib.a(fzilin.o)
 .rodata        0x0818a800       0x1c /cern/99/lib/libpacklib.a(fzimtb.o)
 .rodata        0x0818a81c        0xc /cern/99/lib/libpacklib.a(fzirec.o)
 *fill*         0x0818a828       0x18 00
 .rodata        0x0818a840       0xd0 /cern/99/lib/libpacklib.a(fzout.o)
 .rodata        0x0818a910        0x8 /cern/99/lib/libpacklib.a(fzitrx.o)
 .rodata        0x0818a918       0x2c /cern/99/lib/libpacklib.a(mzcopy.o)
 .rodata        0x0818a944        0x4 /cern/99/lib/libpacklib.a(mzpudx.o)
 .rodata        0x0818a948        0x4 /cern/99/lib/libpacklib.a(mzfgap.o)
 .rodata        0x0818a94c        0x4 /cern/99/lib/libpacklib.a(mzgarb.o)
 .rodata        0x0818a950        0x4 /cern/99/lib/libpacklib.a(mztabc.o)
 .rodata        0x0818a954        0x8 /cern/99/lib/libpacklib.a(mzdvac.o)
 .rodata        0x0818a95c       0x1c /cern/99/lib/libpacklib.a(mziocr.o)
 .rodata        0x0818a978        0x4 /cern/99/lib/libpacklib.a(mzixco.o)
 .rodata        0x0818a97c        0x5 /cern/99/lib/libpacklib.a(zabend.o)
 *fill*         0x0818a981        0x3 00
 .rodata        0x0818a984        0x4 /cern/99/lib/libpacklib.a(zend.o)
 .rodata        0x0818a988       0x18 /cern/99/lib/libpacklib.a(zphase.o)
 .rodata        0x0818a9a0       0x20 /cern/99/lib/libpacklib.a(zpostm.o)
 .rodata        0x0818a9c0       0x3c /cern/99/lib/libpacklib.a(rzclos.o)
 .rodata        0x0818a9fc       0x10 /cern/99/lib/libpacklib.a(rzend.o)
 .rodata        0x0818aa0c       0x1c /cern/99/lib/libpacklib.a(rzfree.o)
 .rodata        0x0818aa28       0x3c /cern/99/lib/libpacklib.a(rzmdir.o)
 .rodata        0x0818aa64       0x10 /cern/99/lib/libpacklib.a(rzmods.o)
 *fill*         0x0818aa74        0xc 00
 .rodata        0x0818aa80       0xc8 /cern/99/lib/libpacklib.a(rzopen.o)
 .rodata        0x0818ab48       0x40 /cern/99/lib/libpacklib.a(rzout.o)
 .rodata        0x0818ab88       0x1c /cern/99/lib/libpacklib.a(rzstrip.o)
 .rodata        0x0818aba4        0xc /cern/99/lib/libpacklib.a(rzused.o)
 .rodata        0x0818abb0      0x188 /cern/99/lib/libpacklib.a(close.o)
 .rodata        0x0818ad38      0x165 /cern/99/lib/libpacklib.a(error.o)
 .rodata        0x0818ae9d      0x2ac /cern/99/lib/libpacklib.a(lseek.o)
 .rodata        0x0818b149      0x452 /cern/99/lib/libpacklib.a(open.o)
 .rodata        0x0818b59b       0x5d /cern/99/lib/libpacklib.a(parse.o)
 .rodata        0x0818b5f8      0x3ac /cern/99/lib/libpacklib.a(read.o)
 .rodata        0x0818b9a4      0x31e /cern/99/lib/libpacklib.a(serror.o)
 .rodata        0x0818bcc2       0x17 /cern/99/lib/libpacklib.a(socket.o)
 .rodata        0x0818bcd9     0x122f /cern/99/lib/libpacklib.a(stream.o)
 .rodata        0x0818cf08       0x29 /cern/99/lib/libpacklib.a(trace.o)
 .rodata        0x0818cf31      0x215 /cern/99/lib/libpacklib.a(write.o)
 .rodata        0x0818d146       0x11 /cern/99/lib/libpacklib.a(cfopei.o)
 *fill*         0x0818d157        0x9 00
 .rodata        0x0818d160       0x3c /cern/99/lib/libpacklib.a(gshowf.o)
 .rodata        0x0818d19c        0x4 /cern/99/lib/libpacklib.a(xinbs.o)
 .rodata        0x0818d1a0      0x1f0 /cern/99/lib/libpacklib.a(halloc.o)
 .rodata        0x0818d390       0x68 /cern/99/lib/libpacklib.a(hrfile.o)
 .rodata        0x0818d3f8       0x80 /cern/99/lib/libpacklib.a(hfc1.o)
 .rodata        0x0818d478        0x4 /cern/99/lib/libpacklib.a(hlccmp.o)
 .rodata        0x0818d47c       0x24 /cern/99/lib/libpacklib.a(hlgnxt.o)
 .rodata        0x0818d4a0        0x4 /cern/99/lib/libpacklib.a(hlhcmp.o)
 .rodata        0x0818d4a4       0x48 /cern/99/lib/libpacklib.a(hlpos.o)
 *fill*         0x0818d4ec       0x14 00
 .rodata        0x0818d500      0x39c /cern/99/lib/libpacklib.a(dzsnap.o)
 .rodata        0x0818d89c       0x28 /cern/99/lib/libpacklib.a(dztext.o)
 *fill*         0x0818d8c4       0x1c 00
 .rodata        0x0818d8e0       0x34 /cern/99/lib/libpacklib.a(zpage.o)
 .rodata        0x0818d914        0x8 /cern/99/lib/libpacklib.a(fzipha.o)
 .rodata        0x0818d91c        0xc /cern/99/lib/libpacklib.a(fziphd.o)
 .rodata        0x0818d928        0x8 /cern/99/lib/libpacklib.a(fziphm.o)
 .rodata        0x0818d930        0x8 /cern/99/lib/libpacklib.a(fziphr.o)
 .rodata        0x0818d938        0x4 /cern/99/lib/libpacklib.a(fziprl.o)
 .rodata        0x0818d93c       0x44 /cern/99/lib/libpacklib.a(fzoffn.o)
 .rodata        0x0818d980        0x4 /cern/99/lib/libpacklib.a(fzoffx.o)
 .rodata        0x0818d984        0x4 /cern/99/lib/libpacklib.a(fzon1.o)
 .rodata        0x0818d988        0x4 /cern/99/lib/libpacklib.a(fzon2.o)
 .rodata        0x0818d98c        0x4 /cern/99/lib/libpacklib.a(fzon3.o)
 .rodata        0x0818d990        0x4 /cern/99/lib/libpacklib.a(fzon4.o)
 .rodata        0x0818d994        0x4 /cern/99/lib/libpacklib.a(fzon5.o)
 .rodata        0x0818d998        0x4 /cern/99/lib/libpacklib.a(fzon6.o)
 .rodata        0x0818d99c       0x20 /cern/99/lib/libpacklib.a(fzotab.o)
 .rodata        0x0818d9bc       0x1c /cern/99/lib/libpacklib.a(fzicv.o)
 .rodata        0x0818d9d8        0x8 /cern/99/lib/libpacklib.a(fzotrx.o)
 .rodata        0x0818d9e0        0x8 /cern/99/lib/libpacklib.a(mzend.o)
 .rodata        0x0818d9e8        0x4 /cern/99/lib/libpacklib.a(mzmaps.o)
 .rodata        0x0818d9ec        0x8 /cern/99/lib/libpacklib.a(mzmark.o)
 .rodata        0x0818d9f4        0x8 /cern/99/lib/libpacklib.a(mzwork.o)
 .rodata        0x0818d9fc        0x4 /cern/99/lib/libpacklib.a(rzallo.o)
 .rodata        0x0818da00       0x1c /cern/99/lib/libpacklib.a(rzdelk.o)
 .rodata        0x0818da1c       0x10 /cern/99/lib/libpacklib.a(rzexpd.o)
 .rodata        0x0818da2c       0x70 /cern/99/lib/libpacklib.a(rzfile.o)
 .rodata        0x0818da9c       0x24 /cern/99/lib/libpacklib.a(rzllok.o)
 .rodata        0x0818dac0       0x24 /cern/99/lib/libpacklib.a(rzlock.o)
 .rodata        0x0818dae4       0x5c /cern/99/lib/libpacklib.a(rzmake.o)
 .rodata        0x0818db40       0x18 /cern/99/lib/libpacklib.a(rzobkn.o)
 .rodata        0x0818db58       0x1c /cern/99/lib/libpacklib.a(rzpurf.o)
 *fill*         0x0818db74        0xc 00
 .rodata        0x0818db80       0xa0 /cern/99/lib/libpacklib.a(rzveri.o)
 .rodata        0x0818dc20       0x10 /cern/99/lib/libpacklib.a(rzwrt.o)
 .rodata        0x0818dc30      0x4ab /cern/99/lib/libpacklib.a(connect.o)
 .rodata        0x0818e0db        0xb /cern/99/lib/libpacklib.a(getacct.o)
 .rodata        0x0818e0e6       0x11 /cern/99/lib/libpacklib.a(getacctent.o)
 .rodata        0x0818e0f7       0x29 /cern/99/lib/libpacklib.a(getconfent.o)
 .rodata        0x0818e120       0xd0 /cern/99/lib/libpacklib.a(getifnam.o)
 .rodata        0x0818e1f0       0x2d /cern/99/lib/libpacklib.a(log.o)
 .rodata        0x0818e21d      0x2d6 /cern/99/lib/libpacklib.a(remote.o)
 *fill*         0x0818e4f3        0xd 00
 .rodata        0x0818e500      0x288 /cern/99/lib/libpacklib.a(dzare1.o)
 .rodata        0x0818e788       0xa0 /cern/99/lib/libpacklib.a(dzbkup.o)
 .rodata        0x0818e828       0x34 /cern/99/lib/libpacklib.a(dzbkxr.o)
 *fill*         0x0818e85c        0x4 00
 .rodata        0x0818e860       0xfc /cern/99/lib/libpacklib.a(dzdata.o)
 *fill*         0x0818e95c        0x4 00
 .rodata        0x0818e960      0x130 /cern/99/lib/libpacklib.a(dzmap.o)
 *fill*         0x0818ea90       0x10 00
 .rodata        0x0818eaa0       0x34 /cern/99/lib/libpacklib.a(dzopt.o)
 *fill*         0x0818ead4        0xc 00
 .rodata        0x0818eae0      0x148 /cern/99/lib/libpacklib.a(dzshpr.o)
 .rodata        0x0818ec28       0x10 /cern/99/lib/libpacklib.a(dztyp.o)
 .rodata        0x0818ec38       0x30 /cern/99/lib/libpacklib.a(fziasc.o)
 .rodata        0x0818ec68        0xc /cern/99/lib/libpacklib.a(fzichh.o)
 .rodata        0x0818ec74        0x4 /cern/99/lib/libpacklib.a(fzidum.o)
 .rodata        0x0818ec78        0xc /cern/99/lib/libpacklib.a(fzophr.o)
 .rodata        0x0818ec84       0x1c /cern/99/lib/libpacklib.a(fzocv.o)
 .rodata        0x0818eca0       0x18 /cern/99/lib/libpacklib.a(rzdlok.o)
 *fill*         0x0818ecb8        0x8 00
 .rodata        0x0818ecc0       0xb0 /cern/99/lib/libpacklib.a(rzver1.o)
 .rodata        0x0818ed70        0x8 /cern/99/lib/libpacklib.a(rzver2.o)
 .rodata        0x0818ed78       0x47 /cern/99/lib/libpacklib.a(stat.o)
 *fill*         0x0818edbf        0x1 00
 .rodata        0x0818edc0       0x18 /cern/99/lib/libpacklib.a(dzbkdv.o)
 *fill*         0x0818edd8        0x8 00
 .rodata        0x0818ede0       0xb4 /cern/99/lib/libpacklib.a(dzbkhd.o)
 .rodata        0x0818ee94       0x2c /cern/99/lib/libpacklib.a(dziopr.o)
 .rodata        0x0818eec0        0x8 /cern/99/lib/libpacklib.a(fzialn.o)
 *fill*         0x0818eec8       0x18 00
 .rodata        0x0818eee0       0x6c /cern/99/lib/libpacklib.a(rzprnk.o)
 .rodata        0x0818ef4c      0x15a /cern/99/lib/libpacklib.a(mstat.o)
 *fill*         0x0818f0a6       0x1a 00
 .rodata        0x0818f0c0      0x1f0 /cern/99/lib/libpacklib.a(dziopd.o)
 *fill*         0x0818f2b0       0x10 00
 .rodata        0x0818f2c0      0x130 /cern/99/lib/libpacklib.a(dzioph.o)
 .rodata        0x0818f3f0        0xc /cern/99/lib/libpacklib.a(fzoaln.o)
 *fill*         0x0818f3fc        0x4 00
 .rodata        0x0818f400       0x30 /cern/99/lib/libmathlib.a(dsyev.o)
 .rodata        0x0818f430       0x38 /cern/99/lib/libmathlib.a(dsytrd.o)
 .rodata        0x0818f468       0x6c /cern/99/lib/libmathlib.a(ilaenv.o)
 .rodata        0x0818f4d4        0x4 /cern/99/lib/libmathlib.a(xerbla.o)
 .rodata        0x0818f4d8        0xb /cern/99/lib/libmathlib.a(dsyr2k.o)
 *fill*         0x0818f4e3        0x5 00
 .rodata        0x0818f4e8       0x50 /cern/99/lib/libmathlib.a(dlamch.o)
 .rodata        0x0818f538        0xc /cern/99/lib/libmathlib.a(dlansy.o)
 .rodata        0x0818f544        0xe /cern/99/lib/libmathlib.a(dlascl.o)
 *fill*         0x0818f552        0x6 00
 .rodata        0x0818f558       0x48 /cern/99/lib/libmathlib.a(dlatrd.o)
 .rodata        0x0818f5a0        0x8 /cern/99/lib/libmathlib.a(dorgtr.o)
 .rodata        0x0818f5a8       0x3c /cern/99/lib/libmathlib.a(dsteqr.o)
 *fill*         0x0818f5e4        0x4 00
 .rodata        0x0818f5e8       0x30 /cern/99/lib/libmathlib.a(dsterf.o)
 .rodata        0x0818f618       0x28 /cern/99/lib/libmathlib.a(dsytd2.o)
 .rodata        0x0818f640        0x9 /cern/99/lib/libmathlib.a(dgemv.o)
 .rodata        0x0818f649        0x8 /cern/99/lib/libmathlib.a(dsymv.o)
 .rodata        0x0818f651        0x8 /cern/99/lib/libmathlib.a(dsyr2.o)
 *fill*         0x0818f659        0x7 00
 .rodata        0x0818f660       0x10 /cern/99/lib/libmathlib.a(dlae2.o)
 .rodata        0x0818f670       0x10 /cern/99/lib/libmathlib.a(dlaev2.o)
 .rodata        0x0818f680        0xc /cern/99/lib/libmathlib.a(dlanst.o)
 .rodata        0x0818f68c        0x2 /cern/99/lib/libmathlib.a(dlarfg.o)
 *fill*         0x0818f68e        0x2 00
 .rodata        0x0818f690       0x10 /cern/99/lib/libmathlib.a(dlartg.o)
 .rodata        0x0818f6a0        0x2 /cern/99/lib/libmathlib.a(dlaset.o)
 .rodata        0x0818f6a2        0xc /cern/99/lib/libmathlib.a(dlasr.o)
 .rodata        0x0818f6ae        0x8 /cern/99/lib/libmathlib.a(dlasrt.o)
 *fill*         0x0818f6b6        0x2 00
 .rodata        0x0818f6b8       0x3c /cern/99/lib/libmathlib.a(dorgql.o)
 .rodata        0x0818f6f4       0x38 /cern/99/lib/libmathlib.a(dorgqr.o)
 *fill*         0x0818f72c        0x4 00
 .rodata        0x0818f730       0x50 /cern/99/lib/libmathlib.a(dlarfb.o)
 .rodata        0x0818f780       0x38 /cern/99/lib/libmathlib.a(dlarft.o)
 .rodata        0x0818f7b8       0x18 /cern/99/lib/libmathlib.a(dorg2l.o)
 .rodata        0x0818f7d0       0x18 /cern/99/lib/libmathlib.a(dorg2r.o)
 .rodata        0x0818f7e8        0x9 /cern/99/lib/libmathlib.a(dgemm.o)
 .rodata        0x0818f7f1        0xc /cern/99/lib/libmathlib.a(dtrmm.o)
 .rodata        0x0818f7fd        0xb /cern/99/lib/libmathlib.a(dtrmv.o)
 .rodata        0x0818f808       0x30 /cern/99/lib/libmathlib.a(dlarf.o)
 .rodata        0x0818f838        0x6 /cern/99/lib/libmathlib.a(dger.o)
 .rodata        0x0818f83e        0xe /usr/lib/gcc-lib/i686-pc-linux-gnu/2.95.3/libg2c.a(close.o)
 .rodata        0x0818f84c       0x2f /usr/lib/gcc-lib/i686-pc-linux-gnu/2.95.3/libg2c.a(due.o)
 .rodata        0x0818f87b       0x1f /usr/lib/gcc-lib/i686-pc-linux-gnu/2.95.3/libg2c.a(endfile.o)
 *fill*         0x0818f89a        0x6 00
 .rodata        0x0818f8a0      0x440 /usr/lib/gcc-lib/i686-pc-linux-gnu/2.95.3/libg2c.a(err.o)
 .rodata        0x0818fce0      0x500 /usr/lib/gcc-lib/i686-pc-linux-gnu/2.95.3/libg2c.a(fmt.o)
 .rodata        0x081901e0       0x2e /usr/lib/gcc-lib/i686-pc-linux-gnu/2.95.3/libg2c.a(iio.o)
 .rodata        0x0819020e       0x4f /usr/lib/gcc-lib/i686-pc-linux-gnu/2.95.3/libg2c.a(inquire.o)
 *fill*         0x0819025d        0x3 00
 .rodata        0x08190260      0x39c /usr/lib/gcc-lib/i686-pc-linux-gnu/2.95.3/libg2c.a(lread.o)
 .rodata        0x081905fc       0xd0 /usr/lib/gcc-lib/i686-pc-linux-gnu/2.95.3/libg2c.a(open.o)
 .rodata        0x081906cc      0x1ec /usr/lib/gcc-lib/i686-pc-linux-gnu/2.95.3/libg2c.a(rdfmt.o)
 .rodata        0x081908b8       0x15 /usr/lib/gcc-lib/i686-pc-linux-gnu/2.95.3/libg2c.a(rewind.o)
 .rodata        0x081908cd       0x13 /usr/lib/gcc-lib/i686-pc-linux-gnu/2.95.3/libg2c.a(rsfe.o)
 .rodata        0x081908e0        0xc /usr/lib/gcc-lib/i686-pc-linux-gnu/2.95.3/libg2c.a(sfe.o)
 .rodata        0x081908ec       0x29 /usr/lib/gcc-lib/i686-pc-linux-gnu/2.95.3/libg2c.a(sue.o)
 .rodata        0x08190915        0xc /usr/lib/gcc-lib/i686-pc-linux-gnu/2.95.3/libg2c.a(uio.o)
 *fill*         0x08190921        0x7 00
 .rodata        0x08190928      0x100 /usr/lib/gcc-lib/i686-pc-linux-gnu/2.95.3/libg2c.a(wrtfmt.o)
 .rodata        0x08190a28       0x14 /usr/lib/gcc-lib/i686-pc-linux-gnu/2.95.3/libg2c.a(wsfe.o)
 .rodata        0x08190a3c       0x12 /usr/lib/gcc-lib/i686-pc-linux-gnu/2.95.3/libg2c.a(wsle.o)
 .rodata        0x08190a4e       0x1b /usr/lib/gcc-lib/i686-pc-linux-gnu/2.95.3/libg2c.a(s_stop.o)
 .rodata        0x08190a69        0x4 /usr/lib/gcc-lib/i686-pc-linux-gnu/2.95.3/libg2c.a(sig_die.o)
 .rodata        0x08190a6d       0x44 /usr/lib/gcc-lib/i686-pc-linux-gnu/2.95.3/libg2c.a(setsig.o)
 *fill*         0x08190ab1        0x7 00
 .rodata        0x08190ab8        0x8 /usr/lib/gcc-lib/i686-pc-linux-gnu/2.95.3/libg2c.a(z_sqrt.o)
 .rodata        0x08190ac0        0x8 /usr/lib/gcc-lib/i686-pc-linux-gnu/2.95.3/libg2c.a(r_lg10.o)
 .rodata        0x08190ac8        0x6 /usr/lib/gcc-lib/i686-pc-linux-gnu/2.95.3/libg2c.a(s_cat.o)
 *fill*         0x08190ace        0x2 00
 .rodata        0x08190ad0       0x50 /usr/lib/gcc-lib/i686-pc-linux-gnu/2.95.3/libg2c.a(lwrite.o)
 .rodata        0x08190b20       0x28 /usr/lib/gcc-lib/i686-pc-linux-gnu/2.95.3/libg2c.a(wref.o)
 .rodata        0x08190b48       0x1a /usr/lib/gcc-lib/i686-pc-linux-gnu/2.95.3/libg2c.a(F77_aloc.o)

.rodata1
 *(.rodata1)

.eh_frame_hdr
 *(.eh_frame_hdr)
                0x08191b62                . = (0x1000 DATA_SEGMENT_ALIGN 0x1000)
                0x08191b64                . = ALIGN (0x4)
                0x08191b64                PROVIDE (__preinit_array_start, .)

.preinit_array
 *(.preinit_array)
                0x08191b64                PROVIDE (__preinit_array_end, .)
                0x08191b64                PROVIDE (__init_array_start, .)

.init_array
 *(.init_array)
                0x08191b64                PROVIDE (__init_array_end, .)
                0x08191b64                PROVIDE (__fini_array_start, .)

.fini_array
 *(.fini_array)
                0x08191b64                PROVIDE (__fini_array_end, .)

.data           0x08191b80   0x269140
 *(.data .data.* .gnu.linkonce.d.*)
 .data          0x08191b80        0x4 /usr/lib/crt1.o
                0x08191b80                data_start
                0x08191b80                __data_start
 .data          0x08191b84        0x8 /usr/lib/gcc-lib/i686-pc-linux-gnu/2.95.3/crtbegin.o
 *fill*         0x08191b8c       0x14 00
 .data          0x08191ba0    0x20374 mchw58d_105j.o
                0x08192140                npower_
                0x08191c40                mcevsh_
 .data          0x081b1f14        0x4 /home/pcl2483/pedro/jadesoft/util/mcgen/Plib/libmc105j.a(mcgetf.o)
 .data          0x081b1f18       0x2c /home/pcl2483/pedro/jadesoft/util/mcgen/Plib/libmc105j.a(mcgeth.o)
 .data          0x081b1f44       0x10 /home/pcl2483/pedro/jadesoft/util/mcgen/Plib/libmc105j.a(mcgetp.o)
 *fill*         0x081b1f54        0xc 00
 .data          0x081b1f60       0x80 /home/pcl2483/pedro/jadesoft/util/mcgen/Plib/libmc105j.a(mcinit.o)
 .data          0x081b1fe0      0x318 /home/pcl2483/pedro/jadesoft/util/mcgen/Plib/libmc105j.a(mcstbl.o)
 *fill*         0x081b22f8        0x8 00
 .data          0x081b2300    0x272e4 /home/pcl2483/pedro/jadesoft/util/mcgen/Plib/libmc105j.a(mcwrit.o)
 *fill*         0x081d95e4       0x1c 00
 .data          0x081d9600    0x4e624 /home/pcl2483/pedro/jadesoft/util/mcgen/Plib/libmc105j.a(pxeecb.o)
 *fill*         0x08227c24       0x1c 00
 .data          0x08227c40      0x144 /home/pcl2483/pedro/jadesoft/util/mcgen/Plib/libmc105j.a(evwrtj.o)
 .data          0x08227d84        0x8 /home/pcl2483/pedro/jadesoft/util/mcgen/Plib/libmc105j.a(jadeco.o)
 .data          0x08227d8c       0xb4 /home/pcl2483/pedro/jadesoft/util/mcgen/Plib/libmc105j.a(jtconv.o)
 .data          0x08227e40      0x3aa /home/pcl2483/pedro/jadesoft/util/mcgen/Plib/libmc105j.a(mcrnst.o)
 *fill*         0x082281ea        0x2 00
 .data          0x082281ec       0xd0 /home/pcl2483/pedro/jadesoft/util/mcgen/Plib/libmc105j.a(prcprd.o)
 .data          0x082282bc       0x44 /home/pcl2483/pedro/jadesoft/util/mcgen/Plib/libmc105j.a(wrcprd.o)
 .data          0x08228300       0x34 /home/pcl2483/pedro/jadesoft/util/mcgen/Plib/libherwig58d.a(fxhlms.o)
 .data          0x08228334       0xb0 /home/pcl2483/pedro/jadesoft/util/mcgen/Plib/libherwig58d.a(h58ddriv.o)
 *fill*         0x082283e4       0x1c 00
 .data          0x08228400      0x6b4 /home/pcl2483/pedro/jadesoft/util/mcgen/Plib/libherwig58d.a(hwbgen.o)
 *fill*         0x08228ab4        0xc 00
 .data          0x08228ac0     0x16bc /home/pcl2483/pedro/jadesoft/util/mcgen/Plib/libherwig58d.a(hwbjco.o)
 *fill*         0x0822a17c        0x4 00
 .data          0x0822a180       0x38 /home/pcl2483/pedro/jadesoft/util/mcgen/Plib/libherwig58d.a(hwbmas.o)
 *fill*         0x0822a1b8        0x8 00
 .data          0x0822a1c0      0x248 /home/pcl2483/pedro/jadesoft/util/mcgen/Plib/libherwig58d.a(hwbran.o)
 *fill*         0x0822a408       0x18 00
 .data          0x0822a420      0x118 /home/pcl2483/pedro/jadesoft/util/mcgen/Plib/libherwig58d.a(hwbspa.o)
 .data          0x0822a538       0x68 /home/pcl2483/pedro/jadesoft/util/mcgen/Plib/libherwig58d.a(hwbspn.o)
 .data          0x0822a5a0      0x118 /home/pcl2483/pedro/jadesoft/util/mcgen/Plib/libherwig58d.a(hwbtim.o)
 .data          0x0822a6b8       0x24 /home/pcl2483/pedro/jadesoft/util/mcgen/Plib/libherwig58d.a(hwcdec.o)
 *fill*         0x0822a6dc        0x4 00
 .data          0x0822a6e0       0x50 /home/pcl2483/pedro/jadesoft/util/mcgen/Plib/libherwig58d.a(hwcfla.o)
 *fill*         0x0822a730       0x10 00
 .data          0x0822a740       0xa8 /home/pcl2483/pedro/jadesoft/util/mcgen/Plib/libherwig58d.a(hwcfor.o)
 .data          0x0822a7e8       0x28 /home/pcl2483/pedro/jadesoft/util/mcgen/Plib/libherwig58d.a(hwcgsp.o)
 *fill*         0x0822a810       0x10 00
 .data          0x0822a820      0x128 /home/pcl2483/pedro/jadesoft/util/mcgen/Plib/libherwig58d.a(hwchad.o)
 *fill*         0x0822a948       0x18 00
 .data          0x0822a960       0x94 /home/pcl2483/pedro/jadesoft/util/mcgen/Plib/libherwig58d.a(hwdhqk.o)
 *fill*         0x0822a9f4        0x4 00
 .data          0x0822a9f8       0x18 /home/pcl2483/pedro/jadesoft/util/mcgen/Plib/libherwig58d.a(hwdidp.o)
 *fill*         0x0822aa10       0x10 00
 .data          0x0822aa20       0xa8 /home/pcl2483/pedro/jadesoft/util/mcgen/Plib/libherwig58d.a(hwdthr.o)
 *fill*         0x0822aac8       0x18 00
 .data          0x0822aae0       0xa8 /home/pcl2483/pedro/jadesoft/util/mcgen/Plib/libherwig58d.a(hwdtwo.o)
 *fill*         0x0822ab88       0x18 00
 .data          0x0822aba0      0x21f /home/pcl2483/pedro/jadesoft/util/mcgen/Plib/libherwig58d.a(hwefin.o)
 *fill*         0x0822adbf        0x1 00
 .data          0x0822adc0      0x1aa /home/pcl2483/pedro/jadesoft/util/mcgen/Plib/libherwig58d.a(hweini.o)
 *fill*         0x0822af6a       0x16 00
 .data          0x0822af80       0xc6 /home/pcl2483/pedro/jadesoft/util/mcgen/Plib/libherwig58d.a(hwepro.o)
 *fill*         0x0822b046       0x1a 00
 .data          0x0822b060       0xbc /home/pcl2483/pedro/jadesoft/util/mcgen/Plib/libherwig58d.a(hwhbgf.o)
 *fill*         0x0822b11c        0x4 00
 .data          0x0822b120      0x224 /home/pcl2483/pedro/jadesoft/util/mcgen/Plib/libherwig58d.a(hwhbki.o)
 *fill*         0x0822b344       0x1c 00
 .data          0x0822b360      0x6a0 /home/pcl2483/pedro/jadesoft/util/mcgen/Plib/libherwig58d.a(hwhbrn.o)
 .data          0x0822ba00      0x218 /home/pcl2483/pedro/jadesoft/util/mcgen/Plib/libherwig58d.a(hwhbsg.o)
 *fill*         0x0822bc18        0x8 00
 .data          0x0822bc20      0x4ca /home/pcl2483/pedro/jadesoft/util/mcgen/Plib/libherwig58d.a(hwhdis.o)
 *fill*         0x0822c0ea        0x6 00
 .data          0x0822c0f0       0x50 /home/pcl2483/pedro/jadesoft/util/mcgen/Plib/libherwig58d.a(hwhdyp.o)
 .data          0x0822c140      0x210 /home/pcl2483/pedro/jadesoft/util/mcgen/Plib/libherwig58d.a(hwhegg.o)
 .data          0x0822c350       0x38 /home/pcl2483/pedro/jadesoft/util/mcgen/Plib/libherwig58d.a(hwhegw.o)
 *fill*         0x0822c388       0x18 00
 .data          0x0822c3a0      0x230 /home/pcl2483/pedro/jadesoft/util/mcgen/Plib/libherwig58d.a(hwhegx.o)
 *fill*         0x0822c5d0       0x10 00
 .data          0x0822c5e0      0x110 /home/pcl2483/pedro/jadesoft/util/mcgen/Plib/libherwig58d.a(hwhepa.o)
 *fill*         0x0822c6f0       0x10 00
 .data          0x0822c700      0x120 /home/pcl2483/pedro/jadesoft/util/mcgen/Plib/libherwig58d.a(hwhepg.o)
 .data          0x0822c820      0x344 /home/pcl2483/pedro/jadesoft/util/mcgen/Plib/libherwig58d.a(hwheww.o)
 *fill*         0x0822cb64        0x4 00
 .data          0x0822cb68      0x150 /home/pcl2483/pedro/jadesoft/util/mcgen/Plib/libherwig58d.a(hwhhvy.o)
 .data          0x0822ccb8      0x108 /home/pcl2483/pedro/jadesoft/util/mcgen/Plib/libherwig58d.a(hwhigj.o)
 .data          0x0822cdc0       0x8c /home/pcl2483/pedro/jadesoft/util/mcgen/Plib/libherwig58d.a(hwhigm.o)
 *fill*         0x0822ce4c       0x14 00
 .data          0x0822ce60      0x170 /home/pcl2483/pedro/jadesoft/util/mcgen/Plib/libherwig58d.a(hwhigs.o)
 .data          0x0822cfd0       0x30 /home/pcl2483/pedro/jadesoft/util/mcgen/Plib/libherwig58d.a(hwhigt.o)
 .data          0x0822d000      0x368 /home/pcl2483/pedro/jadesoft/util/mcgen/Plib/libherwig58d.a(hwhigw.o)
 *fill*         0x0822d368       0x18 00
 .data          0x0822d380      0x1e3 /home/pcl2483/pedro/jadesoft/util/mcgen/Plib/libherwig58d.a(hwhigz.o)
 *fill*         0x0822d563        0x5 00
 .data          0x0822d568       0xb8 /home/pcl2483/pedro/jadesoft/util/mcgen/Plib/libherwig58d.a(hwhph2.o)
 .data          0x0822d620       0xe0 /home/pcl2483/pedro/jadesoft/util/mcgen/Plib/libherwig58d.a(hwhpho.o)
 .data          0x0822d700       0x38 /home/pcl2483/pedro/jadesoft/util/mcgen/Plib/libherwig58d.a(hwhppb.o)
 .data          0x0822d738       0xa8 /home/pcl2483/pedro/jadesoft/util/mcgen/Plib/libherwig58d.a(hwhppe.o)
 .data          0x0822d7e0       0x78 /home/pcl2483/pedro/jadesoft/util/mcgen/Plib/libherwig58d.a(hwhpph.o)
 *fill*         0x0822d858        0x8 00
 .data          0x0822d860      0x210 /home/pcl2483/pedro/jadesoft/util/mcgen/Plib/libherwig58d.a(hwhppm.o)
 .data          0x0822da70       0x90 /home/pcl2483/pedro/jadesoft/util/mcgen/Plib/libherwig58d.a(hwhppt.o)
 .data          0x0822db00       0x80 /home/pcl2483/pedro/jadesoft/util/mcgen/Plib/libherwig58d.a(hwhpqs.o)
 .data          0x0822db80      0x190 /home/pcl2483/pedro/jadesoft/util/mcgen/Plib/libherwig58d.a(hwhqcd.o)
 .data          0x0822dd10        0x4 /home/pcl2483/pedro/jadesoft/util/mcgen/Plib/libherwig58d.a(hwhqcp.o)
 *fill*         0x0822dd14        0xc 00
 .data          0x0822dd20      0x2e8 /home/pcl2483/pedro/jadesoft/util/mcgen/Plib/libherwig58d.a(hwhw1j.o)
 *fill*         0x0822e008       0x18 00
 .data          0x0822e020      0x164 /home/pcl2483/pedro/jadesoft/util/mcgen/Plib/libherwig58d.a(hwhwex.o)
 *fill*         0x0822e184       0x1c 00
 .data          0x0822e1a0      0x118 /home/pcl2483/pedro/jadesoft/util/mcgen/Plib/libherwig58d.a(hwhwpr.o)
 *fill*         0x0822e2b8        0x8 00
 .data          0x0822e2c0      0x100 /home/pcl2483/pedro/jadesoft/util/mcgen/Plib/libherwig58d.a(hwigin.o)
 .data          0x0822e3c0       0x38 /home/pcl2483/pedro/jadesoft/util/mcgen/Plib/libherwig58d.a(hwmwgt.o)
 .data          0x0822e3f8       0x20 /home/pcl2483/pedro/jadesoft/util/mcgen/Plib/libherwig58d.a(hwrazm.o)
 .data          0x0822e418       0x18 /home/pcl2483/pedro/jadesoft/util/mcgen/Plib/libherwig58d.a(hwrgau.o)
 .data          0x0822e430       0x10 /home/pcl2483/pedro/jadesoft/util/mcgen/Plib/libherwig58d.a(hwrgen.o)
 .data          0x0822e440        0x8 /home/pcl2483/pedro/jadesoft/util/mcgen/Plib/libherwig58d.a(hwrint.o)
 .data          0x0822e448        0x8 /home/pcl2483/pedro/jadesoft/util/mcgen/Plib/libherwig58d.a(hwrlog.o)
 .data          0x0822e450       0x30 /home/pcl2483/pedro/jadesoft/util/mcgen/Plib/libherwig58d.a(hwrpow.o)
 .data          0x0822e480        0x8 /home/pcl2483/pedro/jadesoft/util/mcgen/Plib/libherwig58d.a(hwruni.o)
 *fill*         0x0822e488       0x18 00
 .data          0x0822e4a0      0x1bc /home/pcl2483/pedro/jadesoft/util/mcgen/Plib/libherwig58d.a(hwsbrn.o)
 *fill*         0x0822e65c        0x4 00
 .data          0x0822e660     0x29f4 /home/pcl2483/pedro/jadesoft/util/mcgen/Plib/libherwig58d.a(hwsfbr.o)
 *fill*         0x08231054        0xc 00
 .data          0x08231060     0x3b1c /home/pcl2483/pedro/jadesoft/util/mcgen/Plib/libherwig58d.a(hwsfun.o)
 *fill*         0x08234b7c        0x4 00
 .data          0x08234b80       0x90 /home/pcl2483/pedro/jadesoft/util/mcgen/Plib/libherwig58d.a(hwsgam.o)
 .data          0x08234c10       0x18 /home/pcl2483/pedro/jadesoft/util/mcgen/Plib/libherwig58d.a(hwsgen.o)
 .data          0x08234c28        0x8 /home/pcl2483/pedro/jadesoft/util/mcgen/Plib/libherwig58d.a(hwsgqq.o)
 .data          0x08234c30       0x48 /home/pcl2483/pedro/jadesoft/util/mcgen/Plib/libherwig58d.a(hwsspc.o)
 *fill*         0x08234c78        0x8 00
 .data          0x08234c80       0x88 /home/pcl2483/pedro/jadesoft/util/mcgen/Plib/libherwig58d.a(hwssud.o)
 *fill*         0x08234d08       0x18 00
 .data          0x08234d20      0x184 /home/pcl2483/pedro/jadesoft/util/mcgen/Plib/libherwig58d.a(hwstab.o)
 .data          0x08234ea4        0x4 /home/pcl2483/pedro/jadesoft/util/mcgen/Plib/libherwig58d.a(hwsval.o)
 .data          0x08234ea8       0x9c /home/pcl2483/pedro/jadesoft/util/mcgen/Plib/libherwig58d.a(hwuaem.o)
 *fill*         0x08234f44        0x4 00
 .data          0x08234f48        0x8 /home/pcl2483/pedro/jadesoft/util/mcgen/Plib/libherwig58d.a(hwuaer.o)
 .data          0x08234f50       0x94 /home/pcl2483/pedro/jadesoft/util/mcgen/Plib/libherwig58d.a(hwualf.o)
 *fill*         0x08234fe4       0x1c 00
 .data          0x08235000       0xa8 /home/pcl2483/pedro/jadesoft/util/mcgen/Plib/libherwig58d.a(hwubst.o)
 .data          0x082350a8       0xe0 /home/pcl2483/pedro/jadesoft/util/mcgen/Plib/libherwig58d.a(hwucff.o)
 *fill*         0x08235188       0x18 00
 .data          0x082351a0     0x8180 /home/pcl2483/pedro/jadesoft/util/mcgen/Plib/libherwig58d.a(hwudat.o)
                0x08236b00                hwupdt_
                0x082351a0                hwuwts_
                0x0823c280                hwunam_
                0x0823c7e0                hwuclu_
                0x0823c6a0                hwufhv_
 .data          0x0823d320       0x10 /home/pcl2483/pedro/jadesoft/util/mcgen/Plib/libherwig58d.a(hwueec.o)
 *fill*         0x0823d330       0x10 00
 .data          0x0823d340      0x651 /home/pcl2483/pedro/jadesoft/util/mcgen/Plib/libherwig58d.a(hwuepr.o)
 *fill*         0x0823d991        0x3 00
 *fill*         0x0823d994        0xc 00
 .data          0x0823d9a0     0x1987 /home/pcl2483/pedro/jadesoft/util/mcgen/Plib/libherwig58d.a(hwuinc.o)
 *fill*         0x0823f327       0x19 00
 .data          0x0823f340       0xb5 /home/pcl2483/pedro/jadesoft/util/mcgen/Plib/libherwig58d.a(hwuine.o)
 *fill*         0x0823f3f5        0x3 00
 .data          0x0823f3f8       0x10 /home/pcl2483/pedro/jadesoft/util/mcgen/Plib/libherwig58d.a(hwulb4.o)
 .data          0x0823f408       0x10 /home/pcl2483/pedro/jadesoft/util/mcgen/Plib/libherwig58d.a(hwupcm.o)
 *fill*         0x0823f418        0x8 00
 .data          0x0823f420      0x2ef /home/pcl2483/pedro/jadesoft/util/mcgen/Plib/libherwig58d.a(hwures.o)
 *fill*         0x0823f70f        0x1 00
 .data          0x0823f710       0x18 /home/pcl2483/pedro/jadesoft/util/mcgen/Plib/libherwig58d.a(hwurob.o)
 .data          0x0823f728       0x18 /home/pcl2483/pedro/jadesoft/util/mcgen/Plib/libherwig58d.a(hwurof.o)
 .data          0x0823f740       0x40 /home/pcl2483/pedro/jadesoft/util/mcgen/Plib/libherwig58d.a(hwurot.o)
 .data          0x0823f780      0x184 /home/pcl2483/pedro/jadesoft/util/mcgen/Plib/libherwig58d.a(hwutab.o)
 .data          0x0823f904        0x4 /home/pcl2483/pedro/jadesoft/util/mcgen/Plib/libherwig58d.a(hwvdif.o)
 .data          0x0823f908        0x4 /home/pcl2483/pedro/jadesoft/util/mcgen/Plib/libherwig58d.a(hwvequ.o)
 .data          0x0823f90c        0x4 /home/pcl2483/pedro/jadesoft/util/mcgen/Plib/libherwig58d.a(hwvsca.o)
 .data          0x0823f910        0x4 /home/pcl2483/pedro/jadesoft/util/mcgen/Plib/libherwig58d.a(hwvsum.o)
 .data          0x0823f914        0x4 /home/pcl2483/pedro/jadesoft/util/mcgen/Plib/libherwig58d.a(hwvzro.o)
 *fill*         0x0823f918        0x8 00
 .data          0x0823f920      0x27c /home/pcl2483/pedro/jadesoft/util/mcgen/Plib/libherwig58d.a(hwwarn.o)
 .data          0x0823fb9c       0x58 /home/pcl2483/pedro/jadesoft/util/mcgen/Plib/libherwig58d.a(sas1d.o)
 *fill*         0x0823fbf4        0xc 00
 .data          0x0823fc00       0x46 /home/pcl2483/pedro/jadesoft/util/mcgen/Plib/libherwig58d.a(hvcbvi.o)
 *fill*         0x0823fc46       0x1a 00
 .data          0x0823fc60       0x46 /home/pcl2483/pedro/jadesoft/util/mcgen/Plib/libherwig58d.a(hvhbvi.o)
 *fill*         0x0823fca6        0x2 00
 *fill*         0x0823fca8       0x18 00
 .data          0x0823fcc0       0x78 /home/pcl2483/pedro/jadesoft/util/mcgen/Plib/libherwig58d.a(hwbazf.o)
 .data          0x0823fd38       0x18 /home/pcl2483/pedro/jadesoft/util/mcgen/Plib/libherwig58d.a(hwbcon.o)
 *fill*         0x0823fd50       0x10 00
 .data          0x0823fd60      0x1dc /home/pcl2483/pedro/jadesoft/util/mcgen/Plib/libherwig58d.a(hwbded.o)
 *fill*         0x0823ff3c        0x4 00
 .data          0x0823ff40      0x478 /home/pcl2483/pedro/jadesoft/util/mcgen/Plib/libherwig58d.a(hwbdis.o)
 .data          0x082403b8       0x20 /home/pcl2483/pedro/jadesoft/util/mcgen/Plib/libherwig58d.a(hwbfin.o)
 *fill*         0x082403d8        0x8 00
 .data          0x082403e0      0x371 /home/pcl2483/pedro/jadesoft/util/mcgen/Plib/libherwig58d.a(hwbsud.o)
 *fill*         0x08240751        0x7 00
 .data          0x08240758       0x10 /home/pcl2483/pedro/jadesoft/util/mcgen/Plib/libherwig58d.a(hwbsug.o)
 *fill*         0x08240768       0x18 00
 .data          0x08240780      0x21c /home/pcl2483/pedro/jadesoft/util/mcgen/Plib/libherwig58d.a(hwbsul.o)
 *fill*         0x0824099c        0x4 00
 .data          0x082409a0      0x164 /home/pcl2483/pedro/jadesoft/util/mcgen/Plib/libherwig58d.a(hwccut.o)
 *fill*         0x08240b04       0x1c 00
 .data          0x08240b20      0x2a8 /home/pcl2483/pedro/jadesoft/util/mcgen/Plib/libherwig58d.a(hwdboz.o)
 *fill*         0x08240dc8       0x18 00
 .data          0x08240de0      0x7c4 /home/pcl2483/pedro/jadesoft/util/mcgen/Plib/libherwig58d.a(hwdhig.o)
 *fill*         0x082415a4        0x4 00
 .data          0x082415a8       0x70 /home/pcl2483/pedro/jadesoft/util/mcgen/Plib/libherwig58d.a(hwegam.o)
 .data          0x08241618       0xd8 /home/pcl2483/pedro/jadesoft/util/mcgen/Plib/libherwig58d.a(hweisr.o)
 .data          0x082416f0       0x18 /home/pcl2483/pedro/jadesoft/util/mcgen/Plib/libherwig58d.a(hweone.o)
 .data          0x08241708       0x28 /home/pcl2483/pedro/jadesoft/util/mcgen/Plib/libherwig58d.a(hwetwo.o)
 .data          0x08241730       0x70 /home/pcl2483/pedro/jadesoft/util/mcgen/Plib/libherwig58d.a(hwhew0.o)
 .data          0x082417a0      0x100 /home/pcl2483/pedro/jadesoft/util/mcgen/Plib/libherwig58d.a(hwhew1.o)
 .data          0x082418a0      0x250 /home/pcl2483/pedro/jadesoft/util/mcgen/Plib/libherwig58d.a(hwhew2.o)
 *fill*         0x08241af0       0x10 00
 .data          0x08241b00       0xc4 /home/pcl2483/pedro/jadesoft/util/mcgen/Plib/libherwig58d.a(hwhew3.o)
 *fill*         0x08241bc4       0x1c 00
 .data          0x08241be0       0x80 /home/pcl2483/pedro/jadesoft/util/mcgen/Plib/libherwig58d.a(hwhew5.o)
 .data          0x08241c60      0x130 /home/pcl2483/pedro/jadesoft/util/mcgen/Plib/libherwig58d.a(hwhiga.o)
 .data          0x08241d90       0x90 /home/pcl2483/pedro/jadesoft/util/mcgen/Plib/libherwig58d.a(hwhigb.o)
 .data          0x08241e20       0x38 /home/pcl2483/pedro/jadesoft/util/mcgen/Plib/libherwig58d.a(hwhigy.o)
 .data          0x08241e58       0x30 /home/pcl2483/pedro/jadesoft/util/mcgen/Plib/libherwig58d.a(hwrexq.o)
 *fill*         0x08241e88       0x18 00
 .data          0x08241ea0      0x197 /home/pcl2483/pedro/jadesoft/util/mcgen/Plib/libherwig58d.a(hwsdgg.o)
 *fill*         0x08242037        0x9 00
 .data          0x08242040      0x3a7 /home/pcl2483/pedro/jadesoft/util/mcgen/Plib/libherwig58d.a(hwsdgq.o)
 *fill*         0x082423e7       0x19 00
 .data          0x08242400       0xec /home/pcl2483/pedro/jadesoft/util/mcgen/Plib/libherwig58d.a(hwubpr.o)
 *fill*         0x082424ec        0x4 00
 .data          0x082424f0       0x60 /home/pcl2483/pedro/jadesoft/util/mcgen/Plib/libherwig58d.a(hwuci2.o)
 .data          0x08242550       0x14 /home/pcl2483/pedro/jadesoft/util/mcgen/Plib/libherwig58d.a(hwuedt.o)
 *fill*         0x08242564       0x1c 00
 .data          0x08242580     0x1f6c /home/pcl2483/pedro/jadesoft/util/mcgen/Plib/libherwig58d.a(hwuemv.o)
 *fill*         0x082444ec       0x14 00
 .data          0x08244500      0x120 /home/pcl2483/pedro/jadesoft/util/mcgen/Plib/libherwig58d.a(hwugau.o)
 .data          0x08244620        0x4 /home/pcl2483/pedro/jadesoft/util/mcgen/Plib/libherwig58d.a(hwuidt.o)
 *fill*         0x08244624        0x4 00
 .data          0x08244628       0x10 /home/pcl2483/pedro/jadesoft/util/mcgen/Plib/libherwig58d.a(hwulf4.o)
 .data          0x08244638       0xa0 /home/pcl2483/pedro/jadesoft/util/mcgen/Plib/libherwig58d.a(hwuli2.o)
 .data          0x082446d8       0x10 /home/pcl2483/pedro/jadesoft/util/mcgen/Plib/libherwig58d.a(hwvdot.o)
 .data          0x082446e8       0x84 /home/pcl2483/pedro/jadesoft/util/mcgen/Plib/libherwig58d.a(pystig.o)
 .data          0x0824476c       0x58 /home/pcl2483/pedro/jadesoft/util/mcgen/Plib/libherwig58d.a(pystvg.o)
 *fill*         0x082447c4        0x4 00
 .data          0x082447c8       0x10 /home/pcl2483/pedro/jadesoft/util/mcgen/Plib/libherwig58d.a(hwbsu1.o)
 .data          0x082447d8        0x8 /home/pcl2483/pedro/jadesoft/util/mcgen/Plib/libherwig58d.a(hwbsu2.o)
 .data          0x082447e0       0x10 /home/pcl2483/pedro/jadesoft/util/mcgen/Plib/libherwig58d.a(hwdhgc.o)
 .data          0x082447f0       0x74 /home/pcl2483/pedro/jadesoft/util/mcgen/Plib/libherwig58d.a(hwdhgf.o)
 *fill*         0x08244864        0x4 00
 .data          0x08244868       0x18 /home/pcl2483/pedro/jadesoft/util/mcgen/Plib/libherwig58d.a(hwhig1.o)
 .data          0x08244880        0x8 /home/pcl2483/pedro/jadesoft/util/mcgen/Plib/libjt74opal.a(luchge.o)
 *fill*         0x08244888       0x18 00
 .data          0x082448a0      0x100 /home/pcl2483/pedro/jadesoft/util/mcgen/Plib/libjt74opal.a(lucomp.o)
 .data          0x082449a0    0x185a0 /home/pcl2483/pedro/jadesoft/util/mcgen/Plib/libjt74opal.a(ludata.o)
                0x0825c2c0                gudat1_
                0x08245b00                gudat3_
                0x082449a0                gudatr_
                0x08256c80                gudat2_
                0x08244b60                gudat4_
 .data          0x0825cf40       0x54 /home/pcl2483/pedro/jadesoft/util/mcgen/Plib/libjt74opal.a(luedit.o)
 *fill*         0x0825cf94        0xc 00
 .data          0x0825cfa0      0x1f2 /home/pcl2483/pedro/jadesoft/util/mcgen/Plib/libjt74opal.a(luerrm.o)
 *fill*         0x0825d192        0xe 00
 .data          0x0825d1a0       0x64 /home/pcl2483/pedro/jadesoft/util/mcgen/Plib/libjt74opal.a(luexec.o)
 .data          0x0825d204       0x2c /home/pcl2483/pedro/jadesoft/util/mcgen/Plib/libjt74opal.a(luhepc.o)
 *fill*         0x0825d230       0x10 00
 .data          0x0825d240      0x170 /home/pcl2483/pedro/jadesoft/util/mcgen/Plib/libjt74opal.a(luindf.o)
 .data          0x0825d3b0       0xd4 /home/pcl2483/pedro/jadesoft/util/mcgen/Plib/libjt74opal.a(lukfdi.o)
 *fill*         0x0825d484       0x1c 00
 .data          0x0825d4a0      0xa8e /home/pcl2483/pedro/jadesoft/util/mcgen/Plib/libjt74opal.a(lulist.o)
 *fill*         0x0825df2e       0x12 00
 .data          0x0825df40      0xad4 /home/pcl2483/pedro/jadesoft/util/mcgen/Plib/libjt74opal.a(lulogo.o)
 .data          0x0825ea14       0x28 /home/pcl2483/pedro/jadesoft/util/mcgen/Plib/libjt74opal.a(luname.o)
 *fill*         0x0825ea3c        0x4 00
 .data          0x0825ea40      0x134 /home/pcl2483/pedro/jadesoft/util/mcgen/Plib/libjt74opal.a(luprep.o)
 .data          0x0825eb74        0xc /home/pcl2483/pedro/jadesoft/util/mcgen/Plib/libjt74opal.a(luptdi.o)
 .data          0x0825eb80      0x108 /home/pcl2483/pedro/jadesoft/util/mcgen/Plib/libjt74opal.a(lurobo.o)
 *fill*         0x0825ec88       0x18 00
 .data          0x0825eca0      0x868 /home/pcl2483/pedro/jadesoft/util/mcgen/Plib/libjt74opal.a(lushow.o)
 *fill*         0x0825f508       0x18 00
 .data          0x0825f520      0x4f0 /home/pcl2483/pedro/jadesoft/util/mcgen/Plib/libjt74opal.a(lustrf.o)
 *fill*         0x0825fa10       0x10 00
 .data          0x0825fa20     0x646f /home/pcl2483/pedro/jadesoft/util/mcgen/Plib/libjt74opal.a(lutabu.o)
 *fill*         0x08265e8f        0x1 00
 .data          0x08265e90       0x50 /home/pcl2483/pedro/jadesoft/util/mcgen/Plib/libjt74opal.a(luzdis.o)
 .data          0x08265ee0       0x20 /home/pcl2483/pedro/jadesoft/util/mcgen/Plib/libjt74opal.a(plu.o)
 .data          0x08265f00       0x38 /home/pcl2483/pedro/jadesoft/util/mcgen/Plib/libjt74opal.a(rlu.o)
 .data          0x08265f38        0x4 /home/pcl2483/pedro/jadesoft/util/mcgen/Plib/libjt74opal.a(ulangl.o)
 .data          0x08265f3c       0x3c /home/pcl2483/pedro/jadesoft/util/mcgen/Plib/libjt74opal.a(ulmass.o)
 *fill*         0x08265f78        0x8 00
 .data          0x08265f80      0x2ac /home/pcl2483/pedro/jadesoft/util/mcgen/Plib/libjt74opal.a(luboei.o)
 *fill*         0x0826622c       0x14 00
 .data          0x08266240      0x3c8 /home/pcl2483/pedro/jadesoft/util/mcgen/Plib/libjt74opal.a(ludecy.o)
 .data          0x08266608       0x80 /home/pcl2483/pedro/jadesoft/util/mcgen/Plib/libjt74opal.a(lutaud.o)
 .data          0x08266688       0x18 /home/pcl2483/pedro/jadesoft/util/mcgen/Plib/libjt74opal.a(taupol.o)
 .data          0x082666a0      0xb05 /home/pcl2483/pedro/jadesoft/util/mcgen/Plib/libjt74opal.a(dexay.o)
 *fill*         0x082671a5       0x1b 00
 .data          0x082671c0      0x1c0 /home/pcl2483/pedro/jadesoft/util/mcgen/Plib/libjt74opal.a(dexay1.o)
 .data          0x08267380       0x68 /home/pcl2483/pedro/jadesoft/util/mcgen/Plib/libjt74opal.a(dexel.o)
 .data          0x082673e8       0x1c /home/pcl2483/pedro/jadesoft/util/mcgen/Plib/libjt74opal.a(dexkk.o)
 *fill*         0x08267404       0x1c 00
 .data          0x08267420       0x68 /home/pcl2483/pedro/jadesoft/util/mcgen/Plib/libjt74opal.a(dexks.o)
 *fill*         0x08267488       0x18 00
 .data          0x082674a0       0x68 /home/pcl2483/pedro/jadesoft/util/mcgen/Plib/libjt74opal.a(dexmu.o)
 *fill*         0x08267508       0x18 00
 .data          0x08267520       0x69 /home/pcl2483/pedro/jadesoft/util/mcgen/Plib/libjt74opal.a(dexnew.o)
 *fill*         0x08267589        0x3 00
 .data          0x0826758c       0x1c /home/pcl2483/pedro/jadesoft/util/mcgen/Plib/libjt74opal.a(dexpi.o)
 *fill*         0x082675a8       0x18 00
 .data          0x082675c0       0x68 /home/pcl2483/pedro/jadesoft/util/mcgen/Plib/libjt74opal.a(dexro.o)
 .data          0x08267628       0x2c /home/pcl2483/pedro/jadesoft/util/mcgen/Plib/libjt74opal.a(dwlnew.o)
 .data          0x08267654        0x8 /home/pcl2483/pedro/jadesoft/util/mcgen/Plib/libjt74opal.a(dwluaa.o)
 .data          0x0826765c        0x8 /home/pcl2483/pedro/jadesoft/util/mcgen/Plib/libjt74opal.a(dwluel.o)
 .data          0x08267664        0x8 /home/pcl2483/pedro/jadesoft/util/mcgen/Plib/libjt74opal.a(dwlukk.o)
 .data          0x0826766c       0x18 /home/pcl2483/pedro/jadesoft/util/mcgen/Plib/libjt74opal.a(dwluks.o)
 .data          0x08267684        0x8 /home/pcl2483/pedro/jadesoft/util/mcgen/Plib/libjt74opal.a(dwlumu.o)
 .data          0x0826768c        0x8 /home/pcl2483/pedro/jadesoft/util/mcgen/Plib/libjt74opal.a(dwlupi.o)
 .data          0x08267694        0x8 /home/pcl2483/pedro/jadesoft/util/mcgen/Plib/libjt74opal.a(dwluro.o)
 .data          0x0826769c       0x18 /home/pcl2483/pedro/jadesoft/util/mcgen/Plib/libjt74opal.a(dwrph.o)
 .data          0x082676b4        0xc /home/pcl2483/pedro/jadesoft/util/mcgen/Plib/libjt74opal.a(filhep.o)
 .data          0x082676c0      0x258 /home/pcl2483/pedro/jadesoft/util/mcgen/Plib/libjt74opal.a(initdk.o)
 *fill*         0x08267918        0x8 00
 .data          0x08267920       0xbd /home/pcl2483/pedro/jadesoft/util/mcgen/Plib/libjt74opal.a(jaker.o)
 *fill*         0x082679dd        0x3 00
 .data          0x082679e0       0x24 /home/pcl2483/pedro/jadesoft/util/mcgen/Plib/libjt74opal.a(lunpik.o)
 *fill*         0x08267a04       0x1c 00
 .data          0x08267a20      0x389 /home/pcl2483/pedro/jadesoft/util/mcgen/Plib/libjt74opal.a(dadmel.o)
 *fill*         0x08267da9       0x17 00
 .data          0x08267dc0      0x1c7 /home/pcl2483/pedro/jadesoft/util/mcgen/Plib/libjt74opal.a(dadmkk.o)
 *fill*         0x08267f87       0x19 00
 .data          0x08267fa0      0x3c9 /home/pcl2483/pedro/jadesoft/util/mcgen/Plib/libjt74opal.a(dadmks.o)
 *fill*         0x08268369       0x17 00
 .data          0x08268380      0x389 /home/pcl2483/pedro/jadesoft/util/mcgen/Plib/libjt74opal.a(dadmmu.o)
 *fill*         0x08268709       0x17 00
 .data          0x08268720      0x1c7 /home/pcl2483/pedro/jadesoft/util/mcgen/Plib/libjt74opal.a(dadmpi.o)
 *fill*         0x082688e7       0x19 00
 .data          0x08268900      0x3a9 /home/pcl2483/pedro/jadesoft/util/mcgen/Plib/libjt74opal.a(dadmro.o)
 *fill*         0x08268ca9       0x17 00
 .data          0x08268cc0      0x681 /home/pcl2483/pedro/jadesoft/util/mcgen/Plib/libjt74opal.a(dadnew.o)
 *fill*         0x08269341       0x1f 00
 .data          0x08269360       0x68 /home/pcl2483/pedro/jadesoft/util/mcgen/Plib/libjt74opal.a(dexaa.o)
 *fill*         0x082693c8       0x18 00
 .data          0x082693e0      0x1a4 /home/pcl2483/pedro/jadesoft/util/mcgen/Plib/libjt74opal.a(dph4pi.o)
 *fill*         0x08269584       0x1c 00
 .data          0x082695a0      0x1f4 /home/pcl2483/pedro/jadesoft/util/mcgen/Plib/libjt74opal.a(dph5pi.o)
 *fill*         0x08269794        0xc 00
 .data          0x082697a0      0x458 /home/pcl2483/pedro/jadesoft/util/mcgen/Plib/libjt74opal.a(dphnpi.o)
 *fill*         0x08269bf8        0x8 00
 .data          0x08269c00       0xd0 /home/pcl2483/pedro/jadesoft/util/mcgen/Plib/libjt74opal.a(dphsel.o)
 .data          0x08269cd0       0x84 /home/pcl2483/pedro/jadesoft/util/mcgen/Plib/libjt74opal.a(dphsks.o)
 *fill*         0x08269d54        0xc 00
 .data          0x08269d60       0xd0 /home/pcl2483/pedro/jadesoft/util/mcgen/Plib/libjt74opal.a(dphsmu.o)
 .data          0x08269e30       0x48 /home/pcl2483/pedro/jadesoft/util/mcgen/Plib/libjt74opal.a(dphspk.o)
 .data          0x08269e78       0x9c /home/pcl2483/pedro/jadesoft/util/mcgen/Plib/libjt74opal.a(dphsrk.o)
 .data          0x08269f14       0x7c /home/pcl2483/pedro/jadesoft/util/mcgen/Plib/libjt74opal.a(dphsro.o)
 .data          0x08269f90      0x118 /home/pcl2483/pedro/jadesoft/util/mcgen/Plib/libjt74opal.a(dphtre.o)
 *fill*         0x0826a0a8       0x18 00
 .data          0x0826a0c0      0x194 /home/pcl2483/pedro/jadesoft/util/mcgen/Plib/libjt74opal.a(drcmu.o)
 .data          0x0826a254        0x8 /home/pcl2483/pedro/jadesoft/util/mcgen/Plib/libjt74opal.a(dwluph.o)
 .data          0x0826a25c       0x20 /home/pcl2483/pedro/jadesoft/util/mcgen/Plib/libjt74opal.a(rotor2.o)
 .data          0x0826a27c       0x1c /home/pcl2483/pedro/jadesoft/util/mcgen/Plib/libjt74opal.a(rotor3.o)
 *fill*         0x0826a298        0x8 00
 .data          0x0826a2a0      0x21a /home/pcl2483/pedro/jadesoft/util/mcgen/Plib/libjt74opal.a(sigee.o)
 *fill*         0x0826a4ba        0x2 00
 .data          0x0826a4bc       0x18 /home/pcl2483/pedro/jadesoft/util/mcgen/Plib/libjt74opal.a(sphera.o)
 *fill*         0x0826a4d4        0x4 00
 .data          0x0826a4d8       0x24 /home/pcl2483/pedro/jadesoft/util/mcgen/Plib/libjt74opal.a(spherd.o)
 *fill*         0x0826a4fc        0x4 00
 .data          0x0826a500       0x48 /home/pcl2483/pedro/jadesoft/util/mcgen/Plib/libjt74opal.a(bostd3.o)
 .data          0x0826a548       0x24 /home/pcl2483/pedro/jadesoft/util/mcgen/Plib/libjt74opal.a(bostr3.o)
 .data          0x0826a56c       0x2c /home/pcl2483/pedro/jadesoft/util/mcgen/Plib/libjt74opal.a(bwigs.o)
 .data          0x0826a598       0x1c /home/pcl2483/pedro/jadesoft/util/mcgen/Plib/libjt74opal.a(choice.o)
 *fill*         0x0826a5b4        0xc 00
 .data          0x0826a5c0      0x3c9 /home/pcl2483/pedro/jadesoft/util/mcgen/Plib/libjt74opal.a(dadmaa.o)
 *fill*         0x0826a989       0x17 00
 .data          0x0826a9a0       0x74 /home/pcl2483/pedro/jadesoft/util/mcgen/Plib/libjt74opal.a(dam4pi.o)
 *fill*         0x0826aa14        0xc 00
 .data          0x0826aa20       0xdc /home/pcl2483/pedro/jadesoft/util/mcgen/Plib/libjt74opal.a(dampog.o)
 *fill*         0x0826aafc        0x4 00
 .data          0x0826ab00      0x224 /home/pcl2483/pedro/jadesoft/util/mcgen/Plib/libjt74opal.a(damppk.o)
 *fill*         0x0826ad24        0x4 00
 .data          0x0826ad28        0x8 /home/pcl2483/pedro/jadesoft/util/mcgen/Plib/libjt74opal.a(dampry.o)
 .data          0x0826ad30       0x18 /home/pcl2483/pedro/jadesoft/util/mcgen/Plib/libjt74opal.a(dcdmas.o)
 .data          0x0826ad48       0x1c /home/pcl2483/pedro/jadesoft/util/mcgen/Plib/libjt74opal.a(dphsaa.o)
 .data          0x0826ad64       0x18 /home/pcl2483/pedro/jadesoft/util/mcgen/Plib/libjt74opal.a(form1.o)
 .data          0x0826ad7c       0x18 /home/pcl2483/pedro/jadesoft/util/mcgen/Plib/libjt74opal.a(form2.o)
 .data          0x0826ad94       0x48 /home/pcl2483/pedro/jadesoft/util/mcgen/Plib/libjt74opal.a(form4.o)
 .data          0x0826addc       0x10 /home/pcl2483/pedro/jadesoft/util/mcgen/Plib/libjt74opal.a(form5.o)
 .data          0x0826adec       0x34 /home/pcl2483/pedro/jadesoft/util/mcgen/Plib/libjt74opal.a(formom.o)
 .data          0x0826ae20       0x24 /home/pcl2483/pedro/jadesoft/util/mcgen/Plib/libjt74opal.a(fpik.o)
 .data          0x0826ae44       0x28 /home/pcl2483/pedro/jadesoft/util/mcgen/Plib/libjt74opal.a(fpikm.o)
 .data          0x0826ae6c       0x34 /home/pcl2483/pedro/jadesoft/util/mcgen/Plib/libjt74opal.a(fpikmd.o)
 .data          0x0826aea0       0x20 /home/pcl2483/pedro/jadesoft/util/mcgen/Plib/libjt74opal.a(prod5.o)
 .data          0x0826aec0       0x3c /home/pcl2483/pedro/jadesoft/util/mcgen/Plib/libjt74opal.a(rotod2.o)
 *fill*         0x0826aefc        0x4 00
 .data          0x0826af00       0x3c /home/pcl2483/pedro/jadesoft/util/mcgen/Plib/libjt74opal.a(rotod3.o)
 *fill*         0x0826af3c        0x4 00
 .data          0x0826af40      0x130 /home/pcl2483/pedro/jadesoft/util/mcgen/Plib/libjt74opal.a(sqm2.o)
 *fill*         0x0826b070       0x10 00
 .data          0x0826b080      0x1dc /home/pcl2483/pedro/jadesoft/util/mcgen/Plib/libjt74opal.a(thb.o)
 .data          0x0826b25c        0x8 /home/pcl2483/pedro/jadesoft/util/mcgen/Plib/libjt74opal.a(wigfor.o)
 .data          0x0826b264       0x1c /home/pcl2483/pedro/jadesoft/util/mcgen/Plib/libjt74opal.a(bwig.o)
 .data          0x0826b280       0x18 /home/pcl2483/pedro/jadesoft/util/mcgen/Plib/libjt74opal.a(bwigm.o)
 *fill*         0x0826b298        0x8 00
 .data          0x0826b2a0       0x40 /home/pcl2483/pedro/jadesoft/util/mcgen/Plib/libjt74opal.a(claxi.o)
 .data          0x0826b2e0       0x10 /home/pcl2483/pedro/jadesoft/util/mcgen/Plib/libjt74opal.a(clnut.o)
 .data          0x0826b2f0       0x10 /home/pcl2483/pedro/jadesoft/util/mcgen/Plib/libjt74opal.a(clvec.o)
 .data          0x0826b300      0x174 /home/pcl2483/pedro/jadesoft/util/mcgen/Plib/libjt74opal.a(curr.o)
 *fill*         0x0826b474        0x4 00
 .data          0x0826b478       0x30 /home/pcl2483/pedro/jadesoft/util/mcgen/Plib/libjt74opal.a(dilog.o)
 *fill*         0x0826b4a8       0x18 00
 .data          0x0826b4c0    0x5cf90 /home/pcl2483/pedro/jadesoft/util/mcgen/Plib/libckern105.a(ckern.o)
 *fill*         0x082c8450       0x10 00
 .data          0x082c8460     0x1f94 /home/pcl2483/pedro/jadesoft/util/mcgen/Plib/libckern105.a(cksord.o)
 .data          0x082ca3f4       0x5c /home/pcl2483/pedro/jadesoft/util/mcgen/Plib/libckern105.a(cnjet.o)
 .data          0x082ca450       0x38 /home/pcl2483/pedro/jadesoft/util/mcgen/Plib/libpx114.a(pxang3.o)
 .data          0x082ca488       0x20 /home/pcl2483/pedro/jadesoft/util/mcgen/Plib/libpx114.a(pxanxy.o)
 *fill*         0x082ca4a8       0x18 00
 .data          0x082ca4c0    0x155e0 /home/pcl2483/pedro/jadesoft/util/mcgen/Plib/libpx114.a(pxcone.o)
 .data          0x082dfaa0        0x4 /home/pcl2483/pedro/jadesoft/util/mcgen/Plib/libpx114.a(pxcopv.o)
 *fill*         0x082dfaa4       0x1c 00
 .data          0x082dfac0      0x408 /home/pcl2483/pedro/jadesoft/util/mcgen/Plib/libpx114.a(pxjpdg.o)
 *fill*         0x082dfec8       0x18 00
 .data          0x082dfee0      0x6d4 /home/pcl2483/pedro/jadesoft/util/mcgen/Plib/libpx114.a(pxjsp3.o)
 *fill*         0x082e05b4        0xc 00
 .data          0x082e05c0      0x24c /home/pcl2483/pedro/jadesoft/util/mcgen/Plib/libpx114.a(pxlsp3.o)
 *fill*         0x082e080c       0x14 00
 .data          0x082e0820     0x4e88 /home/pcl2483/pedro/jadesoft/util/mcgen/Plib/libpx114.a(pxlth4.o)
 *fill*         0x082e56a8       0x18 00
 .data          0x082e56c0       0xe0 /home/pcl2483/pedro/jadesoft/util/mcgen/Plib/libpx114.a(pxlut3.o)
 .data          0x082e57a0       0x10 /home/pcl2483/pedro/jadesoft/util/mcgen/Plib/libpx114.a(pxlzf5.o)
 *fill*         0x082e57b0       0x10 00
 .data          0x082e57c0       0x70 /home/pcl2483/pedro/jadesoft/util/mcgen/Plib/libpx114.a(pxmmbb.o)
 .data          0x082e5830       0x18 /home/pcl2483/pedro/jadesoft/util/mcgen/Plib/libpx114.a(pxnorv.o)
 *fill*         0x082e5848       0x18 00
 .data          0x082e5860      0x1d8 /home/pcl2483/pedro/jadesoft/util/mcgen/Plib/libpx114.a(pxolap.o)
 *fill*         0x082e5a38        0x8 00
 .data          0x082e5a40    0x14220 /home/pcl2483/pedro/jadesoft/util/mcgen/Plib/libpx114.a(pxord.o)
 .data          0x082f9c60       0x40 /home/pcl2483/pedro/jadesoft/util/mcgen/Plib/libpx114.a(pxplt3.o)
 .data          0x082f9ca0        0x4 /home/pcl2483/pedro/jadesoft/util/mcgen/Plib/libpx114.a(pxplu3.o)
 *fill*         0x082f9ca4       0x1c 00
 .data          0x082f9cc0       0x88 /home/pcl2483/pedro/jadesoft/util/mcgen/Plib/libpx114.a(pxprcv.o)
 .data          0x082f9d48       0x64 /home/pcl2483/pedro/jadesoft/util/mcgen/Plib/libpx114.a(pxprrv.o)
 *fill*         0x082f9dac        0x4 00
 .data          0x082f9db0       0x38 /home/pcl2483/pedro/jadesoft/util/mcgen/Plib/libpx114.a(pxrap4.o)
 .data          0x082f9de8       0x34 /home/pcl2483/pedro/jadesoft/util/mcgen/Plib/libpx114.a(pxrmx3.o)
 *fill*         0x082f9e1c        0x4 00
 .data          0x082f9e20       0x18 /home/pcl2483/pedro/jadesoft/util/mcgen/Plib/libpx114.a(pxrob3.o)
 .data          0x082f9e38       0x18 /home/pcl2483/pedro/jadesoft/util/mcgen/Plib/libpx114.a(pxrof3.o)
 *fill*         0x082f9e50       0x10 00
 .data          0x082f9e60      0x69c /home/pcl2483/pedro/jadesoft/util/mcgen/Plib/libpx114.a(pxsear.o)
 *fill*         0x082fa4fc        0x4 00
 .data          0x082fa500     0x17c4 /home/pcl2483/pedro/jadesoft/util/mcgen/Plib/libpx114.a(pxsorv.o)
 .data          0x082fbcc4       0x14 /home/pcl2483/pedro/jadesoft/util/mcgen/Plib/libpx114.a(pxtry.o)
 .data          0x082fbcd8       0x20 /home/pcl2483/pedro/jadesoft/util/mcgen/Plib/libpx114.a(pxuvec.o)
 .data          0x082fbcf8        0x4 /home/pcl2483/pedro/jadesoft/util/mcgen/Plib/libpx114.a(pxzerv.o)
 *fill*         0x082fbcfc        0x4 00
 .data          0x082fbd00    0xf7c99 /home/pcl2483/pedro/jadesoft/util/mcgen/Plib/libpx114.a(ykern.o)
 *fill*         0x083f3999        0x7 00
 .data          0x083f39a0       0xb2 /home/pcl2483/pedro/jadesoft/util/mcgen/Plib/libpx114.a(ynjet.o)
 *fill*         0x083f3a52        0xe 00
 .data          0x083f3a60      0x128 /home/pcl2483/pedro/jadesoft/util/mcgen/Plib/libpx114.a(yyjet.o)
 .data          0x083f3b88       0x10 /home/pcl2483/pedro/jadesoft/util/mcgen/Plib/libpx114.a(pxaddv.o)
 .data          0x083f3b98       0xb0 /home/pcl2483/pedro/jadesoft/util/mcgen/Plib/libpx114.a(pxdiam.o)
 .data          0x083f3c48        0xc /home/pcl2483/pedro/jadesoft/util/mcgen/Plib/libpx114.a(pxmulm.o)
 .data          0x083f3c54        0xc /home/pcl2483/pedro/jadesoft/util/mcgen/Plib/libpx114.a(pxnew.o)
 .data          0x083f3c60        0x4 /home/pcl2483/pedro/jadesoft/util/mcgen/Plib/libpx114.a(pxsame.o)
 .data          0x083f3c64        0x8 /home/pcl2483/pedro/jadesoft/util/mcgen/Plib/libpx114.a(pxunim.o)
 *fill*         0x083f3c6c       0x14 00
 .data          0x083f3c80      0x661 /cern/99/lib/libpacklib.a(ffgo.o)
 *fill*         0x083f42e1       0x1f 00
 .data          0x083f4300       0x5f /cern/99/lib/libpacklib.a(ffinit.o)
 *fill*         0x083f435f        0x1 00
 .data          0x083f4360       0xf9 /cern/99/lib/libpacklib.a(ffkey.o)
 *fill*         0x083f4459        0x7 00
 .data          0x083f4460      0x1d8 /cern/99/lib/libpacklib.a(ffset.o)
 .data          0x083f4638        0xc /cern/99/lib/libpacklib.a(hrput.o)
 .data          0x083f4644       0x2f /cern/99/lib/libpacklib.a(hbug.o)
 *fill*         0x083f4673        0xd 00
 .data          0x083f4680      0x100 /cern/99/lib/libpacklib.a(hcdir.o)
 .data          0x083f4780      0x102 /cern/99/lib/libpacklib.a(hidopt.o)
 *fill*         0x083f4882        0x2 00
 *fill*         0x083f4884       0x1c 00
 .data          0x083f48a0       0xac /cern/99/lib/libpacklib.a(hmachi.o)
 *fill*         0x083f494c       0x14 00
 .data          0x083f4960       0x41 /cern/99/lib/libpacklib.a(hpath.o)
 *fill*         0x083f49a1        0x3 00
 .data          0x083f49a4       0x2c /cern/99/lib/libpacklib.a(hlogpf.o)
 .data          0x083f49d0       0x18 /cern/99/lib/libpacklib.a(hoptpf.o)
 .data          0x083f49e8       0x18 /cern/99/lib/libpacklib.a(hitoc.o)
 .data          0x083f4a00      0x19b /cern/99/lib/libpacklib.a(fzin.o)
 *fill*         0x083f4b9b        0x1 00
 .data          0x083f4b9c       0x20 /cern/99/lib/libpacklib.a(fzirel.o)
 .data          0x083f4bbc        0xc /cern/99/lib/libpacklib.a(fzloc.o)
 .data          0x083f4bc8        0x8 /cern/99/lib/libpacklib.a(mzbook.o)
 *fill*         0x083f4bd0       0x10 00
 .data          0x083f4be0       0x52 /cern/99/lib/libpacklib.a(mzdrop.o)
 *fill*         0x083f4c32        0x2 00
 .data          0x083f4c34       0x10 /cern/99/lib/libpacklib.a(mzebra.o)
 .data          0x083f4c44        0x8 /cern/99/lib/libpacklib.a(mzflag.o)
 *fill*         0x083f4c4c       0x14 00
 .data          0x083f4c60       0x6e /cern/99/lib/libpacklib.a(mzlift.o)
 *fill*         0x083f4cce       0x12 00
 .data          0x083f4ce0       0x6c /cern/99/lib/libpacklib.a(mzlink.o)
 *fill*         0x083f4d4c       0x14 00
 .data          0x083f4d60       0x59 /cern/99/lib/libpacklib.a(mzneed.o)
 *fill*         0x083f4db9        0x3 00
 *fill*         0x083f4dbc        0x4 00
 .data          0x083f4dc0       0xc2 /cern/99/lib/libpacklib.a(mzpush.o)
 *fill*         0x083f4e82       0x1e 00
 .data          0x083f4ea0      0x201 /cern/99/lib/libpacklib.a(mzstor.o)
 *fill*         0x083f50a1       0x1f 00
 .data          0x083f50c0      0x107 /cern/99/lib/libpacklib.a(mzvers.o)
 *fill*         0x083f51c7       0x19 00
 .data          0x083f51e0      0x101 /cern/99/lib/libpacklib.a(mzgar1.o)
 *fill*         0x083f52e1        0x3 00
 .data          0x083f52e4        0x8 /cern/99/lib/libpacklib.a(mzmove.o)
 .data          0x083f52ec        0x8 /cern/99/lib/libpacklib.a(mzrelb.o)
 .data          0x083f52f4        0x8 /cern/99/lib/libpacklib.a(mzrell.o)
 .data          0x083f52fc        0x8 /cern/99/lib/libpacklib.a(mzrelx.o)
 .data          0x083f5304        0x8 /cern/99/lib/libpacklib.a(mztabf.o)
 .data          0x083f530c        0x8 /cern/99/lib/libpacklib.a(mztabm.o)
 *fill*         0x083f5314        0xc 00
 .data          0x083f5320       0x6a /cern/99/lib/libpacklib.a(mztabr.o)
 *fill*         0x083f538a        0x2 00
 .data          0x083f538c        0x8 /cern/99/lib/libpacklib.a(mzchnb.o)
 .data          0x083f5394       0x44 /cern/99/lib/libpacklib.a(mzform.o)
 *fill*         0x083f53d8        0x8 00
 .data          0x083f53e0      0x1d0 /cern/99/lib/libpacklib.a(mzioch.o)
 .data          0x083f55b0        0x8 /cern/99/lib/libpacklib.a(mzsdiv.o)
 *fill*         0x083f55b8        0x8 00
 .data          0x083f55c0      0x36c /cern/99/lib/libpacklib.a(zfatal.o)
 *fill*         0x083f592c       0x14 00
 .data          0x083f5940       0x70 /cern/99/lib/libpacklib.a(zfatam.o)
 *fill*         0x083f59b0       0x10 00
 .data          0x083f59c0       0x72 /cern/99/lib/libpacklib.a(ztell.o)
 *fill*         0x083f5a32        0x2 00
 *fill*         0x083f5a34        0xc 00
 .data          0x083f5a40       0x6b /cern/99/lib/libpacklib.a(zshunt.o)
 *fill*         0x083f5aab       0x15 00
 .data          0x083f5ac0       0x43 /cern/99/lib/libpacklib.a(rzcdir.o)
 *fill*         0x083f5b03        0x1 00
 *fill*         0x083f5b04       0x1c 00
 .data          0x083f5b20       0x83 /cern/99/lib/libpacklib.a(rzfdir.o)
 *fill*         0x083f5ba3       0x1d 00
 .data          0x083f5bc0       0x7c /cern/99/lib/libpacklib.a(rziodo.o)
 *fill*         0x083f5c3c        0x4 00
 .data          0x083f5c40       0x44 /cern/99/lib/libpacklib.a(rzstrir.o)
 .data          0x083f5c84        0x4 /cern/99/lib/libpacklib.a(qnexte.o)
 .data          0x083f5c88        0x4 /cern/99/lib/libpacklib.a(lenocc.o)
 .data          0x083f5c8c        0x8 /cern/99/lib/libpacklib.a(ublow.o)
 .data          0x083f5c94        0x8 /cern/99/lib/libpacklib.a(ubunch.o)
 .data          0x083f5c9c        0x4 /cern/99/lib/libpacklib.a(vblank.o)
 .data          0x083f5ca0       0x14 /cern/99/lib/libpacklib.a(ffcard.o)
 .data          0x083f5cb4        0x4 /cern/99/lib/libpacklib.a(hbpqry.o)
 .data          0x083f5cb8        0xc /cern/99/lib/libpacklib.a(hropen.o)
 .data          0x083f5cc4       0x2d /cern/99/lib/libpacklib.a(hrzout.o)
 *fill*         0x083f5cf1        0x3 00
 *fill*         0x083f5cf4        0xc 00
 .data          0x083f5d00      0x301 /cern/99/lib/libpacklib.a(fzidia.o)
 *fill*         0x083f6001       0x1f 00
 .data          0x083f6020      0x30a /cern/99/lib/libpacklib.a(fziffn.o)
 *fill*         0x083f632a       0x16 00
 .data          0x083f6340      0x2cc /cern/99/lib/libpacklib.a(fziffx.o)
 *fill*         0x083f660c       0x14 00
 .data          0x083f6620      0x15f /cern/99/lib/libpacklib.a(fzimtb.o)
 *fill*         0x083f677f        0x1 00
 .data          0x083f6780      0x22d /cern/99/lib/libpacklib.a(fzirec.o)
 *fill*         0x083f69ad        0x3 00
 .data          0x083f69b0        0x8 /cern/99/lib/libpacklib.a(fzitrn.o)
 *fill*         0x083f69b8        0x8 00
 .data          0x083f69c0      0x324 /cern/99/lib/libpacklib.a(fzout.o)
 *fill*         0x083f6ce4       0x1c 00
 .data          0x083f6d00       0x58 /cern/99/lib/libpacklib.a(fzitrx.o)
 *fill*         0x083f6d58        0x8 00
 .data          0x083f6d60       0x71 /cern/99/lib/libpacklib.a(mzcopy.o)
 *fill*         0x083f6dd1        0x3 00
 *fill*         0x083f6dd4        0xc 00
 .data          0x083f6de0       0x5e /cern/99/lib/libpacklib.a(mzgarb.o)
 *fill*         0x083f6e3e        0x2 00
 .data          0x083f6e40        0x8 /cern/99/lib/libpacklib.a(mztabc.o)
 .data          0x083f6e48        0x8 /cern/99/lib/libpacklib.a(mztabh.o)
 .data          0x083f6e50        0x8 /cern/99/lib/libpacklib.a(mzdvac.o)
 .data          0x083f6e58       0x3c /cern/99/lib/libpacklib.a(mziocr.o)
 .data          0x083f6e94        0x8 /cern/99/lib/libpacklib.a(mzixco.o)
 *fill*         0x083f6e9c        0x4 00
 .data          0x083f6ea0      0x146 /cern/99/lib/libpacklib.a(zphase.o)
 *fill*         0x083f6fe6       0x1a 00
 .data          0x083f7000      0x1e8 /cern/99/lib/libpacklib.a(zpostm.o)
 .data          0x083f71e8       0x34 /cern/99/lib/libpacklib.a(rzclos.o)
 *fill*         0x083f721c        0x4 00
 .data          0x083f7220       0x80 /cern/99/lib/libpacklib.a(rzend.o)
 .data          0x083f72a0       0x47 /cern/99/lib/libpacklib.a(rzfree.o)
 *fill*         0x083f72e7       0x19 00
 .data          0x083f7300       0x8a /cern/99/lib/libpacklib.a(rzmdir.o)
 *fill*         0x083f738a       0x16 00
 .data          0x083f73a0       0x76 /cern/99/lib/libpacklib.a(rzmods.o)
 *fill*         0x083f7416        0xa 00
 .data          0x083f7420      0x4b1 /cern/99/lib/libpacklib.a(rzopen.o)
 *fill*         0x083f78d1        0xf 00
 .data          0x083f78e0      0x354 /cern/99/lib/libpacklib.a(rzout.o)
 *fill*         0x083f7c34        0xc 00
 .data          0x083f7c40       0x6c /cern/99/lib/libpacklib.a(rzstrip.o)
 .data          0x083f7cac       0x3c /cern/99/lib/libpacklib.a(close.o)
 .data          0x083f7ce8       0x3c /cern/99/lib/libpacklib.a(error.o)
                0x083f7d20                rfio_errno
 .data          0x083f7d24       0x3d /cern/99/lib/libpacklib.a(lseek.o)
 *fill*         0x083f7d61        0x3 00
 .data          0x083f7d64       0x3c /cern/99/lib/libpacklib.a(open.o)
 .data          0x083f7da0       0x38 /cern/99/lib/libpacklib.a(parse.o)
 .data          0x083f7dd8       0x40 /cern/99/lib/libpacklib.a(read.o)
 .data          0x083f7e18       0xbc /cern/99/lib/libpacklib.a(serror.o)
                0x083f7e50                sys_serrlist
 .data          0x083f7ed4       0x48 /cern/99/lib/libpacklib.a(setopt.o)
 .data          0x083f7f1c       0x64 /cern/99/lib/libpacklib.a(socket.o)
                0x083f7f7c                errfunc
                0x083f7f6c                recvfunc
                0x083f7f78                ioctlfunc
                0x083f7f70                sendfunc
                0x083f7f74                closefunc
                0x083f7f5c                iostats
 .data          0x083f7f80       0x3e /cern/99/lib/libpacklib.a(stream.o)
 *fill*         0x083f7fbe        0x2 00
 .data          0x083f7fc0       0x44 /cern/99/lib/libpacklib.a(trace.o)
 .data          0x083f8004       0x3d /cern/99/lib/libpacklib.a(write.o)
 *fill*         0x083f8041        0x3 00
 .data          0x083f8044        0x4 /cern/99/lib/libpacklib.a(cfopei.o)
                0x083f8044                cfopen_perm
 *fill*         0x083f8048       0x18 00
 .data          0x083f8060       0x79 /cern/99/lib/libpacklib.a(gshowf.o)
 *fill*         0x083f80d9        0x3 00
 *fill*         0x083f80dc        0x4 00
 .data          0x083f80e0       0x57 /cern/99/lib/libpacklib.a(traceq.o)
 *fill*         0x083f8137        0x1 00
 .data          0x083f8138       0x14 /cern/99/lib/libpacklib.a(xinbf.o)
 .data          0x083f814c       0x14 /cern/99/lib/libpacklib.a(xinbs.o)
 .data          0x083f8160       0x18 /cern/99/lib/libpacklib.a(halloc.o)
 .data          0x083f8178      0x120 /cern/99/lib/libpacklib.a(dzsnap.o)
 *fill*         0x083f8298        0x8 00
 .data          0x083f82a0      0xae8 /cern/99/lib/libpacklib.a(dztext.o)
 .data          0x083f8d88       0x14 /cern/99/lib/libpacklib.a(zpage.o)
 *fill*         0x083f8d9c        0x4 00
 .data          0x083f8da0       0x5f /cern/99/lib/libpacklib.a(fzipha.o)
 *fill*         0x083f8dff        0x1 00
 .data          0x083f8e00       0x7c /cern/99/lib/libpacklib.a(fziphd.o)
 *fill*         0x083f8e7c        0x4 00
 .data          0x083f8e80       0x66 /cern/99/lib/libpacklib.a(fziphm.o)
 *fill*         0x083f8ee6       0x1a 00
 .data          0x083f8f00       0x66 /cern/99/lib/libpacklib.a(fziphr.o)
 *fill*         0x083f8f66       0x1a 00
 .data          0x083f8f80       0x55 /cern/99/lib/libpacklib.a(fziprl.o)
 *fill*         0x083f8fd5        0xb 00
 .data          0x083f8fe0       0x6f /cern/99/lib/libpacklib.a(fzoffn.o)
 *fill*         0x083f904f        0x1 00
 .data          0x083f9050        0x8 /cern/99/lib/libpacklib.a(fzoffx.o)
 .data          0x083f9058       0x14 /cern/99/lib/libpacklib.a(fzon1.o)
 .data          0x083f906c       0x14 /cern/99/lib/libpacklib.a(fzon2.o)
 .data          0x083f9080       0x14 /cern/99/lib/libpacklib.a(fzon3.o)
 .data          0x083f9094       0x14 /cern/99/lib/libpacklib.a(fzon4.o)
 .data          0x083f90a8       0x14 /cern/99/lib/libpacklib.a(fzon5.o)
 .data          0x083f90bc       0x14 /cern/99/lib/libpacklib.a(fzon6.o)
 .data          0x083f90d0        0x8 /cern/99/lib/libpacklib.a(fzorec.o)
 .data          0x083f90d8        0x8 /cern/99/lib/libpacklib.a(fzotab.o)
 .data          0x083f90e0        0x8 /cern/99/lib/libpacklib.a(fzotrn.o)
 *fill*         0x083f90e8       0x18 00
 .data          0x083f9100       0x58 /cern/99/lib/libpacklib.a(fzotrx.o)
 *fill*         0x083f9158        0x8 00
 .data          0x083f9160       0x5d /cern/99/lib/libpacklib.a(mzend.o)
 *fill*         0x083f91bd        0x3 00
 .data          0x083f91c0      0x12e /cern/99/lib/libpacklib.a(mzmaps.o)
 *fill*         0x083f92ee        0x2 00
 .data          0x083f92f0        0x8 /cern/99/lib/libpacklib.a(mzmark.o)
 *fill*         0x083f92f8        0x8 00
 .data          0x083f9300       0x58 /cern/99/lib/libpacklib.a(mzwork.o)
 *fill*         0x083f9358        0x8 00
 .data          0x083f9360       0x93 /cern/99/lib/libpacklib.a(rzallo.o)
 *fill*         0x083f93f3        0xd 00
 .data          0x083f9400       0xcb /cern/99/lib/libpacklib.a(rzdelk.o)
 *fill*         0x083f94cb        0x1 00
 *fill*         0x083f94cc       0x14 00
 .data          0x083f94e0       0xe3 /cern/99/lib/libpacklib.a(rzfile.o)
 *fill*         0x083f95c3       0x1d 00
 .data          0x083f95e0       0x99 /cern/99/lib/libpacklib.a(rzllok.o)
 *fill*         0x083f9679        0x7 00
 .data          0x083f9680      0x1c8 /cern/99/lib/libpacklib.a(rzlock.o)
 *fill*         0x083f9848       0x18 00
 .data          0x083f9860      0x33c /cern/99/lib/libpacklib.a(rzmake.o)
 .data          0x083f9b9c       0x3c /cern/99/lib/libpacklib.a(rzveri.o)
 *fill*         0x083f9bd8        0x8 00
 .data          0x083f9be0       0x74 /cern/99/lib/libpacklib.a(rzwrt.o)
 .data          0x083f9c54       0x37 /cern/99/lib/libpacklib.a(connect.o)
 *fill*         0x083f9c8b        0x1 00
 .data          0x083f9c8c       0x35 /cern/99/lib/libpacklib.a(getacct.o)
 *fill*         0x083f9cc1        0x3 00
 .data          0x083f9cc4       0x37 /cern/99/lib/libpacklib.a(getacctent.o)
 *fill*         0x083f9cfb        0x1 00
 .data          0x083f9cfc       0x38 /cern/99/lib/libpacklib.a(getconfent.o)
 .data          0x083f9d34       0x3e /cern/99/lib/libpacklib.a(getifnam.o)
 *fill*         0x083f9d72        0x2 00
 .data          0x083f9d74       0x80 /cern/99/lib/libpacklib.a(log.o)
                0x083f9df0                logfunc
 .data          0x083f9df4       0x37 /cern/99/lib/libpacklib.a(remote.o)
 *fill*         0x083f9e2b        0x1 00
 .data          0x083f9e2c       0x3b /cern/99/lib/libpacklib.a(setnetio.o)
 *fill*         0x083f9e67        0x1 00
 .data          0x083f9e68      0x104 /cern/99/lib/libpacklib.a(dzare1.o)
 .data          0x083f9f6c       0x78 /cern/99/lib/libpacklib.a(dzbkup.o)
 .data          0x083f9fe4       0x48 /cern/99/lib/libpacklib.a(dzbkxr.o)
 .data          0x083fa02c      0x10c /cern/99/lib/libpacklib.a(dzdata.o)
 .data          0x083fa138       0x48 /cern/99/lib/libpacklib.a(dzmap.o)
 .data          0x083fa180       0x30 /cern/99/lib/libpacklib.a(dzshpr.o)
 .data          0x083fa1b0       0x14 /cern/99/lib/libpacklib.a(dztyp.o)
 .data          0x083fa1c4       0x20 /cern/99/lib/libpacklib.a(fziasc.o)
 *fill*         0x083fa1e4       0x1c 00
 .data          0x083fa200       0xad /cern/99/lib/libpacklib.a(fzichh.o)
 *fill*         0x083fa2ad       0x13 00
 .data          0x083fa2c0       0x78 /cern/99/lib/libpacklib.a(fzidum.o)
 *fill*         0x083fa338        0x8 00
 .data          0x083fa340       0x8f /cern/99/lib/libpacklib.a(fzophr.o)
 *fill*         0x083fa3cf        0x1 00
 *fill*         0x083fa3d0       0x10 00
 .data          0x083fa3e0      0x18c /cern/99/lib/libpacklib.a(rzver1.o)
 .data          0x083fa56c       0x37 /cern/99/lib/libpacklib.a(stat.o)
 *fill*         0x083fa5a3        0x1 00
 .data          0x083fa5a4       0x30 /cern/99/lib/libpacklib.a(dzbkhd.o)
 .data          0x083fa5d4       0x18 /cern/99/lib/libpacklib.a(dziopr.o)
 .data          0x083fa5ec       0x2c /cern/99/lib/libpacklib.a(fzialn.o)
 .data          0x083fa618       0x24 /cern/99/lib/libpacklib.a(fzoasc.o)
 *fill*         0x083fa63c        0x4 00
 .data          0x083fa640       0xc4 /cern/99/lib/libpacklib.a(rzprnk.o)
 .data          0x083fa704       0x40 /cern/99/lib/libpacklib.a(mstat.o)
 .data          0x083fa744       0xe4 /cern/99/lib/libpacklib.a(dziopd.o)
 .data          0x083fa828      0x12c /cern/99/lib/libpacklib.a(dzioph.o)
 .data          0x083fa954       0x14 /cern/99/lib/libpacklib.a(fzoaln.o)
 *fill*         0x083fa968       0x18 00
 .data          0x083fa980       0x6a /cern/99/lib/libmathlib.a(xerbla.o)
 *fill*         0x083fa9ea        0x2 00
 *fill*         0x083fa9ec       0x14 00
 .data          0x083faa00      0x13f /cern/99/lib/libmathlib.a(dlamch.o)
 *fill*         0x083fab3f        0x1 00
 .data          0x083fab40        0x4 /cern/99/lib/libmathlib.a(dlartg.o)
 .data          0x083fab44       0x88 /usr/lib/gcc-lib/i686-pc-linux-gnu/2.95.3/libg2c.a(err.o)
                0x083fab44                F_err
 *fill*         0x083fabcc       0x14 00
 .data          0x083fabe0       0xa0 /usr/lib/gcc-lib/i686-pc-linux-gnu/2.95.3/libg2c.a(lread.o)
                0x083fabe0                f__ltab
 .data          0x083fac80       0x20 /usr/lib/gcc-lib/i686-pc-linux-gnu/2.95.3/libg2c.a(open.o)
                0x083fac9c                f__buflen
                0x083fac88                f__w_mode
                0x083fac80                f__r_mode
 .data          0x083faca0        0x4 /usr/lib/gcc-lib/i686-pc-linux-gnu/2.95.3/libg2c.a(rdfmt.o)
 .data          0x083faca4       0x18 /usr/lib/gcc-lib/i686-pc-linux-gnu/2.95.3/libg2c.a(wrtfmt.o)
 .data          0x083facbc        0x4 /usr/lib/gcc-lib/i686-pc-linux-gnu/2.95.3/libg2c.a(F77_aloc.o)

.data1
 *(.data1)

.tdata
 *(.tdata .tdata.* .gnu.linkonce.td.*)

.tbss
 *(.tbss .tbss.* .gnu.linkonce.tb.*)
 *(.tcommon)

.eh_frame       0x083facc0        0x4
 *(.eh_frame)
 .eh_frame      0x083facc0        0x4 /usr/lib/gcc-lib/i686-pc-linux-gnu/2.95.3/crtend.o

.gcc_except_table
 *(.gcc_except_table)

.dynamic        0x083facc4       0xd8
 *(.dynamic)
 .dynamic       0x083facc4       0xd8 /usr/lib/crt1.o
                0x083facc4                _DYNAMIC

.ctors          0x083fad9c        0x8
 *crtbegin.o(.ctors)
 *(EXCLUDE_FILE(*crtend.o) .ctors)
 .ctors         0x083fad9c        0x4 /usr/lib/gcc-lib/i686-pc-linux-gnu/2.95.3/crtbegin.o
 *(SORT(.ctors.*))
 *(.ctors)
 .ctors         0x083fada0        0x4 /usr/lib/gcc-lib/i686-pc-linux-gnu/2.95.3/crtend.o

.dtors          0x083fada4        0x8
 *crtbegin.o(.dtors)
 *(EXCLUDE_FILE(*crtend.o) .dtors)
 .dtors         0x083fada4        0x4 /usr/lib/gcc-lib/i686-pc-linux-gnu/2.95.3/crtbegin.o
 *(SORT(.dtors.*))
 *(.dtors)
 .dtors         0x083fada8        0x4 /usr/lib/gcc-lib/i686-pc-linux-gnu/2.95.3/crtend.o

.jcr
 *(.jcr)

.got            0x083fadac      0x1e4
 *(.got.plt)
 .got.plt       0x083fadac      0x1dc /usr/lib/crt1.o
                0x083fadac                _GLOBAL_OFFSET_TABLE_
 *(.got)
 .got           0x083faf88        0x8 /usr/lib/crt1.o
                0x083faf90                _edata = .
                0x083faf90                PROVIDE (edata, .)
                0x083faf90                __bss_start = .

.bss            0x083fafa0   0x1ddca4
 *(.dynbss)
 .dynbss        0x083fafa0      0x2ac /usr/lib/crt1.o
                0x083fafa0                _IO_stderr_@@GLIBC_2.0
                0x083faff0                _IO_stdout_@@GLIBC_2.0
                0x083fb040                _errno@@GLIBC_2.0
                0x083fb044                stdout@@GLIBC_2.0
                0x083fb048                stderr@@GLIBC_2.0
                0x083fb04c                sys_nerr@@GLIBC_2.1
                0x083fb040                errno@@GLIBC_2.0
                0x083fb050                sys_errlist@@GLIBC_2.1
                0x083fb244                __ctype_b@@GLIBC_2.0
                0x083fb248                stdin@@GLIBC_2.0
 *(.bss .bss.* .gnu.linkonce.b.*)
 .bss           0x083fb24c       0x18 /usr/lib/gcc-lib/i686-pc-linux-gnu/2.95.3/crtbegin.o
 *fill*         0x083fb264       0x1c 00
 .bss           0x083fb280      0x4b0 /cern/99/lib/libpacklib.a(ffgo.o)
 *fill*         0x083fb730       0x10 00
 .bss           0x083fb740       0x30 /cern/99/lib/libpacklib.a(ffkey.o)
 .bss           0x083fb770        0x8 /cern/99/lib/libpacklib.a(ffset.o)
 .bss           0x083fb778        0x4 /cern/99/lib/libpacklib.a(ffskip.o)
 .bss           0x083fb77c        0x8 /cern/99/lib/libpacklib.a(ffupca.o)
 *fill*         0x083fb784       0x1c 00
 .bss           0x083fb7a0      0x120 /cern/99/lib/libpacklib.a(hrput.o)
 .bss           0x083fb8c0       0x44 /cern/99/lib/libpacklib.a(hbook1.o)
 .bss           0x083fb904       0x4c /cern/99/lib/libpacklib.a(hbook2.o)
 .bss           0x083fb950       0x38 /cern/99/lib/libpacklib.a(hbookb.o)
 .bss           0x083fb988        0x8 /cern/99/lib/libpacklib.a(hbug.o)
 *fill*         0x083fb990       0x10 00
 .bss           0x083fb9a0       0xa8 /cern/99/lib/libpacklib.a(hcdir.o)
 .bss           0x083fba48       0x14 /cern/99/lib/libpacklib.a(hchnam.o)
 .bss           0x083fba5c       0x10 /cern/99/lib/libpacklib.a(hdelet.o)
 .bss           0x083fba6c        0x4 /cern/99/lib/libpacklib.a(hfill.o)
 .bss           0x083fba70       0x28 /cern/99/lib/libpacklib.a(hfilpf.o)
 .bss           0x083fba98       0x14 /cern/99/lib/libpacklib.a(hgive.o)
 *fill*         0x083fbaac       0x14 00
 .bss           0x083fbac0       0x88 /cern/99/lib/libpacklib.a(hidopt.o)
 .bss           0x083fbb48        0x4 /cern/99/lib/libpacklib.a(hlimit.o)
 .bss           0x083fbb4c        0x4 /cern/99/lib/libpacklib.a(hloop.o)
 .bss           0x083fbb50       0x20 /cern/99/lib/libpacklib.a(hmachi.o)
 .bss           0x083fbb70        0x4 /cern/99/lib/libpacklib.a(hnoent.o)
 .bss           0x083fbb74       0x94 /cern/99/lib/libpacklib.a(hopera.o)
 .bss           0x083fbc08       0x20 /cern/99/lib/libpacklib.a(hpaff.o)
 .bss           0x083fbc28       0x18 /cern/99/lib/libpacklib.a(hpak.o)
 .bss           0x083fbc40        0xc /cern/99/lib/libpacklib.a(hpake.o)
 .bss           0x083fbc4c       0x14 /cern/99/lib/libpacklib.a(hpath.o)
 .bss           0x083fbc60       0x78 /cern/99/lib/libpacklib.a(hrebin.o)
 *fill*         0x083fbcd8        0x8 00
 .bss           0x083fbce0       0x84 /cern/99/lib/libpacklib.a(hreset.o)
 .bss           0x083fbd64        0x8 /cern/99/lib/libpacklib.a(hrez0.o)
 .bss           0x083fbd6c        0x4 /cern/99/lib/libpacklib.a(hstaf.o)
 .bss           0x083fbd70       0x68 /cern/99/lib/libpacklib.a(hsupis.o)
 .bss           0x083fbdd8        0xc /cern/99/lib/libpacklib.a(huoptc.o)
 *fill*         0x083fbde4       0x1c 00
 .bss           0x083fbe00      0x208 /cern/99/lib/libpacklib.a(hlogpf.o)
 .bss           0x083fc008        0x8 /cern/99/lib/libpacklib.a(hoptpf.o)
 *fill*         0x083fc010       0x10 00
 .bss           0x083fc020       0x2c /cern/99/lib/libpacklib.a(hitoc.o)
 *fill*         0x083fc04c       0x14 00
 .bss           0x083fc060       0x6c /cern/99/lib/libpacklib.a(hntrset.o)
 .bss           0x083fc0cc       0x34 /cern/99/lib/libpacklib.a(fzin.o)
 .bss           0x083fc100       0x24 /cern/99/lib/libpacklib.a(fzirel.o)
 .bss           0x083fc124       0x1c /cern/99/lib/libpacklib.a(fzloc.o)
 .bss           0x083fc140       0x14 /cern/99/lib/libpacklib.a(mzbook.o)
 .bss           0x083fc154       0x20 /cern/99/lib/libpacklib.a(mzdrop.o)
 .bss           0x083fc174       0x3c /cern/99/lib/libpacklib.a(mzflag.o)
 .bss           0x083fc1b0       0x20 /cern/99/lib/libpacklib.a(mzinco.o)
 .bss           0x083fc1d0       0x60 /cern/99/lib/libpacklib.a(mzlift.o)
 .bss           0x083fc230       0x74 /cern/99/lib/libpacklib.a(mzlink.o)
 .bss           0x083fc2a4       0x14 /cern/99/lib/libpacklib.a(mzneed.o)
 .bss           0x083fc2b8        0x4 /cern/99/lib/libpacklib.a(mzpaw.o)
 .bss           0x083fc2bc       0x78 /cern/99/lib/libpacklib.a(mzpush.o)
 .bss           0x083fc334       0x6c /cern/99/lib/libpacklib.a(mzstor.o)
 .bss           0x083fc3a0       0x1c /cern/99/lib/libpacklib.a(mzgar1.o)
 .bss           0x083fc3bc        0xc /cern/99/lib/libpacklib.a(mzgsta.o)
 .bss           0x083fc3c8       0x44 /cern/99/lib/libpacklib.a(mzmove.o)
 .bss           0x083fc40c       0x68 /cern/99/lib/libpacklib.a(mzrelb.o)
 .bss           0x083fc474       0x60 /cern/99/lib/libpacklib.a(mzrell.o)
 .bss           0x083fc4d4        0x4 /cern/99/lib/libpacklib.a(mzrelx.o)
 .bss           0x083fc4d8       0x50 /cern/99/lib/libpacklib.a(mztabf.o)
 .bss           0x083fc528       0x14 /cern/99/lib/libpacklib.a(mztabm.o)
 .bss           0x083fc53c       0x14 /cern/99/lib/libpacklib.a(mztabr.o)
 .bss           0x083fc550       0x10 /cern/99/lib/libpacklib.a(mztabs.o)
 .bss           0x083fc560       0x20 /cern/99/lib/libpacklib.a(mztabx.o)
 .bss           0x083fc580       0x1c /cern/99/lib/libpacklib.a(mzchln.o)
 .bss           0x083fc59c       0x14 /cern/99/lib/libpacklib.a(mzchls.o)
 .bss           0x083fc5b0        0x4 /cern/99/lib/libpacklib.a(mzchnb.o)
 .bss           0x083fc5b4       0x18 /cern/99/lib/libpacklib.a(mzfdiv.o)
 .bss           0x083fc5cc       0x40 /cern/99/lib/libpacklib.a(mzform.o)
 .bss           0x083fc60c       0x70 /cern/99/lib/libpacklib.a(mzioch.o)
 .bss           0x083fc67c       0x10 /cern/99/lib/libpacklib.a(mzresv.o)
 .bss           0x083fc68c       0x24 /cern/99/lib/libpacklib.a(mzsdiv.o)
 .bss           0x083fc6b0       0x18 /cern/99/lib/libpacklib.a(zfatal.o)
 .bss           0x083fc6c8        0xc /cern/99/lib/libpacklib.a(ztell.o)
 .bss           0x083fc6d4       0x20 /cern/99/lib/libpacklib.a(izbcdt.o)
 .bss           0x083fc6f4        0xc /cern/99/lib/libpacklib.a(izhnum.o)
 .bss           0x083fc700       0x3c /cern/99/lib/libpacklib.a(zshunt.o)
 .bss           0x083fc73c       0x50 /cern/99/lib/libpacklib.a(rzcdir.o)
 .bss           0x083fc78c       0x38 /cern/99/lib/libpacklib.a(rzdate.o)
 .bss           0x083fc7c4       0x64 /cern/99/lib/libpacklib.a(rzfdir.o)
 .bss           0x083fc828       0x24 /cern/99/lib/libpacklib.a(rziodo.o)
 *fill*         0x083fc84c       0x14 00
 .bss           0x083fc860      0x120 /cern/99/lib/libpacklib.a(rzpaff.o)
 .bss           0x083fc980       0x18 /cern/99/lib/libpacklib.a(rzpath.o)
 .bss           0x083fc998       0x38 /cern/99/lib/libpacklib.a(rzrtop.o)
 .bss           0x083fc9d0        0x4 /cern/99/lib/libpacklib.a(rzsame.o)
 .bss           0x083fc9d4       0x5c /cern/99/lib/libpacklib.a(rzsave.o)
 .bss           0x083fca30       0x1c /cern/99/lib/libpacklib.a(rzstrir.o)
 .bss           0x083fca4c        0x4 /cern/99/lib/libpacklib.a(jumpxn.o)
 *fill*         0x083fca50       0x10 00
 .bss           0x083fca60       0x9c /cern/99/lib/libpacklib.a(qnexte.o)
 .bss           0x083fcafc       0x18 /cern/99/lib/libpacklib.a(cfopen.o)
 .bss           0x083fcb14       0x10 /cern/99/lib/libpacklib.a(cleft.o)
 .bss           0x083fcb24        0x8 /cern/99/lib/libpacklib.a(cltou.o)
 .bss           0x083fcb2c        0x8 /cern/99/lib/libpacklib.a(cutol.o)
 .bss           0x083fcb34       0x14 /cern/99/lib/libpacklib.a(floarg.o)
 .bss           0x083fcb48       0x14 /cern/99/lib/libpacklib.a(intarg.o)
 .bss           0x083fcb5c        0x8 /cern/99/lib/libpacklib.a(uoptc.o)
 .bss           0x083fcb64       0x1c /cern/99/lib/libpacklib.a(utrans.o)
 .bss           0x083fcb80        0x4 /cern/99/lib/libpacklib.a(iucomp.o)
 .bss           0x083fcb84        0x8 /cern/99/lib/libpacklib.a(sbit0.o)
 .bss           0x083fcb8c        0x8 /cern/99/lib/libpacklib.a(sbit1.o)
 .bss           0x083fcb94       0x18 /cern/99/lib/libpacklib.a(ublow.o)
 .bss           0x083fcbac       0x18 /cern/99/lib/libpacklib.a(ubunch.o)
 .bss           0x083fcbc4        0x4 /cern/99/lib/libpacklib.a(ucopy.o)
 .bss           0x083fcbc8       0x14 /cern/99/lib/libpacklib.a(uctoh.o)
 .bss           0x083fcbdc        0x8 /cern/99/lib/libpacklib.a(uctoh1.o)
 .bss           0x083fcbe4       0x14 /cern/99/lib/libpacklib.a(uhtoc.o)
 .bss           0x083fcbf8        0x4 /cern/99/lib/libpacklib.a(vblank.o)
 .bss           0x083fcbfc        0x4 /cern/99/lib/libpacklib.a(vfill.o)
 .bss           0x083fcc00        0x4 /cern/99/lib/libpacklib.a(vzero.o)
 .bss           0x083fcc04        0x8 /cern/99/lib/libpacklib.a(jbit.o)
 .bss           0x083fcc0c        0x4 /cern/99/lib/libpacklib.a(jbyt.o)
 .bss           0x083fcc10        0x8 /cern/99/lib/libpacklib.a(sbyt.o)
 .bss           0x083fcc18        0xc /cern/99/lib/libpacklib.a(locati.o)
 *fill*         0x083fcc24       0x1c 00
 .bss           0x083fcc40       0xac /cern/99/lib/libpacklib.a(czgeta.o)
 *fill*         0x083fccec       0x14 00
 .bss           0x083fcd00       0xac /cern/99/lib/libpacklib.a(czputa.o)
 .bss           0x083fcdac       0x44 /cern/99/lib/libpacklib.a(ffcard.o)
 *fill*         0x083fcdf0       0x10 00
 .bss           0x083fce00       0x44 /cern/99/lib/libpacklib.a(fffind.o)
 *fill*         0x083fce44        0x4 00
 .bss           0x083fce48       0x30 /cern/99/lib/libpacklib.a(hqputf.o)
 .bss           0x083fce78        0xc /cern/99/lib/libpacklib.a(hrendc.o)
 .bss           0x083fce84       0x18 /cern/99/lib/libpacklib.a(hropen.o)
 *fill*         0x083fce9c        0x4 00
 .bss           0x083fcea0      0x228 /cern/99/lib/libpacklib.a(hrout.o)
 *fill*         0x083fd0c8       0x18 00
 .bss           0x083fd0e0      0x198 /cern/99/lib/libpacklib.a(hrzout.o)
 .bss           0x083fd278       0x24 /cern/99/lib/libpacklib.a(hbar2.o)
 .bss           0x083fd29c       0x1c /cern/99/lib/libpacklib.a(hbarx.o)
 .bss           0x083fd2b8       0x1c /cern/99/lib/libpacklib.a(hbary.o)
 .bss           0x083fd2d4       0x28 /cern/99/lib/libpacklib.a(hbin.o)
 .bss           0x083fd2fc       0x24 /cern/99/lib/libpacklib.a(hcopy.o)
 .bss           0x083fd320       0x40 /cern/99/lib/libpacklib.a(hcx.o)
 .bss           0x083fd360       0x18 /cern/99/lib/libpacklib.a(hcxy.o)
 .bss           0x083fd378        0x4 /cern/99/lib/libpacklib.a(hdcofl.o)
 *fill*         0x083fd37c        0x4 00
 .bss           0x083fd380       0x34 /cern/99/lib/libpacklib.a(hf1.o)
 .bss           0x083fd3b4       0x4c /cern/99/lib/libpacklib.a(hf1aut.o)
 .bss           0x083fd400       0x2c /cern/99/lib/libpacklib.a(hf2.o)
 *fill*         0x083fd42c        0x4 00
 .bss           0x083fd430       0x2c /cern/99/lib/libpacklib.a(hfcx.o)
 .bss           0x083fd45c       0x14 /cern/99/lib/libpacklib.a(hfcxy.o)
 .bss           0x083fd470        0x8 /cern/99/lib/libpacklib.a(hfidp.o)
 .bss           0x083fd478        0x4 /cern/99/lib/libpacklib.a(hfind.o)
 .bss           0x083fd47c        0x4 /cern/99/lib/libpacklib.a(hie.o)
 .bss           0x083fd480        0x8 /cern/99/lib/libpacklib.a(hix.o)
 .bss           0x083fd488       0x28 /cern/99/lib/libpacklib.a(hlabeq.o)
 *fill*         0x083fd4b0       0x10 00
 .bss           0x083fd4c0       0x84 /cern/99/lib/libpacklib.a(hmdir.o)
 *fill*         0x083fd544       0x1c 00
 .bss           0x083fd560       0x98 /cern/99/lib/libpacklib.a(hoper1.o)
 .bss           0x083fd5f8       0x1c /cern/99/lib/libpacklib.a(hoper1a.o)
 *fill*         0x083fd614        0xc 00
 .bss           0x083fd620      0x1a4 /cern/99/lib/libpacklib.a(hnbfwr.o)
 .bss           0x083fd7c4       0x10 /cern/99/lib/libpacklib.a(hnmset.o)
 *fill*         0x083fd7d4        0xc 00
 .bss           0x083fd7e0       0x90 /cern/99/lib/libpacklib.a(hntdel.o)
 .bss           0x083fd870       0x2c /cern/99/lib/libpacklib.a(fzidia.o)
 .bss           0x083fd89c       0x50 /cern/99/lib/libpacklib.a(fziffn.o)
 .bss           0x083fd8ec       0x4c /cern/99/lib/libpacklib.a(fziffx.o)
 .bss           0x083fd938       0x18 /cern/99/lib/libpacklib.a(fzilin.o)
 *fill*         0x083fd950       0x10 00
 .bss           0x083fd960      0x180 /cern/99/lib/libpacklib.a(fzimtb.o)
 .bss           0x083fdae0       0x38 /cern/99/lib/libpacklib.a(fzirec.o)
 .bss           0x083fdb18       0x14 /cern/99/lib/libpacklib.a(fzitrn.o)
 .bss           0x083fdb2c       0x4c /cern/99/lib/libpacklib.a(fzout.o)
 .bss           0x083fdb78        0x4 /cern/99/lib/libpacklib.a(fzitrx.o)
 .bss           0x083fdb7c       0x70 /cern/99/lib/libpacklib.a(mzcopy.o)
 .bss           0x083fdbec       0x24 /cern/99/lib/libpacklib.a(mzpudx.o)
 .bss           0x083fdc10       0x48 /cern/99/lib/libpacklib.a(mzfgap.o)
 .bss           0x083fdc58       0x10 /cern/99/lib/libpacklib.a(mzgarb.o)
 .bss           0x083fdc68       0x18 /cern/99/lib/libpacklib.a(mztabc.o)
 .bss           0x083fdc80       0x10 /cern/99/lib/libpacklib.a(mztabh.o)
 .bss           0x083fdc90       0x24 /cern/99/lib/libpacklib.a(mzdvac.o)
 .bss           0x083fdcb4        0xc /cern/99/lib/libpacklib.a(mziocf.o)
 .bss           0x083fdcc0       0x40 /cern/99/lib/libpacklib.a(mziocr.o)
 .bss           0x083fdd00       0x28 /cern/99/lib/libpacklib.a(mzixco.o)
 .bss           0x083fdd28       0x10 /cern/99/lib/libpacklib.a(zphase.o)
 .bss           0x083fdd38        0x8 /cern/99/lib/libpacklib.a(zpostm.o)
 .bss           0x083fdd40       0x1c /cern/99/lib/libpacklib.a(zhtoi.o)
 .bss           0x083fdd5c       0x54 /cern/99/lib/libpacklib.a(rzclos.o)
 .bss           0x083fddb0       0x28 /cern/99/lib/libpacklib.a(rzend.o)
 .bss           0x083fddd8       0x38 /cern/99/lib/libpacklib.a(rzfree.o)
 .bss           0x083fde10       0x7c /cern/99/lib/libpacklib.a(rzmdir.o)
 *fill*         0x083fde8c       0x14 00
 .bss           0x083fdea0      0x110 /cern/99/lib/libpacklib.a(rzmods.o)
 *fill*         0x083fdfb0       0x10 00
 .bss           0x083fdfc0      0x254 /cern/99/lib/libpacklib.a(rzopen.o)
 *fill*         0x083fe214        0xc 00
 .bss           0x083fe220       0xb8 /cern/99/lib/libpacklib.a(rzout.o)
 *fill*         0x083fe2d8        0x8 00
 .bss           0x083fe2e0       0x9c /cern/99/lib/libpacklib.a(rzstrip.o)
 .bss           0x083fe37c       0x28 /cern/99/lib/libpacklib.a(rzused.o)
 .bss           0x083fe3a4      0x200 /cern/99/lib/libpacklib.a(error.o)
 .bss           0x083fe5a4      0x800 /cern/99/lib/libpacklib.a(parse.o)
 .bss           0x083feda4       0x50 /cern/99/lib/libpacklib.a(serror.o)
 .bss           0x083fedf4       0xa0 /cern/99/lib/libpacklib.a(socket.o)
 .bss           0x083fee94      0x100 /cern/99/lib/libpacklib.a(stream.o)
 .bss           0x083fef94        0x4 /cern/99/lib/libpacklib.a(cfstat.o)
 .bss           0x083fef98        0x4 /cern/99/lib/libpacklib.a(gshowf.o)
 .bss           0x083fef9c        0x8 /cern/99/lib/libpacklib.a(icluns.o)
 .bss           0x083fefa4        0x4 /cern/99/lib/libpacklib.a(traceq.o)
 .bss           0x083fefa8        0x4 /cern/99/lib/libpacklib.a(xinbf.o)
 .bss           0x083fefac        0xc /cern/99/lib/libpacklib.a(xinbs.o)
 .bss           0x083fefb8       0x40 /cern/99/lib/libpacklib.a(hrfile.o)
 .bss           0x083feff8       0x70 /cern/99/lib/libpacklib.a(hfc1.o)
 *fill*         0x083ff068       0x18 00
 .bss           0x083ff080       0x40 /cern/99/lib/libpacklib.a(hlccmp.o)
 .bss           0x083ff0c0       0x28 /cern/99/lib/libpacklib.a(hlgnxt.o)
 *fill*         0x083ff0e8       0x18 00
 .bss           0x083ff100       0x80 /cern/99/lib/libpacklib.a(hlhcmp.o)
 .bss           0x083ff180       0x48 /cern/99/lib/libpacklib.a(hlpos.o)
 .bss           0x083ff1c8       0x28 /cern/99/lib/libpacklib.a(dzsnap.o)
 .bss           0x083ff1f0        0x8 /cern/99/lib/libpacklib.a(dztext.o)
 .bss           0x083ff1f8        0x4 /cern/99/lib/libpacklib.a(zpage.o)
 .bss           0x083ff1fc       0x14 /cern/99/lib/libpacklib.a(fzipha.o)
 .bss           0x083ff210       0x3c /cern/99/lib/libpacklib.a(fziphd.o)
 .bss           0x083ff24c       0x24 /cern/99/lib/libpacklib.a(fziphm.o)
 .bss           0x083ff270       0x44 /cern/99/lib/libpacklib.a(fziphr.o)
 .bss           0x083ff2b4        0x8 /cern/99/lib/libpacklib.a(fziprl.o)
 .bss           0x083ff2bc       0x90 /cern/99/lib/libpacklib.a(fzoffn.o)
 .bss           0x083ff34c       0x30 /cern/99/lib/libpacklib.a(fzoffx.o)
 .bss           0x083ff37c       0x40 /cern/99/lib/libpacklib.a(fzorec.o)
 .bss           0x083ff3bc       0x3c /cern/99/lib/libpacklib.a(fzotab.o)
 .bss           0x083ff3f8       0x10 /cern/99/lib/libpacklib.a(fzotrn.o)
 .bss           0x083ff408        0xc /cern/99/lib/libpacklib.a(fzotxt.o)
 .bss           0x083ff414       0x3c /cern/99/lib/libpacklib.a(fzicv.o)
 .bss           0x083ff450       0x14 /cern/99/lib/libpacklib.a(mzend.o)
 .bss           0x083ff464       0x4c /cern/99/lib/libpacklib.a(mzmaps.o)
 .bss           0x083ff4b0       0x48 /cern/99/lib/libpacklib.a(mzmark.o)
 .bss           0x083ff4f8       0x28 /cern/99/lib/libpacklib.a(mzwork.o)
 .bss           0x083ff520       0x1c /cern/99/lib/libpacklib.a(zitoh.o)
 .bss           0x083ff53c       0x20 /cern/99/lib/libpacklib.a(rzallo.o)
 .bss           0x083ff55c       0xd8 /cern/99/lib/libpacklib.a(rzdelk.o)
 .bss           0x083ff634       0x50 /cern/99/lib/libpacklib.a(rzexpd.o)
 *fill*         0x083ff684       0x1c 00
 .bss           0x083ff6a0       0x90 /cern/99/lib/libpacklib.a(rzfile.o)
 *fill*         0x083ff730       0x10 00
 .bss           0x083ff740      0x108 /cern/99/lib/libpacklib.a(rzllok.o)
 .bss           0x083ff848       0x88 /cern/99/lib/libpacklib.a(rzlock.o)
 .bss           0x083ff8d0       0x9c /cern/99/lib/libpacklib.a(rzmake.o)
 .bss           0x083ff96c       0x20 /cern/99/lib/libpacklib.a(rzobkn.o)
 .bss           0x083ff98c       0x24 /cern/99/lib/libpacklib.a(rzpurf.o)
 *fill*         0x083ff9b0       0x10 00
 .bss           0x083ff9c0      0x3b8 /cern/99/lib/libpacklib.a(rzveri.o)
 .bss           0x083ffd78       0x14 /cern/99/lib/libpacklib.a(rzwrt.o)
 .bss           0x083ffd8c      0x100 /cern/99/lib/libpacklib.a(connect.o)
 .bss           0x083ffe8c     0x2000 /cern/99/lib/libpacklib.a(getacct.o)
 .bss           0x08401e8c     0x4000 /cern/99/lib/libpacklib.a(getacctent.o)
 .bss           0x08405e8c     0x4001 /cern/99/lib/libpacklib.a(getconfent.o)
 *fill*         0x08409e8d        0x3 00
 .bss           0x08409e90       0x10 /cern/99/lib/libpacklib.a(getifnam.o)
 .bss           0x08409ea0       0x48 /cern/99/lib/libpacklib.a(log.o)
 .bss           0x08409ee8       0x68 /cern/99/lib/libpacklib.a(dzare1.o)
 *fill*         0x08409f50       0x10 00
 .bss           0x08409f60      0x36c /cern/99/lib/libpacklib.a(dzbkup.o)
 .bss           0x0840a2cc       0x38 /cern/99/lib/libpacklib.a(dzbkxr.o)
 .bss           0x0840a304       0x54 /cern/99/lib/libpacklib.a(dzdata.o)
 .bss           0x0840a358       0x30 /cern/99/lib/libpacklib.a(dzmap.o)
 .bss           0x0840a388        0x8 /cern/99/lib/libpacklib.a(dzopt.o)
 .bss           0x0840a390       0x30 /cern/99/lib/libpacklib.a(dzshpr.o)
 .bss           0x0840a3c0       0x20 /cern/99/lib/libpacklib.a(dztyp.o)
 .bss           0x0840a3e0       0x84 /cern/99/lib/libpacklib.a(fziasc.o)
 .bss           0x0840a464       0x18 /cern/99/lib/libpacklib.a(fzichh.o)
 .bss           0x0840a47c       0x10 /cern/99/lib/libpacklib.a(fzidum.o)
 .bss           0x0840a48c       0x38 /cern/99/lib/libpacklib.a(fzophr.o)
 .bss           0x0840a4c4       0x30 /cern/99/lib/libpacklib.a(fzocv.o)
 .bss           0x0840a4f4        0xc /cern/99/lib/libpacklib.a(izbcd.o)
 .bss           0x0840a500        0x4 /cern/99/lib/libpacklib.a(rzdlok.o)
 *fill*         0x0840a504       0x1c 00
 .bss           0x0840a520      0x324 /cern/99/lib/libpacklib.a(rzver1.o)
 .bss           0x0840a844       0x2c /cern/99/lib/libpacklib.a(rzver2.o)
 .bss           0x0840a870       0x10 /cern/99/lib/libpacklib.a(iumode.o)
 .bss           0x0840a880        0x4 /cern/99/lib/libpacklib.a(iufind.o)
 .bss           0x0840a884        0xc /cern/99/lib/libpacklib.a(iusame.o)
 .bss           0x0840a890        0xc /cern/99/lib/libpacklib.a(jrsbyt.o)
 .bss           0x0840a89c        0x8 /cern/99/lib/libpacklib.a(ucopiv.o)
 .bss           0x0840a8a4        0x6 /cern/99/lib/libpacklib.a(dzbkdv.o)
 *fill*         0x0840a8aa        0x2 00
 .bss           0x0840a8ac       0x20 /cern/99/lib/libpacklib.a(dzbkhd.o)
 .bss           0x0840a8cc        0x6 /cern/99/lib/libpacklib.a(dziopr.o)
 *fill*         0x0840a8d2        0x2 00
 .bss           0x0840a8d4       0x18 /cern/99/lib/libpacklib.a(fzialn.o)
 .bss           0x0840a8ec       0x6c /cern/99/lib/libpacklib.a(fzoasc.o)
 .bss           0x0840a958        0xc /cern/99/lib/libpacklib.a(izchav.o)
 *fill*         0x0840a964       0x1c 00
 .bss           0x0840a980      0x234 /cern/99/lib/libpacklib.a(rzprnk.o)
 .bss           0x0840abb4      0x3ec /cern/99/lib/libpacklib.a(mstat.o)
 .bss           0x0840afa0       0x58 /cern/99/lib/libpacklib.a(dziopd.o)
 .bss           0x0840aff8       0x40 /cern/99/lib/libpacklib.a(dzioph.o)
 .bss           0x0840b038        0xc /cern/99/lib/libpacklib.a(fzoaln.o)
 .bss           0x0840b044       0x34 /cern/99/lib/libpacklib.a(fzoapk.o)
 .bss           0x0840b078        0x8 /cern/99/lib/libpacklib.a(uh1toc.o)
 .bss           0x0840b080       0x68 /cern/99/lib/libmathlib.a(dsyev.o)
 .bss           0x0840b0e8       0x28 /cern/99/lib/libmathlib.a(dsytrd.o)
 .bss           0x0840b110       0x30 /cern/99/lib/libmathlib.a(ilaenv.o)
 .bss           0x0840b140        0xc /cern/99/lib/libmathlib.a(lsame.o)
 .bss           0x0840b14c       0x10 /cern/99/lib/libmathlib.a(dscal.o)
 *fill*         0x0840b15c        0x4 00
 .bss           0x0840b160       0x28 /cern/99/lib/libmathlib.a(dsyr2k.o)
 .bss           0x0840b188      0x208 /cern/99/lib/libmathlib.a(dlamch.o)
 .bss           0x0840b390       0x28 /cern/99/lib/libmathlib.a(dlansy.o)
 .bss           0x0840b3b8       0x58 /cern/99/lib/libmathlib.a(dlascl.o)
 .bss           0x0840b410       0x10 /cern/99/lib/libmathlib.a(dlassq.o)
 .bss           0x0840b420       0x10 /cern/99/lib/libmathlib.a(dlatrd.o)
 .bss           0x0840b430       0x10 /cern/99/lib/libmathlib.a(dorgtr.o)
 .bss           0x0840b440       0xd8 /cern/99/lib/libmathlib.a(dsteqr.o)
 .bss           0x0840b518       0xe8 /cern/99/lib/libmathlib.a(dsterf.o)
 .bss           0x0840b600       0x18 /cern/99/lib/libmathlib.a(dsytd2.o)
 .bss           0x0840b618       0x14 /cern/99/lib/libmathlib.a(daxpy.o)
 *fill*         0x0840b62c        0x4 00
 .bss           0x0840b630       0x1c /cern/99/lib/libmathlib.a(ddot.o)
 *fill*         0x0840b64c        0x4 00
 .bss           0x0840b650       0x34 /cern/99/lib/libmathlib.a(dgemv.o)
 *fill*         0x0840b684        0x4 00
 .bss           0x0840b688       0x1c /cern/99/lib/libmathlib.a(dswap.o)
 *fill*         0x0840b6a4        0x4 00
 .bss           0x0840b6a8       0x34 /cern/99/lib/libmathlib.a(dsymv.o)
 *fill*         0x0840b6dc        0x4 00
 .bss           0x0840b6e0       0x34 /cern/99/lib/libmathlib.a(dsyr2.o)
 *fill*         0x0840b714        0x4 00
 .bss           0x0840b718       0x40 /cern/99/lib/libmathlib.a(dlae2.o)
 .bss           0x0840b758       0x68 /cern/99/lib/libmathlib.a(dlaev2.o)
 .bss           0x0840b7c0       0x20 /cern/99/lib/libmathlib.a(dlanst.o)
 .bss           0x0840b7e0       0x20 /cern/99/lib/libmathlib.a(dlapy2.o)
 .bss           0x0840b800       0x28 /cern/99/lib/libmathlib.a(dlarfg.o)
 .bss           0x0840b828       0x40 /cern/99/lib/libmathlib.a(dlartg.o)
 .bss           0x0840b868        0x8 /cern/99/lib/libmathlib.a(dlaset.o)
 .bss           0x0840b870       0x28 /cern/99/lib/libmathlib.a(dlasr.o)
 *fill*         0x0840b898        0x8 00
 .bss           0x0840b8a0      0x140 /cern/99/lib/libmathlib.a(dlasrt.o)
 .bss           0x0840b9e0       0x2c /cern/99/lib/libmathlib.a(dorgql.o)
 .bss           0x0840ba0c       0x30 /cern/99/lib/libmathlib.a(dorgqr.o)
 *fill*         0x0840ba3c        0x4 00
 .bss           0x0840ba40       0x28 /cern/99/lib/libmathlib.a(dnrm2.o)
 .bss           0x0840ba68        0xc /cern/99/lib/libmathlib.a(dlarfb.o)
 *fill*         0x0840ba74        0x4 00
 .bss           0x0840ba78       0x10 /cern/99/lib/libmathlib.a(dlarft.o)
 .bss           0x0840ba88       0x10 /cern/99/lib/libmathlib.a(dorg2l.o)
 .bss           0x0840ba98        0xc /cern/99/lib/libmathlib.a(dorg2r.o)
 .bss           0x0840baa4       0x14 /cern/99/lib/libmathlib.a(dcopy.o)
 .bss           0x0840bab8       0x30 /cern/99/lib/libmathlib.a(dgemm.o)
 .bss           0x0840bae8       0x28 /cern/99/lib/libmathlib.a(dtrmm.o)
 .bss           0x0840bb10       0x24 /cern/99/lib/libmathlib.a(dtrmv.o)
 *fill*         0x0840bb34        0x4 00
 .bss           0x0840bb38       0x20 /cern/99/lib/libmathlib.a(dger.o)
 .bss           0x0840bb58        0xc /usr/lib/gcc-lib/i686-pc-linux-gnu/2.95.3/libg2c.a(close.o)
 *fill*         0x0840bb64       0x1c 00
 .bss           0x0840bb80     0x12c0 /usr/lib/gcc-lib/i686-pc-linux-gnu/2.95.3/libg2c.a(fmt.o)
 .bss           0x0840ce40        0xc /usr/lib/gcc-lib/i686-pc-linux-gnu/2.95.3/libg2c.a(lread.o)
 *fill*         0x0840ce4c       0x14 00
 .bss           0x0840ce60      0x1a0 /usr/lib/gcc-lib/i686-pc-linux-gnu/2.95.3/libg2c.a(open.o)
 .bss           0x0840d000      0x100 /usr/lib/gcc-lib/i686-pc-linux-gnu/2.95.3/libg2c.a(rdfmt.o)
 .bss           0x0840d100       0x18 /usr/lib/gcc-lib/i686-pc-linux-gnu/2.95.3/libg2c.a(fmtlib.o)
 *(COMMON)
 *fill*         0x0840d118        0x8 00
 COMMON         0x0840d120   0x12cf08 mchw58d_105j.o
                                  0x0 (size before relaxing)
                0x0840d120                pawc_
                0x084d0620                gujets_
                0x0850afc0                mcuffr_
                0x0850b040                mcffr_
                0x0850b220                hepevt_
 *fill*         0x0853a028       0x18 00
 COMMON         0x0853a040     0xdac4 /home/pcl2483/pedro/jadesoft/util/mcgen/Plib/libmc105j.a(mcgeth.o)
                                  0x0 (size before relaxing)
                0x0853a040                lujets_
 *fill*         0x08547b04       0x1c 00
 COMMON         0x08547b20     0xa760 /home/pcl2483/pedro/jadesoft/util/mcgen/Plib/libmc105j.a(evwrtj.o)
                                  0x0 (size before relaxing)
                0x08547b20                chcprd_
                0x0854ad20                cprod_
 COMMON         0x08552280      0x1e0 /home/pcl2483/pedro/jadesoft/util/mcgen/Plib/libmc105j.a(jtconv.o)
                                  0x0 (size before relaxing)
                0x08552280                ludat1_
 COMMON         0x08552460    0x3a6f0 /home/pcl2483/pedro/jadesoft/util/mcgen/Plib/libherwig58d.a(fxhlms.o)
                                  0x0 (size before relaxing)
                0x08552460                hwbeam_
                0x08552480                hwparc_
                0x085543c0                hwhard_
                0x08554820                hwbrch_
                0x085548c0                hwbosc_
                0x08560540                hwpart_
                0x0856c0e0                hwproc_
                0x0856c120                hwevnt_
                0x0856e0e0                hwusud_
                0x08586100                hwpram_
                0x085865c0                hwparp_
 COMMON         0x0858cb50        0x4 /home/pcl2483/pedro/jadesoft/util/mcgen/Plib/libherwig58d.a(h58ddriv.o)
                                  0x0 (size before relaxing)
                0x0858cb50                cl1dec_
 *fill*         0x0858cb54        0xc 00
 COMMON         0x0858cb60     0x5dc8 /home/pcl2483/pedro/jadesoft/util/mcgen/Plib/libherwig58d.a(hwbgen.o)
                                  0x0 (size before relaxing)
                0x0858cb60                hwshwr_
 *fill*         0x08592928       0x18 00
 COMMON         0x08592940      0x2d8 /home/pcl2483/pedro/jadesoft/util/mcgen/Plib/libherwig58d.a(hwhbgf.o)
                                  0x0 (size before relaxing)
                0x08592940                hwarea_
 COMMON         0x08592c18        0x8 /home/pcl2483/pedro/jadesoft/util/mcgen/Plib/libherwig58d.a(hwhepa.o)
                                  0x0 (size before relaxing)
                0x08592c18                hw58op_
 COMMON         0x08592c20     0x2ca0 /home/pcl2483/pedro/jadesoft/util/mcgen/Plib/libherwig58d.a(hwheww.o)
                                  0x0 (size before relaxing)
                0x08592c20                hwhewr_
                0x08595060                hwhewq_
                0x08595500                hwhewp_
 COMMON         0x085958c0       0x1c /home/pcl2483/pedro/jadesoft/util/mcgen/Plib/libherwig58d.a(hwrpow.o)
                                  0x0 (size before relaxing)
                0x085958c0                hwrpin_
 COMMON         0x085958dc       0x14 /home/pcl2483/pedro/jadesoft/util/mcgen/Plib/libherwig58d.a(hwsbrn.o)
                                  0x0 (size before relaxing)
                0x085958dc                hwtabc_
 COMMON         0x085958f0        0x4 /home/pcl2483/pedro/jadesoft/util/mcgen/Plib/libherwig58d.a(hwufne.o)
                                  0x0 (size before relaxing)
                0x085958f0                hwdbug_
 COMMON         0x085958f4        0x4 /home/pcl2483/pedro/jadesoft/util/mcgen/Plib/libherwig58d.a(hwuinc.o)
                                  0x0 (size before relaxing)
                0x085958f4                w50516_
 COMMON         0x085958f8       0x10 /home/pcl2483/pedro/jadesoft/util/mcgen/Plib/libherwig58d.a(hwbsud.o)
                                  0x0 (size before relaxing)
                0x085958f8                hwsint_
 *fill*         0x08595908       0x18 00
 COMMON         0x08595920       0xf0 /home/pcl2483/pedro/jadesoft/util/mcgen/Plib/libherwig58d.a(hwhiga.o)
                                  0x0 (size before relaxing)
                0x08595920                cints_
                0x08595a00                small_
 COMMON         0x08595a10        0x4 /home/pcl2483/pedro/jadesoft/util/mcgen/Plib/libherwig58d.a(hwsdgq.o)
                                  0x0 (size before relaxing)
                0x08595a10                dg_
 *fill*         0x08595a14        0xc 00
 COMMON         0x08595a20     0x1f44 /home/pcl2483/pedro/jadesoft/util/mcgen/Plib/libherwig58d.a(hwuedt.o)
                                  0x0 (size before relaxing)
                0x08595a20                hwumap_
 *fill*         0x08597964       0x1c 00
 COMMON         0x08597980      0xc80 /home/pcl2483/pedro/jadesoft/util/mcgen/Plib/libjt74opal.a(lulogo.o)
                                  0x0 (size before relaxing)
                0x08597980                pypars_
 COMMON         0x08598600      0x194 /home/pcl2483/pedro/jadesoft/util/mcgen/Plib/libjt74opal.a(luzdis.o)
                                  0x0 (size before relaxing)
                0x08598600                goxtra_
 *fill*         0x08598794        0xc 00
 COMMON         0x085987a0      0x260 /home/pcl2483/pedro/jadesoft/util/mcgen/Plib/libjt74opal.a(ludecy.o)
                                  0x0 (size before relaxing)
                0x085987a0                hpevt_
 COMMON         0x08598a00      0x5c8 /home/pcl2483/pedro/jadesoft/util/mcgen/Plib/libjt74opal.a(dexay.o)
                                  0x0 (size before relaxing)
                0x08598a00                idfc_
                0x08598a04                jaki_
                0x08598a20                decmp2_
                0x08598e4c                inout_
                0x08598e60                taubmc_
 COMMON         0x08598fc8       0x10 /home/pcl2483/pedro/jadesoft/util/mcgen/Plib/libjt74opal.a(dwluks.o)
                                  0x0 (size before relaxing)
                0x08598fc8                taukle_
 *fill*         0x08598fd8        0x8 00
 COMMON         0x08598fe0       0x28 /home/pcl2483/pedro/jadesoft/util/mcgen/Plib/libjt74opal.a(filhep.o)
                                  0x0 (size before relaxing)
                0x08598fe0                phoqed_
 *fill*         0x08599008       0x18 00
 COMMON         0x08599020      0x1a8 /home/pcl2483/pedro/jadesoft/util/mcgen/Plib/libjt74opal.a(initdk.o)
                                  0x0 (size before relaxing)
                0x08599020                taubra_
                0x08599114                taurad_
                0x08599120                parmas_
                0x08599160                decpar_
                0x08599180                gswprm_
                0x085991b0                qedprm_
 COMMON         0x085991c8        0x4 /home/pcl2483/pedro/jadesoft/util/mcgen/Plib/libjt74opal.a(dampog.o)
                                  0x0 (size before relaxing)
                0x085991c8                testa1_
 COMMON         0x085991cc        0x8 /home/pcl2483/pedro/jadesoft/util/mcgen/Plib/libjt74opal.a(curr.o)
                                  0x0 (size before relaxing)
                0x085991cc                arbit_
 *fill*         0x085991d4        0xc 00
 COMMON         0x085991e0    0x10b3c /home/pcl2483/pedro/jadesoft/util/mcgen/Plib/libckern105.a(ckern.o)
                                  0x0 (size before relaxing)
                0x085991e0                ckcom_
 *fill*         0x085a9d1c        0x4 00
 COMMON         0x085a9d20     0x9cb0 /home/pcl2483/pedro/jadesoft/util/mcgen/Plib/libpx114.a(ykern.o)
                                  0x0 (size before relaxing)
                0x085a9d20                yint_
                0x085aeb60                ycl_
 *fill*         0x085b39d0       0x10 00
 COMMON         0x085b39e0      0xab4 /cern/99/lib/libpacklib.a(ffgo.o)
                                  0x0 (size before relaxing)
                0x085b39e0                ffchar_
                0x085b3a80                cfread_
                0x085b4300                ffcomm_
 *fill*         0x085b4494        0xc 00
 COMMON         0x085b44a0      0x328 /cern/99/lib/libpacklib.a(hbook1.o)
                                  0x0 (size before relaxing)
                0x085b44a0                hcform_
                0x085b44e0                hcbook_
                0x085b45c0                hcprin_
                0x085b4760                hcflag_
                0x085b47a0                hcopt_
 *fill*         0x085b47c8       0x18 00
 COMMON         0x085b47e0       0x8c /cern/99/lib/libpacklib.a(hbug.o)
                                  0x0 (size before relaxing)
                0x085b47e0                hcmail_
                0x085b4860                hcunit_
 *fill*         0x085b486c       0x14 00
 COMMON         0x085b4880     0x33b0 /cern/99/lib/libpacklib.a(hcdir.o)
                                  0x0 (size before relaxing)
                0x085b4880                hcpia1_
                0x085b4cc0                hcpiaf_
                0x085b4e20                hcfile_
                0x085b5dc0                hcdirc_
                0x085b76c0                quest_
                0x085b7860                hcdirn_
                0x085b7ae0                hcpiac_
 *fill*         0x085b7c30       0x10 00
 COMMON         0x085b7c40      0x194 /cern/99/lib/libpacklib.a(hdelet.o)
                                  0x0 (size before relaxing)
                0x085b7c40                hcache_
 *fill*         0x085b7dd4        0xc 00
 COMMON         0x085b7de0       0x94 /cern/99/lib/libpacklib.a(hfill.o)
                                  0x0 (size before relaxing)
                0x085b7de0                hcbits_
 *fill*         0x085b7e74        0xc 00
 COMMON         0x085b7e80     0x1144 /cern/99/lib/libpacklib.a(hmachi.o)
                                  0x0 (size before relaxing)
                0x085b7e80                hcset_
                0x085b7e84                hcverc_
                0x085b7ea0                hcvers_
                0x085b7f24                hcnt_
                0x085b7f34                hcrecv_
                0x085b7f40                slate_
                0x085b7fe0                hcminpu_
                0x085b8f80                hcfitr_
                0x085b8f94                czcbuf_
                0x085b8f98                hcminp1_
                0x085b8fa0                hcpar0_
 *fill*         0x085b8fc4       0x1c 00
 COMMON         0x085b8fe0      0x2d4 /cern/99/lib/libpacklib.a(hsupis.o)
                                  0x0 (size before relaxing)
                0x085b8fe0                hcfitn_
                0x085b9100                hcfits_
 *fill*         0x085b92b4        0xc 00
 COMMON         0x085b92c0      0x200 /cern/99/lib/libpacklib.a(hlogpf.o)
                                  0x0 (size before relaxing)
                0x085b92c0                czbufc_
 COMMON         0x085b94c0        0x4 /cern/99/lib/libpacklib.a(hntrset.o)
                                  0x0 (size before relaxing)
                0x085b94c0                hntcur_
 *fill*         0x085b94c4       0x1c 00
 COMMON         0x085b94e0     0x12a0 /cern/99/lib/libpacklib.a(fzin.o)
                                  0x0 (size before relaxing)
                0x085b94e0                mzca_
                0x085b96c0                zvfaut_
                0x085b9720                mzct_
                0x085b9800                mzcc_
                0x085b9ea0                fzcocc_
                0x085b9f44                zunitz_
                0x085b9f60                fzci_
                0x085ba0a0                zbcd_
                0x085ba3e0                zebq_
                0x085ba580                fzcseg_
                0x085ba680                mzcb_
                0x085ba700                zmach_
                0x085ba740                mzcn_
                0x085ba764                zunit_
 COMMON         0x085ba780      0x1f0 /cern/99/lib/libpacklib.a(fzloc.o)
                                  0x0 (size before relaxing)
                0x085ba780                fzcx_
                0x085ba8a0                zstate_
                0x085ba8e0                fzcf_
 *fill*         0x085ba970       0x10 00
 COMMON         0x085ba980       0x70 /cern/99/lib/libpacklib.a(mzbook.o)
                                  0x0 (size before relaxing)
                0x085ba980                mzcl_
 *fill*         0x085ba9f0       0x10 00
 COMMON         0x085baa00     0x5a20 /cern/99/lib/libpacklib.a(mzebra.o)
                                  0x0 (size before relaxing)
                0x085baa00                zceta_
                0x085bb200                zbcdch_
                0x085bb260                rzcount_
                0x085bb280                zheadp_
                0x085bb300                jzuc_
                0x085bb340                rzcstri_
                0x085bb944                znatur_
                0x085bb960                rzclun_
                0x085bb9a0                rzcstrc_
 COMMON         0x085c0420     0x5008 /cern/99/lib/libpacklib.a(mzflag.o)
                                  0x0 (size before relaxing)
                0x085c0420                mzcwk_
                0x085c5420                zlimit_
 *fill*         0x085c5428       0x18 00
 COMMON         0x085c5440      0x508 /cern/99/lib/libpacklib.a(mzform.o)
                                  0x0 (size before relaxing)
                0x085c5440                zkrakc_
 COMMON         0x085c5948        0x8 /cern/99/lib/libpacklib.a(ztell.o)
                                  0x0 (size before relaxing)
                0x085c5948                ztellc_
 *fill*         0x085c5950       0x10 00
 COMMON         0x085c5960     0x150c /cern/99/lib/libpacklib.a(rzcdir.o)
                                  0x0 (size before relaxing)
                0x085c5960                rzcl_
                0x085c59a0                rzdirc_
                0x085c6c60                rzch_
                0x085c6e60                rzdirn_
 *fill*         0x085c6e6c       0x14 00
 COMMON         0x085c6e80       0x28 /cern/99/lib/libpacklib.a(rzfdir.o)
                                  0x0 (size before relaxing)
                0x085c6e80                rzcycle_
 *fill*         0x085c6ea8       0x18 00
 COMMON         0x085c6ec0     0x8800 /cern/99/lib/libpacklib.a(rziodo.o)
                                  0x0 (size before relaxing)
                0x085c6ec0                rzbuff_
 COMMON         0x085cf6c0      0xe10 /cern/99/lib/libpacklib.a(czgeta.o)
                                  0x0 (size before relaxing)
                0x085cf6c0                czsock_
 *fill*         0x085d04d0       0x10 00
 COMMON         0x085d04e0     0x3fa0 /cern/99/lib/libpacklib.a(hqputf.o)
                                  0x0 (size before relaxing)
                0x085d04e0                hcqcom_
                0x085d34e0                hcqcod_
 COMMON         0x085d4480      0x350 /cern/99/lib/libpacklib.a(fziffx.o)
                                  0x0 (size before relaxing)
                0x085d4480                mzioc_
 *fill*         0x085d47d0       0x10 00
 COMMON         0x085d47e0      0x3f4 /cern/99/lib/libpacklib.a(rzopen.o)
                                  0x0 (size before relaxing)
                0x085d47e0                rzckey_
 COMMON         0x085d4bd4       0x18 /cern/99/lib/libpacklib.a(rzout.o)
                                  0x0 (size before relaxing)
                0x085d4bd4                rzcout_
 COMMON         0x085d4bec     0x2400 /cern/99/lib/libpacklib.a(open.o)
                                  0x0 (size before relaxing)
                0x085d4bec                rfilefdt
                0x085d4fec                rfio_buf
 COMMON         0x085d6fec        0x4 /cern/99/lib/libpacklib.a(serror.o)
                                  0x0 (size before relaxing)
                0x085d6fec                serrno
 *fill*         0x085d6ff0       0x10 00
 COMMON         0x085d7000      0x600 /cern/99/lib/libpacklib.a(dzsnap.o)
                                  0x0 (size before relaxing)
                0x085d7000                dzc1ch_
                0x085d7560                dzc1_
 COMMON         0x085d7600       0x28 /cern/99/lib/libpacklib.a(fzipha.o)
                                  0x0 (size before relaxing)
                0x085d7600                fzhci_
 *fill*         0x085d7628       0x18 00
 COMMON         0x085d7640      0x1d4 /cern/99/lib/libpacklib.a(rzveri.o)
                                  0x0 (size before relaxing)
                0x085d7640                rzbmap_
                0x085d7680                rzover_
 *fill*         0x085d7814        0xc 00
 COMMON         0x085d7820     0x1324 /usr/lib/gcc-lib/i686-pc-linux-gnu/2.95.3/libg2c.a(err.o)
                                  0x0 (size before relaxing)
                0x085d7820                f(short, void, int, char)
                0x085d7824                f__hiwater
                0x085d7828                f__putn
                0x085d782c                f__fmtlen
                0x085d7830                f__elist
                0x085d7834                f__sequential
                0x085d7838                f__fmtbuf
                0x085d783c                f__getn
                0x085d7840                f__curunit
                0x085d7844                f__doned
                0x085d7848                f(char, float)
                0x085d784c                f__external
                0x085d7850                f__reading
                0x085d7854                f__icptr
                0x085d7858                f__donewrec
                0x085d785c                f__init
                0x085d7860                f__doed
                0x085d7864                f(char, long *, short __restrict)
                0x085d7868                f__doend
                0x085d786c                f__cblank
                0x085d7870                f__scale
                0x085d7874                f__recpos
                0x085d7878                f__dorevert
                0x085d787c                f__formatted
                0x085d7880                f__units
                0x085d8b40                f__cursor
 *fill*         0x085d8b44       0x1c 00
 COMMON         0x085d8b60       0x90 /usr/lib/gcc-lib/i686-pc-linux-gnu/2.95.3/libg2c.a(fmt.o)
                                  0x0 (size before relaxing)
                0x085d8b60                f(long double,  *)
                0x085d8b64                f__nonl
                0x085d8b68                f__parenlvl
                0x085d8b6c                f__workdone
                0x085d8b70                f__revloc
                0x085d8b80                f__ret
                0x085d8bc0                f__cnt
                0x085d8be8                f(char *)
                0x085d8bec                f(char,  *)
 COMMON         0x085d8bf0        0x8 /usr/lib/gcc-lib/i686-pc-linux-gnu/2.95.3/libg2c.a(iio.o)
                                  0x0 (size before relaxing)
                0x085d8bf0                f__icnum
                0x085d8bf4                f__icend
 COMMON         0x085d8bf8       0x34 /usr/lib/gcc-lib/i686-pc-linux-gnu/2.95.3/libg2c.a(lread.o)
                                  0x0 (size before relaxing)
                0x085d8bf8                f__ltype
                0x085d8bfc                l_getc
                0x085d8c00                f__lioproc
                0x085d8c04                l_ungetc
                0x085d8c08                l_eof
                0x085d8c0c                nml_read
                0x085d8c10                f__lchar
                0x085d8c14                f__lquit
                0x085d8c18                f__ly
                0x085d8c20                f(long, long long)
                0x085d8c28                f__lcount
 COMMON         0x085d8c2c        0x4 /usr/lib/gcc-lib/i686-pc-linux-gnu/2.95.3/libg2c.a(sue.o)
                                  0x0 (size before relaxing)
                0x085d8c2c                f__recloc
 COMMON         0x085d8c30        0x4 /usr/lib/gcc-lib/i686-pc-linux-gnu/2.95.3/libg2c.a(uio.o)
                                  0x0 (size before relaxing)
                0x085d8c30                f__reclen
 COMMON         0x085d8c34        0x8 /usr/lib/gcc-lib/i686-pc-linux-gnu/2.95.3/libg2c.a(setarg.o)
                                  0x0 (size before relaxing)
                0x085d8c34                f__xargv
                0x085d8c38                f__xargc
 COMMON         0x085d8c3c        0x8 /usr/lib/gcc-lib/i686-pc-linux-gnu/2.95.3/libg2c.a(lwrite.o)
                                  0x0 (size before relaxing)
                0x085d8c3c                f__Aquote
                0x085d8c40                L_len
                0x085d8c44                . = ALIGN (0x4)
                0x085d8c44                . = ALIGN (0x4)
                0x085d8c44                _end = .
                0x085d8c44                PROVIDE (end, .)
                0x085d8c44                . = DATA_SEGMENT_END (.)

.stab           0x00000000    0xb0874
 *(.stab)
 .stab          0x00000000     0x6f78 mchw58d_105j.o
 .stab          0x00006f78      0x3cc /home/pcl2483/pedro/jadesoft/util/mcgen/Plib/libmc105j.a(mcgetf.o)
                                0x3d8 (size before relaxing)
 .stab          0x00007344      0x5c4 /home/pcl2483/pedro/jadesoft/util/mcgen/Plib/libmc105j.a(mcgeth.o)
                                0x5d0 (size before relaxing)
 .stab          0x00007908      0x564 /home/pcl2483/pedro/jadesoft/util/mcgen/Plib/libmc105j.a(mcgetp.o)
                                0x570 (size before relaxing)
 .stab          0x00007e6c      0x5ac /home/pcl2483/pedro/jadesoft/util/mcgen/Plib/libmc105j.a(mcinit.o)
                                0x5b8 (size before relaxing)
 .stab          0x00008418      0x4a4 /home/pcl2483/pedro/jadesoft/util/mcgen/Plib/libmc105j.a(mcstbl.o)
                                0x4b0 (size before relaxing)
 .stab          0x000088bc      0x9cc /home/pcl2483/pedro/jadesoft/util/mcgen/Plib/libmc105j.a(mcwrit.o)
                                0x9d8 (size before relaxing)
 .stab          0x00009288      0x918 /home/pcl2483/pedro/jadesoft/util/mcgen/Plib/libmc105j.a(pxeecb.o)
                                0x924 (size before relaxing)
 .stab          0x00009ba0      0xa44 /home/pcl2483/pedro/jadesoft/util/mcgen/Plib/libmc105j.a(evwrtj.o)
                                0xa50 (size before relaxing)
 .stab          0x0000a5e4      0x3cc /home/pcl2483/pedro/jadesoft/util/mcgen/Plib/libmc105j.a(incprd.o)
                                0x3d8 (size before relaxing)
 .stab          0x0000a9b0      0x408 /home/pcl2483/pedro/jadesoft/util/mcgen/Plib/libmc105j.a(jadeco.o)
                                0x414 (size before relaxing)
 .stab          0x0000adb8      0x99c /home/pcl2483/pedro/jadesoft/util/mcgen/Plib/libmc105j.a(jtconv.o)
                                0x9a8 (size before relaxing)
 .stab          0x0000b754      0x840 /home/pcl2483/pedro/jadesoft/util/mcgen/Plib/libmc105j.a(mcrnst.o)
                                0x84c (size before relaxing)
 .stab          0x0000bf94      0x2c4 /home/pcl2483/pedro/jadesoft/util/mcgen/Plib/libmc105j.a(ntcprd.o)
                                0x2d0 (size before relaxing)
 .stab          0x0000c258      0x5c4 /home/pcl2483/pedro/jadesoft/util/mcgen/Plib/libmc105j.a(prcprd.o)
                                0x5d0 (size before relaxing)
 .stab          0x0000c81c      0x480 /home/pcl2483/pedro/jadesoft/util/mcgen/Plib/libmc105j.a(wrcprd.o)
                                0x48c (size before relaxing)
 .stab          0x0000cc9c      0x4ec /home/pcl2483/pedro/jadesoft/util/mcgen/Plib/libherwig58d.a(fxhlms.o)
                                0x4f8 (size before relaxing)
 .stab          0x0000d188      0x87c /home/pcl2483/pedro/jadesoft/util/mcgen/Plib/libherwig58d.a(h58ddriv.o)
                                0x888 (size before relaxing)
 .stab          0x0000da04      0xce4 /home/pcl2483/pedro/jadesoft/util/mcgen/Plib/libherwig58d.a(hwbgen.o)
                                0xcf0 (size before relaxing)
 .stab          0x0000e6e8     0x1920 /home/pcl2483/pedro/jadesoft/util/mcgen/Plib/libherwig58d.a(hwbjco.o)
                               0x192c (size before relaxing)
 .stab          0x00010008      0x5d0 /home/pcl2483/pedro/jadesoft/util/mcgen/Plib/libherwig58d.a(hwbmas.o)
                                0x5dc (size before relaxing)
 .stab          0x000105d8     0x14e8 /home/pcl2483/pedro/jadesoft/util/mcgen/Plib/libherwig58d.a(hwbran.o)
                               0x14f4 (size before relaxing)
 .stab          0x00011ac0      0x798 /home/pcl2483/pedro/jadesoft/util/mcgen/Plib/libherwig58d.a(hwbspa.o)
                                0x7a4 (size before relaxing)
 .stab          0x00012258      0x5dc /home/pcl2483/pedro/jadesoft/util/mcgen/Plib/libherwig58d.a(hwbspn.o)
                                0x5e8 (size before relaxing)
 .stab          0x00012834      0x8d0 /home/pcl2483/pedro/jadesoft/util/mcgen/Plib/libherwig58d.a(hwbtim.o)
                                0x8dc (size before relaxing)
 .stab          0x00013104      0x3fc /home/pcl2483/pedro/jadesoft/util/mcgen/Plib/libherwig58d.a(hwbvmc.o)
                                0x408 (size before relaxing)
 .stab          0x00013500      0x5ac /home/pcl2483/pedro/jadesoft/util/mcgen/Plib/libherwig58d.a(hwcdec.o)
                                0x5b8 (size before relaxing)
 .stab          0x00013aac      0x348 /home/pcl2483/pedro/jadesoft/util/mcgen/Plib/libherwig58d.a(hwcfla.o)
                                0x354 (size before relaxing)
 .stab          0x00013df4      0xb7c /home/pcl2483/pedro/jadesoft/util/mcgen/Plib/libherwig58d.a(hwcfor.o)
                                0xb88 (size before relaxing)
 .stab          0x00014970      0x78c /home/pcl2483/pedro/jadesoft/util/mcgen/Plib/libherwig58d.a(hwcgsp.o)
                                0x798 (size before relaxing)
 .stab          0x000150fc      0xbd0 /home/pcl2483/pedro/jadesoft/util/mcgen/Plib/libherwig58d.a(hwchad.o)
                                0xbdc (size before relaxing)
 .stab          0x00015ccc      0xa38 /home/pcl2483/pedro/jadesoft/util/mcgen/Plib/libherwig58d.a(hwdhqk.o)
                                0xa44 (size before relaxing)
 .stab          0x00016704      0x3a8 /home/pcl2483/pedro/jadesoft/util/mcgen/Plib/libherwig58d.a(hwdidp.o)
                                0x3b4 (size before relaxing)
 .stab          0x00016aac      0x4e0 /home/pcl2483/pedro/jadesoft/util/mcgen/Plib/libherwig58d.a(hwdthr.o)
                                0x4ec (size before relaxing)
 .stab          0x00016f8c      0x378 /home/pcl2483/pedro/jadesoft/util/mcgen/Plib/libherwig58d.a(hwdtop.o)
                                0x384 (size before relaxing)
 .stab          0x00017304      0x3c0 /home/pcl2483/pedro/jadesoft/util/mcgen/Plib/libherwig58d.a(hwdtwo.o)
                                0x3cc (size before relaxing)
 .stab          0x000176c4      0x300 /home/pcl2483/pedro/jadesoft/util/mcgen/Plib/libherwig58d.a(hwdwwt.o)
                                0x30c (size before relaxing)
 .stab          0x000179c4      0x4bc /home/pcl2483/pedro/jadesoft/util/mcgen/Plib/libherwig58d.a(hwefin.o)
                                0x4c8 (size before relaxing)
 .stab          0x00017e80      0x5ac /home/pcl2483/pedro/jadesoft/util/mcgen/Plib/libherwig58d.a(hweini.o)
                                0x5b8 (size before relaxing)
 .stab          0x0001842c      0xb28 /home/pcl2483/pedro/jadesoft/util/mcgen/Plib/libherwig58d.a(hwepro.o)
                                0xb34 (size before relaxing)
 .stab          0x00018f54      0xf30 /home/pcl2483/pedro/jadesoft/util/mcgen/Plib/libherwig58d.a(hwhbgf.o)
                                0xf3c (size before relaxing)
 .stab          0x00019e84      0xcf0 /home/pcl2483/pedro/jadesoft/util/mcgen/Plib/libherwig58d.a(hwhbki.o)
                                0xcfc (size before relaxing)
 .stab          0x0001ab74     0x1200 /home/pcl2483/pedro/jadesoft/util/mcgen/Plib/libherwig58d.a(hwhbrn.o)
                               0x120c (size before relaxing)
 .stab          0x0001bd74      0xae0 /home/pcl2483/pedro/jadesoft/util/mcgen/Plib/libherwig58d.a(hwhbsg.o)
                                0xaec (size before relaxing)
 .stab          0x0001c854     0x10b0 /home/pcl2483/pedro/jadesoft/util/mcgen/Plib/libherwig58d.a(hwhdis.o)
                               0x10bc (size before relaxing)
 .stab          0x0001d904      0x6d8 /home/pcl2483/pedro/jadesoft/util/mcgen/Plib/libherwig58d.a(hwhdyp.o)
                                0x6e4 (size before relaxing)
 .stab          0x0001dfdc     0x1008 /home/pcl2483/pedro/jadesoft/util/mcgen/Plib/libherwig58d.a(hwhegg.o)
                               0x1014 (size before relaxing)
 .stab          0x0001efe4      0xb88 /home/pcl2483/pedro/jadesoft/util/mcgen/Plib/libherwig58d.a(hwhegw.o)
                                0xb94 (size before relaxing)
 .stab          0x0001fb6c      0x948 /home/pcl2483/pedro/jadesoft/util/mcgen/Plib/libherwig58d.a(hwhegx.o)
                                0x954 (size before relaxing)
 .stab          0x000204b4      0x9b4 /home/pcl2483/pedro/jadesoft/util/mcgen/Plib/libherwig58d.a(hwhepa.o)
                                0x9c0 (size before relaxing)
 .stab          0x00020e68      0x9fc /home/pcl2483/pedro/jadesoft/util/mcgen/Plib/libherwig58d.a(hwhepg.o)
                                0xa08 (size before relaxing)
 .stab          0x00021864      0xdbc /home/pcl2483/pedro/jadesoft/util/mcgen/Plib/libherwig58d.a(hwheww.o)
                                0xdc8 (size before relaxing)
 .stab          0x00022620      0xd5c /home/pcl2483/pedro/jadesoft/util/mcgen/Plib/libherwig58d.a(hwhhvy.o)
                                0xd68 (size before relaxing)
 .stab          0x0002337c      0x9d8 /home/pcl2483/pedro/jadesoft/util/mcgen/Plib/libherwig58d.a(hwhigj.o)
                                0x9e4 (size before relaxing)
 .stab          0x00023d54      0x75c /home/pcl2483/pedro/jadesoft/util/mcgen/Plib/libherwig58d.a(hwhigm.o)
                                0x768 (size before relaxing)
 .stab          0x000244b0      0x7ec /home/pcl2483/pedro/jadesoft/util/mcgen/Plib/libherwig58d.a(hwhigs.o)
                                0x7f8 (size before relaxing)
 .stab          0x00024c9c      0x3c0 /home/pcl2483/pedro/jadesoft/util/mcgen/Plib/libherwig58d.a(hwhigt.o)
                                0x3cc (size before relaxing)
 .stab          0x0002505c     0x13bc /home/pcl2483/pedro/jadesoft/util/mcgen/Plib/libherwig58d.a(hwhigw.o)
                               0x13c8 (size before relaxing)
 .stab          0x00026418      0xd2c /home/pcl2483/pedro/jadesoft/util/mcgen/Plib/libherwig58d.a(hwhigz.o)
                                0xd38 (size before relaxing)
 .stab          0x00027144      0x7a4 /home/pcl2483/pedro/jadesoft/util/mcgen/Plib/libherwig58d.a(hwhph2.o)
                                0x7b0 (size before relaxing)
 .stab          0x000278e8      0x90c /home/pcl2483/pedro/jadesoft/util/mcgen/Plib/libherwig58d.a(hwhpho.o)
                                0x918 (size before relaxing)
 .stab          0x000281f4      0x39c /home/pcl2483/pedro/jadesoft/util/mcgen/Plib/libherwig58d.a(hwhppb.o)
                                0x3a8 (size before relaxing)
 .stab          0x00028590      0x6fc /home/pcl2483/pedro/jadesoft/util/mcgen/Plib/libherwig58d.a(hwhppe.o)
                                0x708 (size before relaxing)
 .stab          0x00028c8c      0x660 /home/pcl2483/pedro/jadesoft/util/mcgen/Plib/libherwig58d.a(hwhpph.o)
                                0x66c (size before relaxing)
 .stab          0x000292ec      0xce4 /home/pcl2483/pedro/jadesoft/util/mcgen/Plib/libherwig58d.a(hwhppm.o)
                                0xcf0 (size before relaxing)
 .stab          0x00029fd0      0x744 /home/pcl2483/pedro/jadesoft/util/mcgen/Plib/libherwig58d.a(hwhppt.o)
                                0x750 (size before relaxing)
 .stab          0x0002a714      0x690 /home/pcl2483/pedro/jadesoft/util/mcgen/Plib/libherwig58d.a(hwhpqs.o)
                                0x69c (size before relaxing)
 .stab          0x0002ada4      0xf9c /home/pcl2483/pedro/jadesoft/util/mcgen/Plib/libherwig58d.a(hwhqcd.o)
                                0xfa8 (size before relaxing)
 .stab          0x0002bd40      0x498 /home/pcl2483/pedro/jadesoft/util/mcgen/Plib/libherwig58d.a(hwhqcp.o)
                                0x4a4 (size before relaxing)
 .stab          0x0002c1d8      0xb04 /home/pcl2483/pedro/jadesoft/util/mcgen/Plib/libherwig58d.a(hwhw1j.o)
                                0xb10 (size before relaxing)
 .stab          0x0002ccdc      0x6fc /home/pcl2483/pedro/jadesoft/util/mcgen/Plib/libherwig58d.a(hwhwex.o)
                                0x708 (size before relaxing)
 .stab          0x0002d3d8      0x990 /home/pcl2483/pedro/jadesoft/util/mcgen/Plib/libherwig58d.a(hwhwpr.o)
                                0x99c (size before relaxing)
 .stab          0x0002dd68      0xd08 /home/pcl2483/pedro/jadesoft/util/mcgen/Plib/libherwig58d.a(hwigin.o)
                                0xd14 (size before relaxing)
 .stab          0x0002ea70      0x5e8 /home/pcl2483/pedro/jadesoft/util/mcgen/Plib/libherwig58d.a(hwmwgt.o)
                                0x5f4 (size before relaxing)
 .stab          0x0002f058      0x360 /home/pcl2483/pedro/jadesoft/util/mcgen/Plib/libherwig58d.a(hwrazm.o)
                                0x36c (size before relaxing)
 .stab          0x0002f3b8      0x378 /home/pcl2483/pedro/jadesoft/util/mcgen/Plib/libherwig58d.a(hwrgau.o)
                                0x384 (size before relaxing)
 .stab          0x0002f730      0x444 /home/pcl2483/pedro/jadesoft/util/mcgen/Plib/libherwig58d.a(hwrgen.o)
                                0x450 (size before relaxing)
 .stab          0x0002fb74      0x318 /home/pcl2483/pedro/jadesoft/util/mcgen/Plib/libherwig58d.a(hwrint.o)
                                0x324 (size before relaxing)
 .stab          0x0002fe8c      0x300 /home/pcl2483/pedro/jadesoft/util/mcgen/Plib/libherwig58d.a(hwrlog.o)
                                0x30c (size before relaxing)
 .stab          0x0003018c      0x3a8 /home/pcl2483/pedro/jadesoft/util/mcgen/Plib/libherwig58d.a(hwrpow.o)
                                0x3b4 (size before relaxing)
 .stab          0x00030534      0x30c /home/pcl2483/pedro/jadesoft/util/mcgen/Plib/libherwig58d.a(hwruni.o)
                                0x318 (size before relaxing)
 .stab          0x00030840     0x108c /home/pcl2483/pedro/jadesoft/util/mcgen/Plib/libherwig58d.a(hwsbrn.o)
                               0x1098 (size before relaxing)
 .stab          0x000318cc      0xba0 /home/pcl2483/pedro/jadesoft/util/mcgen/Plib/libherwig58d.a(hwsfbr.o)
                                0xbac (size before relaxing)
 .stab          0x0003246c     0x16e0 /home/pcl2483/pedro/jadesoft/util/mcgen/Plib/libherwig58d.a(hwsfun.o)
                               0x16ec (size before relaxing)
 .stab          0x00033b4c      0x3fc /home/pcl2483/pedro/jadesoft/util/mcgen/Plib/libherwig58d.a(hwsgam.o)
                                0x408 (size before relaxing)
 .stab          0x00033f48      0x498 /home/pcl2483/pedro/jadesoft/util/mcgen/Plib/libherwig58d.a(hwsgen.o)
                                0x4a4 (size before relaxing)
 .stab          0x000343e0      0x420 /home/pcl2483/pedro/jadesoft/util/mcgen/Plib/libherwig58d.a(hwsgqq.o)
                                0x42c (size before relaxing)
 .stab          0x00034800      0x774 /home/pcl2483/pedro/jadesoft/util/mcgen/Plib/libherwig58d.a(hwsspc.o)
                                0x780 (size before relaxing)
 .stab          0x00034f74      0x408 /home/pcl2483/pedro/jadesoft/util/mcgen/Plib/libherwig58d.a(hwssud.o)
                                0x414 (size before relaxing)
 .stab          0x0003537c      0x6b4 /home/pcl2483/pedro/jadesoft/util/mcgen/Plib/libherwig58d.a(hwstab.o)
                                0x6c0 (size before relaxing)
 .stab          0x00035a30      0x474 /home/pcl2483/pedro/jadesoft/util/mcgen/Plib/libherwig58d.a(hwsval.o)
                                0x480 (size before relaxing)
 .stab          0x00035ea4      0x594 /home/pcl2483/pedro/jadesoft/util/mcgen/Plib/libherwig58d.a(hwuaem.o)
                                0x5a0 (size before relaxing)
 .stab          0x00036438      0x354 /home/pcl2483/pedro/jadesoft/util/mcgen/Plib/libherwig58d.a(hwuaer.o)
                                0x360 (size before relaxing)
 .stab          0x0003678c      0x744 /home/pcl2483/pedro/jadesoft/util/mcgen/Plib/libherwig58d.a(hwualf.o)
                                0x750 (size before relaxing)
 .stab          0x00036ed0      0x588 /home/pcl2483/pedro/jadesoft/util/mcgen/Plib/libherwig58d.a(hwubst.o)
                                0x594 (size before relaxing)
 .stab          0x00037458      0x720 /home/pcl2483/pedro/jadesoft/util/mcgen/Plib/libherwig58d.a(hwucff.o)
                                0x72c (size before relaxing)
 .stab          0x00037b78      0x354 /home/pcl2483/pedro/jadesoft/util/mcgen/Plib/libherwig58d.a(hwudat.o)
                                0x360 (size before relaxing)
 .stab          0x00037ecc      0x2f4 /home/pcl2483/pedro/jadesoft/util/mcgen/Plib/libherwig58d.a(hwuecm.o)
                                0x300 (size before relaxing)
 .stab          0x000381c0      0x474 /home/pcl2483/pedro/jadesoft/util/mcgen/Plib/libherwig58d.a(hwueec.o)
                                0x480 (size before relaxing)
 .stab          0x00038634      0xe04 /home/pcl2483/pedro/jadesoft/util/mcgen/Plib/libherwig58d.a(hwuepr.o)
                                0xe10 (size before relaxing)
 .stab          0x00039438      0x420 /home/pcl2483/pedro/jadesoft/util/mcgen/Plib/libherwig58d.a(hwufne.o)
                                0x42c (size before relaxing)
 .stab          0x00039858     0x19e0 /home/pcl2483/pedro/jadesoft/util/mcgen/Plib/libherwig58d.a(hwuinc.o)
                               0x19ec (size before relaxing)
 .stab          0x0003b238      0x528 /home/pcl2483/pedro/jadesoft/util/mcgen/Plib/libherwig58d.a(hwuine.o)
                                0x534 (size before relaxing)
 .stab          0x0003b760      0x384 /home/pcl2483/pedro/jadesoft/util/mcgen/Plib/libherwig58d.a(hwulb4.o)
                                0x390 (size before relaxing)
 .stab          0x0003bae4      0x2e8 /home/pcl2483/pedro/jadesoft/util/mcgen/Plib/libherwig58d.a(hwuldo.o)
                                0x2f4 (size before relaxing)
 .stab          0x0003bdcc      0x2f4 /home/pcl2483/pedro/jadesoft/util/mcgen/Plib/libherwig58d.a(hwulob.o)
                                0x300 (size before relaxing)
 .stab          0x0003c0c0      0x2f4 /home/pcl2483/pedro/jadesoft/util/mcgen/Plib/libherwig58d.a(hwulof.o)
                                0x300 (size before relaxing)
 .stab          0x0003c3b4      0x2d0 /home/pcl2483/pedro/jadesoft/util/mcgen/Plib/libherwig58d.a(hwumas.o)
                                0x2dc (size before relaxing)
 .stab          0x0003c684      0x360 /home/pcl2483/pedro/jadesoft/util/mcgen/Plib/libherwig58d.a(hwupcm.o)
                                0x36c (size before relaxing)
 .stab          0x0003c9e4      0xa38 /home/pcl2483/pedro/jadesoft/util/mcgen/Plib/libherwig58d.a(hwures.o)
                                0xa44 (size before relaxing)
 .stab          0x0003d41c      0x348 /home/pcl2483/pedro/jadesoft/util/mcgen/Plib/libherwig58d.a(hwurob.o)
                                0x354 (size before relaxing)
 .stab          0x0003d764      0x348 /home/pcl2483/pedro/jadesoft/util/mcgen/Plib/libherwig58d.a(hwurof.o)
                                0x354 (size before relaxing)
 .stab          0x0003daac      0x45c /home/pcl2483/pedro/jadesoft/util/mcgen/Plib/libherwig58d.a(hwurot.o)
                                0x468 (size before relaxing)
 .stab          0x0003df08      0x2dc /home/pcl2483/pedro/jadesoft/util/mcgen/Plib/libherwig58d.a(hwusqr.o)
                                0x2e8 (size before relaxing)
 .stab          0x0003e1e4      0x6b4 /home/pcl2483/pedro/jadesoft/util/mcgen/Plib/libherwig58d.a(hwutab.o)
                                0x6c0 (size before relaxing)
 .stab          0x0003e898      0x2ac /home/pcl2483/pedro/jadesoft/util/mcgen/Plib/libherwig58d.a(hwutim.o)
                                0x2b8 (size before relaxing)
 .stab          0x0003eb44      0x330 /home/pcl2483/pedro/jadesoft/util/mcgen/Plib/libherwig58d.a(hwvdif.o)
                                0x33c (size before relaxing)
 .stab          0x0003ee74      0x324 /home/pcl2483/pedro/jadesoft/util/mcgen/Plib/libherwig58d.a(hwvequ.o)
                                0x330 (size before relaxing)
 .stab          0x0003f198      0x330 /home/pcl2483/pedro/jadesoft/util/mcgen/Plib/libherwig58d.a(hwvsca.o)
                                0x33c (size before relaxing)
 .stab          0x0003f4c8      0x330 /home/pcl2483/pedro/jadesoft/util/mcgen/Plib/libherwig58d.a(hwvsum.o)
                                0x33c (size before relaxing)
 .stab          0x0003f7f8      0x318 /home/pcl2483/pedro/jadesoft/util/mcgen/Plib/libherwig58d.a(hwvzro.o)
                                0x324 (size before relaxing)
 .stab          0x0003fb10      0x684 /home/pcl2483/pedro/jadesoft/util/mcgen/Plib/libherwig58d.a(hwwarn.o)
                                0x690 (size before relaxing)
 .stab          0x00040194      0x2b8 /home/pcl2483/pedro/jadesoft/util/mcgen/Plib/libherwig58d.a(pdfset.o)
                                0x2c4 (size before relaxing)
 .stab          0x0004044c      0x750 /home/pcl2483/pedro/jadesoft/util/mcgen/Plib/libherwig58d.a(sas1d.o)
                                0x75c (size before relaxing)
 .stab          0x00040b9c      0x318 /home/pcl2483/pedro/jadesoft/util/mcgen/Plib/libherwig58d.a(structm.o)
                                0x324 (size before relaxing)
 .stab          0x00040eb4      0x2d0 /home/pcl2483/pedro/jadesoft/util/mcgen/Plib/libherwig58d.a(hvcbvi.o)
                                0x2dc (size before relaxing)
 .stab          0x00041184      0x2d0 /home/pcl2483/pedro/jadesoft/util/mcgen/Plib/libherwig58d.a(hvhbvi.o)
                                0x2dc (size before relaxing)
 .stab          0x00041454      0x294 /home/pcl2483/pedro/jadesoft/util/mcgen/Plib/libherwig58d.a(hwaend.o)
                                0x2a0 (size before relaxing)
 .stab          0x000416e8      0x654 /home/pcl2483/pedro/jadesoft/util/mcgen/Plib/libherwig58d.a(hwbazf.o)
                                0x660 (size before relaxing)
 .stab          0x00041d3c      0x66c /home/pcl2483/pedro/jadesoft/util/mcgen/Plib/libherwig58d.a(hwbcon.o)
                                0x678 (size before relaxing)
 .stab          0x000423a8      0xd68 /home/pcl2483/pedro/jadesoft/util/mcgen/Plib/libherwig58d.a(hwbded.o)
                                0xd74 (size before relaxing)
 .stab          0x00043110     0x1818 /home/pcl2483/pedro/jadesoft/util/mcgen/Plib/libherwig58d.a(hwbdis.o)
                               0x1824 (size before relaxing)
 .stab          0x00044928      0x7a4 /home/pcl2483/pedro/jadesoft/util/mcgen/Plib/libherwig58d.a(hwbfin.o)
                                0x7b0 (size before relaxing)
 .stab          0x000450cc      0xd98 /home/pcl2483/pedro/jadesoft/util/mcgen/Plib/libherwig58d.a(hwbsud.o)
                                0xda4 (size before relaxing)
 .stab          0x00045e64      0x30c /home/pcl2483/pedro/jadesoft/util/mcgen/Plib/libherwig58d.a(hwbsug.o)
                                0x318 (size before relaxing)
 .stab          0x00046170      0x738 /home/pcl2483/pedro/jadesoft/util/mcgen/Plib/libherwig58d.a(hwbsul.o)
                                0x744 (size before relaxing)
 .stab          0x000468a8      0x8dc /home/pcl2483/pedro/jadesoft/util/mcgen/Plib/libherwig58d.a(hwccut.o)
                                0x8e8 (size before relaxing)
 .stab          0x00047184      0x978 /home/pcl2483/pedro/jadesoft/util/mcgen/Plib/libherwig58d.a(hwdboz.o)
                                0x984 (size before relaxing)
 .stab          0x00047afc      0xe58 /home/pcl2483/pedro/jadesoft/util/mcgen/Plib/libherwig58d.a(hwdhig.o)
                                0xe64 (size before relaxing)
 .stab          0x00048954      0x300 /home/pcl2483/pedro/jadesoft/util/mcgen/Plib/libherwig58d.a(hwdpwt.o)
                                0x30c (size before relaxing)
 .stab          0x00048c54      0x990 /home/pcl2483/pedro/jadesoft/util/mcgen/Plib/libherwig58d.a(hwegam.o)
                                0x99c (size before relaxing)
 .stab          0x000495e4      0xb70 /home/pcl2483/pedro/jadesoft/util/mcgen/Plib/libherwig58d.a(hweisr.o)
                                0xb7c (size before relaxing)
 .stab          0x0004a154      0x594 /home/pcl2483/pedro/jadesoft/util/mcgen/Plib/libherwig58d.a(hweone.o)
                                0x5a0 (size before relaxing)
 .stab          0x0004a6e8      0x6d8 /home/pcl2483/pedro/jadesoft/util/mcgen/Plib/libherwig58d.a(hwetwo.o)
                                0x6e4 (size before relaxing)
 .stab          0x0004adc0      0x558 /home/pcl2483/pedro/jadesoft/util/mcgen/Plib/libherwig58d.a(hwhew0.o)
                                0x564 (size before relaxing)
 .stab          0x0004b318      0x3fc /home/pcl2483/pedro/jadesoft/util/mcgen/Plib/libherwig58d.a(hwhew1.o)
                                0x408 (size before relaxing)
 .stab          0x0004b714      0x894 /home/pcl2483/pedro/jadesoft/util/mcgen/Plib/libherwig58d.a(hwhew2.o)
                                0x8a0 (size before relaxing)
 .stab          0x0004bfa8      0x630 /home/pcl2483/pedro/jadesoft/util/mcgen/Plib/libherwig58d.a(hwhew3.o)
                                0x63c (size before relaxing)
 .stab          0x0004c5d8      0x300 /home/pcl2483/pedro/jadesoft/util/mcgen/Plib/libherwig58d.a(hwhew4.o)
                                0x30c (size before relaxing)
 .stab          0x0004c8d8      0x6e4 /home/pcl2483/pedro/jadesoft/util/mcgen/Plib/libherwig58d.a(hwhew5.o)
                                0x6f0 (size before relaxing)
 .stab          0x0004cfbc      0xa50 /home/pcl2483/pedro/jadesoft/util/mcgen/Plib/libherwig58d.a(hwhiga.o)
                                0xa5c (size before relaxing)
 .stab          0x0004da0c      0x978 /home/pcl2483/pedro/jadesoft/util/mcgen/Plib/libherwig58d.a(hwhigb.o)
                                0x984 (size before relaxing)
 .stab          0x0004e384      0x8f4 /home/pcl2483/pedro/jadesoft/util/mcgen/Plib/libherwig58d.a(hwhigy.o)
                                0x900 (size before relaxing)
 .stab          0x0004ec78      0x3b4 /home/pcl2483/pedro/jadesoft/util/mcgen/Plib/libherwig58d.a(hwrexq.o)
                                0x3c0 (size before relaxing)
 .stab          0x0004f02c      0x474 /home/pcl2483/pedro/jadesoft/util/mcgen/Plib/libherwig58d.a(hwsdgg.o)
                                0x480 (size before relaxing)
 .stab          0x0004f4a0      0x720 /home/pcl2483/pedro/jadesoft/util/mcgen/Plib/libherwig58d.a(hwsdgq.o)
                                0x72c (size before relaxing)
 .stab          0x0004fbc0      0x498 /home/pcl2483/pedro/jadesoft/util/mcgen/Plib/libherwig58d.a(hwubpr.o)
                                0x4a4 (size before relaxing)
 .stab          0x00050058      0x42c /home/pcl2483/pedro/jadesoft/util/mcgen/Plib/libherwig58d.a(hwuci2.o)
                                0x438 (size before relaxing)
 .stab          0x00050484      0x678 /home/pcl2483/pedro/jadesoft/util/mcgen/Plib/libherwig58d.a(hwuedt.o)
                                0x684 (size before relaxing)
 .stab          0x00050afc      0x5a0 /home/pcl2483/pedro/jadesoft/util/mcgen/Plib/libherwig58d.a(hwuemv.o)
                                0x5ac (size before relaxing)
 .stab          0x0005109c      0x4f8 /home/pcl2483/pedro/jadesoft/util/mcgen/Plib/libherwig58d.a(hwugau.o)
                                0x504 (size before relaxing)
 .stab          0x00051594      0x5ac /home/pcl2483/pedro/jadesoft/util/mcgen/Plib/libherwig58d.a(hwuidt.o)
                                0x5b8 (size before relaxing)
 .stab          0x00051b40      0x384 /home/pcl2483/pedro/jadesoft/util/mcgen/Plib/libherwig58d.a(hwulf4.o)
                                0x390 (size before relaxing)
 .stab          0x00051ec4      0x63c /home/pcl2483/pedro/jadesoft/util/mcgen/Plib/libherwig58d.a(hwuli2.o)
                                0x648 (size before relaxing)
 .stab          0x00052500      0x354 /home/pcl2483/pedro/jadesoft/util/mcgen/Plib/libherwig58d.a(hwvdot.o)
                                0x360 (size before relaxing)
 .stab          0x00052854      0x924 /home/pcl2483/pedro/jadesoft/util/mcgen/Plib/libherwig58d.a(pystig.o)
                                0x930 (size before relaxing)
 .stab          0x00053178      0x708 /home/pcl2483/pedro/jadesoft/util/mcgen/Plib/libherwig58d.a(pystvg.o)
                                0x714 (size before relaxing)
 .stab          0x00053880      0x30c /home/pcl2483/pedro/jadesoft/util/mcgen/Plib/libherwig58d.a(hwbsu1.o)
                                0x318 (size before relaxing)
 .stab          0x00053b8c      0x2f4 /home/pcl2483/pedro/jadesoft/util/mcgen/Plib/libherwig58d.a(hwbsu2.o)
                                0x300 (size before relaxing)
 .stab          0x00053e80      0x378 /home/pcl2483/pedro/jadesoft/util/mcgen/Plib/libherwig58d.a(hwdhgc.o)
                                0x384 (size before relaxing)
 .stab          0x000541f8      0x5c4 /home/pcl2483/pedro/jadesoft/util/mcgen/Plib/libherwig58d.a(hwdhgf.o)
                                0x5d0 (size before relaxing)
 .stab          0x000547bc      0x66c /home/pcl2483/pedro/jadesoft/util/mcgen/Plib/libherwig58d.a(hwhig1.o)
                                0x678 (size before relaxing)
 .stab          0x00054e28      0x3cc /home/pcl2483/pedro/jadesoft/util/mcgen/Plib/libjt74opal.a(luchge.o)
                                0x3d8 (size before relaxing)
 .stab          0x000551f4      0x6fc /home/pcl2483/pedro/jadesoft/util/mcgen/Plib/libjt74opal.a(lucomp.o)
                                0x708 (size before relaxing)
 .stab          0x000558f0      0x2c4 /home/pcl2483/pedro/jadesoft/util/mcgen/Plib/libjt74opal.a(ludata.o)
                                0x2d0 (size before relaxing)
 .stab          0x00055bb4     0x10b0 /home/pcl2483/pedro/jadesoft/util/mcgen/Plib/libjt74opal.a(luedit.o)
                               0x10bc (size before relaxing)
 .stab          0x00056c64      0x498 /home/pcl2483/pedro/jadesoft/util/mcgen/Plib/libjt74opal.a(luerrm.o)
                                0x4a4 (size before relaxing)
 .stab          0x000570fc      0x828 /home/pcl2483/pedro/jadesoft/util/mcgen/Plib/libjt74opal.a(luexec.o)
                                0x834 (size before relaxing)
 .stab          0x00057924      0x990 /home/pcl2483/pedro/jadesoft/util/mcgen/Plib/libjt74opal.a(luhepc.o)
                                0x99c (size before relaxing)
 .stab          0x000582b4     0x1dac /home/pcl2483/pedro/jadesoft/util/mcgen/Plib/libjt74opal.a(luindf.o)
                               0x1db8 (size before relaxing)
 .stab          0x0005a060     0x129c /home/pcl2483/pedro/jadesoft/util/mcgen/Plib/libjt74opal.a(lukfdi.o)
                               0x12a8 (size before relaxing)
 .stab          0x0005b2fc     0x1758 /home/pcl2483/pedro/jadesoft/util/mcgen/Plib/libjt74opal.a(lulist.o)
                               0x1764 (size before relaxing)
 .stab          0x0005ca54      0x798 /home/pcl2483/pedro/jadesoft/util/mcgen/Plib/libjt74opal.a(lulogo.o)
                                0x7a4 (size before relaxing)
 .stab          0x0005d1ec      0x954 /home/pcl2483/pedro/jadesoft/util/mcgen/Plib/libjt74opal.a(luname.o)
                                0x960 (size before relaxing)
 .stab          0x0005db40     0x1554 /home/pcl2483/pedro/jadesoft/util/mcgen/Plib/libjt74opal.a(luprep.o)
                               0x1560 (size before relaxing)
 .stab          0x0005f094      0x36c /home/pcl2483/pedro/jadesoft/util/mcgen/Plib/libjt74opal.a(luptdi.o)
                                0x378 (size before relaxing)
 .stab          0x0005f400      0xa14 /home/pcl2483/pedro/jadesoft/util/mcgen/Plib/libjt74opal.a(lurobo.o)
                                0xa20 (size before relaxing)
 .stab          0x0005fe14     0x36fc /home/pcl2483/pedro/jadesoft/util/mcgen/Plib/libjt74opal.a(lushow.o)
                               0x3708 (size before relaxing)
 .stab          0x00063510     0x3fd8 /home/pcl2483/pedro/jadesoft/util/mcgen/Plib/libjt74opal.a(lustrf.o)
                               0x3fe4 (size before relaxing)
 .stab          0x000674e8     0x31d4 /home/pcl2483/pedro/jadesoft/util/mcgen/Plib/libjt74opal.a(lutabu.o)
                               0x31e0 (size before relaxing)
 .stab          0x0006a6bc      0x8e8 /home/pcl2483/pedro/jadesoft/util/mcgen/Plib/libjt74opal.a(luzdis.o)
                                0x8f4 (size before relaxing)
 .stab          0x0006afa4      0x5dc /home/pcl2483/pedro/jadesoft/util/mcgen/Plib/libjt74opal.a(plu.o)
                                0x5e8 (size before relaxing)
 .stab          0x0006b580      0x648 /home/pcl2483/pedro/jadesoft/util/mcgen/Plib/libjt74opal.a(rlu.o)
                                0x654 (size before relaxing)
 .stab          0x0006bbc8      0x378 /home/pcl2483/pedro/jadesoft/util/mcgen/Plib/libjt74opal.a(ulangl.o)
                                0x384 (size before relaxing)
 .stab          0x0006bf40      0x63c /home/pcl2483/pedro/jadesoft/util/mcgen/Plib/libjt74opal.a(ulmass.o)
                                0x648 (size before relaxing)
 .stab          0x0006c57c      0xc9c /home/pcl2483/pedro/jadesoft/util/mcgen/Plib/libjt74opal.a(luboei.o)
                                0xca8 (size before relaxing)
 .stab          0x0006d218     0x2d30 /home/pcl2483/pedro/jadesoft/util/mcgen/Plib/libjt74opal.a(ludecy.o)
                               0x2d3c (size before relaxing)
 .stab          0x0006ff48      0xa14 /home/pcl2483/pedro/jadesoft/util/mcgen/Plib/libjt74opal.a(lutaud.o)
                                0xa20 (size before relaxing)
 .stab          0x0007095c      0x39c /home/pcl2483/pedro/jadesoft/util/mcgen/Plib/libjt74opal.a(taupol.o)
                                0x3a8 (size before relaxing)
 .stab          0x00070cf8      0x7b0 /home/pcl2483/pedro/jadesoft/util/mcgen/Plib/libjt74opal.a(dexay.o)
                                0x7bc (size before relaxing)
 .stab          0x000714a8      0x60c /home/pcl2483/pedro/jadesoft/util/mcgen/Plib/libjt74opal.a(dexay1.o)
                                0x618 (size before relaxing)
 .stab          0x00071ab4      0x420 /home/pcl2483/pedro/jadesoft/util/mcgen/Plib/libjt74opal.a(dexel.o)
                                0x42c (size before relaxing)
 .stab          0x00071ed4      0x390 /home/pcl2483/pedro/jadesoft/util/mcgen/Plib/libjt74opal.a(dexkk.o)
                                0x39c (size before relaxing)
 .stab          0x00072264      0x42c /home/pcl2483/pedro/jadesoft/util/mcgen/Plib/libjt74opal.a(dexks.o)
                                0x438 (size before relaxing)
 .stab          0x00072690      0x42c /home/pcl2483/pedro/jadesoft/util/mcgen/Plib/libjt74opal.a(dexmu.o)
                                0x438 (size before relaxing)
 .stab          0x00072abc      0x42c /home/pcl2483/pedro/jadesoft/util/mcgen/Plib/libjt74opal.a(dexnew.o)
                                0x438 (size before relaxing)
 .stab          0x00072ee8      0x390 /home/pcl2483/pedro/jadesoft/util/mcgen/Plib/libjt74opal.a(dexpi.o)
                                0x39c (size before relaxing)
 .stab          0x00073278      0x420 /home/pcl2483/pedro/jadesoft/util/mcgen/Plib/libjt74opal.a(dexro.o)
                                0x42c (size before relaxing)
 .stab          0x00073698      0x438 /home/pcl2483/pedro/jadesoft/util/mcgen/Plib/libjt74opal.a(dwlnew.o)
                                0x444 (size before relaxing)
 .stab          0x00073ad0      0x3b4 /home/pcl2483/pedro/jadesoft/util/mcgen/Plib/libjt74opal.a(dwluaa.o)
                                0x3c0 (size before relaxing)
 .stab          0x00073e84      0x348 /home/pcl2483/pedro/jadesoft/util/mcgen/Plib/libjt74opal.a(dwluel.o)
                                0x354 (size before relaxing)
 .stab          0x000741cc      0x324 /home/pcl2483/pedro/jadesoft/util/mcgen/Plib/libjt74opal.a(dwlukk.o)
                                0x330 (size before relaxing)
 .stab          0x000744f0      0x420 /home/pcl2483/pedro/jadesoft/util/mcgen/Plib/libjt74opal.a(dwluks.o)
                                0x42c (size before relaxing)
 .stab          0x00074910      0x348 /home/pcl2483/pedro/jadesoft/util/mcgen/Plib/libjt74opal.a(dwlumu.o)
                                0x354 (size before relaxing)
 .stab          0x00074c58      0x324 /home/pcl2483/pedro/jadesoft/util/mcgen/Plib/libjt74opal.a(dwlupi.o)
                                0x330 (size before relaxing)
 .stab          0x00074f7c      0x354 /home/pcl2483/pedro/jadesoft/util/mcgen/Plib/libjt74opal.a(dwluro.o)
                                0x360 (size before relaxing)
 .stab          0x000752d0      0x384 /home/pcl2483/pedro/jadesoft/util/mcgen/Plib/libjt74opal.a(dwrph.o)
                                0x390 (size before relaxing)
 .stab          0x00075654      0x528 /home/pcl2483/pedro/jadesoft/util/mcgen/Plib/libjt74opal.a(filhep.o)
                                0x534 (size before relaxing)
 .stab          0x00075b7c      0x8dc /home/pcl2483/pedro/jadesoft/util/mcgen/Plib/libjt74opal.a(initdk.o)
                                0x8e8 (size before relaxing)
 .stab          0x00076458      0x420 /home/pcl2483/pedro/jadesoft/util/mcgen/Plib/libjt74opal.a(jaker.o)
                                0x42c (size before relaxing)
 .stab          0x00076878      0x4f8 /home/pcl2483/pedro/jadesoft/util/mcgen/Plib/libjt74opal.a(lunpik.o)
                                0x504 (size before relaxing)
 .stab          0x00076d70      0x7e0 /home/pcl2483/pedro/jadesoft/util/mcgen/Plib/libjt74opal.a(dadmel.o)
                                0x7ec (size before relaxing)
 .stab          0x00077550      0x5a0 /home/pcl2483/pedro/jadesoft/util/mcgen/Plib/libjt74opal.a(dadmkk.o)
                                0x5ac (size before relaxing)
 .stab          0x00077af0      0x81c /home/pcl2483/pedro/jadesoft/util/mcgen/Plib/libjt74opal.a(dadmks.o)
                                0x828 (size before relaxing)
 .stab          0x0007830c      0x7b0 /home/pcl2483/pedro/jadesoft/util/mcgen/Plib/libjt74opal.a(dadmmu.o)
                                0x7bc (size before relaxing)
 .stab          0x00078abc      0x594 /home/pcl2483/pedro/jadesoft/util/mcgen/Plib/libjt74opal.a(dadmpi.o)
                                0x5a0 (size before relaxing)
 .stab          0x00079050      0x78c /home/pcl2483/pedro/jadesoft/util/mcgen/Plib/libjt74opal.a(dadmro.o)
                                0x798 (size before relaxing)
 .stab          0x000797dc      0xa44 /home/pcl2483/pedro/jadesoft/util/mcgen/Plib/libjt74opal.a(dadnew.o)
                                0xa50 (size before relaxing)
 .stab          0x0007a220      0x438 /home/pcl2483/pedro/jadesoft/util/mcgen/Plib/libjt74opal.a(dexaa.o)
                                0x444 (size before relaxing)
 .stab          0x0007a658     0x10c8 /home/pcl2483/pedro/jadesoft/util/mcgen/Plib/libjt74opal.a(dph4pi.o)
                               0x10d4 (size before relaxing)
 .stab          0x0007b720      0xe58 /home/pcl2483/pedro/jadesoft/util/mcgen/Plib/libjt74opal.a(dph5pi.o)
                                0xe64 (size before relaxing)
 .stab          0x0007c578      0xe4c /home/pcl2483/pedro/jadesoft/util/mcgen/Plib/libjt74opal.a(dphnpi.o)
                                0xe58 (size before relaxing)
 .stab          0x0007d3c4      0x420 /home/pcl2483/pedro/jadesoft/util/mcgen/Plib/libjt74opal.a(dphsel.o)
                                0x42c (size before relaxing)
 .stab          0x0007d7e4      0xa68 /home/pcl2483/pedro/jadesoft/util/mcgen/Plib/libjt74opal.a(dphsks.o)
                                0xa74 (size before relaxing)
 .stab          0x0007e24c      0x420 /home/pcl2483/pedro/jadesoft/util/mcgen/Plib/libjt74opal.a(dphsmu.o)
                                0x42c (size before relaxing)
 .stab          0x0007e66c      0x42c /home/pcl2483/pedro/jadesoft/util/mcgen/Plib/libjt74opal.a(dphspk.o)
                                0x438 (size before relaxing)
 .stab          0x0007ea98      0x774 /home/pcl2483/pedro/jadesoft/util/mcgen/Plib/libjt74opal.a(dphsrk.o)
                                0x780 (size before relaxing)
 .stab          0x0007f20c      0x6f0 /home/pcl2483/pedro/jadesoft/util/mcgen/Plib/libjt74opal.a(dphsro.o)
                                0x6fc (size before relaxing)
 .stab          0x0007f8fc      0xd80 /home/pcl2483/pedro/jadesoft/util/mcgen/Plib/libjt74opal.a(dphtre.o)
                                0xd8c (size before relaxing)
 .stab          0x0008067c      0xae0 /home/pcl2483/pedro/jadesoft/util/mcgen/Plib/libjt74opal.a(drcmu.o)
                                0xaec (size before relaxing)
 .stab          0x0008115c      0x324 /home/pcl2483/pedro/jadesoft/util/mcgen/Plib/libjt74opal.a(dwluph.o)
                                0x330 (size before relaxing)
 .stab          0x00081480      0x300 /home/pcl2483/pedro/jadesoft/util/mcgen/Plib/libjt74opal.a(fpirho.o)
                                0x30c (size before relaxing)
 .stab          0x00081780      0x30c /home/pcl2483/pedro/jadesoft/util/mcgen/Plib/libjt74opal.a(fpirk.o)
                                0x318 (size before relaxing)
 .stab          0x00081a8c      0x3a8 /home/pcl2483/pedro/jadesoft/util/mcgen/Plib/libjt74opal.a(rotor2.o)
                                0x3b4 (size before relaxing)
 .stab          0x00081e34      0x390 /home/pcl2483/pedro/jadesoft/util/mcgen/Plib/libjt74opal.a(rotor3.o)
                                0x39c (size before relaxing)
 .stab          0x000821c4      0x2f4 /home/pcl2483/pedro/jadesoft/util/mcgen/Plib/libjt74opal.a(rotpol.o)
                                0x300 (size before relaxing)
 .stab          0x000824b8      0x2f4 /home/pcl2483/pedro/jadesoft/util/mcgen/Plib/libjt74opal.a(rotpox.o)
                                0x300 (size before relaxing)
 .stab          0x000827ac      0x600 /home/pcl2483/pedro/jadesoft/util/mcgen/Plib/libjt74opal.a(sigee.o)
                                0x60c (size before relaxing)
 .stab          0x00082dac      0x360 /home/pcl2483/pedro/jadesoft/util/mcgen/Plib/libjt74opal.a(sphera.o)
                                0x36c (size before relaxing)
 .stab          0x0008310c      0x360 /home/pcl2483/pedro/jadesoft/util/mcgen/Plib/libjt74opal.a(spherd.o)
                                0x36c (size before relaxing)
 .stab          0x0008346c      0x3c0 /home/pcl2483/pedro/jadesoft/util/mcgen/Plib/libjt74opal.a(bostd3.o)
                                0x3cc (size before relaxing)
 .stab          0x0008382c      0x3c0 /home/pcl2483/pedro/jadesoft/util/mcgen/Plib/libjt74opal.a(bostr3.o)
                                0x3cc (size before relaxing)
 .stab          0x00083bec      0x444 /home/pcl2483/pedro/jadesoft/util/mcgen/Plib/libjt74opal.a(bwigs.o)
                                0x450 (size before relaxing)
 .stab          0x00084030      0x9a8 /home/pcl2483/pedro/jadesoft/util/mcgen/Plib/libjt74opal.a(choice.o)
                                0x9b4 (size before relaxing)
 .stab          0x000849d8      0x780 /home/pcl2483/pedro/jadesoft/util/mcgen/Plib/libjt74opal.a(dadmaa.o)
                                0x78c (size before relaxing)
 .stab          0x00085158      0x450 /home/pcl2483/pedro/jadesoft/util/mcgen/Plib/libjt74opal.a(dam4pi.o)
                                0x45c (size before relaxing)
 .stab          0x000855a8      0x804 /home/pcl2483/pedro/jadesoft/util/mcgen/Plib/libjt74opal.a(dampog.o)
                                0x810 (size before relaxing)
 .stab          0x00085dac      0xb10 /home/pcl2483/pedro/jadesoft/util/mcgen/Plib/libjt74opal.a(damppk.o)
                                0xb1c (size before relaxing)
 .stab          0x000868bc      0x378 /home/pcl2483/pedro/jadesoft/util/mcgen/Plib/libjt74opal.a(dampry.o)
                                0x384 (size before relaxing)
 .stab          0x00086c34      0x45c /home/pcl2483/pedro/jadesoft/util/mcgen/Plib/libjt74opal.a(dcdmas.o)
                                0x468 (size before relaxing)
 .stab          0x00087090      0x42c /home/pcl2483/pedro/jadesoft/util/mcgen/Plib/libjt74opal.a(dphsaa.o)
                                0x438 (size before relaxing)
 .stab          0x000874bc      0x594 /home/pcl2483/pedro/jadesoft/util/mcgen/Plib/libjt74opal.a(form1.o)
                                0x5a0 (size before relaxing)
 .stab          0x00087a50      0x624 /home/pcl2483/pedro/jadesoft/util/mcgen/Plib/libjt74opal.a(form2.o)
                                0x630 (size before relaxing)
 .stab          0x00088074      0x318 /home/pcl2483/pedro/jadesoft/util/mcgen/Plib/libjt74opal.a(form3.o)
                                0x324 (size before relaxing)
 .stab          0x0008838c      0x6cc /home/pcl2483/pedro/jadesoft/util/mcgen/Plib/libjt74opal.a(form4.o)
                                0x6d8 (size before relaxing)
 .stab          0x00088a58      0x570 /home/pcl2483/pedro/jadesoft/util/mcgen/Plib/libjt74opal.a(form5.o)
                                0x57c (size before relaxing)
 .stab          0x00088fc8      0x4a4 /home/pcl2483/pedro/jadesoft/util/mcgen/Plib/libjt74opal.a(formom.o)
                                0x4b0 (size before relaxing)
 .stab          0x0008946c      0x3fc /home/pcl2483/pedro/jadesoft/util/mcgen/Plib/libjt74opal.a(fpik.o)
                                0x408 (size before relaxing)
 .stab          0x00089868      0x420 /home/pcl2483/pedro/jadesoft/util/mcgen/Plib/libjt74opal.a(fpikm.o)
                                0x42c (size before relaxing)
 .stab          0x00089c88      0x474 /home/pcl2483/pedro/jadesoft/util/mcgen/Plib/libjt74opal.a(fpikmd.o)
                                0x480 (size before relaxing)
 .stab          0x0008a0fc      0x30c /home/pcl2483/pedro/jadesoft/util/mcgen/Plib/libjt74opal.a(gfun.o)
                                0x318 (size before relaxing)
 .stab          0x0008a408      0x474 /home/pcl2483/pedro/jadesoft/util/mcgen/Plib/libjt74opal.a(prod5.o)
                                0x480 (size before relaxing)
 .stab          0x0008a87c      0x3a8 /home/pcl2483/pedro/jadesoft/util/mcgen/Plib/libjt74opal.a(rotod2.o)
                                0x3b4 (size before relaxing)
 .stab          0x0008ac24      0x3a8 /home/pcl2483/pedro/jadesoft/util/mcgen/Plib/libjt74opal.a(rotod3.o)
                                0x3b4 (size before relaxing)
 .stab          0x0008afcc      0x66c /home/pcl2483/pedro/jadesoft/util/mcgen/Plib/libjt74opal.a(sqm2.o)
                                0x678 (size before relaxing)
 .stab          0x0008b638      0x810 /home/pcl2483/pedro/jadesoft/util/mcgen/Plib/libjt74opal.a(thb.o)
                                0x81c (size before relaxing)
 .stab          0x0008be48      0x30c /home/pcl2483/pedro/jadesoft/util/mcgen/Plib/libjt74opal.a(wigfor.o)
                                0x318 (size before relaxing)
 .stab          0x0008c154      0x3cc /home/pcl2483/pedro/jadesoft/util/mcgen/Plib/libjt74opal.a(bwig.o)
                                0x3d8 (size before relaxing)
 .stab          0x0008c520      0x3cc /home/pcl2483/pedro/jadesoft/util/mcgen/Plib/libjt74opal.a(bwigm.o)
                                0x3d8 (size before relaxing)
 .stab          0x0008c8ec      0x4b0 /home/pcl2483/pedro/jadesoft/util/mcgen/Plib/libjt74opal.a(claxi.o)
                                0x4bc (size before relaxing)
 .stab          0x0008cd9c      0x300 /home/pcl2483/pedro/jadesoft/util/mcgen/Plib/libjt74opal.a(clnut.o)
                                0x30c (size before relaxing)
 .stab          0x0008d09c      0x354 /home/pcl2483/pedro/jadesoft/util/mcgen/Plib/libjt74opal.a(clvec.o)
                                0x360 (size before relaxing)
 .stab          0x0008d3f0      0xe58 /home/pcl2483/pedro/jadesoft/util/mcgen/Plib/libjt74opal.a(curr.o)
                                0xe64 (size before relaxing)
 .stab          0x0008e248      0x558 /home/pcl2483/pedro/jadesoft/util/mcgen/Plib/libjt74opal.a(dilog.o)
                                0x564 (size before relaxing)
 .stab          0x0008e7a0      0xe28 /home/pcl2483/pedro/jadesoft/util/mcgen/Plib/libckern105.a(ckern.o)
                                0xe34 (size before relaxing)
 .stab          0x0008f5c8      0x600 /home/pcl2483/pedro/jadesoft/util/mcgen/Plib/libckern105.a(cksord.o)
                                0x60c (size before relaxing)
 .stab          0x0008fbc8      0x48c /home/pcl2483/pedro/jadesoft/util/mcgen/Plib/libckern105.a(cnjet.o)
                                0x498 (size before relaxing)
 .stab          0x00090054      0x45c /home/pcl2483/pedro/jadesoft/util/mcgen/Plib/libpx114.a(pxang3.o)
                                0x468 (size before relaxing)
 .stab          0x000904b0      0x3d8 /home/pcl2483/pedro/jadesoft/util/mcgen/Plib/libpx114.a(pxanxy.o)
                                0x3e4 (size before relaxing)
 .stab          0x00090888      0xb94 /home/pcl2483/pedro/jadesoft/util/mcgen/Plib/libpx114.a(pxcone.o)
                                0xba0 (size before relaxing)
 .stab          0x0009141c      0x330 /home/pcl2483/pedro/jadesoft/util/mcgen/Plib/libpx114.a(pxcopv.o)
                                0x33c (size before relaxing)
 .stab          0x0009174c      0x4b0 /home/pcl2483/pedro/jadesoft/util/mcgen/Plib/libpx114.a(pxjpdg.o)
                                0x4bc (size before relaxing)
 .stab          0x00091bfc      0x7a4 /home/pcl2483/pedro/jadesoft/util/mcgen/Plib/libpx114.a(pxjsp3.o)
                                0x7b0 (size before relaxing)
 .stab          0x000923a0      0x834 /home/pcl2483/pedro/jadesoft/util/mcgen/Plib/libpx114.a(pxlsp3.o)
                                0x840 (size before relaxing)
 .stab          0x00092bd4      0x5c4 /home/pcl2483/pedro/jadesoft/util/mcgen/Plib/libpx114.a(pxlth4.o)
                                0x5d0 (size before relaxing)
 .stab          0x00093198      0xf30 /home/pcl2483/pedro/jadesoft/util/mcgen/Plib/libpx114.a(pxlut3.o)
                                0xf3c (size before relaxing)
 .stab          0x000940c8      0x390 /home/pcl2483/pedro/jadesoft/util/mcgen/Plib/libpx114.a(pxlzf5.o)
                                0x39c (size before relaxing)
 .stab          0x00094458      0x57c /home/pcl2483/pedro/jadesoft/util/mcgen/Plib/libpx114.a(pxmmbb.o)
                                0x588 (size before relaxing)
 .stab          0x000949d4      0x3fc /home/pcl2483/pedro/jadesoft/util/mcgen/Plib/libpx114.a(pxnorv.o)
                                0x408 (size before relaxing)
 .stab          0x00094dd0      0x858 /home/pcl2483/pedro/jadesoft/util/mcgen/Plib/libpx114.a(pxolap.o)
                                0x864 (size before relaxing)
 .stab          0x00095628      0x594 /home/pcl2483/pedro/jadesoft/util/mcgen/Plib/libpx114.a(pxord.o)
                                0x5a0 (size before relaxing)
 .stab          0x00095bbc      0x42c /home/pcl2483/pedro/jadesoft/util/mcgen/Plib/libpx114.a(pxplt3.o)
                                0x438 (size before relaxing)
 .stab          0x00095fe8      0x384 /home/pcl2483/pedro/jadesoft/util/mcgen/Plib/libpx114.a(pxplu3.o)
                                0x390 (size before relaxing)
 .stab          0x0009636c      0x510 /home/pcl2483/pedro/jadesoft/util/mcgen/Plib/libpx114.a(pxprcv.o)
                                0x51c (size before relaxing)
 .stab          0x0009687c      0x504 /home/pcl2483/pedro/jadesoft/util/mcgen/Plib/libpx114.a(pxprrv.o)
                                0x510 (size before relaxing)
 .stab          0x00096d80      0x498 /home/pcl2483/pedro/jadesoft/util/mcgen/Plib/libpx114.a(pxrap4.o)
                                0x4a4 (size before relaxing)
 .stab          0x00097218      0x444 /home/pcl2483/pedro/jadesoft/util/mcgen/Plib/libpx114.a(pxrmx3.o)
                                0x450 (size before relaxing)
 .stab          0x0009765c      0x348 /home/pcl2483/pedro/jadesoft/util/mcgen/Plib/libpx114.a(pxrob3.o)
                                0x354 (size before relaxing)
 .stab          0x000979a4      0x348 /home/pcl2483/pedro/jadesoft/util/mcgen/Plib/libpx114.a(pxrof3.o)
                                0x354 (size before relaxing)
 .stab          0x00097cec      0x63c /home/pcl2483/pedro/jadesoft/util/mcgen/Plib/libpx114.a(pxsear.o)
                                0x648 (size before relaxing)
 .stab          0x00098328      0x570 /home/pcl2483/pedro/jadesoft/util/mcgen/Plib/libpx114.a(pxsorv.o)
                                0x57c (size before relaxing)
 .stab          0x00098898      0x588 /home/pcl2483/pedro/jadesoft/util/mcgen/Plib/libpx114.a(pxtry.o)
                                0x594 (size before relaxing)
 .stab          0x00098e20      0x444 /home/pcl2483/pedro/jadesoft/util/mcgen/Plib/libpx114.a(pxuvec.o)
                                0x450 (size before relaxing)
 .stab          0x00099264      0x324 /home/pcl2483/pedro/jadesoft/util/mcgen/Plib/libpx114.a(pxzerv.o)
                                0x330 (size before relaxing)
 .stab          0x00099588      0xf3c /home/pcl2483/pedro/jadesoft/util/mcgen/Plib/libpx114.a(ykern.o)
                                0xf48 (size before relaxing)
 .stab          0x0009a4c4      0x42c /home/pcl2483/pedro/jadesoft/util/mcgen/Plib/libpx114.a(ynjet.o)
                                0x438 (size before relaxing)
 .stab          0x0009a8f0      0x474 /home/pcl2483/pedro/jadesoft/util/mcgen/Plib/libpx114.a(yyjet.o)
                                0x480 (size before relaxing)
 .stab          0x0009ad64      0x354 /home/pcl2483/pedro/jadesoft/util/mcgen/Plib/libpx114.a(pxaddv.o)
                                0x360 (size before relaxing)
 .stab          0x0009b0b8      0x9a8 /home/pcl2483/pedro/jadesoft/util/mcgen/Plib/libpx114.a(pxdiam.o)
                                0x9b4 (size before relaxing)
 .stab          0x0009ba60      0x3d8 /home/pcl2483/pedro/jadesoft/util/mcgen/Plib/libpx114.a(pxmulm.o)
                                0x3e4 (size before relaxing)
 .stab          0x0009be38      0x408 /home/pcl2483/pedro/jadesoft/util/mcgen/Plib/libpx114.a(pxnew.o)
                                0x414 (size before relaxing)
 .stab          0x0009c240      0x36c /home/pcl2483/pedro/jadesoft/util/mcgen/Plib/libpx114.a(pxsame.o)
                                0x378 (size before relaxing)
 .stab          0x0009c5ac      0x3a8 /home/pcl2483/pedro/jadesoft/util/mcgen/Plib/libpx114.a(pxunim.o)
                                0x3b4 (size before relaxing)
 .stab          0x0009c954      0xd80 /usr/lib/gcc-lib/i686-pc-linux-gnu/2.95.3/libg2c.a(close.o)
                                0xdc8 (size before relaxing)
 .stab          0x0009d6d4      0x1bc /usr/lib/gcc-lib/i686-pc-linux-gnu/2.95.3/libg2c.a(dolio.o)
                                0x3fc (size before relaxing)
 .stab          0x0009d890      0x5d0 /usr/lib/gcc-lib/i686-pc-linux-gnu/2.95.3/libg2c.a(due.o)
                                0xdec (size before relaxing)
 .stab          0x0009de60      0x6c0 /usr/lib/gcc-lib/i686-pc-linux-gnu/2.95.3/libg2c.a(endfile.o)
                                0xf18 (size before relaxing)
 .stab          0x0009e520     0x13a4 /usr/lib/gcc-lib/i686-pc-linux-gnu/2.95.3/libg2c.a(err.o)
                               0x1554 (size before relaxing)
 .stab          0x0009f8c4     0x15a8 /usr/lib/gcc-lib/i686-pc-linux-gnu/2.95.3/libg2c.a(fmt.o)
                               0x1dc4 (size before relaxing)
 .stab          0x000a0e6c      0x93c /usr/lib/gcc-lib/i686-pc-linux-gnu/2.95.3/libg2c.a(iio.o)
                               0x1188 (size before relaxing)
 .stab          0x000a17a8      0x678 /usr/lib/gcc-lib/i686-pc-linux-gnu/2.95.3/libg2c.a(inquire.o)
                                0xe94 (size before relaxing)
 .stab          0x000a1e20     0x1a28 /usr/lib/gcc-lib/i686-pc-linux-gnu/2.95.3/libg2c.a(lread.o)
                               0x22b0 (size before relaxing)
 .stab          0x000a3848      0xe94 /usr/lib/gcc-lib/i686-pc-linux-gnu/2.95.3/libg2c.a(open.o)
                               0x16d4 (size before relaxing)
 .stab          0x000a46dc     0x17f4 /usr/lib/gcc-lib/i686-pc-linux-gnu/2.95.3/libg2c.a(rdfmt.o)
                               0x20a0 (size before relaxing)
 .stab          0x000a5ed0      0x3c0 /usr/lib/gcc-lib/i686-pc-linux-gnu/2.95.3/libg2c.a(rewind.o)
                                0xbdc (size before relaxing)
 .stab          0x000a6290      0x66c /usr/lib/gcc-lib/i686-pc-linux-gnu/2.95.3/libg2c.a(rsfe.o)
                                0xeb8 (size before relaxing)
 .stab          0x000a68fc      0x444 /usr/lib/gcc-lib/i686-pc-linux-gnu/2.95.3/libg2c.a(sfe.o)
                                0xc60 (size before relaxing)
 .stab          0x000a6d40      0x678 /usr/lib/gcc-lib/i686-pc-linux-gnu/2.95.3/libg2c.a(sue.o)
                                0xe94 (size before relaxing)
 .stab          0x000a73b8      0x744 /usr/lib/gcc-lib/i686-pc-linux-gnu/2.95.3/libg2c.a(uio.o)
                                0xf6c (size before relaxing)
 .stab          0x000a7afc      0x5a0 /usr/lib/gcc-lib/i686-pc-linux-gnu/2.95.3/libg2c.a(util.o)
                                0xf30 (size before relaxing)
 .stab          0x000a809c     0x1308 /usr/lib/gcc-lib/i686-pc-linux-gnu/2.95.3/libg2c.a(wrtfmt.o)
                               0x1b54 (size before relaxing)
 .stab          0x000a93a4      0x63c /usr/lib/gcc-lib/i686-pc-linux-gnu/2.95.3/libg2c.a(wsfe.o)
                                0xe88 (size before relaxing)
 .stab          0x000a99e0      0x444 /usr/lib/gcc-lib/i686-pc-linux-gnu/2.95.3/libg2c.a(wsle.o)
                                0xc90 (size before relaxing)
 .stab          0x000a9e24      0xb40 /usr/lib/gcc-lib/i686-pc-linux-gnu/2.95.3/libg2c.a(main.o)
                                0xf48 (size before relaxing)
 .stab          0x000aa964      0x450 /usr/lib/gcc-lib/i686-pc-linux-gnu/2.95.3/libg2c.a(s_stop.o)
                                0xf18 (size before relaxing)
 .stab          0x000aadb4      0x408 /usr/lib/gcc-lib/i686-pc-linux-gnu/2.95.3/libg2c.a(sig_die.o)
                                0xf00 (size before relaxing)
 .stab          0x000ab1bc      0x2c4 /usr/lib/gcc-lib/i686-pc-linux-gnu/2.95.3/libg2c.a(setarg.o)
                                0x948 (size before relaxing)
 .stab          0x000ab480      0x504 /usr/lib/gcc-lib/i686-pc-linux-gnu/2.95.3/libg2c.a(setsig.o)
                               0x1020 (size before relaxing)
 .stab          0x000ab984      0x264 /usr/lib/gcc-lib/i686-pc-linux-gnu/2.95.3/libg2c.a(pow_dd.o)
                                0x4e0 (size before relaxing)
 .stab          0x000abbe8      0x324 /usr/lib/gcc-lib/i686-pc-linux-gnu/2.95.3/libg2c.a(pow_zz.o)
                                0x600 (size before relaxing)
 .stab          0x000abf0c      0x174 /usr/lib/gcc-lib/i686-pc-linux-gnu/2.95.3/libg2c.a(c_abs.o)
                                0x3b4 (size before relaxing)
 .stab          0x000ac080      0x2d0 /usr/lib/gcc-lib/i686-pc-linux-gnu/2.95.3/libg2c.a(z_log.o)
                                0x5ac (size before relaxing)
 .stab          0x000ac350      0x3c0 /usr/lib/gcc-lib/i686-pc-linux-gnu/2.95.3/libg2c.a(z_sqrt.o)
                                0x69c (size before relaxing)
 .stab          0x000ac710      0x1ec /usr/lib/gcc-lib/i686-pc-linux-gnu/2.95.3/libg2c.a(r_lg10.o)
                                0x4c8 (size before relaxing)
 .stab          0x000ac8fc      0x240 /usr/lib/gcc-lib/i686-pc-linux-gnu/2.95.3/libg2c.a(r_mod.o)
                                0x480 (size before relaxing)
 .stab          0x000acb3c      0x294 /usr/lib/gcc-lib/i686-pc-linux-gnu/2.95.3/libg2c.a(i_indx.o)
                                0x4d4 (size before relaxing)
 .stab          0x000acdd0      0x1bc /usr/lib/gcc-lib/i686-pc-linux-gnu/2.95.3/libg2c.a(l_gt.o)
                                0x3fc (size before relaxing)
 .stab          0x000acf8c      0x1bc /usr/lib/gcc-lib/i686-pc-linux-gnu/2.95.3/libg2c.a(l_lt.o)
                                0x3fc (size before relaxing)
 .stab          0x000ad148      0x93c /usr/lib/gcc-lib/i686-pc-linux-gnu/2.95.3/libg2c.a(s_cat.o)
                               0x114c (size before relaxing)
 .stab          0x000ada84      0x2f4 /usr/lib/gcc-lib/i686-pc-linux-gnu/2.95.3/libg2c.a(s_cmp.o)
                                0x534 (size before relaxing)
 .stab          0x000add78      0x2d0 /usr/lib/gcc-lib/i686-pc-linux-gnu/2.95.3/libg2c.a(s_copy.o)
                                0x510 (size before relaxing)
 .stab          0x000ae048      0x1d4 /usr/lib/gcc-lib/i686-pc-linux-gnu/2.95.3/libg2c.a(lnblnk_.o)
                                0x414 (size before relaxing)
 .stab          0x000ae21c      0x2dc /usr/lib/gcc-lib/i686-pc-linux-gnu/2.95.3/libg2c.a(fmtlib.o)
                                0x51c (size before relaxing)
 .stab          0x000ae4f8      0xd20 /usr/lib/gcc-lib/i686-pc-linux-gnu/2.95.3/libg2c.a(lwrite.o)
                               0x1584 (size before relaxing)
 .stab          0x000af218      0xd14 /usr/lib/gcc-lib/i686-pc-linux-gnu/2.95.3/libg2c.a(wref.o)
                               0x15c0 (size before relaxing)
 .stab          0x000aff2c      0x3a8 /usr/lib/gcc-lib/i686-pc-linux-gnu/2.95.3/libg2c.a(F77_aloc.o)
                                0xef4 (size before relaxing)
 .stab          0x000b02d4      0x324 /usr/lib/gcc-lib/i686-pc-linux-gnu/2.95.3/libg2c.a(cabs.o)
                                0x39c (size before relaxing)
 .stab          0x000b05f8      0x27c /usr/lib/gcc-lib/i686-pc-linux-gnu/2.95.3/libg2c.a(exit_.o)
                                0xb58 (size before relaxing)

.stabstr        0x00000000    0x2f991
 *(.stabstr)
 .stabstr       0x00000000    0x2f991 mchw58d_105j.o
                                  0x0 (size before relaxing)

.stab.excl
 *(.stab.excl)

.stab.exclstr
 *(.stab.exclstr)

.stab.index
 *(.stab.index)

.stab.indexstr
 *(.stab.indexstr)

.comment        0x00000000     0x8295
 *(.comment)
 .comment       0x00000000       0x26 /usr/lib/crt1.o
 .comment       0x00000026       0x26 /usr/lib/crti.o
 .comment       0x0000004c       0x26 /usr/lib/gcc-lib/i686-pc-linux-gnu/2.95.3/crtbegin.o
 .comment       0x00000072       0x26 mchw58d_105j.o
 .comment       0x00000098       0x26 /home/pcl2483/pedro/jadesoft/util/mcgen/Plib/libmc105j.a(mcgetf.o)
 .comment       0x000000be       0x26 /home/pcl2483/pedro/jadesoft/util/mcgen/Plib/libmc105j.a(mcgeth.o)
 .comment       0x000000e4       0x26 /home/pcl2483/pedro/jadesoft/util/mcgen/Plib/libmc105j.a(mcgetp.o)
 .comment       0x0000010a       0x26 /home/pcl2483/pedro/jadesoft/util/mcgen/Plib/libmc105j.a(mcinit.o)
 .comment       0x00000130       0x26 /home/pcl2483/pedro/jadesoft/util/mcgen/Plib/libmc105j.a(mcstbl.o)
 .comment       0x00000156       0x26 /home/pcl2483/pedro/jadesoft/util/mcgen/Plib/libmc105j.a(mcwrit.o)
 .comment       0x0000017c       0x26 /home/pcl2483/pedro/jadesoft/util/mcgen/Plib/libmc105j.a(pxeecb.o)
 .comment       0x000001a2       0x26 /home/pcl2483/pedro/jadesoft/util/mcgen/Plib/libmc105j.a(evwrtj.o)
 .comment       0x000001c8       0x26 /home/pcl2483/pedro/jadesoft/util/mcgen/Plib/libmc105j.a(incprd.o)
 .comment       0x000001ee       0x26 /home/pcl2483/pedro/jadesoft/util/mcgen/Plib/libmc105j.a(jadeco.o)
 .comment       0x00000214       0x26 /home/pcl2483/pedro/jadesoft/util/mcgen/Plib/libmc105j.a(jtconv.o)
 .comment       0x0000023a       0x26 /home/pcl2483/pedro/jadesoft/util/mcgen/Plib/libmc105j.a(mcrnst.o)
 .comment       0x00000260       0x26 /home/pcl2483/pedro/jadesoft/util/mcgen/Plib/libmc105j.a(ntcprd.o)
 .comment       0x00000286       0x26 /home/pcl2483/pedro/jadesoft/util/mcgen/Plib/libmc105j.a(prcprd.o)
 .comment       0x000002ac       0x26 /home/pcl2483/pedro/jadesoft/util/mcgen/Plib/libmc105j.a(wrcprd.o)
 .comment       0x000002d2       0x26 /home/pcl2483/pedro/jadesoft/util/mcgen/Plib/libherwig58d.a(fxhlms.o)
 .comment       0x000002f8       0x26 /home/pcl2483/pedro/jadesoft/util/mcgen/Plib/libherwig58d.a(h58ddriv.o)
 .comment       0x0000031e       0x26 /home/pcl2483/pedro/jadesoft/util/mcgen/Plib/libherwig58d.a(hwbgen.o)
 .comment       0x00000344       0x26 /home/pcl2483/pedro/jadesoft/util/mcgen/Plib/libherwig58d.a(hwbjco.o)
 .comment       0x0000036a       0x26 /home/pcl2483/pedro/jadesoft/util/mcgen/Plib/libherwig58d.a(hwbmas.o)
 .comment       0x00000390       0x26 /home/pcl2483/pedro/jadesoft/util/mcgen/Plib/libherwig58d.a(hwbran.o)
 .comment       0x000003b6       0x26 /home/pcl2483/pedro/jadesoft/util/mcgen/Plib/libherwig58d.a(hwbspa.o)
 .comment       0x000003dc       0x26 /home/pcl2483/pedro/jadesoft/util/mcgen/Plib/libherwig58d.a(hwbspn.o)
 .comment       0x00000402       0x26 /home/pcl2483/pedro/jadesoft/util/mcgen/Plib/libherwig58d.a(hwbtim.o)
 .comment       0x00000428       0x26 /home/pcl2483/pedro/jadesoft/util/mcgen/Plib/libherwig58d.a(hwbvmc.o)
 .comment       0x0000044e       0x26 /home/pcl2483/pedro/jadesoft/util/mcgen/Plib/libherwig58d.a(hwcdec.o)
 .comment       0x00000474       0x26 /home/pcl2483/pedro/jadesoft/util/mcgen/Plib/libherwig58d.a(hwcfla.o)
 .comment       0x0000049a       0x26 /home/pcl2483/pedro/jadesoft/util/mcgen/Plib/libherwig58d.a(hwcfor.o)
 .comment       0x000004c0       0x26 /home/pcl2483/pedro/jadesoft/util/mcgen/Plib/libherwig58d.a(hwcgsp.o)
 .comment       0x000004e6       0x26 /home/pcl2483/pedro/jadesoft/util/mcgen/Plib/libherwig58d.a(hwchad.o)
 .comment       0x0000050c       0x26 /home/pcl2483/pedro/jadesoft/util/mcgen/Plib/libherwig58d.a(hwdhqk.o)
 .comment       0x00000532       0x26 /home/pcl2483/pedro/jadesoft/util/mcgen/Plib/libherwig58d.a(hwdidp.o)
 .comment       0x00000558       0x26 /home/pcl2483/pedro/jadesoft/util/mcgen/Plib/libherwig58d.a(hwdthr.o)
 .comment       0x0000057e       0x26 /home/pcl2483/pedro/jadesoft/util/mcgen/Plib/libherwig58d.a(hwdtop.o)
 .comment       0x000005a4       0x26 /home/pcl2483/pedro/jadesoft/util/mcgen/Plib/libherwig58d.a(hwdtwo.o)
 .comment       0x000005ca       0x26 /home/pcl2483/pedro/jadesoft/util/mcgen/Plib/libherwig58d.a(hwdwwt.o)
 .comment       0x000005f0       0x26 /home/pcl2483/pedro/jadesoft/util/mcgen/Plib/libherwig58d.a(hwefin.o)
 .comment       0x00000616       0x26 /home/pcl2483/pedro/jadesoft/util/mcgen/Plib/libherwig58d.a(hweini.o)
 .comment       0x0000063c       0x26 /home/pcl2483/pedro/jadesoft/util/mcgen/Plib/libherwig58d.a(hwepro.o)
 .comment       0x00000662       0x26 /home/pcl2483/pedro/jadesoft/util/mcgen/Plib/libherwig58d.a(hwhbgf.o)
 .comment       0x00000688       0x26 /home/pcl2483/pedro/jadesoft/util/mcgen/Plib/libherwig58d.a(hwhbki.o)
 .comment       0x000006ae       0x26 /home/pcl2483/pedro/jadesoft/util/mcgen/Plib/libherwig58d.a(hwhbrn.o)
 .comment       0x000006d4       0x26 /home/pcl2483/pedro/jadesoft/util/mcgen/Plib/libherwig58d.a(hwhbsg.o)
 .comment       0x000006fa       0x26 /home/pcl2483/pedro/jadesoft/util/mcgen/Plib/libherwig58d.a(hwhdis.o)
 .comment       0x00000720       0x26 /home/pcl2483/pedro/jadesoft/util/mcgen/Plib/libherwig58d.a(hwhdyp.o)
 .comment       0x00000746       0x26 /home/pcl2483/pedro/jadesoft/util/mcgen/Plib/libherwig58d.a(hwhegg.o)
 .comment       0x0000076c       0x26 /home/pcl2483/pedro/jadesoft/util/mcgen/Plib/libherwig58d.a(hwhegw.o)
 .comment       0x00000792       0x26 /home/pcl2483/pedro/jadesoft/util/mcgen/Plib/libherwig58d.a(hwhegx.o)
 .comment       0x000007b8       0x26 /home/pcl2483/pedro/jadesoft/util/mcgen/Plib/libherwig58d.a(hwhepa.o)
 .comment       0x000007de       0x26 /home/pcl2483/pedro/jadesoft/util/mcgen/Plib/libherwig58d.a(hwhepg.o)
 .comment       0x00000804       0x26 /home/pcl2483/pedro/jadesoft/util/mcgen/Plib/libherwig58d.a(hwheww.o)
 .comment       0x0000082a       0x26 /home/pcl2483/pedro/jadesoft/util/mcgen/Plib/libherwig58d.a(hwhhvy.o)
 .comment       0x00000850       0x26 /home/pcl2483/pedro/jadesoft/util/mcgen/Plib/libherwig58d.a(hwhigj.o)
 .comment       0x00000876       0x26 /home/pcl2483/pedro/jadesoft/util/mcgen/Plib/libherwig58d.a(hwhigm.o)
 .comment       0x0000089c       0x26 /home/pcl2483/pedro/jadesoft/util/mcgen/Plib/libherwig58d.a(hwhigs.o)
 .comment       0x000008c2       0x26 /home/pcl2483/pedro/jadesoft/util/mcgen/Plib/libherwig58d.a(hwhigt.o)
 .comment       0x000008e8       0x26 /home/pcl2483/pedro/jadesoft/util/mcgen/Plib/libherwig58d.a(hwhigw.o)
 .comment       0x0000090e       0x26 /home/pcl2483/pedro/jadesoft/util/mcgen/Plib/libherwig58d.a(hwhigz.o)
 .comment       0x00000934       0x26 /home/pcl2483/pedro/jadesoft/util/mcgen/Plib/libherwig58d.a(hwhph2.o)
 .comment       0x0000095a       0x26 /home/pcl2483/pedro/jadesoft/util/mcgen/Plib/libherwig58d.a(hwhpho.o)
 .comment       0x00000980       0x26 /home/pcl2483/pedro/jadesoft/util/mcgen/Plib/libherwig58d.a(hwhppb.o)
 .comment       0x000009a6       0x26 /home/pcl2483/pedro/jadesoft/util/mcgen/Plib/libherwig58d.a(hwhppe.o)
 .comment       0x000009cc       0x26 /home/pcl2483/pedro/jadesoft/util/mcgen/Plib/libherwig58d.a(hwhpph.o)
 .comment       0x000009f2       0x26 /home/pcl2483/pedro/jadesoft/util/mcgen/Plib/libherwig58d.a(hwhppm.o)
 .comment       0x00000a18       0x26 /home/pcl2483/pedro/jadesoft/util/mcgen/Plib/libherwig58d.a(hwhppt.o)
 .comment       0x00000a3e       0x26 /home/pcl2483/pedro/jadesoft/util/mcgen/Plib/libherwig58d.a(hwhpqs.o)
 .comment       0x00000a64       0x26 /home/pcl2483/pedro/jadesoft/util/mcgen/Plib/libherwig58d.a(hwhqcd.o)
 .comment       0x00000a8a       0x26 /home/pcl2483/pedro/jadesoft/util/mcgen/Plib/libherwig58d.a(hwhqcp.o)
 .comment       0x00000ab0       0x26 /home/pcl2483/pedro/jadesoft/util/mcgen/Plib/libherwig58d.a(hwhw1j.o)
 .comment       0x00000ad6       0x26 /home/pcl2483/pedro/jadesoft/util/mcgen/Plib/libherwig58d.a(hwhwex.o)
 .comment       0x00000afc       0x26 /home/pcl2483/pedro/jadesoft/util/mcgen/Plib/libherwig58d.a(hwhwpr.o)
 .comment       0x00000b22       0x26 /home/pcl2483/pedro/jadesoft/util/mcgen/Plib/libherwig58d.a(hwigin.o)
 .comment       0x00000b48       0x26 /home/pcl2483/pedro/jadesoft/util/mcgen/Plib/libherwig58d.a(hwmwgt.o)
 .comment       0x00000b6e       0x26 /home/pcl2483/pedro/jadesoft/util/mcgen/Plib/libherwig58d.a(hwrazm.o)
 .comment       0x00000b94       0x26 /home/pcl2483/pedro/jadesoft/util/mcgen/Plib/libherwig58d.a(hwrgau.o)
 .comment       0x00000bba       0x26 /home/pcl2483/pedro/jadesoft/util/mcgen/Plib/libherwig58d.a(hwrgen.o)
 .comment       0x00000be0       0x26 /home/pcl2483/pedro/jadesoft/util/mcgen/Plib/libherwig58d.a(hwrint.o)
 .comment       0x00000c06       0x26 /home/pcl2483/pedro/jadesoft/util/mcgen/Plib/libherwig58d.a(hwrlog.o)
 .comment       0x00000c2c       0x26 /home/pcl2483/pedro/jadesoft/util/mcgen/Plib/libherwig58d.a(hwrpow.o)
 .comment       0x00000c52       0x26 /home/pcl2483/pedro/jadesoft/util/mcgen/Plib/libherwig58d.a(hwruni.o)
 .comment       0x00000c78       0x26 /home/pcl2483/pedro/jadesoft/util/mcgen/Plib/libherwig58d.a(hwsbrn.o)
 .comment       0x00000c9e       0x26 /home/pcl2483/pedro/jadesoft/util/mcgen/Plib/libherwig58d.a(hwsfbr.o)
 .comment       0x00000cc4       0x26 /home/pcl2483/pedro/jadesoft/util/mcgen/Plib/libherwig58d.a(hwsfun.o)
 .comment       0x00000cea       0x26 /home/pcl2483/pedro/jadesoft/util/mcgen/Plib/libherwig58d.a(hwsgam.o)
 .comment       0x00000d10       0x26 /home/pcl2483/pedro/jadesoft/util/mcgen/Plib/libherwig58d.a(hwsgen.o)
 .comment       0x00000d36       0x26 /home/pcl2483/pedro/jadesoft/util/mcgen/Plib/libherwig58d.a(hwsgqq.o)
 .comment       0x00000d5c       0x26 /home/pcl2483/pedro/jadesoft/util/mcgen/Plib/libherwig58d.a(hwsspc.o)
 .comment       0x00000d82       0x26 /home/pcl2483/pedro/jadesoft/util/mcgen/Plib/libherwig58d.a(hwssud.o)
 .comment       0x00000da8       0x26 /home/pcl2483/pedro/jadesoft/util/mcgen/Plib/libherwig58d.a(hwstab.o)
 .comment       0x00000dce       0x26 /home/pcl2483/pedro/jadesoft/util/mcgen/Plib/libherwig58d.a(hwsval.o)
 .comment       0x00000df4       0x26 /home/pcl2483/pedro/jadesoft/util/mcgen/Plib/libherwig58d.a(hwuaem.o)
 .comment       0x00000e1a       0x26 /home/pcl2483/pedro/jadesoft/util/mcgen/Plib/libherwig58d.a(hwuaer.o)
 .comment       0x00000e40       0x26 /home/pcl2483/pedro/jadesoft/util/mcgen/Plib/libherwig58d.a(hwualf.o)
 .comment       0x00000e66       0x26 /home/pcl2483/pedro/jadesoft/util/mcgen/Plib/libherwig58d.a(hwubst.o)
 .comment       0x00000e8c       0x26 /home/pcl2483/pedro/jadesoft/util/mcgen/Plib/libherwig58d.a(hwucff.o)
 .comment       0x00000eb2       0x26 /home/pcl2483/pedro/jadesoft/util/mcgen/Plib/libherwig58d.a(hwudat.o)
 .comment       0x00000ed8       0x26 /home/pcl2483/pedro/jadesoft/util/mcgen/Plib/libherwig58d.a(hwuecm.o)
 .comment       0x00000efe       0x26 /home/pcl2483/pedro/jadesoft/util/mcgen/Plib/libherwig58d.a(hwueec.o)
 .comment       0x00000f24       0x26 /home/pcl2483/pedro/jadesoft/util/mcgen/Plib/libherwig58d.a(hwuepr.o)
 .comment       0x00000f4a       0x26 /home/pcl2483/pedro/jadesoft/util/mcgen/Plib/libherwig58d.a(hwufne.o)
 .comment       0x00000f70       0x26 /home/pcl2483/pedro/jadesoft/util/mcgen/Plib/libherwig58d.a(hwuinc.o)
 .comment       0x00000f96       0x26 /home/pcl2483/pedro/jadesoft/util/mcgen/Plib/libherwig58d.a(hwuine.o)
 .comment       0x00000fbc       0x26 /home/pcl2483/pedro/jadesoft/util/mcgen/Plib/libherwig58d.a(hwulb4.o)
 .comment       0x00000fe2       0x26 /home/pcl2483/pedro/jadesoft/util/mcgen/Plib/libherwig58d.a(hwuldo.o)
 .comment       0x00001008       0x26 /home/pcl2483/pedro/jadesoft/util/mcgen/Plib/libherwig58d.a(hwulob.o)
 .comment       0x0000102e       0x26 /home/pcl2483/pedro/jadesoft/util/mcgen/Plib/libherwig58d.a(hwulof.o)
 .comment       0x00001054       0x26 /home/pcl2483/pedro/jadesoft/util/mcgen/Plib/libherwig58d.a(hwumas.o)
 .comment       0x0000107a       0x26 /home/pcl2483/pedro/jadesoft/util/mcgen/Plib/libherwig58d.a(hwupcm.o)
 .comment       0x000010a0       0x26 /home/pcl2483/pedro/jadesoft/util/mcgen/Plib/libherwig58d.a(hwures.o)
 .comment       0x000010c6       0x26 /home/pcl2483/pedro/jadesoft/util/mcgen/Plib/libherwig58d.a(hwurob.o)
 .comment       0x000010ec       0x26 /home/pcl2483/pedro/jadesoft/util/mcgen/Plib/libherwig58d.a(hwurof.o)
 .comment       0x00001112       0x26 /home/pcl2483/pedro/jadesoft/util/mcgen/Plib/libherwig58d.a(hwurot.o)
 .comment       0x00001138       0x26 /home/pcl2483/pedro/jadesoft/util/mcgen/Plib/libherwig58d.a(hwusqr.o)
 .comment       0x0000115e       0x26 /home/pcl2483/pedro/jadesoft/util/mcgen/Plib/libherwig58d.a(hwutab.o)
 .comment       0x00001184       0x26 /home/pcl2483/pedro/jadesoft/util/mcgen/Plib/libherwig58d.a(hwutim.o)
 .comment       0x000011aa       0x26 /home/pcl2483/pedro/jadesoft/util/mcgen/Plib/libherwig58d.a(hwvdif.o)
 .comment       0x000011d0       0x26 /home/pcl2483/pedro/jadesoft/util/mcgen/Plib/libherwig58d.a(hwvequ.o)
 .comment       0x000011f6       0x26 /home/pcl2483/pedro/jadesoft/util/mcgen/Plib/libherwig58d.a(hwvsca.o)
 .comment       0x0000121c       0x26 /home/pcl2483/pedro/jadesoft/util/mcgen/Plib/libherwig58d.a(hwvsum.o)
 .comment       0x00001242       0x26 /home/pcl2483/pedro/jadesoft/util/mcgen/Plib/libherwig58d.a(hwvzro.o)
 .comment       0x00001268       0x26 /home/pcl2483/pedro/jadesoft/util/mcgen/Plib/libherwig58d.a(hwwarn.o)
 .comment       0x0000128e       0x26 /home/pcl2483/pedro/jadesoft/util/mcgen/Plib/libherwig58d.a(pdfset.o)
 .comment       0x000012b4       0x26 /home/pcl2483/pedro/jadesoft/util/mcgen/Plib/libherwig58d.a(sas1d.o)
 .comment       0x000012da       0x26 /home/pcl2483/pedro/jadesoft/util/mcgen/Plib/libherwig58d.a(structm.o)
 .comment       0x00001300       0x26 /home/pcl2483/pedro/jadesoft/util/mcgen/Plib/libherwig58d.a(hvcbvi.o)
 .comment       0x00001326       0x26 /home/pcl2483/pedro/jadesoft/util/mcgen/Plib/libherwig58d.a(hvhbvi.o)
 .comment       0x0000134c       0x26 /home/pcl2483/pedro/jadesoft/util/mcgen/Plib/libherwig58d.a(hwaend.o)
 .comment       0x00001372       0x26 /home/pcl2483/pedro/jadesoft/util/mcgen/Plib/libherwig58d.a(hwbazf.o)
 .comment       0x00001398       0x26 /home/pcl2483/pedro/jadesoft/util/mcgen/Plib/libherwig58d.a(hwbcon.o)
 .comment       0x000013be       0x26 /home/pcl2483/pedro/jadesoft/util/mcgen/Plib/libherwig58d.a(hwbded.o)
 .comment       0x000013e4       0x26 /home/pcl2483/pedro/jadesoft/util/mcgen/Plib/libherwig58d.a(hwbdis.o)
 .comment       0x0000140a       0x26 /home/pcl2483/pedro/jadesoft/util/mcgen/Plib/libherwig58d.a(hwbfin.o)
 .comment       0x00001430       0x26 /home/pcl2483/pedro/jadesoft/util/mcgen/Plib/libherwig58d.a(hwbsud.o)
 .comment       0x00001456       0x26 /home/pcl2483/pedro/jadesoft/util/mcgen/Plib/libherwig58d.a(hwbsug.o)
 .comment       0x0000147c       0x26 /home/pcl2483/pedro/jadesoft/util/mcgen/Plib/libherwig58d.a(hwbsul.o)
 .comment       0x000014a2       0x26 /home/pcl2483/pedro/jadesoft/util/mcgen/Plib/libherwig58d.a(hwccut.o)
 .comment       0x000014c8       0x26 /home/pcl2483/pedro/jadesoft/util/mcgen/Plib/libherwig58d.a(hwdboz.o)
 .comment       0x000014ee       0x26 /home/pcl2483/pedro/jadesoft/util/mcgen/Plib/libherwig58d.a(hwdhig.o)
 .comment       0x00001514       0x26 /home/pcl2483/pedro/jadesoft/util/mcgen/Plib/libherwig58d.a(hwdpwt.o)
 .comment       0x0000153a       0x26 /home/pcl2483/pedro/jadesoft/util/mcgen/Plib/libherwig58d.a(hwegam.o)
 .comment       0x00001560       0x26 /home/pcl2483/pedro/jadesoft/util/mcgen/Plib/libherwig58d.a(hweisr.o)
 .comment       0x00001586       0x26 /home/pcl2483/pedro/jadesoft/util/mcgen/Plib/libherwig58d.a(hweone.o)
 .comment       0x000015ac       0x26 /home/pcl2483/pedro/jadesoft/util/mcgen/Plib/libherwig58d.a(hwetwo.o)
 .comment       0x000015d2       0x26 /home/pcl2483/pedro/jadesoft/util/mcgen/Plib/libherwig58d.a(hwhew0.o)
 .comment       0x000015f8       0x26 /home/pcl2483/pedro/jadesoft/util/mcgen/Plib/libherwig58d.a(hwhew1.o)
 .comment       0x0000161e       0x26 /home/pcl2483/pedro/jadesoft/util/mcgen/Plib/libherwig58d.a(hwhew2.o)
 .comment       0x00001644       0x26 /home/pcl2483/pedro/jadesoft/util/mcgen/Plib/libherwig58d.a(hwhew3.o)
 .comment       0x0000166a       0x26 /home/pcl2483/pedro/jadesoft/util/mcgen/Plib/libherwig58d.a(hwhew4.o)
 .comment       0x00001690       0x26 /home/pcl2483/pedro/jadesoft/util/mcgen/Plib/libherwig58d.a(hwhew5.o)
 .comment       0x000016b6       0x26 /home/pcl2483/pedro/jadesoft/util/mcgen/Plib/libherwig58d.a(hwhiga.o)
 .comment       0x000016dc       0x26 /home/pcl2483/pedro/jadesoft/util/mcgen/Plib/libherwig58d.a(hwhigb.o)
 .comment       0x00001702       0x26 /home/pcl2483/pedro/jadesoft/util/mcgen/Plib/libherwig58d.a(hwhigy.o)
 .comment       0x00001728       0x26 /home/pcl2483/pedro/jadesoft/util/mcgen/Plib/libherwig58d.a(hwrexq.o)
 .comment       0x0000174e       0x26 /home/pcl2483/pedro/jadesoft/util/mcgen/Plib/libherwig58d.a(hwsdgg.o)
 .comment       0x00001774       0x26 /home/pcl2483/pedro/jadesoft/util/mcgen/Plib/libherwig58d.a(hwsdgq.o)
 .comment       0x0000179a       0x26 /home/pcl2483/pedro/jadesoft/util/mcgen/Plib/libherwig58d.a(hwubpr.o)
 .comment       0x000017c0       0x26 /home/pcl2483/pedro/jadesoft/util/mcgen/Plib/libherwig58d.a(hwuci2.o)
 .comment       0x000017e6       0x26 /home/pcl2483/pedro/jadesoft/util/mcgen/Plib/libherwig58d.a(hwuedt.o)
 .comment       0x0000180c       0x26 /home/pcl2483/pedro/jadesoft/util/mcgen/Plib/libherwig58d.a(hwuemv.o)
 .comment       0x00001832       0x26 /home/pcl2483/pedro/jadesoft/util/mcgen/Plib/libherwig58d.a(hwugau.o)
 .comment       0x00001858       0x26 /home/pcl2483/pedro/jadesoft/util/mcgen/Plib/libherwig58d.a(hwuidt.o)
 .comment       0x0000187e       0x26 /home/pcl2483/pedro/jadesoft/util/mcgen/Plib/libherwig58d.a(hwulf4.o)
 .comment       0x000018a4       0x26 /home/pcl2483/pedro/jadesoft/util/mcgen/Plib/libherwig58d.a(hwuli2.o)
 .comment       0x000018ca       0x26 /home/pcl2483/pedro/jadesoft/util/mcgen/Plib/libherwig58d.a(hwvdot.o)
 .comment       0x000018f0       0x26 /home/pcl2483/pedro/jadesoft/util/mcgen/Plib/libherwig58d.a(pystig.o)
 .comment       0x00001916       0x26 /home/pcl2483/pedro/jadesoft/util/mcgen/Plib/libherwig58d.a(pystvg.o)
 .comment       0x0000193c       0x26 /home/pcl2483/pedro/jadesoft/util/mcgen/Plib/libherwig58d.a(hwbsu1.o)
 .comment       0x00001962       0x26 /home/pcl2483/pedro/jadesoft/util/mcgen/Plib/libherwig58d.a(hwbsu2.o)
 .comment       0x00001988       0x26 /home/pcl2483/pedro/jadesoft/util/mcgen/Plib/libherwig58d.a(hwdhgc.o)
 .comment       0x000019ae       0x26 /home/pcl2483/pedro/jadesoft/util/mcgen/Plib/libherwig58d.a(hwdhgf.o)
 .comment       0x000019d4       0x26 /home/pcl2483/pedro/jadesoft/util/mcgen/Plib/libherwig58d.a(hwhig1.o)
 .comment       0x000019fa       0x26 /home/pcl2483/pedro/jadesoft/util/mcgen/Plib/libjt74opal.a(luchge.o)
 .comment       0x00001a20       0x26 /home/pcl2483/pedro/jadesoft/util/mcgen/Plib/libjt74opal.a(lucomp.o)
 .comment       0x00001a46       0x26 /home/pcl2483/pedro/jadesoft/util/mcgen/Plib/libjt74opal.a(ludata.o)
 .comment       0x00001a6c       0x26 /home/pcl2483/pedro/jadesoft/util/mcgen/Plib/libjt74opal.a(luedit.o)
 .comment       0x00001a92       0x26 /home/pcl2483/pedro/jadesoft/util/mcgen/Plib/libjt74opal.a(luerrm.o)
 .comment       0x00001ab8       0x26 /home/pcl2483/pedro/jadesoft/util/mcgen/Plib/libjt74opal.a(luexec.o)
 .comment       0x00001ade       0x26 /home/pcl2483/pedro/jadesoft/util/mcgen/Plib/libjt74opal.a(luhepc.o)
 .comment       0x00001b04       0x26 /home/pcl2483/pedro/jadesoft/util/mcgen/Plib/libjt74opal.a(luindf.o)
 .comment       0x00001b2a       0x26 /home/pcl2483/pedro/jadesoft/util/mcgen/Plib/libjt74opal.a(lukfdi.o)
 .comment       0x00001b50       0x26 /home/pcl2483/pedro/jadesoft/util/mcgen/Plib/libjt74opal.a(lulist.o)
 .comment       0x00001b76       0x26 /home/pcl2483/pedro/jadesoft/util/mcgen/Plib/libjt74opal.a(lulogo.o)
 .comment       0x00001b9c       0x26 /home/pcl2483/pedro/jadesoft/util/mcgen/Plib/libjt74opal.a(luname.o)
 .comment       0x00001bc2       0x26 /home/pcl2483/pedro/jadesoft/util/mcgen/Plib/libjt74opal.a(luprep.o)
 .comment       0x00001be8       0x26 /home/pcl2483/pedro/jadesoft/util/mcgen/Plib/libjt74opal.a(luptdi.o)
 .comment       0x00001c0e       0x26 /home/pcl2483/pedro/jadesoft/util/mcgen/Plib/libjt74opal.a(lurobo.o)
 .comment       0x00001c34       0x26 /home/pcl2483/pedro/jadesoft/util/mcgen/Plib/libjt74opal.a(lushow.o)
 .comment       0x00001c5a       0x26 /home/pcl2483/pedro/jadesoft/util/mcgen/Plib/libjt74opal.a(lustrf.o)
 .comment       0x00001c80       0x26 /home/pcl2483/pedro/jadesoft/util/mcgen/Plib/libjt74opal.a(lutabu.o)
 .comment       0x00001ca6       0x26 /home/pcl2483/pedro/jadesoft/util/mcgen/Plib/libjt74opal.a(luzdis.o)
 .comment       0x00001ccc       0x26 /home/pcl2483/pedro/jadesoft/util/mcgen/Plib/libjt74opal.a(plu.o)
 .comment       0x00001cf2       0x26 /home/pcl2483/pedro/jadesoft/util/mcgen/Plib/libjt74opal.a(rlu.o)
 .comment       0x00001d18       0x26 /home/pcl2483/pedro/jadesoft/util/mcgen/Plib/libjt74opal.a(ulangl.o)
 .comment       0x00001d3e       0x26 /home/pcl2483/pedro/jadesoft/util/mcgen/Plib/libjt74opal.a(ulmass.o)
 .comment       0x00001d64       0x26 /home/pcl2483/pedro/jadesoft/util/mcgen/Plib/libjt74opal.a(luboei.o)
 .comment       0x00001d8a       0x26 /home/pcl2483/pedro/jadesoft/util/mcgen/Plib/libjt74opal.a(ludecy.o)
 .comment       0x00001db0       0x26 /home/pcl2483/pedro/jadesoft/util/mcgen/Plib/libjt74opal.a(lutaud.o)
 .comment       0x00001dd6       0x26 /home/pcl2483/pedro/jadesoft/util/mcgen/Plib/libjt74opal.a(taupol.o)
 .comment       0x00001dfc       0x26 /home/pcl2483/pedro/jadesoft/util/mcgen/Plib/libjt74opal.a(dexay.o)
 .comment       0x00001e22       0x26 /home/pcl2483/pedro/jadesoft/util/mcgen/Plib/libjt74opal.a(dexay1.o)
 .comment       0x00001e48       0x26 /home/pcl2483/pedro/jadesoft/util/mcgen/Plib/libjt74opal.a(dexel.o)
 .comment       0x00001e6e       0x26 /home/pcl2483/pedro/jadesoft/util/mcgen/Plib/libjt74opal.a(dexkk.o)
 .comment       0x00001e94       0x26 /home/pcl2483/pedro/jadesoft/util/mcgen/Plib/libjt74opal.a(dexks.o)
 .comment       0x00001eba       0x26 /home/pcl2483/pedro/jadesoft/util/mcgen/Plib/libjt74opal.a(dexmu.o)
 .comment       0x00001ee0       0x26 /home/pcl2483/pedro/jadesoft/util/mcgen/Plib/libjt74opal.a(dexnew.o)
 .comment       0x00001f06       0x26 /home/pcl2483/pedro/jadesoft/util/mcgen/Plib/libjt74opal.a(dexpi.o)
 .comment       0x00001f2c       0x26 /home/pcl2483/pedro/jadesoft/util/mcgen/Plib/libjt74opal.a(dexro.o)
 .comment       0x00001f52       0x26 /home/pcl2483/pedro/jadesoft/util/mcgen/Plib/libjt74opal.a(dwlnew.o)
 .comment       0x00001f78       0x26 /home/pcl2483/pedro/jadesoft/util/mcgen/Plib/libjt74opal.a(dwluaa.o)
 .comment       0x00001f9e       0x26 /home/pcl2483/pedro/jadesoft/util/mcgen/Plib/libjt74opal.a(dwluel.o)
 .comment       0x00001fc4       0x26 /home/pcl2483/pedro/jadesoft/util/mcgen/Plib/libjt74opal.a(dwlukk.o)
 .comment       0x00001fea       0x26 /home/pcl2483/pedro/jadesoft/util/mcgen/Plib/libjt74opal.a(dwluks.o)
 .comment       0x00002010       0x26 /home/pcl2483/pedro/jadesoft/util/mcgen/Plib/libjt74opal.a(dwlumu.o)
 .comment       0x00002036       0x26 /home/pcl2483/pedro/jadesoft/util/mcgen/Plib/libjt74opal.a(dwlupi.o)
 .comment       0x0000205c       0x26 /home/pcl2483/pedro/jadesoft/util/mcgen/Plib/libjt74opal.a(dwluro.o)
 .comment       0x00002082       0x26 /home/pcl2483/pedro/jadesoft/util/mcgen/Plib/libjt74opal.a(dwrph.o)
 .comment       0x000020a8       0x26 /home/pcl2483/pedro/jadesoft/util/mcgen/Plib/libjt74opal.a(filhep.o)
 .comment       0x000020ce       0x26 /home/pcl2483/pedro/jadesoft/util/mcgen/Plib/libjt74opal.a(initdk.o)
 .comment       0x000020f4       0x26 /home/pcl2483/pedro/jadesoft/util/mcgen/Plib/libjt74opal.a(jaker.o)
 .comment       0x0000211a       0x26 /home/pcl2483/pedro/jadesoft/util/mcgen/Plib/libjt74opal.a(lunpik.o)
 .comment       0x00002140       0x26 /home/pcl2483/pedro/jadesoft/util/mcgen/Plib/libjt74opal.a(dadmel.o)
 .comment       0x00002166       0x26 /home/pcl2483/pedro/jadesoft/util/mcgen/Plib/libjt74opal.a(dadmkk.o)
 .comment       0x0000218c       0x26 /home/pcl2483/pedro/jadesoft/util/mcgen/Plib/libjt74opal.a(dadmks.o)
 .comment       0x000021b2       0x26 /home/pcl2483/pedro/jadesoft/util/mcgen/Plib/libjt74opal.a(dadmmu.o)
 .comment       0x000021d8       0x26 /home/pcl2483/pedro/jadesoft/util/mcgen/Plib/libjt74opal.a(dadmpi.o)
 .comment       0x000021fe       0x26 /home/pcl2483/pedro/jadesoft/util/mcgen/Plib/libjt74opal.a(dadmro.o)
 .comment       0x00002224       0x26 /home/pcl2483/pedro/jadesoft/util/mcgen/Plib/libjt74opal.a(dadnew.o)
 .comment       0x0000224a       0x26 /home/pcl2483/pedro/jadesoft/util/mcgen/Plib/libjt74opal.a(dexaa.o)
 .comment       0x00002270       0x26 /home/pcl2483/pedro/jadesoft/util/mcgen/Plib/libjt74opal.a(dph4pi.o)
 .comment       0x00002296       0x26 /home/pcl2483/pedro/jadesoft/util/mcgen/Plib/libjt74opal.a(dph5pi.o)
 .comment       0x000022bc       0x26 /home/pcl2483/pedro/jadesoft/util/mcgen/Plib/libjt74opal.a(dphnpi.o)
 .comment       0x000022e2       0x26 /home/pcl2483/pedro/jadesoft/util/mcgen/Plib/libjt74opal.a(dphsel.o)
 .comment       0x00002308       0x26 /home/pcl2483/pedro/jadesoft/util/mcgen/Plib/libjt74opal.a(dphsks.o)
 .comment       0x0000232e       0x26 /home/pcl2483/pedro/jadesoft/util/mcgen/Plib/libjt74opal.a(dphsmu.o)
 .comment       0x00002354       0x26 /home/pcl2483/pedro/jadesoft/util/mcgen/Plib/libjt74opal.a(dphspk.o)
 .comment       0x0000237a       0x26 /home/pcl2483/pedro/jadesoft/util/mcgen/Plib/libjt74opal.a(dphsrk.o)
 .comment       0x000023a0       0x26 /home/pcl2483/pedro/jadesoft/util/mcgen/Plib/libjt74opal.a(dphsro.o)
 .comment       0x000023c6       0x26 /home/pcl2483/pedro/jadesoft/util/mcgen/Plib/libjt74opal.a(dphtre.o)
 .comment       0x000023ec       0x26 /home/pcl2483/pedro/jadesoft/util/mcgen/Plib/libjt74opal.a(drcmu.o)
 .comment       0x00002412       0x26 /home/pcl2483/pedro/jadesoft/util/mcgen/Plib/libjt74opal.a(dwluph.o)
 .comment       0x00002438       0x26 /home/pcl2483/pedro/jadesoft/util/mcgen/Plib/libjt74opal.a(fpirho.o)
 .comment       0x0000245e       0x26 /home/pcl2483/pedro/jadesoft/util/mcgen/Plib/libjt74opal.a(fpirk.o)
 .comment       0x00002484       0x26 /home/pcl2483/pedro/jadesoft/util/mcgen/Plib/libjt74opal.a(rotor2.o)
 .comment       0x000024aa       0x26 /home/pcl2483/pedro/jadesoft/util/mcgen/Plib/libjt74opal.a(rotor3.o)
 .comment       0x000024d0       0x26 /home/pcl2483/pedro/jadesoft/util/mcgen/Plib/libjt74opal.a(rotpol.o)
 .comment       0x000024f6       0x26 /home/pcl2483/pedro/jadesoft/util/mcgen/Plib/libjt74opal.a(rotpox.o)
 .comment       0x0000251c       0x26 /home/pcl2483/pedro/jadesoft/util/mcgen/Plib/libjt74opal.a(sigee.o)
 .comment       0x00002542       0x26 /home/pcl2483/pedro/jadesoft/util/mcgen/Plib/libjt74opal.a(sphera.o)
 .comment       0x00002568       0x26 /home/pcl2483/pedro/jadesoft/util/mcgen/Plib/libjt74opal.a(spherd.o)
 .comment       0x0000258e       0x26 /home/pcl2483/pedro/jadesoft/util/mcgen/Plib/libjt74opal.a(bostd3.o)
 .comment       0x000025b4       0x26 /home/pcl2483/pedro/jadesoft/util/mcgen/Plib/libjt74opal.a(bostr3.o)
 .comment       0x000025da       0x26 /home/pcl2483/pedro/jadesoft/util/mcgen/Plib/libjt74opal.a(bwigs.o)
 .comment       0x00002600       0x26 /home/pcl2483/pedro/jadesoft/util/mcgen/Plib/libjt74opal.a(choice.o)
 .comment       0x00002626       0x26 /home/pcl2483/pedro/jadesoft/util/mcgen/Plib/libjt74opal.a(dadmaa.o)
 .comment       0x0000264c       0x26 /home/pcl2483/pedro/jadesoft/util/mcgen/Plib/libjt74opal.a(dam4pi.o)
 .comment       0x00002672       0x26 /home/pcl2483/pedro/jadesoft/util/mcgen/Plib/libjt74opal.a(dampog.o)
 .comment       0x00002698       0x26 /home/pcl2483/pedro/jadesoft/util/mcgen/Plib/libjt74opal.a(damppk.o)
 .comment       0x000026be       0x26 /home/pcl2483/pedro/jadesoft/util/mcgen/Plib/libjt74opal.a(dampry.o)
 .comment       0x000026e4       0x26 /home/pcl2483/pedro/jadesoft/util/mcgen/Plib/libjt74opal.a(dcdmas.o)
 .comment       0x0000270a       0x26 /home/pcl2483/pedro/jadesoft/util/mcgen/Plib/libjt74opal.a(dphsaa.o)
 .comment       0x00002730       0x26 /home/pcl2483/pedro/jadesoft/util/mcgen/Plib/libjt74opal.a(form1.o)
 .comment       0x00002756       0x26 /home/pcl2483/pedro/jadesoft/util/mcgen/Plib/libjt74opal.a(form2.o)
 .comment       0x0000277c       0x26 /home/pcl2483/pedro/jadesoft/util/mcgen/Plib/libjt74opal.a(form3.o)
 .comment       0x000027a2       0x26 /home/pcl2483/pedro/jadesoft/util/mcgen/Plib/libjt74opal.a(form4.o)
 .comment       0x000027c8       0x26 /home/pcl2483/pedro/jadesoft/util/mcgen/Plib/libjt74opal.a(form5.o)
 .comment       0x000027ee       0x26 /home/pcl2483/pedro/jadesoft/util/mcgen/Plib/libjt74opal.a(formom.o)
 .comment       0x00002814       0x26 /home/pcl2483/pedro/jadesoft/util/mcgen/Plib/libjt74opal.a(fpik.o)
 .comment       0x0000283a       0x26 /home/pcl2483/pedro/jadesoft/util/mcgen/Plib/libjt74opal.a(fpikm.o)
 .comment       0x00002860       0x26 /home/pcl2483/pedro/jadesoft/util/mcgen/Plib/libjt74opal.a(fpikmd.o)
 .comment       0x00002886       0x26 /home/pcl2483/pedro/jadesoft/util/mcgen/Plib/libjt74opal.a(gfun.o)
 .comment       0x000028ac       0x26 /home/pcl2483/pedro/jadesoft/util/mcgen/Plib/libjt74opal.a(prod5.o)
 .comment       0x000028d2       0x26 /home/pcl2483/pedro/jadesoft/util/mcgen/Plib/libjt74opal.a(rotod2.o)
 .comment       0x000028f8       0x26 /home/pcl2483/pedro/jadesoft/util/mcgen/Plib/libjt74opal.a(rotod3.o)
 .comment       0x0000291e       0x26 /home/pcl2483/pedro/jadesoft/util/mcgen/Plib/libjt74opal.a(sqm2.o)
 .comment       0x00002944       0x26 /home/pcl2483/pedro/jadesoft/util/mcgen/Plib/libjt74opal.a(thb.o)
 .comment       0x0000296a       0x26 /home/pcl2483/pedro/jadesoft/util/mcgen/Plib/libjt74opal.a(wigfor.o)
 .comment       0x00002990       0x26 /home/pcl2483/pedro/jadesoft/util/mcgen/Plib/libjt74opal.a(bwig.o)
 .comment       0x000029b6       0x26 /home/pcl2483/pedro/jadesoft/util/mcgen/Plib/libjt74opal.a(bwigm.o)
 .comment       0x000029dc       0x26 /home/pcl2483/pedro/jadesoft/util/mcgen/Plib/libjt74opal.a(claxi.o)
 .comment       0x00002a02       0x26 /home/pcl2483/pedro/jadesoft/util/mcgen/Plib/libjt74opal.a(clnut.o)
 .comment       0x00002a28       0x26 /home/pcl2483/pedro/jadesoft/util/mcgen/Plib/libjt74opal.a(clvec.o)
 .comment       0x00002a4e       0x26 /home/pcl2483/pedro/jadesoft/util/mcgen/Plib/libjt74opal.a(curr.o)
 .comment       0x00002a74       0x26 /home/pcl2483/pedro/jadesoft/util/mcgen/Plib/libjt74opal.a(dilog.o)
 .comment       0x00002a9a       0x26 /home/pcl2483/pedro/jadesoft/util/mcgen/Plib/libckern105.a(ckern.o)
 .comment       0x00002ac0       0x26 /home/pcl2483/pedro/jadesoft/util/mcgen/Plib/libckern105.a(cksord.o)
 .comment       0x00002ae6       0x26 /home/pcl2483/pedro/jadesoft/util/mcgen/Plib/libckern105.a(cnjet.o)
 .comment       0x00002b0c       0x26 /home/pcl2483/pedro/jadesoft/util/mcgen/Plib/libpx114.a(pxang3.o)
 .comment       0x00002b32       0x26 /home/pcl2483/pedro/jadesoft/util/mcgen/Plib/libpx114.a(pxanxy.o)
 .comment       0x00002b58       0x26 /home/pcl2483/pedro/jadesoft/util/mcgen/Plib/libpx114.a(pxcone.o)
 .comment       0x00002b7e       0x26 /home/pcl2483/pedro/jadesoft/util/mcgen/Plib/libpx114.a(pxcopv.o)
 .comment       0x00002ba4       0x26 /home/pcl2483/pedro/jadesoft/util/mcgen/Plib/libpx114.a(pxjpdg.o)
 .comment       0x00002bca       0x26 /home/pcl2483/pedro/jadesoft/util/mcgen/Plib/libpx114.a(pxjsp3.o)
 .comment       0x00002bf0       0x26 /home/pcl2483/pedro/jadesoft/util/mcgen/Plib/libpx114.a(pxlsp3.o)
 .comment       0x00002c16       0x26 /home/pcl2483/pedro/jadesoft/util/mcgen/Plib/libpx114.a(pxlth4.o)
 .comment       0x00002c3c       0x26 /home/pcl2483/pedro/jadesoft/util/mcgen/Plib/libpx114.a(pxlut3.o)
 .comment       0x00002c62       0x26 /home/pcl2483/pedro/jadesoft/util/mcgen/Plib/libpx114.a(pxlzf5.o)
 .comment       0x00002c88       0x26 /home/pcl2483/pedro/jadesoft/util/mcgen/Plib/libpx114.a(pxmmbb.o)
 .comment       0x00002cae       0x26 /home/pcl2483/pedro/jadesoft/util/mcgen/Plib/libpx114.a(pxnorv.o)
 .comment       0x00002cd4       0x26 /home/pcl2483/pedro/jadesoft/util/mcgen/Plib/libpx114.a(pxolap.o)
 .comment       0x00002cfa       0x26 /home/pcl2483/pedro/jadesoft/util/mcgen/Plib/libpx114.a(pxord.o)
 .comment       0x00002d20       0x26 /home/pcl2483/pedro/jadesoft/util/mcgen/Plib/libpx114.a(pxplt3.o)
 .comment       0x00002d46       0x26 /home/pcl2483/pedro/jadesoft/util/mcgen/Plib/libpx114.a(pxplu3.o)
 .comment       0x00002d6c       0x26 /home/pcl2483/pedro/jadesoft/util/mcgen/Plib/libpx114.a(pxprcv.o)
 .comment       0x00002d92       0x26 /home/pcl2483/pedro/jadesoft/util/mcgen/Plib/libpx114.a(pxprrv.o)
 .comment       0x00002db8       0x26 /home/pcl2483/pedro/jadesoft/util/mcgen/Plib/libpx114.a(pxrap4.o)
 .comment       0x00002dde       0x26 /home/pcl2483/pedro/jadesoft/util/mcgen/Plib/libpx114.a(pxrmx3.o)
 .comment       0x00002e04       0x26 /home/pcl2483/pedro/jadesoft/util/mcgen/Plib/libpx114.a(pxrob3.o)
 .comment       0x00002e2a       0x26 /home/pcl2483/pedro/jadesoft/util/mcgen/Plib/libpx114.a(pxrof3.o)
 .comment       0x00002e50       0x26 /home/pcl2483/pedro/jadesoft/util/mcgen/Plib/libpx114.a(pxsear.o)
 .comment       0x00002e76       0x26 /home/pcl2483/pedro/jadesoft/util/mcgen/Plib/libpx114.a(pxsorv.o)
 .comment       0x00002e9c       0x26 /home/pcl2483/pedro/jadesoft/util/mcgen/Plib/libpx114.a(pxtry.o)
 .comment       0x00002ec2       0x26 /home/pcl2483/pedro/jadesoft/util/mcgen/Plib/libpx114.a(pxuvec.o)
 .comment       0x00002ee8       0x26 /home/pcl2483/pedro/jadesoft/util/mcgen/Plib/libpx114.a(pxzerv.o)
 .comment       0x00002f0e       0x26 /home/pcl2483/pedro/jadesoft/util/mcgen/Plib/libpx114.a(ykern.o)
 .comment       0x00002f34       0x26 /home/pcl2483/pedro/jadesoft/util/mcgen/Plib/libpx114.a(ynjet.o)
 .comment       0x00002f5a       0x26 /home/pcl2483/pedro/jadesoft/util/mcgen/Plib/libpx114.a(yyjet.o)
 .comment       0x00002f80       0x26 /home/pcl2483/pedro/jadesoft/util/mcgen/Plib/libpx114.a(pxaddv.o)
 .comment       0x00002fa6       0x26 /home/pcl2483/pedro/jadesoft/util/mcgen/Plib/libpx114.a(pxdiam.o)
 .comment       0x00002fcc       0x26 /home/pcl2483/pedro/jadesoft/util/mcgen/Plib/libpx114.a(pxmulm.o)
 .comment       0x00002ff2       0x26 /home/pcl2483/pedro/jadesoft/util/mcgen/Plib/libpx114.a(pxnew.o)
 .comment       0x00003018       0x26 /home/pcl2483/pedro/jadesoft/util/mcgen/Plib/libpx114.a(pxsame.o)
 .comment       0x0000303e       0x26 /home/pcl2483/pedro/jadesoft/util/mcgen/Plib/libpx114.a(pxunim.o)
 .comment       0x00003064       0x37 /cern/99/lib/libpacklib.a(ffgo.o)
 .comment       0x0000309b       0x37 /cern/99/lib/libpacklib.a(ffinit.o)
 .comment       0x000030d2       0x37 /cern/99/lib/libpacklib.a(ffkey.o)
 .comment       0x00003109       0x37 /cern/99/lib/libpacklib.a(ffset.o)
 .comment       0x00003140       0x37 /cern/99/lib/libpacklib.a(ffskip.o)
 .comment       0x00003177       0x37 /cern/99/lib/libpacklib.a(ffupca.o)
 .comment       0x000031ae       0x37 /cern/99/lib/libpacklib.a(ffuser.o)
 .comment       0x000031e5       0x37 /cern/99/lib/libpacklib.a(ffuset.o)
 .comment       0x0000321c       0x37 /cern/99/lib/libpacklib.a(hrput.o)
 .comment       0x00003253       0x37 /cern/99/lib/libpacklib.a(hbook1.o)
 .comment       0x0000328a       0x37 /cern/99/lib/libpacklib.a(hbook2.o)
 .comment       0x000032c1       0x37 /cern/99/lib/libpacklib.a(hbookb.o)
 .comment       0x000032f8       0x37 /cern/99/lib/libpacklib.a(hbtit.o)
 .comment       0x0000332f       0x37 /cern/99/lib/libpacklib.a(hbug.o)
 .comment       0x00003366       0x37 /cern/99/lib/libpacklib.a(hcdir.o)
 .comment       0x0000339d       0x37 /cern/99/lib/libpacklib.a(hchnam.o)
 .comment       0x000033d4       0x37 /cern/99/lib/libpacklib.a(hdelet.o)
 .comment       0x0000340b       0x37 /cern/99/lib/libpacklib.a(hfill.o)
 .comment       0x00003442       0x37 /cern/99/lib/libpacklib.a(hfilpf.o)
 .comment       0x00003479       0x37 /cern/99/lib/libpacklib.a(hgive.o)
 .comment       0x000034b0       0x37 /cern/99/lib/libpacklib.a(hidopt.o)
 .comment       0x000034e7       0x37 /cern/99/lib/libpacklib.a(hlimit.o)
 .comment       0x0000351e       0x37 /cern/99/lib/libpacklib.a(hloop.o)
 .comment       0x00003555       0x37 /cern/99/lib/libpacklib.a(hmachi.o)
 .comment       0x0000358c       0x37 /cern/99/lib/libpacklib.a(hnoent.o)
 .comment       0x000035c3       0x37 /cern/99/lib/libpacklib.a(hopera.o)
 .comment       0x000035fa       0x37 /cern/99/lib/libpacklib.a(hpaff.o)
 .comment       0x00003631       0x37 /cern/99/lib/libpacklib.a(hpak.o)
 .comment       0x00003668       0x37 /cern/99/lib/libpacklib.a(hpake.o)
 .comment       0x0000369f       0x37 /cern/99/lib/libpacklib.a(hpath.o)
 .comment       0x000036d6       0x37 /cern/99/lib/libpacklib.a(hrebin.o)
 .comment       0x0000370d       0x37 /cern/99/lib/libpacklib.a(hreset.o)
 .comment       0x00003744       0x37 /cern/99/lib/libpacklib.a(hrez0.o)
 .comment       0x0000377b       0x37 /cern/99/lib/libpacklib.a(hsifla.o)
 .comment       0x000037b2       0x37 /cern/99/lib/libpacklib.a(hspace.o)
 .comment       0x000037e9       0x37 /cern/99/lib/libpacklib.a(hstaf.o)
 .comment       0x00003820       0x37 /cern/99/lib/libpacklib.a(hsupis.o)
 .comment       0x00003857       0x37 /cern/99/lib/libpacklib.a(huoptc.o)
 .comment       0x0000388e       0x37 /cern/99/lib/libpacklib.a(hlogpf.o)
 .comment       0x000038c5       0x37 /cern/99/lib/libpacklib.a(hoptpf.o)
 .comment       0x000038fc       0x37 /cern/99/lib/libpacklib.a(hitoc.o)
 .comment       0x00003933       0x37 /cern/99/lib/libpacklib.a(hnbufd.o)
 .comment       0x0000396a       0x37 /cern/99/lib/libpacklib.a(hntmpd.o)
 .comment       0x000039a1       0x37 /cern/99/lib/libpacklib.a(hntrset.o)
 .comment       0x000039d8       0x37 /cern/99/lib/libpacklib.a(fzin.o)
 .comment       0x00003a0f       0x37 /cern/99/lib/libpacklib.a(fzirel.o)
 .comment       0x00003a46       0x37 /cern/99/lib/libpacklib.a(fzloc.o)
 .comment       0x00003a7d       0x37 /cern/99/lib/libpacklib.a(mzbook.o)
 .comment       0x00003ab4       0x37 /cern/99/lib/libpacklib.a(mzdrop.o)
 .comment       0x00003aeb       0x37 /cern/99/lib/libpacklib.a(mzebra.o)
 .comment       0x00003b22       0x37 /cern/99/lib/libpacklib.a(mzflag.o)
 .comment       0x00003b59       0x37 /cern/99/lib/libpacklib.a(mzinco.o)
 .comment       0x00003b90       0x37 /cern/99/lib/libpacklib.a(mzlift.o)
 .comment       0x00003bc7       0x37 /cern/99/lib/libpacklib.a(mzlink.o)
 .comment       0x00003bfe       0x37 /cern/99/lib/libpacklib.a(mzneed.o)
 .comment       0x00003c35       0x37 /cern/99/lib/libpacklib.a(mzpaw.o)
 .comment       0x00003c6c       0x37 /cern/99/lib/libpacklib.a(mzpush.o)
 .comment       0x00003ca3       0x37 /cern/99/lib/libpacklib.a(mzstor.o)
 .comment       0x00003cda       0x37 /cern/99/lib/libpacklib.a(mzvers.o)
 .comment       0x00003d11       0x37 /cern/99/lib/libpacklib.a(mzgar1.o)
 .comment       0x00003d48       0x37 /cern/99/lib/libpacklib.a(mzgsta.o)
 .comment       0x00003d7f       0x37 /cern/99/lib/libpacklib.a(mzmove.o)
 .comment       0x00003db6       0x37 /cern/99/lib/libpacklib.a(mzrelb.o)
 .comment       0x00003ded       0x37 /cern/99/lib/libpacklib.a(mzrell.o)
 .comment       0x00003e24       0x37 /cern/99/lib/libpacklib.a(mzrelx.o)
 .comment       0x00003e5b       0x37 /cern/99/lib/libpacklib.a(mztabf.o)
 .comment       0x00003e92       0x37 /cern/99/lib/libpacklib.a(mztabm.o)
 .comment       0x00003ec9       0x37 /cern/99/lib/libpacklib.a(mztabr.o)
 .comment       0x00003f00       0x37 /cern/99/lib/libpacklib.a(mztabs.o)
 .comment       0x00003f37       0x37 /cern/99/lib/libpacklib.a(mztabx.o)
 .comment       0x00003f6e       0x37 /cern/99/lib/libpacklib.a(mzchln.o)
 .comment       0x00003fa5       0x37 /cern/99/lib/libpacklib.a(mzchls.o)
 .comment       0x00003fdc       0x37 /cern/99/lib/libpacklib.a(mzchnb.o)
 .comment       0x00004013       0x37 /cern/99/lib/libpacklib.a(mzfdiv.o)
 .comment       0x0000404a       0x37 /cern/99/lib/libpacklib.a(mzform.o)
 .comment       0x00004081       0x37 /cern/99/lib/libpacklib.a(mzioch.o)
 .comment       0x000040b8       0x37 /cern/99/lib/libpacklib.a(mzresv.o)
 .comment       0x000040ef       0x37 /cern/99/lib/libpacklib.a(mzsdiv.o)
 .comment       0x00004126       0x37 /cern/99/lib/libpacklib.a(zvautx.o)
 .comment       0x0000415d       0x37 /cern/99/lib/libpacklib.a(zfatal.o)
 .comment       0x00004194       0x37 /cern/99/lib/libpacklib.a(zfatam.o)
 .comment       0x000041cb       0x37 /cern/99/lib/libpacklib.a(ztell.o)
 .comment       0x00004202       0x37 /cern/99/lib/libpacklib.a(ztelus.o)
 .comment       0x00004239       0x37 /cern/99/lib/libpacklib.a(izbcdt.o)
 .comment       0x00004270       0x37 /cern/99/lib/libpacklib.a(izhnum.o)
 .comment       0x000042a7       0x37 /cern/99/lib/libpacklib.a(zshunt.o)
 .comment       0x000042de       0x37 /cern/99/lib/libpacklib.a(rzcdir.o)
 .comment       0x00004315       0x37 /cern/99/lib/libpacklib.a(rzdate.o)
 .comment       0x0000434c       0x37 /cern/99/lib/libpacklib.a(rzfdir.o)
 .comment       0x00004383       0x37 /cern/99/lib/libpacklib.a(rziodo.o)
 .comment       0x000043ba       0x37 /cern/99/lib/libpacklib.a(rzpaff.o)
 .comment       0x000043f1       0x37 /cern/99/lib/libpacklib.a(rzpath.o)
 .comment       0x00004428       0x37 /cern/99/lib/libpacklib.a(rzrtop.o)
 .comment       0x0000445f       0x37 /cern/99/lib/libpacklib.a(rzsame.o)
 .comment       0x00004496       0x37 /cern/99/lib/libpacklib.a(rzsave.o)
 .comment       0x000044cd       0x37 /cern/99/lib/libpacklib.a(rzstrir.o)
 .comment       0x00004504       0x37 /cern/99/lib/libpacklib.a(rzvcyc.o)
 .comment       0x0000453b       0x37 /cern/99/lib/libpacklib.a(abend.o)
 .comment       0x00004572       0x37 /cern/99/lib/libpacklib.a(datime.o)
 .comment       0x000045a9       0x37 /cern/99/lib/libpacklib.a(datimh.o)
 .comment       0x000045e0       0x37 /cern/99/lib/libpacklib.a(jumpxn.o)
 .comment       0x00004617       0x37 /cern/99/lib/libpacklib.a(locf.o)
 .comment       0x0000464e       0x37 /cern/99/lib/libpacklib.a(qnexte.o)
 .comment       0x00004685       0x37 /cern/99/lib/libpacklib.a(lenocc.o)
 .comment       0x000046bc       0x37 /cern/99/lib/libpacklib.a(vxinvb.o)
 .comment       0x000046f3       0x37 /cern/99/lib/libpacklib.a(cfclos.o)
 .comment       0x0000472a       0x37 /cern/99/lib/libpacklib.a(cfget.o)
 .comment       0x00004761       0x37 /cern/99/lib/libpacklib.a(cfput.o)
 .comment       0x00004798       0x37 /cern/99/lib/libpacklib.a(cfseek.o)
 .comment       0x000047cf       0x37 /cern/99/lib/libpacklib.a(cfopen.o)
 .comment       0x00004806       0x37 /cern/99/lib/libpacklib.a(cleft.o)
 .comment       0x0000483d       0x37 /cern/99/lib/libpacklib.a(cltou.o)
 .comment       0x00004874       0x37 /cern/99/lib/libpacklib.a(cutol.o)
 .comment       0x000048ab       0x37 /cern/99/lib/libpacklib.a(floarg.o)
 .comment       0x000048e2       0x37 /cern/99/lib/libpacklib.a(intarg.o)
 .comment       0x00004919       0x37 /cern/99/lib/libpacklib.a(kerngt.o)
 .comment       0x00004950       0x37 /cern/99/lib/libpacklib.a(uoptc.o)
 .comment       0x00004987       0x37 /cern/99/lib/libpacklib.a(utrans.o)
 .comment       0x000049be       0x37 /cern/99/lib/libpacklib.a(ishftr.o)
 .comment       0x000049f5       0x37 /cern/99/lib/libpacklib.a(qnext.o)
 .comment       0x00004a2c       0x37 /cern/99/lib/libpacklib.a(ucopy2c.o)
 .comment       0x00004a63       0x37 /cern/99/lib/libpacklib.a(iucomp.o)
 .comment       0x00004a9a       0x37 /cern/99/lib/libpacklib.a(noarg.o)
 .comment       0x00004ad1       0x37 /cern/99/lib/libpacklib.a(sbit0.o)
 .comment       0x00004b08       0x37 /cern/99/lib/libpacklib.a(sbit1.o)
 .comment       0x00004b3f       0x37 /cern/99/lib/libpacklib.a(ublow.o)
 .comment       0x00004b76       0x37 /cern/99/lib/libpacklib.a(ubunch.o)
 .comment       0x00004bad       0x37 /cern/99/lib/libpacklib.a(ucopy.o)
 .comment       0x00004be4       0x37 /cern/99/lib/libpacklib.a(uctoh.o)
 .comment       0x00004c1b       0x37 /cern/99/lib/libpacklib.a(uctoh1.o)
 .comment       0x00004c52       0x37 /cern/99/lib/libpacklib.a(uhtoc.o)
 .comment       0x00004c89       0x37 /cern/99/lib/libpacklib.a(vblank.o)
 .comment       0x00004cc0       0x37 /cern/99/lib/libpacklib.a(vfill.o)
 .comment       0x00004cf7       0x37 /cern/99/lib/libpacklib.a(vzero.o)
 .comment       0x00004d2e       0x37 /cern/99/lib/libpacklib.a(jbit.o)
 .comment       0x00004d65       0x37 /cern/99/lib/libpacklib.a(jbyt.o)
 .comment       0x00004d9c       0x37 /cern/99/lib/libpacklib.a(sbyt.o)
 .comment       0x00004dd3       0x37 /cern/99/lib/libpacklib.a(locati.o)
 .comment       0x00004e0a       0x37 /cern/99/lib/libpacklib.a(czgeta.o)
 .comment       0x00004e41       0x37 /cern/99/lib/libpacklib.a(czputa.o)
 .comment       0x00004e78       0x37 /cern/99/lib/libpacklib.a(ffcard.o)
 .comment       0x00004eaf       0x37 /cern/99/lib/libpacklib.a(fffind.o)
 .comment       0x00004ee6       0x37 /cern/99/lib/libpacklib.a(hqputf.o)
 .comment       0x00004f1d       0x37 /cern/99/lib/libpacklib.a(hbpqry.o)
 .comment       0x00004f54       0x37 /cern/99/lib/libpacklib.a(hrendc.o)
 .comment       0x00004f8b       0x37 /cern/99/lib/libpacklib.a(hropen.o)
 .comment       0x00004fc2       0x37 /cern/99/lib/libpacklib.a(hrout.o)
 .comment       0x00004ff9       0x37 /cern/99/lib/libpacklib.a(hrzcd.o)
 .comment       0x00005030       0x37 /cern/99/lib/libpacklib.a(hrzout.o)
 .comment       0x00005067       0x37 /cern/99/lib/libpacklib.a(hbar2.o)
 .comment       0x0000509e       0x37 /cern/99/lib/libpacklib.a(hbarx.o)
 .comment       0x000050d5       0x37 /cern/99/lib/libpacklib.a(hbary.o)
 .comment       0x0000510c       0x37 /cern/99/lib/libpacklib.a(hbin.o)
 .comment       0x00005143       0x37 /cern/99/lib/libpacklib.a(hcopy.o)
 .comment       0x0000517a       0x37 /cern/99/lib/libpacklib.a(hcx.o)
 .comment       0x000051b1       0x37 /cern/99/lib/libpacklib.a(hcxy.o)
 .comment       0x000051e8       0x37 /cern/99/lib/libpacklib.a(hdcofl.o)
 .comment       0x0000521f       0x37 /cern/99/lib/libpacklib.a(hf1.o)
 .comment       0x00005256       0x37 /cern/99/lib/libpacklib.a(hf1aut.o)
 .comment       0x0000528d       0x37 /cern/99/lib/libpacklib.a(hf2.o)
 .comment       0x000052c4       0x37 /cern/99/lib/libpacklib.a(hfcx.o)
 .comment       0x000052fb       0x37 /cern/99/lib/libpacklib.a(hfcxy.o)
 .comment       0x00005332       0x37 /cern/99/lib/libpacklib.a(hfidp.o)
 .comment       0x00005369       0x37 /cern/99/lib/libpacklib.a(hfind.o)
 .comment       0x000053a0       0x37 /cern/99/lib/libpacklib.a(hi.o)
 .comment       0x000053d7       0x37 /cern/99/lib/libpacklib.a(hie.o)
 .comment       0x0000540e       0x37 /cern/99/lib/libpacklib.a(hix.o)
 .comment       0x00005445       0x37 /cern/99/lib/libpacklib.a(hlabeq.o)
 .comment       0x0000547c       0x37 /cern/99/lib/libpacklib.a(hmdir.o)
 .comment       0x000054b3       0x37 /cern/99/lib/libpacklib.a(hoper1.o)
 .comment       0x000054ea       0x37 /cern/99/lib/libpacklib.a(hoper1a.o)
 .comment       0x00005521       0x37 /cern/99/lib/libpacklib.a(hnbfwr.o)
 .comment       0x00005558       0x37 /cern/99/lib/libpacklib.a(hnbuff.o)
 .comment       0x0000558f       0x37 /cern/99/lib/libpacklib.a(hnmset.o)
 .comment       0x000055c6       0x37 /cern/99/lib/libpacklib.a(hntdel.o)
 .comment       0x000055fd       0x37 /cern/99/lib/libpacklib.a(hntmpf.o)
 .comment       0x00005634       0x37 /cern/99/lib/libpacklib.a(fzidia.o)
 .comment       0x0000566b       0x37 /cern/99/lib/libpacklib.a(fziffn.o)
 .comment       0x000056a2       0x37 /cern/99/lib/libpacklib.a(fziffx.o)
 .comment       0x000056d9       0x37 /cern/99/lib/libpacklib.a(fzilin.o)
 .comment       0x00005710       0x37 /cern/99/lib/libpacklib.a(fzimtb.o)
 .comment       0x00005747       0x37 /cern/99/lib/libpacklib.a(fzirec.o)
 .comment       0x0000577e       0x37 /cern/99/lib/libpacklib.a(fzitrn.o)
 .comment       0x000057b5       0x37 /cern/99/lib/libpacklib.a(fzout.o)
 .comment       0x000057ec       0x37 /cern/99/lib/libpacklib.a(fzitrx.o)
 .comment       0x00005823       0x37 /cern/99/lib/libpacklib.a(mzcopy.o)
 .comment       0x0000585a       0x37 /cern/99/lib/libpacklib.a(mzpudx.o)
 .comment       0x00005891       0x37 /cern/99/lib/libpacklib.a(mzfgap.o)
 .comment       0x000058c8       0x37 /cern/99/lib/libpacklib.a(mzgarb.o)
 .comment       0x000058ff       0x37 /cern/99/lib/libpacklib.a(mztabc.o)
 .comment       0x00005936       0x37 /cern/99/lib/libpacklib.a(mztabh.o)
 .comment       0x0000596d       0x37 /cern/99/lib/libpacklib.a(mzdvac.o)
 .comment       0x000059a4       0x37 /cern/99/lib/libpacklib.a(mziocf.o)
 .comment       0x000059db       0x37 /cern/99/lib/libpacklib.a(mziocr.o)
 .comment       0x00005a12       0x37 /cern/99/lib/libpacklib.a(mzixco.o)
 .comment       0x00005a49       0x37 /cern/99/lib/libpacklib.a(zabend.o)
 .comment       0x00005a80       0x37 /cern/99/lib/libpacklib.a(zend.o)
 .comment       0x00005ab7       0x37 /cern/99/lib/libpacklib.a(zphase.o)
 .comment       0x00005aee       0x37 /cern/99/lib/libpacklib.a(zpostm.o)
 .comment       0x00005b25       0x37 /cern/99/lib/libpacklib.a(zhtoi.o)
 .comment       0x00005b5c       0x37 /cern/99/lib/libpacklib.a(rzclos.o)
 .comment       0x00005b93       0x37 /cern/99/lib/libpacklib.a(rzend.o)
 .comment       0x00005bca       0x37 /cern/99/lib/libpacklib.a(rzfree.o)
 .comment       0x00005c01       0x37 /cern/99/lib/libpacklib.a(rzmdir.o)
 .comment       0x00005c38       0x37 /cern/99/lib/libpacklib.a(rzmods.o)
 .comment       0x00005c6f       0x37 /cern/99/lib/libpacklib.a(rzopen.o)
 .comment       0x00005ca6       0x37 /cern/99/lib/libpacklib.a(rzout.o)
 .comment       0x00005cdd       0x37 /cern/99/lib/libpacklib.a(rzstrip.o)
 .comment       0x00005d14       0x37 /cern/99/lib/libpacklib.a(rzused.o)
 .comment       0x00005d4b       0x14 /cern/99/lib/libpacklib.a(close.o)
 .comment       0x00005d5f       0x14 /cern/99/lib/libpacklib.a(error.o)
 .comment       0x00005d73       0x14 /cern/99/lib/libpacklib.a(lseek.o)
 .comment       0x00005d87       0x14 /cern/99/lib/libpacklib.a(open.o)
 .comment       0x00005d9b       0x14 /cern/99/lib/libpacklib.a(parse.o)
 .comment       0x00005daf       0x14 /cern/99/lib/libpacklib.a(read.o)
 .comment       0x00005dc3       0x14 /cern/99/lib/libpacklib.a(serror.o)
 .comment       0x00005dd7       0x14 /cern/99/lib/libpacklib.a(setopt.o)
 .comment       0x00005deb       0x14 /cern/99/lib/libpacklib.a(socket.o)
 .comment       0x00005dff       0x14 /cern/99/lib/libpacklib.a(stream.o)
 .comment       0x00005e13       0x14 /cern/99/lib/libpacklib.a(trace.o)
 .comment       0x00005e27       0x14 /cern/99/lib/libpacklib.a(write.o)
 .comment       0x00005e3b       0x37 /cern/99/lib/libpacklib.a(cfopei.o)
 .comment       0x00005e72       0x37 /cern/99/lib/libpacklib.a(cfstat.o)
 .comment       0x00005ea9       0x37 /cern/99/lib/libpacklib.a(fchtak.o)
 .comment       0x00005ee0       0x37 /cern/99/lib/libpacklib.a(gshowf.o)
 .comment       0x00005f17       0x37 /cern/99/lib/libpacklib.a(icluns.o)
 .comment       0x00005f4e       0x37 /cern/99/lib/libpacklib.a(traceq.o)
 .comment       0x00005f85       0x37 /cern/99/lib/libpacklib.a(xinbf.o)
 .comment       0x00005fbc       0x37 /cern/99/lib/libpacklib.a(xinbs.o)
 .comment       0x00005ff3       0x37 /cern/99/lib/libpacklib.a(halloc.o)
 .comment       0x0000602a       0x37 /cern/99/lib/libpacklib.a(hrfile.o)
 .comment       0x00006061       0x37 /cern/99/lib/libpacklib.a(hfc1.o)
 .comment       0x00006098       0x37 /cern/99/lib/libpacklib.a(hlccmp.o)
 .comment       0x000060cf       0x37 /cern/99/lib/libpacklib.a(hlgnxt.o)
 .comment       0x00006106       0x37 /cern/99/lib/libpacklib.a(hlhcmp.o)
 .comment       0x0000613d       0x37 /cern/99/lib/libpacklib.a(hlpos.o)
 .comment       0x00006174       0x37 /cern/99/lib/libpacklib.a(dzsnap.o)
 .comment       0x000061ab       0x37 /cern/99/lib/libpacklib.a(dztext.o)
 .comment       0x000061e2       0x37 /cern/99/lib/libpacklib.a(zpage.o)
 .comment       0x00006219       0x37 /cern/99/lib/libpacklib.a(fzipha.o)
 .comment       0x00006250       0x37 /cern/99/lib/libpacklib.a(fziphd.o)
 .comment       0x00006287       0x37 /cern/99/lib/libpacklib.a(fziphm.o)
 .comment       0x000062be       0x37 /cern/99/lib/libpacklib.a(fziphr.o)
 .comment       0x000062f5       0x37 /cern/99/lib/libpacklib.a(fziprl.o)
 .comment       0x0000632c       0x37 /cern/99/lib/libpacklib.a(fzoffn.o)
 .comment       0x00006363       0x37 /cern/99/lib/libpacklib.a(fzoffx.o)
 .comment       0x0000639a       0x37 /cern/99/lib/libpacklib.a(fzon1.o)
 .comment       0x000063d1       0x37 /cern/99/lib/libpacklib.a(fzon2.o)
 .comment       0x00006408       0x37 /cern/99/lib/libpacklib.a(fzon3.o)
 .comment       0x0000643f       0x37 /cern/99/lib/libpacklib.a(fzon4.o)
 .comment       0x00006476       0x37 /cern/99/lib/libpacklib.a(fzon5.o)
 .comment       0x000064ad       0x37 /cern/99/lib/libpacklib.a(fzon6.o)
 .comment       0x000064e4       0x37 /cern/99/lib/libpacklib.a(fzorec.o)
 .comment       0x0000651b       0x37 /cern/99/lib/libpacklib.a(fzotab.o)
 .comment       0x00006552       0x37 /cern/99/lib/libpacklib.a(fzotrn.o)
 .comment       0x00006589       0x37 /cern/99/lib/libpacklib.a(fzotxt.o)
 .comment       0x000065c0       0x37 /cern/99/lib/libpacklib.a(fzicv.o)
 .comment       0x000065f7       0x37 /cern/99/lib/libpacklib.a(fzotrx.o)
 .comment       0x0000662e       0x37 /cern/99/lib/libpacklib.a(mzend.o)
 .comment       0x00006665       0x37 /cern/99/lib/libpacklib.a(mzmaps.o)
 .comment       0x0000669c       0x37 /cern/99/lib/libpacklib.a(mzmark.o)
 .comment       0x000066d3       0x37 /cern/99/lib/libpacklib.a(mzwork.o)
 .comment       0x0000670a       0x37 /cern/99/lib/libpacklib.a(zitoh.o)
 .comment       0x00006741       0x37 /cern/99/lib/libpacklib.a(rzallo.o)
 .comment       0x00006778       0x37 /cern/99/lib/libpacklib.a(rzdelk.o)
 .comment       0x000067af       0x37 /cern/99/lib/libpacklib.a(rzexpd.o)
 .comment       0x000067e6       0x37 /cern/99/lib/libpacklib.a(rzfile.o)
 .comment       0x0000681d       0x37 /cern/99/lib/libpacklib.a(rzllok.o)
 .comment       0x00006854       0x37 /cern/99/lib/libpacklib.a(rzlock.o)
 .comment       0x0000688b       0x37 /cern/99/lib/libpacklib.a(rzmake.o)
 .comment       0x000068c2       0x37 /cern/99/lib/libpacklib.a(rzobkn.o)
 .comment       0x000068f9       0x37 /cern/99/lib/libpacklib.a(rzpurf.o)
 .comment       0x00006930       0x37 /cern/99/lib/libpacklib.a(rzveri.o)
 .comment       0x00006967       0x37 /cern/99/lib/libpacklib.a(rzwrt.o)
 .comment       0x0000699e       0x14 /cern/99/lib/libpacklib.a(connect.o)
 .comment       0x000069b2       0x14 /cern/99/lib/libpacklib.a(getacct.o)
 .comment       0x000069c6       0x14 /cern/99/lib/libpacklib.a(getacctent.o)
 .comment       0x000069da       0x14 /cern/99/lib/libpacklib.a(getconfent.o)
 .comment       0x000069ee       0x14 /cern/99/lib/libpacklib.a(getifnam.o)
 .comment       0x00006a02       0x14 /cern/99/lib/libpacklib.a(log.o)
 .comment       0x00006a16       0x14 /cern/99/lib/libpacklib.a(remote.o)
 .comment       0x00006a2a       0x14 /cern/99/lib/libpacklib.a(setnetio.o)
 .comment       0x00006a3e       0x37 /cern/99/lib/libpacklib.a(vxinvc.o)
 .comment       0x00006a75       0x37 /cern/99/lib/libpacklib.a(cfstati.o)
 .comment       0x00006aac       0x37 /cern/99/lib/libpacklib.a(dzare1.o)
 .comment       0x00006ae3       0x37 /cern/99/lib/libpacklib.a(dzbkup.o)
 .comment       0x00006b1a       0x37 /cern/99/lib/libpacklib.a(dzbkxr.o)
 .comment       0x00006b51       0x37 /cern/99/lib/libpacklib.a(dzdata.o)
 .comment       0x00006b88       0x37 /cern/99/lib/libpacklib.a(dzmap.o)
 .comment       0x00006bbf       0x37 /cern/99/lib/libpacklib.a(dzopt.o)
 .comment       0x00006bf6       0x37 /cern/99/lib/libpacklib.a(dzshpr.o)
 .comment       0x00006c2d       0x37 /cern/99/lib/libpacklib.a(dztyp.o)
 .comment       0x00006c64       0x37 /cern/99/lib/libpacklib.a(fziasc.o)
 .comment       0x00006c9b       0x37 /cern/99/lib/libpacklib.a(fzichh.o)
 .comment       0x00006cd2       0x37 /cern/99/lib/libpacklib.a(fzidum.o)
 .comment       0x00006d09       0x37 /cern/99/lib/libpacklib.a(fzophr.o)
 .comment       0x00006d40       0x37 /cern/99/lib/libpacklib.a(fzocv.o)
 .comment       0x00006d77       0x37 /cern/99/lib/libpacklib.a(izbcd.o)
 .comment       0x00006dae       0x37 /cern/99/lib/libpacklib.a(rzdlok.o)
 .comment       0x00006de5       0x37 /cern/99/lib/libpacklib.a(rzver1.o)
 .comment       0x00006e1c       0x37 /cern/99/lib/libpacklib.a(rzver2.o)
 .comment       0x00006e53       0x14 /cern/99/lib/libpacklib.a(stat.o)
 .comment       0x00006e67       0x37 /cern/99/lib/libpacklib.a(cfweof.o)
 .comment       0x00006e9e       0x37 /cern/99/lib/libpacklib.a(iumode.o)
 .comment       0x00006ed5       0x37 /cern/99/lib/libpacklib.a(iufind.o)
 .comment       0x00006f0c       0x37 /cern/99/lib/libpacklib.a(iusame.o)
 .comment       0x00006f43       0x37 /cern/99/lib/libpacklib.a(jrsbyt.o)
 .comment       0x00006f7a       0x37 /cern/99/lib/libpacklib.a(ucopiv.o)
 .comment       0x00006fb1       0x37 /cern/99/lib/libpacklib.a(dzbkdv.o)
 .comment       0x00006fe8       0x37 /cern/99/lib/libpacklib.a(dzbkhd.o)
 .comment       0x0000701f       0x37 /cern/99/lib/libpacklib.a(dziopr.o)
 .comment       0x00007056       0x37 /cern/99/lib/libpacklib.a(fzialn.o)
 .comment       0x0000708d       0x37 /cern/99/lib/libpacklib.a(fzoasc.o)
 .comment       0x000070c4       0x37 /cern/99/lib/libpacklib.a(izchav.o)
 .comment       0x000070fb       0x37 /cern/99/lib/libpacklib.a(rzprnk.o)
 .comment       0x00007132       0x14 /cern/99/lib/libpacklib.a(mstat.o)
 .comment       0x00007146       0x37 /cern/99/lib/libpacklib.a(dziopd.o)
 .comment       0x0000717d       0x37 /cern/99/lib/libpacklib.a(dzioph.o)
 .comment       0x000071b4       0x37 /cern/99/lib/libpacklib.a(fzoaln.o)
 .comment       0x000071eb       0x37 /cern/99/lib/libpacklib.a(fzoapk.o)
 .comment       0x00007222       0x37 /cern/99/lib/libpacklib.a(uh1toc.o)
 .comment       0x00007259       0x35 /cern/99/lib/libmathlib.a(dsyev.o)
 .comment       0x0000728e       0x35 /cern/99/lib/libmathlib.a(dsytrd.o)
 .comment       0x000072c3       0x35 /cern/99/lib/libmathlib.a(ilaenv.o)
 .comment       0x000072f8       0x35 /cern/99/lib/libmathlib.a(lsame.o)
 .comment       0x0000732d       0x35 /cern/99/lib/libmathlib.a(xerbla.o)
 .comment       0x00007362       0x35 /cern/99/lib/libmathlib.a(dscal.o)
 .comment       0x00007397       0x35 /cern/99/lib/libmathlib.a(dsyr2k.o)
 .comment       0x000073cc       0x35 /cern/99/lib/libmathlib.a(dlamch.o)
 .comment       0x00007401       0x35 /cern/99/lib/libmathlib.a(dlansy.o)
 .comment       0x00007436       0x35 /cern/99/lib/libmathlib.a(dlascl.o)
 .comment       0x0000746b       0x35 /cern/99/lib/libmathlib.a(dlassq.o)
 .comment       0x000074a0       0x35 /cern/99/lib/libmathlib.a(dlatrd.o)
 .comment       0x000074d5       0x35 /cern/99/lib/libmathlib.a(dorgtr.o)
 .comment       0x0000750a       0x35 /cern/99/lib/libmathlib.a(dsteqr.o)
 .comment       0x0000753f       0x35 /cern/99/lib/libmathlib.a(dsterf.o)
 .comment       0x00007574       0x35 /cern/99/lib/libmathlib.a(dsytd2.o)
 .comment       0x000075a9       0x35 /cern/99/lib/libmathlib.a(daxpy.o)
 .comment       0x000075de       0x35 /cern/99/lib/libmathlib.a(ddot.o)
 .comment       0x00007613       0x35 /cern/99/lib/libmathlib.a(dgemv.o)
 .comment       0x00007648       0x35 /cern/99/lib/libmathlib.a(dswap.o)
 .comment       0x0000767d       0x35 /cern/99/lib/libmathlib.a(dsymv.o)
 .comment       0x000076b2       0x35 /cern/99/lib/libmathlib.a(dsyr2.o)
 .comment       0x000076e7       0x35 /cern/99/lib/libmathlib.a(dlae2.o)
 .comment       0x0000771c       0x35 /cern/99/lib/libmathlib.a(dlaev2.o)
 .comment       0x00007751       0x35 /cern/99/lib/libmathlib.a(dlanst.o)
 .comment       0x00007786       0x35 /cern/99/lib/libmathlib.a(dlapy2.o)
 .comment       0x000077bb       0x35 /cern/99/lib/libmathlib.a(dlarfg.o)
 .comment       0x000077f0       0x35 /cern/99/lib/libmathlib.a(dlartg.o)
 .comment       0x00007825       0x35 /cern/99/lib/libmathlib.a(dlaset.o)
 .comment       0x0000785a       0x35 /cern/99/lib/libmathlib.a(dlasr.o)
 .comment       0x0000788f       0x35 /cern/99/lib/libmathlib.a(dlasrt.o)
 .comment       0x000078c4       0x35 /cern/99/lib/libmathlib.a(dorgql.o)
 .comment       0x000078f9       0x35 /cern/99/lib/libmathlib.a(dorgqr.o)
 .comment       0x0000792e       0x35 /cern/99/lib/libmathlib.a(dnrm2.o)
 .comment       0x00007963       0x35 /cern/99/lib/libmathlib.a(dlarfb.o)
 .comment       0x00007998       0x35 /cern/99/lib/libmathlib.a(dlarft.o)
 .comment       0x000079cd       0x35 /cern/99/lib/libmathlib.a(dorg2l.o)
 .comment       0x00007a02       0x35 /cern/99/lib/libmathlib.a(dorg2r.o)
 .comment       0x00007a37       0x35 /cern/99/lib/libmathlib.a(dcopy.o)
 .comment       0x00007a6c       0x35 /cern/99/lib/libmathlib.a(dgemm.o)
 .comment       0x00007aa1       0x35 /cern/99/lib/libmathlib.a(dtrmm.o)
 .comment       0x00007ad6       0x35 /cern/99/lib/libmathlib.a(dtrmv.o)
 .comment       0x00007b0b       0x35 /cern/99/lib/libmathlib.a(dlarf.o)
 .comment       0x00007b40       0x35 /cern/99/lib/libmathlib.a(dger.o)
 .comment       0x00007b75       0x26 /usr/lib/libc_nonshared.a(atexit.oS)
 .comment       0x00007b9b       0x26 /usr/lib/gcc-lib/i686-pc-linux-gnu/2.95.3/libg2c.a(close.o)
 .comment       0x00007bc1       0x26 /usr/lib/gcc-lib/i686-pc-linux-gnu/2.95.3/libg2c.a(dolio.o)
 .comment       0x00007be7       0x26 /usr/lib/gcc-lib/i686-pc-linux-gnu/2.95.3/libg2c.a(due.o)
 .comment       0x00007c0d       0x26 /usr/lib/gcc-lib/i686-pc-linux-gnu/2.95.3/libg2c.a(endfile.o)
 .comment       0x00007c33       0x26 /usr/lib/gcc-lib/i686-pc-linux-gnu/2.95.3/libg2c.a(err.o)
 .comment       0x00007c59       0x26 /usr/lib/gcc-lib/i686-pc-linux-gnu/2.95.3/libg2c.a(fmt.o)
 .comment       0x00007c7f       0x26 /usr/lib/gcc-lib/i686-pc-linux-gnu/2.95.3/libg2c.a(iio.o)
 .comment       0x00007ca5       0x26 /usr/lib/gcc-lib/i686-pc-linux-gnu/2.95.3/libg2c.a(inquire.o)
 .comment       0x00007ccb       0x26 /usr/lib/gcc-lib/i686-pc-linux-gnu/2.95.3/libg2c.a(lread.o)
 .comment       0x00007cf1       0x26 /usr/lib/gcc-lib/i686-pc-linux-gnu/2.95.3/libg2c.a(open.o)
 .comment       0x00007d17       0x26 /usr/lib/gcc-lib/i686-pc-linux-gnu/2.95.3/libg2c.a(rdfmt.o)
 .comment       0x00007d3d       0x26 /usr/lib/gcc-lib/i686-pc-linux-gnu/2.95.3/libg2c.a(rewind.o)
 .comment       0x00007d63       0x26 /usr/lib/gcc-lib/i686-pc-linux-gnu/2.95.3/libg2c.a(rsfe.o)
 .comment       0x00007d89       0x26 /usr/lib/gcc-lib/i686-pc-linux-gnu/2.95.3/libg2c.a(sfe.o)
 .comment       0x00007daf       0x26 /usr/lib/gcc-lib/i686-pc-linux-gnu/2.95.3/libg2c.a(sue.o)
 .comment       0x00007dd5       0x26 /usr/lib/gcc-lib/i686-pc-linux-gnu/2.95.3/libg2c.a(uio.o)
 .comment       0x00007dfb       0x26 /usr/lib/gcc-lib/i686-pc-linux-gnu/2.95.3/libg2c.a(util.o)
 .comment       0x00007e21       0x26 /usr/lib/gcc-lib/i686-pc-linux-gnu/2.95.3/libg2c.a(wrtfmt.o)
 .comment       0x00007e47       0x26 /usr/lib/gcc-lib/i686-pc-linux-gnu/2.95.3/libg2c.a(wsfe.o)
 .comment       0x00007e6d       0x26 /usr/lib/gcc-lib/i686-pc-linux-gnu/2.95.3/libg2c.a(wsle.o)
 .comment       0x00007e93       0x26 /usr/lib/gcc-lib/i686-pc-linux-gnu/2.95.3/libg2c.a(main.o)
 .comment       0x00007eb9       0x26 /usr/lib/gcc-lib/i686-pc-linux-gnu/2.95.3/libg2c.a(s_stop.o)
 .comment       0x00007edf       0x26 /usr/lib/gcc-lib/i686-pc-linux-gnu/2.95.3/libg2c.a(sig_die.o)
 .comment       0x00007f05       0x26 /usr/lib/gcc-lib/i686-pc-linux-gnu/2.95.3/libg2c.a(setarg.o)
 .comment       0x00007f2b       0x26 /usr/lib/gcc-lib/i686-pc-linux-gnu/2.95.3/libg2c.a(setsig.o)
 .comment       0x00007f51       0x26 /usr/lib/gcc-lib/i686-pc-linux-gnu/2.95.3/libg2c.a(pow_dd.o)
 .comment       0x00007f77       0x26 /usr/lib/gcc-lib/i686-pc-linux-gnu/2.95.3/libg2c.a(pow_zz.o)
 .comment       0x00007f9d       0x26 /usr/lib/gcc-lib/i686-pc-linux-gnu/2.95.3/libg2c.a(c_abs.o)
 .comment       0x00007fc3       0x26 /usr/lib/gcc-lib/i686-pc-linux-gnu/2.95.3/libg2c.a(z_log.o)
 .comment       0x00007fe9       0x26 /usr/lib/gcc-lib/i686-pc-linux-gnu/2.95.3/libg2c.a(z_sqrt.o)
 .comment       0x0000800f       0x26 /usr/lib/gcc-lib/i686-pc-linux-gnu/2.95.3/libg2c.a(r_lg10.o)
 .comment       0x00008035       0x26 /usr/lib/gcc-lib/i686-pc-linux-gnu/2.95.3/libg2c.a(r_mod.o)
 .comment       0x0000805b       0x26 /usr/lib/gcc-lib/i686-pc-linux-gnu/2.95.3/libg2c.a(i_indx.o)
 .comment       0x00008081       0x26 /usr/lib/gcc-lib/i686-pc-linux-gnu/2.95.3/libg2c.a(l_gt.o)
 .comment       0x000080a7       0x26 /usr/lib/gcc-lib/i686-pc-linux-gnu/2.95.3/libg2c.a(l_lt.o)
 .comment       0x000080cd       0x26 /usr/lib/gcc-lib/i686-pc-linux-gnu/2.95.3/libg2c.a(s_cat.o)
 .comment       0x000080f3       0x26 /usr/lib/gcc-lib/i686-pc-linux-gnu/2.95.3/libg2c.a(s_cmp.o)
 .comment       0x00008119       0x26 /usr/lib/gcc-lib/i686-pc-linux-gnu/2.95.3/libg2c.a(s_copy.o)
 .comment       0x0000813f       0x26 /usr/lib/gcc-lib/i686-pc-linux-gnu/2.95.3/libg2c.a(lnblnk_.o)
 .comment       0x00008165       0x26 /usr/lib/gcc-lib/i686-pc-linux-gnu/2.95.3/libg2c.a(fmtlib.o)
 .comment       0x0000818b       0x26 /usr/lib/gcc-lib/i686-pc-linux-gnu/2.95.3/libg2c.a(lwrite.o)
 .comment       0x000081b1       0x26 /usr/lib/gcc-lib/i686-pc-linux-gnu/2.95.3/libg2c.a(wref.o)
 .comment       0x000081d7       0x26 /usr/lib/gcc-lib/i686-pc-linux-gnu/2.95.3/libg2c.a(F77_aloc.o)
 .comment       0x000081fd       0x26 /usr/lib/gcc-lib/i686-pc-linux-gnu/2.95.3/libg2c.a(cabs.o)
 .comment       0x00008223       0x26 /usr/lib/gcc-lib/i686-pc-linux-gnu/2.95.3/libg2c.a(exit_.o)
 .comment       0x00008249       0x26 /usr/lib/gcc-lib/i686-pc-linux-gnu/2.95.3/crtend.o
 .comment       0x0000826f       0x26 /usr/lib/crtn.o

.debug
 *(.debug)

.line
 *(.line)

.debug_srcinfo
 *(.debug_srcinfo)

.debug_sfnames
 *(.debug_sfnames)

.debug_aranges
 *(.debug_aranges)

.debug_pubnames
 *(.debug_pubnames)

.debug_info
 *(.debug_info .gnu.linkonce.wi.*)

.debug_abbrev
 *(.debug_abbrev)

.debug_line
 *(.debug_line)

.debug_frame
 *(.debug_frame)

.debug_str
 *(.debug_str)

.debug_loc
 *(.debug_loc)

.debug_macinfo
 *(.debug_macinfo)

.debug_weaknames
 *(.debug_weaknames)

.debug_funcnames
 *(.debug_funcnames)

.debug_typenames
 *(.debug_typenames)

.debug_varnames
 *(.debug_varnames)
OUTPUT(mchw58d_105j.run elf32-i386)

.note           0x00000000     0x39bc
 .note          0x00000000       0x14 /usr/lib/crt1.o
 .note          0x00000014       0x14 /usr/lib/crti.o
 .note          0x00000028       0x14 /usr/lib/gcc-lib/i686-pc-linux-gnu/2.95.3/crtbegin.o
 .note          0x0000003c       0x14 mchw58d_105j.o
 .note          0x00000050       0x14 /home/pcl2483/pedro/jadesoft/util/mcgen/Plib/libmc105j.a(mcgetf.o)
 .note          0x00000064       0x14 /home/pcl2483/pedro/jadesoft/util/mcgen/Plib/libmc105j.a(mcgeth.o)
 .note          0x00000078       0x14 /home/pcl2483/pedro/jadesoft/util/mcgen/Plib/libmc105j.a(mcgetp.o)
 .note          0x0000008c       0x14 /home/pcl2483/pedro/jadesoft/util/mcgen/Plib/libmc105j.a(mcinit.o)
 .note          0x000000a0       0x14 /home/pcl2483/pedro/jadesoft/util/mcgen/Plib/libmc105j.a(mcstbl.o)
 .note          0x000000b4       0x14 /home/pcl2483/pedro/jadesoft/util/mcgen/Plib/libmc105j.a(mcwrit.o)
 .note          0x000000c8       0x14 /home/pcl2483/pedro/jadesoft/util/mcgen/Plib/libmc105j.a(pxeecb.o)
 .note          0x000000dc       0x14 /home/pcl2483/pedro/jadesoft/util/mcgen/Plib/libmc105j.a(evwrtj.o)
 .note          0x000000f0       0x14 /home/pcl2483/pedro/jadesoft/util/mcgen/Plib/libmc105j.a(incprd.o)
 .note          0x00000104       0x14 /home/pcl2483/pedro/jadesoft/util/mcgen/Plib/libmc105j.a(jadeco.o)
 .note          0x00000118       0x14 /home/pcl2483/pedro/jadesoft/util/mcgen/Plib/libmc105j.a(jtconv.o)
 .note          0x0000012c       0x14 /home/pcl2483/pedro/jadesoft/util/mcgen/Plib/libmc105j.a(mcrnst.o)
 .note          0x00000140       0x14 /home/pcl2483/pedro/jadesoft/util/mcgen/Plib/libmc105j.a(ntcprd.o)
 .note          0x00000154       0x14 /home/pcl2483/pedro/jadesoft/util/mcgen/Plib/libmc105j.a(prcprd.o)
 .note          0x00000168       0x14 /home/pcl2483/pedro/jadesoft/util/mcgen/Plib/libmc105j.a(wrcprd.o)
 .note          0x0000017c       0x14 /home/pcl2483/pedro/jadesoft/util/mcgen/Plib/libherwig58d.a(fxhlms.o)
 .note          0x00000190       0x14 /home/pcl2483/pedro/jadesoft/util/mcgen/Plib/libherwig58d.a(h58ddriv.o)
 .note          0x000001a4       0x14 /home/pcl2483/pedro/jadesoft/util/mcgen/Plib/libherwig58d.a(hwbgen.o)
 .note          0x000001b8       0x14 /home/pcl2483/pedro/jadesoft/util/mcgen/Plib/libherwig58d.a(hwbjco.o)
 .note          0x000001cc       0x14 /home/pcl2483/pedro/jadesoft/util/mcgen/Plib/libherwig58d.a(hwbmas.o)
 .note          0x000001e0       0x14 /home/pcl2483/pedro/jadesoft/util/mcgen/Plib/libherwig58d.a(hwbran.o)
 .note          0x000001f4       0x14 /home/pcl2483/pedro/jadesoft/util/mcgen/Plib/libherwig58d.a(hwbspa.o)
 .note          0x00000208       0x14 /home/pcl2483/pedro/jadesoft/util/mcgen/Plib/libherwig58d.a(hwbspn.o)
 .note          0x0000021c       0x14 /home/pcl2483/pedro/jadesoft/util/mcgen/Plib/libherwig58d.a(hwbtim.o)
 .note          0x00000230       0x14 /home/pcl2483/pedro/jadesoft/util/mcgen/Plib/libherwig58d.a(hwbvmc.o)
 .note          0x00000244       0x14 /home/pcl2483/pedro/jadesoft/util/mcgen/Plib/libherwig58d.a(hwcdec.o)
 .note          0x00000258       0x14 /home/pcl2483/pedro/jadesoft/util/mcgen/Plib/libherwig58d.a(hwcfla.o)
 .note          0x0000026c       0x14 /home/pcl2483/pedro/jadesoft/util/mcgen/Plib/libherwig58d.a(hwcfor.o)
 .note          0x00000280       0x14 /home/pcl2483/pedro/jadesoft/util/mcgen/Plib/libherwig58d.a(hwcgsp.o)
 .note          0x00000294       0x14 /home/pcl2483/pedro/jadesoft/util/mcgen/Plib/libherwig58d.a(hwchad.o)
 .note          0x000002a8       0x14 /home/pcl2483/pedro/jadesoft/util/mcgen/Plib/libherwig58d.a(hwdhqk.o)
 .note          0x000002bc       0x14 /home/pcl2483/pedro/jadesoft/util/mcgen/Plib/libherwig58d.a(hwdidp.o)
 .note          0x000002d0       0x14 /home/pcl2483/pedro/jadesoft/util/mcgen/Plib/libherwig58d.a(hwdthr.o)
 .note          0x000002e4       0x14 /home/pcl2483/pedro/jadesoft/util/mcgen/Plib/libherwig58d.a(hwdtop.o)
 .note          0x000002f8       0x14 /home/pcl2483/pedro/jadesoft/util/mcgen/Plib/libherwig58d.a(hwdtwo.o)
 .note          0x0000030c       0x14 /home/pcl2483/pedro/jadesoft/util/mcgen/Plib/libherwig58d.a(hwdwwt.o)
 .note          0x00000320       0x14 /home/pcl2483/pedro/jadesoft/util/mcgen/Plib/libherwig58d.a(hwefin.o)
 .note          0x00000334       0x14 /home/pcl2483/pedro/jadesoft/util/mcgen/Plib/libherwig58d.a(hweini.o)
 .note          0x00000348       0x14 /home/pcl2483/pedro/jadesoft/util/mcgen/Plib/libherwig58d.a(hwepro.o)
 .note          0x0000035c       0x14 /home/pcl2483/pedro/jadesoft/util/mcgen/Plib/libherwig58d.a(hwhbgf.o)
 .note          0x00000370       0x14 /home/pcl2483/pedro/jadesoft/util/mcgen/Plib/libherwig58d.a(hwhbki.o)
 .note          0x00000384       0x14 /home/pcl2483/pedro/jadesoft/util/mcgen/Plib/libherwig58d.a(hwhbrn.o)
 .note          0x00000398       0x14 /home/pcl2483/pedro/jadesoft/util/mcgen/Plib/libherwig58d.a(hwhbsg.o)
 .note          0x000003ac       0x14 /home/pcl2483/pedro/jadesoft/util/mcgen/Plib/libherwig58d.a(hwhdis.o)
 .note          0x000003c0       0x14 /home/pcl2483/pedro/jadesoft/util/mcgen/Plib/libherwig58d.a(hwhdyp.o)
 .note          0x000003d4       0x14 /home/pcl2483/pedro/jadesoft/util/mcgen/Plib/libherwig58d.a(hwhegg.o)
 .note          0x000003e8       0x14 /home/pcl2483/pedro/jadesoft/util/mcgen/Plib/libherwig58d.a(hwhegw.o)
 .note          0x000003fc       0x14 /home/pcl2483/pedro/jadesoft/util/mcgen/Plib/libherwig58d.a(hwhegx.o)
 .note          0x00000410       0x14 /home/pcl2483/pedro/jadesoft/util/mcgen/Plib/libherwig58d.a(hwhepa.o)
 .note          0x00000424       0x14 /home/pcl2483/pedro/jadesoft/util/mcgen/Plib/libherwig58d.a(hwhepg.o)
 .note          0x00000438       0x14 /home/pcl2483/pedro/jadesoft/util/mcgen/Plib/libherwig58d.a(hwheww.o)
 .note          0x0000044c       0x14 /home/pcl2483/pedro/jadesoft/util/mcgen/Plib/libherwig58d.a(hwhhvy.o)
 .note          0x00000460       0x14 /home/pcl2483/pedro/jadesoft/util/mcgen/Plib/libherwig58d.a(hwhigj.o)
 .note          0x00000474       0x14 /home/pcl2483/pedro/jadesoft/util/mcgen/Plib/libherwig58d.a(hwhigm.o)
 .note          0x00000488       0x14 /home/pcl2483/pedro/jadesoft/util/mcgen/Plib/libherwig58d.a(hwhigs.o)
 .note          0x0000049c       0x14 /home/pcl2483/pedro/jadesoft/util/mcgen/Plib/libherwig58d.a(hwhigt.o)
 .note          0x000004b0       0x14 /home/pcl2483/pedro/jadesoft/util/mcgen/Plib/libherwig58d.a(hwhigw.o)
 .note          0x000004c4       0x14 /home/pcl2483/pedro/jadesoft/util/mcgen/Plib/libherwig58d.a(hwhigz.o)
 .note          0x000004d8       0x14 /home/pcl2483/pedro/jadesoft/util/mcgen/Plib/libherwig58d.a(hwhph2.o)
 .note          0x000004ec       0x14 /home/pcl2483/pedro/jadesoft/util/mcgen/Plib/libherwig58d.a(hwhpho.o)
 .note          0x00000500       0x14 /home/pcl2483/pedro/jadesoft/util/mcgen/Plib/libherwig58d.a(hwhppb.o)
 .note          0x00000514       0x14 /home/pcl2483/pedro/jadesoft/util/mcgen/Plib/libherwig58d.a(hwhppe.o)
 .note          0x00000528       0x14 /home/pcl2483/pedro/jadesoft/util/mcgen/Plib/libherwig58d.a(hwhpph.o)
 .note          0x0000053c       0x14 /home/pcl2483/pedro/jadesoft/util/mcgen/Plib/libherwig58d.a(hwhppm.o)
 .note          0x00000550       0x14 /home/pcl2483/pedro/jadesoft/util/mcgen/Plib/libherwig58d.a(hwhppt.o)
 .note          0x00000564       0x14 /home/pcl2483/pedro/jadesoft/util/mcgen/Plib/libherwig58d.a(hwhpqs.o)
 .note          0x00000578       0x14 /home/pcl2483/pedro/jadesoft/util/mcgen/Plib/libherwig58d.a(hwhqcd.o)
 .note          0x0000058c       0x14 /home/pcl2483/pedro/jadesoft/util/mcgen/Plib/libherwig58d.a(hwhqcp.o)
 .note          0x000005a0       0x14 /home/pcl2483/pedro/jadesoft/util/mcgen/Plib/libherwig58d.a(hwhw1j.o)
 .note          0x000005b4       0x14 /home/pcl2483/pedro/jadesoft/util/mcgen/Plib/libherwig58d.a(hwhwex.o)
 .note          0x000005c8       0x14 /home/pcl2483/pedro/jadesoft/util/mcgen/Plib/libherwig58d.a(hwhwpr.o)
 .note          0x000005dc       0x14 /home/pcl2483/pedro/jadesoft/util/mcgen/Plib/libherwig58d.a(hwigin.o)
 .note          0x000005f0       0x14 /home/pcl2483/pedro/jadesoft/util/mcgen/Plib/libherwig58d.a(hwmwgt.o)
 .note          0x00000604       0x14 /home/pcl2483/pedro/jadesoft/util/mcgen/Plib/libherwig58d.a(hwrazm.o)
 .note          0x00000618       0x14 /home/pcl2483/pedro/jadesoft/util/mcgen/Plib/libherwig58d.a(hwrgau.o)
 .note          0x0000062c       0x14 /home/pcl2483/pedro/jadesoft/util/mcgen/Plib/libherwig58d.a(hwrgen.o)
 .note          0x00000640       0x14 /home/pcl2483/pedro/jadesoft/util/mcgen/Plib/libherwig58d.a(hwrint.o)
 .note          0x00000654       0x14 /home/pcl2483/pedro/jadesoft/util/mcgen/Plib/libherwig58d.a(hwrlog.o)
 .note          0x00000668       0x14 /home/pcl2483/pedro/jadesoft/util/mcgen/Plib/libherwig58d.a(hwrpow.o)
 .note          0x0000067c       0x14 /home/pcl2483/pedro/jadesoft/util/mcgen/Plib/libherwig58d.a(hwruni.o)
 .note          0x00000690       0x14 /home/pcl2483/pedro/jadesoft/util/mcgen/Plib/libherwig58d.a(hwsbrn.o)
 .note          0x000006a4       0x14 /home/pcl2483/pedro/jadesoft/util/mcgen/Plib/libherwig58d.a(hwsfbr.o)
 .note          0x000006b8       0x14 /home/pcl2483/pedro/jadesoft/util/mcgen/Plib/libherwig58d.a(hwsfun.o)
 .note          0x000006cc       0x14 /home/pcl2483/pedro/jadesoft/util/mcgen/Plib/libherwig58d.a(hwsgam.o)
 .note          0x000006e0       0x14 /home/pcl2483/pedro/jadesoft/util/mcgen/Plib/libherwig58d.a(hwsgen.o)
 .note          0x000006f4       0x14 /home/pcl2483/pedro/jadesoft/util/mcgen/Plib/libherwig58d.a(hwsgqq.o)
 .note          0x00000708       0x14 /home/pcl2483/pedro/jadesoft/util/mcgen/Plib/libherwig58d.a(hwsspc.o)
 .note          0x0000071c       0x14 /home/pcl2483/pedro/jadesoft/util/mcgen/Plib/libherwig58d.a(hwssud.o)
 .note          0x00000730       0x14 /home/pcl2483/pedro/jadesoft/util/mcgen/Plib/libherwig58d.a(hwstab.o)
 .note          0x00000744       0x14 /home/pcl2483/pedro/jadesoft/util/mcgen/Plib/libherwig58d.a(hwsval.o)
 .note          0x00000758       0x14 /home/pcl2483/pedro/jadesoft/util/mcgen/Plib/libherwig58d.a(hwuaem.o)
 .note          0x0000076c       0x14 /home/pcl2483/pedro/jadesoft/util/mcgen/Plib/libherwig58d.a(hwuaer.o)
 .note          0x00000780       0x14 /home/pcl2483/pedro/jadesoft/util/mcgen/Plib/libherwig58d.a(hwualf.o)
 .note          0x00000794       0x14 /home/pcl2483/pedro/jadesoft/util/mcgen/Plib/libherwig58d.a(hwubst.o)
 .note          0x000007a8       0x14 /home/pcl2483/pedro/jadesoft/util/mcgen/Plib/libherwig58d.a(hwucff.o)
 .note          0x000007bc       0x14 /home/pcl2483/pedro/jadesoft/util/mcgen/Plib/libherwig58d.a(hwudat.o)
 .note          0x000007d0       0x14 /home/pcl2483/pedro/jadesoft/util/mcgen/Plib/libherwig58d.a(hwuecm.o)
 .note          0x000007e4       0x14 /home/pcl2483/pedro/jadesoft/util/mcgen/Plib/libherwig58d.a(hwueec.o)
 .note          0x000007f8       0x14 /home/pcl2483/pedro/jadesoft/util/mcgen/Plib/libherwig58d.a(hwuepr.o)
 .note          0x0000080c       0x14 /home/pcl2483/pedro/jadesoft/util/mcgen/Plib/libherwig58d.a(hwufne.o)
 .note          0x00000820       0x14 /home/pcl2483/pedro/jadesoft/util/mcgen/Plib/libherwig58d.a(hwuinc.o)
 .note          0x00000834       0x14 /home/pcl2483/pedro/jadesoft/util/mcgen/Plib/libherwig58d.a(hwuine.o)
 .note          0x00000848       0x14 /home/pcl2483/pedro/jadesoft/util/mcgen/Plib/libherwig58d.a(hwulb4.o)
 .note          0x0000085c       0x14 /home/pcl2483/pedro/jadesoft/util/mcgen/Plib/libherwig58d.a(hwuldo.o)
 .note          0x00000870       0x14 /home/pcl2483/pedro/jadesoft/util/mcgen/Plib/libherwig58d.a(hwulob.o)
 .note          0x00000884       0x14 /home/pcl2483/pedro/jadesoft/util/mcgen/Plib/libherwig58d.a(hwulof.o)
 .note          0x00000898       0x14 /home/pcl2483/pedro/jadesoft/util/mcgen/Plib/libherwig58d.a(hwumas.o)
 .note          0x000008ac       0x14 /home/pcl2483/pedro/jadesoft/util/mcgen/Plib/libherwig58d.a(hwupcm.o)
 .note          0x000008c0       0x14 /home/pcl2483/pedro/jadesoft/util/mcgen/Plib/libherwig58d.a(hwures.o)
 .note          0x000008d4       0x14 /home/pcl2483/pedro/jadesoft/util/mcgen/Plib/libherwig58d.a(hwurob.o)
 .note          0x000008e8       0x14 /home/pcl2483/pedro/jadesoft/util/mcgen/Plib/libherwig58d.a(hwurof.o)
 .note          0x000008fc       0x14 /home/pcl2483/pedro/jadesoft/util/mcgen/Plib/libherwig58d.a(hwurot.o)
 .note          0x00000910       0x14 /home/pcl2483/pedro/jadesoft/util/mcgen/Plib/libherwig58d.a(hwusqr.o)
 .note          0x00000924       0x14 /home/pcl2483/pedro/jadesoft/util/mcgen/Plib/libherwig58d.a(hwutab.o)
 .note          0x00000938       0x14 /home/pcl2483/pedro/jadesoft/util/mcgen/Plib/libherwig58d.a(hwutim.o)
 .note          0x0000094c       0x14 /home/pcl2483/pedro/jadesoft/util/mcgen/Plib/libherwig58d.a(hwvdif.o)
 .note          0x00000960       0x14 /home/pcl2483/pedro/jadesoft/util/mcgen/Plib/libherwig58d.a(hwvequ.o)
 .note          0x00000974       0x14 /home/pcl2483/pedro/jadesoft/util/mcgen/Plib/libherwig58d.a(hwvsca.o)
 .note          0x00000988       0x14 /home/pcl2483/pedro/jadesoft/util/mcgen/Plib/libherwig58d.a(hwvsum.o)
 .note          0x0000099c       0x14 /home/pcl2483/pedro/jadesoft/util/mcgen/Plib/libherwig58d.a(hwvzro.o)
 .note          0x000009b0       0x14 /home/pcl2483/pedro/jadesoft/util/mcgen/Plib/libherwig58d.a(hwwarn.o)
 .note          0x000009c4       0x14 /home/pcl2483/pedro/jadesoft/util/mcgen/Plib/libherwig58d.a(pdfset.o)
 .note          0x000009d8       0x14 /home/pcl2483/pedro/jadesoft/util/mcgen/Plib/libherwig58d.a(sas1d.o)
 .note          0x000009ec       0x14 /home/pcl2483/pedro/jadesoft/util/mcgen/Plib/libherwig58d.a(structm.o)
 .note          0x00000a00       0x14 /home/pcl2483/pedro/jadesoft/util/mcgen/Plib/libherwig58d.a(hvcbvi.o)
 .note          0x00000a14       0x14 /home/pcl2483/pedro/jadesoft/util/mcgen/Plib/libherwig58d.a(hvhbvi.o)
 .note          0x00000a28       0x14 /home/pcl2483/pedro/jadesoft/util/mcgen/Plib/libherwig58d.a(hwaend.o)
 .note          0x00000a3c       0x14 /home/pcl2483/pedro/jadesoft/util/mcgen/Plib/libherwig58d.a(hwbazf.o)
 .note          0x00000a50       0x14 /home/pcl2483/pedro/jadesoft/util/mcgen/Plib/libherwig58d.a(hwbcon.o)
 .note          0x00000a64       0x14 /home/pcl2483/pedro/jadesoft/util/mcgen/Plib/libherwig58d.a(hwbded.o)
 .note          0x00000a78       0x14 /home/pcl2483/pedro/jadesoft/util/mcgen/Plib/libherwig58d.a(hwbdis.o)
 .note          0x00000a8c       0x14 /home/pcl2483/pedro/jadesoft/util/mcgen/Plib/libherwig58d.a(hwbfin.o)
 .note          0x00000aa0       0x14 /home/pcl2483/pedro/jadesoft/util/mcgen/Plib/libherwig58d.a(hwbsud.o)
 .note          0x00000ab4       0x14 /home/pcl2483/pedro/jadesoft/util/mcgen/Plib/libherwig58d.a(hwbsug.o)
 .note          0x00000ac8       0x14 /home/pcl2483/pedro/jadesoft/util/mcgen/Plib/libherwig58d.a(hwbsul.o)
 .note          0x00000adc       0x14 /home/pcl2483/pedro/jadesoft/util/mcgen/Plib/libherwig58d.a(hwccut.o)
 .note          0x00000af0       0x14 /home/pcl2483/pedro/jadesoft/util/mcgen/Plib/libherwig58d.a(hwdboz.o)
 .note          0x00000b04       0x14 /home/pcl2483/pedro/jadesoft/util/mcgen/Plib/libherwig58d.a(hwdhig.o)
 .note          0x00000b18       0x14 /home/pcl2483/pedro/jadesoft/util/mcgen/Plib/libherwig58d.a(hwdpwt.o)
 .note          0x00000b2c       0x14 /home/pcl2483/pedro/jadesoft/util/mcgen/Plib/libherwig58d.a(hwegam.o)
 .note          0x00000b40       0x14 /home/pcl2483/pedro/jadesoft/util/mcgen/Plib/libherwig58d.a(hweisr.o)
 .note          0x00000b54       0x14 /home/pcl2483/pedro/jadesoft/util/mcgen/Plib/libherwig58d.a(hweone.o)
 .note          0x00000b68       0x14 /home/pcl2483/pedro/jadesoft/util/mcgen/Plib/libherwig58d.a(hwetwo.o)
 .note          0x00000b7c       0x14 /home/pcl2483/pedro/jadesoft/util/mcgen/Plib/libherwig58d.a(hwhew0.o)
 .note          0x00000b90       0x14 /home/pcl2483/pedro/jadesoft/util/mcgen/Plib/libherwig58d.a(hwhew1.o)
 .note          0x00000ba4       0x14 /home/pcl2483/pedro/jadesoft/util/mcgen/Plib/libherwig58d.a(hwhew2.o)
 .note          0x00000bb8       0x14 /home/pcl2483/pedro/jadesoft/util/mcgen/Plib/libherwig58d.a(hwhew3.o)
 .note          0x00000bcc       0x14 /home/pcl2483/pedro/jadesoft/util/mcgen/Plib/libherwig58d.a(hwhew4.o)
 .note          0x00000be0       0x14 /home/pcl2483/pedro/jadesoft/util/mcgen/Plib/libherwig58d.a(hwhew5.o)
 .note          0x00000bf4       0x14 /home/pcl2483/pedro/jadesoft/util/mcgen/Plib/libherwig58d.a(hwhiga.o)
 .note          0x00000c08       0x14 /home/pcl2483/pedro/jadesoft/util/mcgen/Plib/libherwig58d.a(hwhigb.o)
 .note          0x00000c1c       0x14 /home/pcl2483/pedro/jadesoft/util/mcgen/Plib/libherwig58d.a(hwhigy.o)
 .note          0x00000c30       0x14 /home/pcl2483/pedro/jadesoft/util/mcgen/Plib/libherwig58d.a(hwrexq.o)
 .note          0x00000c44       0x14 /home/pcl2483/pedro/jadesoft/util/mcgen/Plib/libherwig58d.a(hwsdgg.o)
 .note          0x00000c58       0x14 /home/pcl2483/pedro/jadesoft/util/mcgen/Plib/libherwig58d.a(hwsdgq.o)
 .note          0x00000c6c       0x14 /home/pcl2483/pedro/jadesoft/util/mcgen/Plib/libherwig58d.a(hwubpr.o)
 .note          0x00000c80       0x14 /home/pcl2483/pedro/jadesoft/util/mcgen/Plib/libherwig58d.a(hwuci2.o)
 .note          0x00000c94       0x14 /home/pcl2483/pedro/jadesoft/util/mcgen/Plib/libherwig58d.a(hwuedt.o)
 .note          0x00000ca8       0x14 /home/pcl2483/pedro/jadesoft/util/mcgen/Plib/libherwig58d.a(hwuemv.o)
 .note          0x00000cbc       0x14 /home/pcl2483/pedro/jadesoft/util/mcgen/Plib/libherwig58d.a(hwugau.o)
 .note          0x00000cd0       0x14 /home/pcl2483/pedro/jadesoft/util/mcgen/Plib/libherwig58d.a(hwuidt.o)
 .note          0x00000ce4       0x14 /home/pcl2483/pedro/jadesoft/util/mcgen/Plib/libherwig58d.a(hwulf4.o)
 .note          0x00000cf8       0x14 /home/pcl2483/pedro/jadesoft/util/mcgen/Plib/libherwig58d.a(hwuli2.o)
 .note          0x00000d0c       0x14 /home/pcl2483/pedro/jadesoft/util/mcgen/Plib/libherwig58d.a(hwvdot.o)
 .note          0x00000d20       0x14 /home/pcl2483/pedro/jadesoft/util/mcgen/Plib/libherwig58d.a(pystig.o)
 .note          0x00000d34       0x14 /home/pcl2483/pedro/jadesoft/util/mcgen/Plib/libherwig58d.a(pystvg.o)
 .note          0x00000d48       0x14 /home/pcl2483/pedro/jadesoft/util/mcgen/Plib/libherwig58d.a(hwbsu1.o)
 .note          0x00000d5c       0x14 /home/pcl2483/pedro/jadesoft/util/mcgen/Plib/libherwig58d.a(hwbsu2.o)
 .note          0x00000d70       0x14 /home/pcl2483/pedro/jadesoft/util/mcgen/Plib/libherwig58d.a(hwdhgc.o)
 .note          0x00000d84       0x14 /home/pcl2483/pedro/jadesoft/util/mcgen/Plib/libherwig58d.a(hwdhgf.o)
 .note          0x00000d98       0x14 /home/pcl2483/pedro/jadesoft/util/mcgen/Plib/libherwig58d.a(hwhig1.o)
 .note          0x00000dac       0x14 /home/pcl2483/pedro/jadesoft/util/mcgen/Plib/libjt74opal.a(luchge.o)
 .note          0x00000dc0       0x14 /home/pcl2483/pedro/jadesoft/util/mcgen/Plib/libjt74opal.a(lucomp.o)
 .note          0x00000dd4       0x14 /home/pcl2483/pedro/jadesoft/util/mcgen/Plib/libjt74opal.a(ludata.o)
 .note          0x00000de8       0x14 /home/pcl2483/pedro/jadesoft/util/mcgen/Plib/libjt74opal.a(luedit.o)
 .note          0x00000dfc       0x14 /home/pcl2483/pedro/jadesoft/util/mcgen/Plib/libjt74opal.a(luerrm.o)
 .note          0x00000e10       0x14 /home/pcl2483/pedro/jadesoft/util/mcgen/Plib/libjt74opal.a(luexec.o)
 .note          0x00000e24       0x14 /home/pcl2483/pedro/jadesoft/util/mcgen/Plib/libjt74opal.a(luhepc.o)
 .note          0x00000e38       0x14 /home/pcl2483/pedro/jadesoft/util/mcgen/Plib/libjt74opal.a(luindf.o)
 .note          0x00000e4c       0x14 /home/pcl2483/pedro/jadesoft/util/mcgen/Plib/libjt74opal.a(lukfdi.o)
 .note          0x00000e60       0x14 /home/pcl2483/pedro/jadesoft/util/mcgen/Plib/libjt74opal.a(lulist.o)
 .note          0x00000e74       0x14 /home/pcl2483/pedro/jadesoft/util/mcgen/Plib/libjt74opal.a(lulogo.o)
 .note          0x00000e88       0x14 /home/pcl2483/pedro/jadesoft/util/mcgen/Plib/libjt74opal.a(luname.o)
 .note          0x00000e9c       0x14 /home/pcl2483/pedro/jadesoft/util/mcgen/Plib/libjt74opal.a(luprep.o)
 .note          0x00000eb0       0x14 /home/pcl2483/pedro/jadesoft/util/mcgen/Plib/libjt74opal.a(luptdi.o)
 .note          0x00000ec4       0x14 /home/pcl2483/pedro/jadesoft/util/mcgen/Plib/libjt74opal.a(lurobo.o)
 .note          0x00000ed8       0x14 /home/pcl2483/pedro/jadesoft/util/mcgen/Plib/libjt74opal.a(lushow.o)
 .note          0x00000eec       0x14 /home/pcl2483/pedro/jadesoft/util/mcgen/Plib/libjt74opal.a(lustrf.o)
 .note          0x00000f00       0x14 /home/pcl2483/pedro/jadesoft/util/mcgen/Plib/libjt74opal.a(lutabu.o)
 .note          0x00000f14       0x14 /home/pcl2483/pedro/jadesoft/util/mcgen/Plib/libjt74opal.a(luzdis.o)
 .note          0x00000f28       0x14 /home/pcl2483/pedro/jadesoft/util/mcgen/Plib/libjt74opal.a(plu.o)
 .note          0x00000f3c       0x14 /home/pcl2483/pedro/jadesoft/util/mcgen/Plib/libjt74opal.a(rlu.o)
 .note          0x00000f50       0x14 /home/pcl2483/pedro/jadesoft/util/mcgen/Plib/libjt74opal.a(ulangl.o)
 .note          0x00000f64       0x14 /home/pcl2483/pedro/jadesoft/util/mcgen/Plib/libjt74opal.a(ulmass.o)
 .note          0x00000f78       0x14 /home/pcl2483/pedro/jadesoft/util/mcgen/Plib/libjt74opal.a(luboei.o)
 .note          0x00000f8c       0x14 /home/pcl2483/pedro/jadesoft/util/mcgen/Plib/libjt74opal.a(ludecy.o)
 .note          0x00000fa0       0x14 /home/pcl2483/pedro/jadesoft/util/mcgen/Plib/libjt74opal.a(lutaud.o)
 .note          0x00000fb4       0x14 /home/pcl2483/pedro/jadesoft/util/mcgen/Plib/libjt74opal.a(taupol.o)
 .note          0x00000fc8       0x14 /home/pcl2483/pedro/jadesoft/util/mcgen/Plib/libjt74opal.a(dexay.o)
 .note          0x00000fdc       0x14 /home/pcl2483/pedro/jadesoft/util/mcgen/Plib/libjt74opal.a(dexay1.o)
 .note          0x00000ff0       0x14 /home/pcl2483/pedro/jadesoft/util/mcgen/Plib/libjt74opal.a(dexel.o)
 .note          0x00001004       0x14 /home/pcl2483/pedro/jadesoft/util/mcgen/Plib/libjt74opal.a(dexkk.o)
 .note          0x00001018       0x14 /home/pcl2483/pedro/jadesoft/util/mcgen/Plib/libjt74opal.a(dexks.o)
 .note          0x0000102c       0x14 /home/pcl2483/pedro/jadesoft/util/mcgen/Plib/libjt74opal.a(dexmu.o)
 .note          0x00001040       0x14 /home/pcl2483/pedro/jadesoft/util/mcgen/Plib/libjt74opal.a(dexnew.o)
 .note          0x00001054       0x14 /home/pcl2483/pedro/jadesoft/util/mcgen/Plib/libjt74opal.a(dexpi.o)
 .note          0x00001068       0x14 /home/pcl2483/pedro/jadesoft/util/mcgen/Plib/libjt74opal.a(dexro.o)
 .note          0x0000107c       0x14 /home/pcl2483/pedro/jadesoft/util/mcgen/Plib/libjt74opal.a(dwlnew.o)
 .note          0x00001090       0x14 /home/pcl2483/pedro/jadesoft/util/mcgen/Plib/libjt74opal.a(dwluaa.o)
 .note          0x000010a4       0x14 /home/pcl2483/pedro/jadesoft/util/mcgen/Plib/libjt74opal.a(dwluel.o)
 .note          0x000010b8       0x14 /home/pcl2483/pedro/jadesoft/util/mcgen/Plib/libjt74opal.a(dwlukk.o)
 .note          0x000010cc       0x14 /home/pcl2483/pedro/jadesoft/util/mcgen/Plib/libjt74opal.a(dwluks.o)
 .note          0x000010e0       0x14 /home/pcl2483/pedro/jadesoft/util/mcgen/Plib/libjt74opal.a(dwlumu.o)
 .note          0x000010f4       0x14 /home/pcl2483/pedro/jadesoft/util/mcgen/Plib/libjt74opal.a(dwlupi.o)
 .note          0x00001108       0x14 /home/pcl2483/pedro/jadesoft/util/mcgen/Plib/libjt74opal.a(dwluro.o)
 .note          0x0000111c       0x14 /home/pcl2483/pedro/jadesoft/util/mcgen/Plib/libjt74opal.a(dwrph.o)
 .note          0x00001130       0x14 /home/pcl2483/pedro/jadesoft/util/mcgen/Plib/libjt74opal.a(filhep.o)
 .note          0x00001144       0x14 /home/pcl2483/pedro/jadesoft/util/mcgen/Plib/libjt74opal.a(initdk.o)
 .note          0x00001158       0x14 /home/pcl2483/pedro/jadesoft/util/mcgen/Plib/libjt74opal.a(jaker.o)
 .note          0x0000116c       0x14 /home/pcl2483/pedro/jadesoft/util/mcgen/Plib/libjt74opal.a(lunpik.o)
 .note          0x00001180       0x14 /home/pcl2483/pedro/jadesoft/util/mcgen/Plib/libjt74opal.a(dadmel.o)
 .note          0x00001194       0x14 /home/pcl2483/pedro/jadesoft/util/mcgen/Plib/libjt74opal.a(dadmkk.o)
 .note          0x000011a8       0x14 /home/pcl2483/pedro/jadesoft/util/mcgen/Plib/libjt74opal.a(dadmks.o)
 .note          0x000011bc       0x14 /home/pcl2483/pedro/jadesoft/util/mcgen/Plib/libjt74opal.a(dadmmu.o)
 .note          0x000011d0       0x14 /home/pcl2483/pedro/jadesoft/util/mcgen/Plib/libjt74opal.a(dadmpi.o)
 .note          0x000011e4       0x14 /home/pcl2483/pedro/jadesoft/util/mcgen/Plib/libjt74opal.a(dadmro.o)
 .note          0x000011f8       0x14 /home/pcl2483/pedro/jadesoft/util/mcgen/Plib/libjt74opal.a(dadnew.o)
 .note          0x0000120c       0x14 /home/pcl2483/pedro/jadesoft/util/mcgen/Plib/libjt74opal.a(dexaa.o)
 .note          0x00001220       0x14 /home/pcl2483/pedro/jadesoft/util/mcgen/Plib/libjt74opal.a(dph4pi.o)
 .note          0x00001234       0x14 /home/pcl2483/pedro/jadesoft/util/mcgen/Plib/libjt74opal.a(dph5pi.o)
 .note          0x00001248       0x14 /home/pcl2483/pedro/jadesoft/util/mcgen/Plib/libjt74opal.a(dphnpi.o)
 .note          0x0000125c       0x14 /home/pcl2483/pedro/jadesoft/util/mcgen/Plib/libjt74opal.a(dphsel.o)
 .note          0x00001270       0x14 /home/pcl2483/pedro/jadesoft/util/mcgen/Plib/libjt74opal.a(dphsks.o)
 .note          0x00001284       0x14 /home/pcl2483/pedro/jadesoft/util/mcgen/Plib/libjt74opal.a(dphsmu.o)
 .note          0x00001298       0x14 /home/pcl2483/pedro/jadesoft/util/mcgen/Plib/libjt74opal.a(dphspk.o)
 .note          0x000012ac       0x14 /home/pcl2483/pedro/jadesoft/util/mcgen/Plib/libjt74opal.a(dphsrk.o)
 .note          0x000012c0       0x14 /home/pcl2483/pedro/jadesoft/util/mcgen/Plib/libjt74opal.a(dphsro.o)
 .note          0x000012d4       0x14 /home/pcl2483/pedro/jadesoft/util/mcgen/Plib/libjt74opal.a(dphtre.o)
 .note          0x000012e8       0x14 /home/pcl2483/pedro/jadesoft/util/mcgen/Plib/libjt74opal.a(drcmu.o)
 .note          0x000012fc       0x14 /home/pcl2483/pedro/jadesoft/util/mcgen/Plib/libjt74opal.a(dwluph.o)
 .note          0x00001310       0x14 /home/pcl2483/pedro/jadesoft/util/mcgen/Plib/libjt74opal.a(fpirho.o)
 .note          0x00001324       0x14 /home/pcl2483/pedro/jadesoft/util/mcgen/Plib/libjt74opal.a(fpirk.o)
 .note          0x00001338       0x14 /home/pcl2483/pedro/jadesoft/util/mcgen/Plib/libjt74opal.a(rotor2.o)
 .note          0x0000134c       0x14 /home/pcl2483/pedro/jadesoft/util/mcgen/Plib/libjt74opal.a(rotor3.o)
 .note          0x00001360       0x14 /home/pcl2483/pedro/jadesoft/util/mcgen/Plib/libjt74opal.a(rotpol.o)
 .note          0x00001374       0x14 /home/pcl2483/pedro/jadesoft/util/mcgen/Plib/libjt74opal.a(rotpox.o)
 .note          0x00001388       0x14 /home/pcl2483/pedro/jadesoft/util/mcgen/Plib/libjt74opal.a(sigee.o)
 .note          0x0000139c       0x14 /home/pcl2483/pedro/jadesoft/util/mcgen/Plib/libjt74opal.a(sphera.o)
 .note          0x000013b0       0x14 /home/pcl2483/pedro/jadesoft/util/mcgen/Plib/libjt74opal.a(spherd.o)
 .note          0x000013c4       0x14 /home/pcl2483/pedro/jadesoft/util/mcgen/Plib/libjt74opal.a(bostd3.o)
 .note          0x000013d8       0x14 /home/pcl2483/pedro/jadesoft/util/mcgen/Plib/libjt74opal.a(bostr3.o)
 .note          0x000013ec       0x14 /home/pcl2483/pedro/jadesoft/util/mcgen/Plib/libjt74opal.a(bwigs.o)
 .note          0x00001400       0x14 /home/pcl2483/pedro/jadesoft/util/mcgen/Plib/libjt74opal.a(choice.o)
 .note          0x00001414       0x14 /home/pcl2483/pedro/jadesoft/util/mcgen/Plib/libjt74opal.a(dadmaa.o)
 .note          0x00001428       0x14 /home/pcl2483/pedro/jadesoft/util/mcgen/Plib/libjt74opal.a(dam4pi.o)
 .note          0x0000143c       0x14 /home/pcl2483/pedro/jadesoft/util/mcgen/Plib/libjt74opal.a(dampog.o)
 .note          0x00001450       0x14 /home/pcl2483/pedro/jadesoft/util/mcgen/Plib/libjt74opal.a(damppk.o)
 .note          0x00001464       0x14 /home/pcl2483/pedro/jadesoft/util/mcgen/Plib/libjt74opal.a(dampry.o)
 .note          0x00001478       0x14 /home/pcl2483/pedro/jadesoft/util/mcgen/Plib/libjt74opal.a(dcdmas.o)
 .note          0x0000148c       0x14 /home/pcl2483/pedro/jadesoft/util/mcgen/Plib/libjt74opal.a(dphsaa.o)
 .note          0x000014a0       0x14 /home/pcl2483/pedro/jadesoft/util/mcgen/Plib/libjt74opal.a(form1.o)
 .note          0x000014b4       0x14 /home/pcl2483/pedro/jadesoft/util/mcgen/Plib/libjt74opal.a(form2.o)
 .note          0x000014c8       0x14 /home/pcl2483/pedro/jadesoft/util/mcgen/Plib/libjt74opal.a(form3.o)
 .note          0x000014dc       0x14 /home/pcl2483/pedro/jadesoft/util/mcgen/Plib/libjt74opal.a(form4.o)
 .note          0x000014f0       0x14 /home/pcl2483/pedro/jadesoft/util/mcgen/Plib/libjt74opal.a(form5.o)
 .note          0x00001504       0x14 /home/pcl2483/pedro/jadesoft/util/mcgen/Plib/libjt74opal.a(formom.o)
 .note          0x00001518       0x14 /home/pcl2483/pedro/jadesoft/util/mcgen/Plib/libjt74opal.a(fpik.o)
 .note          0x0000152c       0x14 /home/pcl2483/pedro/jadesoft/util/mcgen/Plib/libjt74opal.a(fpikm.o)
 .note          0x00001540       0x14 /home/pcl2483/pedro/jadesoft/util/mcgen/Plib/libjt74opal.a(fpikmd.o)
 .note          0x00001554       0x14 /home/pcl2483/pedro/jadesoft/util/mcgen/Plib/libjt74opal.a(gfun.o)
 .note          0x00001568       0x14 /home/pcl2483/pedro/jadesoft/util/mcgen/Plib/libjt74opal.a(prod5.o)
 .note          0x0000157c       0x14 /home/pcl2483/pedro/jadesoft/util/mcgen/Plib/libjt74opal.a(rotod2.o)
 .note          0x00001590       0x14 /home/pcl2483/pedro/jadesoft/util/mcgen/Plib/libjt74opal.a(rotod3.o)
 .note          0x000015a4       0x14 /home/pcl2483/pedro/jadesoft/util/mcgen/Plib/libjt74opal.a(sqm2.o)
 .note          0x000015b8       0x14 /home/pcl2483/pedro/jadesoft/util/mcgen/Plib/libjt74opal.a(thb.o)
 .note          0x000015cc       0x14 /home/pcl2483/pedro/jadesoft/util/mcgen/Plib/libjt74opal.a(wigfor.o)
 .note          0x000015e0       0x14 /home/pcl2483/pedro/jadesoft/util/mcgen/Plib/libjt74opal.a(bwig.o)
 .note          0x000015f4       0x14 /home/pcl2483/pedro/jadesoft/util/mcgen/Plib/libjt74opal.a(bwigm.o)
 .note          0x00001608       0x14 /home/pcl2483/pedro/jadesoft/util/mcgen/Plib/libjt74opal.a(claxi.o)
 .note          0x0000161c       0x14 /home/pcl2483/pedro/jadesoft/util/mcgen/Plib/libjt74opal.a(clnut.o)
 .note          0x00001630       0x14 /home/pcl2483/pedro/jadesoft/util/mcgen/Plib/libjt74opal.a(clvec.o)
 .note          0x00001644       0x14 /home/pcl2483/pedro/jadesoft/util/mcgen/Plib/libjt74opal.a(curr.o)
 .note          0x00001658       0x14 /home/pcl2483/pedro/jadesoft/util/mcgen/Plib/libjt74opal.a(dilog.o)
 .note          0x0000166c       0x14 /home/pcl2483/pedro/jadesoft/util/mcgen/Plib/libckern105.a(ckern.o)
 .note          0x00001680       0x14 /home/pcl2483/pedro/jadesoft/util/mcgen/Plib/libckern105.a(cksord.o)
 .note          0x00001694       0x14 /home/pcl2483/pedro/jadesoft/util/mcgen/Plib/libckern105.a(cnjet.o)
 .note          0x000016a8       0x14 /home/pcl2483/pedro/jadesoft/util/mcgen/Plib/libpx114.a(pxang3.o)
 .note          0x000016bc       0x14 /home/pcl2483/pedro/jadesoft/util/mcgen/Plib/libpx114.a(pxanxy.o)
 .note          0x000016d0       0x14 /home/pcl2483/pedro/jadesoft/util/mcgen/Plib/libpx114.a(pxcone.o)
 .note          0x000016e4       0x14 /home/pcl2483/pedro/jadesoft/util/mcgen/Plib/libpx114.a(pxcopv.o)
 .note          0x000016f8       0x14 /home/pcl2483/pedro/jadesoft/util/mcgen/Plib/libpx114.a(pxjpdg.o)
 .note          0x0000170c       0x14 /home/pcl2483/pedro/jadesoft/util/mcgen/Plib/libpx114.a(pxjsp3.o)
 .note          0x00001720       0x14 /home/pcl2483/pedro/jadesoft/util/mcgen/Plib/libpx114.a(pxlsp3.o)
 .note          0x00001734       0x14 /home/pcl2483/pedro/jadesoft/util/mcgen/Plib/libpx114.a(pxlth4.o)
 .note          0x00001748       0x14 /home/pcl2483/pedro/jadesoft/util/mcgen/Plib/libpx114.a(pxlut3.o)
 .note          0x0000175c       0x14 /home/pcl2483/pedro/jadesoft/util/mcgen/Plib/libpx114.a(pxlzf5.o)
 .note          0x00001770       0x14 /home/pcl2483/pedro/jadesoft/util/mcgen/Plib/libpx114.a(pxmmbb.o)
 .note          0x00001784       0x14 /home/pcl2483/pedro/jadesoft/util/mcgen/Plib/libpx114.a(pxnorv.o)
 .note          0x00001798       0x14 /home/pcl2483/pedro/jadesoft/util/mcgen/Plib/libpx114.a(pxolap.o)
 .note          0x000017ac       0x14 /home/pcl2483/pedro/jadesoft/util/mcgen/Plib/libpx114.a(pxord.o)
 .note          0x000017c0       0x14 /home/pcl2483/pedro/jadesoft/util/mcgen/Plib/libpx114.a(pxplt3.o)
 .note          0x000017d4       0x14 /home/pcl2483/pedro/jadesoft/util/mcgen/Plib/libpx114.a(pxplu3.o)
 .note          0x000017e8       0x14 /home/pcl2483/pedro/jadesoft/util/mcgen/Plib/libpx114.a(pxprcv.o)
 .note          0x000017fc       0x14 /home/pcl2483/pedro/jadesoft/util/mcgen/Plib/libpx114.a(pxprrv.o)
 .note          0x00001810       0x14 /home/pcl2483/pedro/jadesoft/util/mcgen/Plib/libpx114.a(pxrap4.o)
 .note          0x00001824       0x14 /home/pcl2483/pedro/jadesoft/util/mcgen/Plib/libpx114.a(pxrmx3.o)
 .note          0x00001838       0x14 /home/pcl2483/pedro/jadesoft/util/mcgen/Plib/libpx114.a(pxrob3.o)
 .note          0x0000184c       0x14 /home/pcl2483/pedro/jadesoft/util/mcgen/Plib/libpx114.a(pxrof3.o)
 .note          0x00001860       0x14 /home/pcl2483/pedro/jadesoft/util/mcgen/Plib/libpx114.a(pxsear.o)
 .note          0x00001874       0x14 /home/pcl2483/pedro/jadesoft/util/mcgen/Plib/libpx114.a(pxsorv.o)
 .note          0x00001888       0x14 /home/pcl2483/pedro/jadesoft/util/mcgen/Plib/libpx114.a(pxtry.o)
 .note          0x0000189c       0x14 /home/pcl2483/pedro/jadesoft/util/mcgen/Plib/libpx114.a(pxuvec.o)
 .note          0x000018b0       0x14 /home/pcl2483/pedro/jadesoft/util/mcgen/Plib/libpx114.a(pxzerv.o)
 .note          0x000018c4       0x14 /home/pcl2483/pedro/jadesoft/util/mcgen/Plib/libpx114.a(ykern.o)
 .note          0x000018d8       0x14 /home/pcl2483/pedro/jadesoft/util/mcgen/Plib/libpx114.a(ynjet.o)
 .note          0x000018ec       0x14 /home/pcl2483/pedro/jadesoft/util/mcgen/Plib/libpx114.a(yyjet.o)
 .note          0x00001900       0x14 /home/pcl2483/pedro/jadesoft/util/mcgen/Plib/libpx114.a(pxaddv.o)
 .note          0x00001914       0x14 /home/pcl2483/pedro/jadesoft/util/mcgen/Plib/libpx114.a(pxdiam.o)
 .note          0x00001928       0x14 /home/pcl2483/pedro/jadesoft/util/mcgen/Plib/libpx114.a(pxmulm.o)
 .note          0x0000193c       0x14 /home/pcl2483/pedro/jadesoft/util/mcgen/Plib/libpx114.a(pxnew.o)
 .note          0x00001950       0x14 /home/pcl2483/pedro/jadesoft/util/mcgen/Plib/libpx114.a(pxsame.o)
 .note          0x00001964       0x14 /home/pcl2483/pedro/jadesoft/util/mcgen/Plib/libpx114.a(pxunim.o)
 .note          0x00001978       0x14 /cern/99/lib/libpacklib.a(ffgo.o)
 .note          0x0000198c       0x14 /cern/99/lib/libpacklib.a(ffinit.o)
 .note          0x000019a0       0x14 /cern/99/lib/libpacklib.a(ffkey.o)
 .note          0x000019b4       0x14 /cern/99/lib/libpacklib.a(ffset.o)
 .note          0x000019c8       0x14 /cern/99/lib/libpacklib.a(ffskip.o)
 .note          0x000019dc       0x14 /cern/99/lib/libpacklib.a(ffupca.o)
 .note          0x000019f0       0x14 /cern/99/lib/libpacklib.a(ffuser.o)
 .note          0x00001a04       0x14 /cern/99/lib/libpacklib.a(ffuset.o)
 .note          0x00001a18       0x14 /cern/99/lib/libpacklib.a(hrput.o)
 .note          0x00001a2c       0x14 /cern/99/lib/libpacklib.a(hbook1.o)
 .note          0x00001a40       0x14 /cern/99/lib/libpacklib.a(hbook2.o)
 .note          0x00001a54       0x14 /cern/99/lib/libpacklib.a(hbookb.o)
 .note          0x00001a68       0x14 /cern/99/lib/libpacklib.a(hbtit.o)
 .note          0x00001a7c       0x14 /cern/99/lib/libpacklib.a(hbug.o)
 .note          0x00001a90       0x14 /cern/99/lib/libpacklib.a(hcdir.o)
 .note          0x00001aa4       0x14 /cern/99/lib/libpacklib.a(hchnam.o)
 .note          0x00001ab8       0x14 /cern/99/lib/libpacklib.a(hdelet.o)
 .note          0x00001acc       0x14 /cern/99/lib/libpacklib.a(hfill.o)
 .note          0x00001ae0       0x14 /cern/99/lib/libpacklib.a(hfilpf.o)
 .note          0x00001af4       0x14 /cern/99/lib/libpacklib.a(hgive.o)
 .note          0x00001b08       0x14 /cern/99/lib/libpacklib.a(hidopt.o)
 .note          0x00001b1c       0x14 /cern/99/lib/libpacklib.a(hlimit.o)
 .note          0x00001b30       0x14 /cern/99/lib/libpacklib.a(hloop.o)
 .note          0x00001b44       0x14 /cern/99/lib/libpacklib.a(hmachi.o)
 .note          0x00001b58       0x14 /cern/99/lib/libpacklib.a(hnoent.o)
 .note          0x00001b6c       0x14 /cern/99/lib/libpacklib.a(hopera.o)
 .note          0x00001b80       0x14 /cern/99/lib/libpacklib.a(hpaff.o)
 .note          0x00001b94       0x14 /cern/99/lib/libpacklib.a(hpak.o)
 .note          0x00001ba8       0x14 /cern/99/lib/libpacklib.a(hpake.o)
 .note          0x00001bbc       0x14 /cern/99/lib/libpacklib.a(hpath.o)
 .note          0x00001bd0       0x14 /cern/99/lib/libpacklib.a(hrebin.o)
 .note          0x00001be4       0x14 /cern/99/lib/libpacklib.a(hreset.o)
 .note          0x00001bf8       0x14 /cern/99/lib/libpacklib.a(hrez0.o)
 .note          0x00001c0c       0x14 /cern/99/lib/libpacklib.a(hsifla.o)
 .note          0x00001c20       0x14 /cern/99/lib/libpacklib.a(hspace.o)
 .note          0x00001c34       0x14 /cern/99/lib/libpacklib.a(hstaf.o)
 .note          0x00001c48       0x14 /cern/99/lib/libpacklib.a(hsupis.o)
 .note          0x00001c5c       0x14 /cern/99/lib/libpacklib.a(huoptc.o)
 .note          0x00001c70       0x14 /cern/99/lib/libpacklib.a(hlogpf.o)
 .note          0x00001c84       0x14 /cern/99/lib/libpacklib.a(hoptpf.o)
 .note          0x00001c98       0x14 /cern/99/lib/libpacklib.a(hitoc.o)
 .note          0x00001cac       0x14 /cern/99/lib/libpacklib.a(hnbufd.o)
 .note          0x00001cc0       0x14 /cern/99/lib/libpacklib.a(hntmpd.o)
 .note          0x00001cd4       0x14 /cern/99/lib/libpacklib.a(hntrset.o)
 .note          0x00001ce8       0x14 /cern/99/lib/libpacklib.a(fzin.o)
 .note          0x00001cfc       0x14 /cern/99/lib/libpacklib.a(fzirel.o)
 .note          0x00001d10       0x14 /cern/99/lib/libpacklib.a(fzloc.o)
 .note          0x00001d24       0x14 /cern/99/lib/libpacklib.a(mzbook.o)
 .note          0x00001d38       0x14 /cern/99/lib/libpacklib.a(mzdrop.o)
 .note          0x00001d4c       0x14 /cern/99/lib/libpacklib.a(mzebra.o)
 .note          0x00001d60       0x14 /cern/99/lib/libpacklib.a(mzflag.o)
 .note          0x00001d74       0x14 /cern/99/lib/libpacklib.a(mzinco.o)
 .note          0x00001d88       0x14 /cern/99/lib/libpacklib.a(mzlift.o)
 .note          0x00001d9c       0x14 /cern/99/lib/libpacklib.a(mzlink.o)
 .note          0x00001db0       0x14 /cern/99/lib/libpacklib.a(mzneed.o)
 .note          0x00001dc4       0x14 /cern/99/lib/libpacklib.a(mzpaw.o)
 .note          0x00001dd8       0x14 /cern/99/lib/libpacklib.a(mzpush.o)
 .note          0x00001dec       0x14 /cern/99/lib/libpacklib.a(mzstor.o)
 .note          0x00001e00       0x14 /cern/99/lib/libpacklib.a(mzvers.o)
 .note          0x00001e14       0x14 /cern/99/lib/libpacklib.a(mzgar1.o)
 .note          0x00001e28       0x14 /cern/99/lib/libpacklib.a(mzgsta.o)
 .note          0x00001e3c       0x14 /cern/99/lib/libpacklib.a(mzmove.o)
 .note          0x00001e50       0x14 /cern/99/lib/libpacklib.a(mzrelb.o)
 .note          0x00001e64       0x14 /cern/99/lib/libpacklib.a(mzrell.o)
 .note          0x00001e78       0x14 /cern/99/lib/libpacklib.a(mzrelx.o)
 .note          0x00001e8c       0x14 /cern/99/lib/libpacklib.a(mztabf.o)
 .note          0x00001ea0       0x14 /cern/99/lib/libpacklib.a(mztabm.o)
 .note          0x00001eb4       0x14 /cern/99/lib/libpacklib.a(mztabr.o)
 .note          0x00001ec8       0x14 /cern/99/lib/libpacklib.a(mztabs.o)
 .note          0x00001edc       0x14 /cern/99/lib/libpacklib.a(mztabx.o)
 .note          0x00001ef0       0x14 /cern/99/lib/libpacklib.a(mzchln.o)
 .note          0x00001f04       0x14 /cern/99/lib/libpacklib.a(mzchls.o)
 .note          0x00001f18       0x14 /cern/99/lib/libpacklib.a(mzchnb.o)
 .note          0x00001f2c       0x14 /cern/99/lib/libpacklib.a(mzfdiv.o)
 .note          0x00001f40       0x14 /cern/99/lib/libpacklib.a(mzform.o)
 .note          0x00001f54       0x14 /cern/99/lib/libpacklib.a(mzioch.o)
 .note          0x00001f68       0x14 /cern/99/lib/libpacklib.a(mzresv.o)
 .note          0x00001f7c       0x14 /cern/99/lib/libpacklib.a(mzsdiv.o)
 .note          0x00001f90       0x14 /cern/99/lib/libpacklib.a(zvautx.o)
 .note          0x00001fa4       0x14 /cern/99/lib/libpacklib.a(zfatal.o)
 .note          0x00001fb8       0x14 /cern/99/lib/libpacklib.a(zfatam.o)
 .note          0x00001fcc       0x14 /cern/99/lib/libpacklib.a(ztell.o)
 .note          0x00001fe0       0x14 /cern/99/lib/libpacklib.a(ztelus.o)
 .note          0x00001ff4       0x14 /cern/99/lib/libpacklib.a(izbcdt.o)
 .note          0x00002008       0x14 /cern/99/lib/libpacklib.a(izhnum.o)
 .note          0x0000201c       0x14 /cern/99/lib/libpacklib.a(zshunt.o)
 .note          0x00002030       0x14 /cern/99/lib/libpacklib.a(rzcdir.o)
 .note          0x00002044       0x14 /cern/99/lib/libpacklib.a(rzdate.o)
 .note          0x00002058       0x14 /cern/99/lib/libpacklib.a(rzfdir.o)
 .note          0x0000206c       0x14 /cern/99/lib/libpacklib.a(rziodo.o)
 .note          0x00002080       0x14 /cern/99/lib/libpacklib.a(rzpaff.o)
 .note          0x00002094       0x14 /cern/99/lib/libpacklib.a(rzpath.o)
 .note          0x000020a8       0x14 /cern/99/lib/libpacklib.a(rzrtop.o)
 .note          0x000020bc       0x14 /cern/99/lib/libpacklib.a(rzsame.o)
 .note          0x000020d0       0x14 /cern/99/lib/libpacklib.a(rzsave.o)
 .note          0x000020e4       0x14 /cern/99/lib/libpacklib.a(rzstrir.o)
 .note          0x000020f8       0x14 /cern/99/lib/libpacklib.a(rzvcyc.o)
 .note          0x0000210c       0x14 /cern/99/lib/libpacklib.a(abend.o)
 .note          0x00002120       0x14 /cern/99/lib/libpacklib.a(datime.o)
 .note          0x00002134       0x14 /cern/99/lib/libpacklib.a(datimh.o)
 .note          0x00002148       0x14 /cern/99/lib/libpacklib.a(jumpxn.o)
 .note          0x0000215c       0x14 /cern/99/lib/libpacklib.a(locf.o)
 .note          0x00002170       0x14 /cern/99/lib/libpacklib.a(qnexte.o)
 .note          0x00002184       0x14 /cern/99/lib/libpacklib.a(lenocc.o)
 .note          0x00002198       0x14 /cern/99/lib/libpacklib.a(vxinvb.o)
 .note          0x000021ac       0x14 /cern/99/lib/libpacklib.a(cfclos.o)
 .note          0x000021c0       0x14 /cern/99/lib/libpacklib.a(cfget.o)
 .note          0x000021d4       0x14 /cern/99/lib/libpacklib.a(cfput.o)
 .note          0x000021e8       0x14 /cern/99/lib/libpacklib.a(cfseek.o)
 .note          0x000021fc       0x14 /cern/99/lib/libpacklib.a(cfopen.o)
 .note          0x00002210       0x14 /cern/99/lib/libpacklib.a(cleft.o)
 .note          0x00002224       0x14 /cern/99/lib/libpacklib.a(cltou.o)
 .note          0x00002238       0x14 /cern/99/lib/libpacklib.a(cutol.o)
 .note          0x0000224c       0x14 /cern/99/lib/libpacklib.a(floarg.o)
 .note          0x00002260       0x14 /cern/99/lib/libpacklib.a(intarg.o)
 .note          0x00002274       0x14 /cern/99/lib/libpacklib.a(kerngt.o)
 .note          0x00002288       0x14 /cern/99/lib/libpacklib.a(uoptc.o)
 .note          0x0000229c       0x14 /cern/99/lib/libpacklib.a(utrans.o)
 .note          0x000022b0       0x14 /cern/99/lib/libpacklib.a(ishftr.o)
 .note          0x000022c4       0x14 /cern/99/lib/libpacklib.a(qnext.o)
 .note          0x000022d8       0x14 /cern/99/lib/libpacklib.a(ucopy2c.o)
 .note          0x000022ec       0x14 /cern/99/lib/libpacklib.a(iucomp.o)
 .note          0x00002300       0x14 /cern/99/lib/libpacklib.a(noarg.o)
 .note          0x00002314       0x14 /cern/99/lib/libpacklib.a(sbit0.o)
 .note          0x00002328       0x14 /cern/99/lib/libpacklib.a(sbit1.o)
 .note          0x0000233c       0x14 /cern/99/lib/libpacklib.a(ublow.o)
 .note          0x00002350       0x14 /cern/99/lib/libpacklib.a(ubunch.o)
 .note          0x00002364       0x14 /cern/99/lib/libpacklib.a(ucopy.o)
 .note          0x00002378       0x14 /cern/99/lib/libpacklib.a(uctoh.o)
 .note          0x0000238c       0x14 /cern/99/lib/libpacklib.a(uctoh1.o)
 .note          0x000023a0       0x14 /cern/99/lib/libpacklib.a(uhtoc.o)
 .note          0x000023b4       0x14 /cern/99/lib/libpacklib.a(vblank.o)
 .note          0x000023c8       0x14 /cern/99/lib/libpacklib.a(vfill.o)
 .note          0x000023dc       0x14 /cern/99/lib/libpacklib.a(vzero.o)
 .note          0x000023f0       0x14 /cern/99/lib/libpacklib.a(jbit.o)
 .note          0x00002404       0x14 /cern/99/lib/libpacklib.a(jbyt.o)
 .note          0x00002418       0x14 /cern/99/lib/libpacklib.a(sbyt.o)
 .note          0x0000242c       0x14 /cern/99/lib/libpacklib.a(locati.o)
 .note          0x00002440       0x14 /cern/99/lib/libpacklib.a(czgeta.o)
 .note          0x00002454       0x14 /cern/99/lib/libpacklib.a(czputa.o)
 .note          0x00002468       0x14 /cern/99/lib/libpacklib.a(ffcard.o)
 .note          0x0000247c       0x14 /cern/99/lib/libpacklib.a(fffind.o)
 .note          0x00002490       0x14 /cern/99/lib/libpacklib.a(hqputf.o)
 .note          0x000024a4       0x14 /cern/99/lib/libpacklib.a(hbpqry.o)
 .note          0x000024b8       0x14 /cern/99/lib/libpacklib.a(hrendc.o)
 .note          0x000024cc       0x14 /cern/99/lib/libpacklib.a(hropen.o)
 .note          0x000024e0       0x14 /cern/99/lib/libpacklib.a(hrout.o)
 .note          0x000024f4       0x14 /cern/99/lib/libpacklib.a(hrzcd.o)
 .note          0x00002508       0x14 /cern/99/lib/libpacklib.a(hrzout.o)
 .note          0x0000251c       0x14 /cern/99/lib/libpacklib.a(hbar2.o)
 .note          0x00002530       0x14 /cern/99/lib/libpacklib.a(hbarx.o)
 .note          0x00002544       0x14 /cern/99/lib/libpacklib.a(hbary.o)
 .note          0x00002558       0x14 /cern/99/lib/libpacklib.a(hbin.o)
 .note          0x0000256c       0x14 /cern/99/lib/libpacklib.a(hcopy.o)
 .note          0x00002580       0x14 /cern/99/lib/libpacklib.a(hcx.o)
 .note          0x00002594       0x14 /cern/99/lib/libpacklib.a(hcxy.o)
 .note          0x000025a8       0x14 /cern/99/lib/libpacklib.a(hdcofl.o)
 .note          0x000025bc       0x14 /cern/99/lib/libpacklib.a(hf1.o)
 .note          0x000025d0       0x14 /cern/99/lib/libpacklib.a(hf1aut.o)
 .note          0x000025e4       0x14 /cern/99/lib/libpacklib.a(hf2.o)
 .note          0x000025f8       0x14 /cern/99/lib/libpacklib.a(hfcx.o)
 .note          0x0000260c       0x14 /cern/99/lib/libpacklib.a(hfcxy.o)
 .note          0x00002620       0x14 /cern/99/lib/libpacklib.a(hfidp.o)
 .note          0x00002634       0x14 /cern/99/lib/libpacklib.a(hfind.o)
 .note          0x00002648       0x14 /cern/99/lib/libpacklib.a(hi.o)
 .note          0x0000265c       0x14 /cern/99/lib/libpacklib.a(hie.o)
 .note          0x00002670       0x14 /cern/99/lib/libpacklib.a(hix.o)
 .note          0x00002684       0x14 /cern/99/lib/libpacklib.a(hlabeq.o)
 .note          0x00002698       0x14 /cern/99/lib/libpacklib.a(hmdir.o)
 .note          0x000026ac       0x14 /cern/99/lib/libpacklib.a(hoper1.o)
 .note          0x000026c0       0x14 /cern/99/lib/libpacklib.a(hoper1a.o)
 .note          0x000026d4       0x14 /cern/99/lib/libpacklib.a(hnbfwr.o)
 .note          0x000026e8       0x14 /cern/99/lib/libpacklib.a(hnbuff.o)
 .note          0x000026fc       0x14 /cern/99/lib/libpacklib.a(hnmset.o)
 .note          0x00002710       0x14 /cern/99/lib/libpacklib.a(hntdel.o)
 .note          0x00002724       0x14 /cern/99/lib/libpacklib.a(hntmpf.o)
 .note          0x00002738       0x14 /cern/99/lib/libpacklib.a(fzidia.o)
 .note          0x0000274c       0x14 /cern/99/lib/libpacklib.a(fziffn.o)
 .note          0x00002760       0x14 /cern/99/lib/libpacklib.a(fziffx.o)
 .note          0x00002774       0x14 /cern/99/lib/libpacklib.a(fzilin.o)
 .note          0x00002788       0x14 /cern/99/lib/libpacklib.a(fzimtb.o)
 .note          0x0000279c       0x14 /cern/99/lib/libpacklib.a(fzirec.o)
 .note          0x000027b0       0x14 /cern/99/lib/libpacklib.a(fzitrn.o)
 .note          0x000027c4       0x14 /cern/99/lib/libpacklib.a(fzout.o)
 .note          0x000027d8       0x14 /cern/99/lib/libpacklib.a(fzitrx.o)
 .note          0x000027ec       0x14 /cern/99/lib/libpacklib.a(mzcopy.o)
 .note          0x00002800       0x14 /cern/99/lib/libpacklib.a(mzpudx.o)
 .note          0x00002814       0x14 /cern/99/lib/libpacklib.a(mzfgap.o)
 .note          0x00002828       0x14 /cern/99/lib/libpacklib.a(mzgarb.o)
 .note          0x0000283c       0x14 /cern/99/lib/libpacklib.a(mztabc.o)
 .note          0x00002850       0x14 /cern/99/lib/libpacklib.a(mztabh.o)
 .note          0x00002864       0x14 /cern/99/lib/libpacklib.a(mzdvac.o)
 .note          0x00002878       0x14 /cern/99/lib/libpacklib.a(mziocf.o)
 .note          0x0000288c       0x14 /cern/99/lib/libpacklib.a(mziocr.o)
 .note          0x000028a0       0x14 /cern/99/lib/libpacklib.a(mzixco.o)
 .note          0x000028b4       0x14 /cern/99/lib/libpacklib.a(zabend.o)
 .note          0x000028c8       0x14 /cern/99/lib/libpacklib.a(zend.o)
 .note          0x000028dc       0x14 /cern/99/lib/libpacklib.a(zphase.o)
 .note          0x000028f0       0x14 /cern/99/lib/libpacklib.a(zpostm.o)
 .note          0x00002904       0x14 /cern/99/lib/libpacklib.a(zhtoi.o)
 .note          0x00002918       0x14 /cern/99/lib/libpacklib.a(rzclos.o)
 .note          0x0000292c       0x14 /cern/99/lib/libpacklib.a(rzend.o)
 .note          0x00002940       0x14 /cern/99/lib/libpacklib.a(rzfree.o)
 .note          0x00002954       0x14 /cern/99/lib/libpacklib.a(rzmdir.o)
 .note          0x00002968       0x14 /cern/99/lib/libpacklib.a(rzmods.o)
 .note          0x0000297c       0x14 /cern/99/lib/libpacklib.a(rzopen.o)
 .note          0x00002990       0x14 /cern/99/lib/libpacklib.a(rzout.o)
 .note          0x000029a4       0x14 /cern/99/lib/libpacklib.a(rzstrip.o)
 .note          0x000029b8       0x14 /cern/99/lib/libpacklib.a(rzused.o)
 .note          0x000029cc       0x14 /cern/99/lib/libpacklib.a(close.o)
 .note          0x000029e0       0x14 /cern/99/lib/libpacklib.a(error.o)
 .note          0x000029f4       0x14 /cern/99/lib/libpacklib.a(lseek.o)
 .note          0x00002a08       0x14 /cern/99/lib/libpacklib.a(open.o)
 .note          0x00002a1c       0x14 /cern/99/lib/libpacklib.a(parse.o)
 .note          0x00002a30       0x14 /cern/99/lib/libpacklib.a(read.o)
 .note          0x00002a44       0x14 /cern/99/lib/libpacklib.a(serror.o)
 .note          0x00002a58       0x14 /cern/99/lib/libpacklib.a(setopt.o)
 .note          0x00002a6c       0x14 /cern/99/lib/libpacklib.a(socket.o)
 .note          0x00002a80       0x14 /cern/99/lib/libpacklib.a(stream.o)
 .note          0x00002a94       0x14 /cern/99/lib/libpacklib.a(trace.o)
 .note          0x00002aa8       0x14 /cern/99/lib/libpacklib.a(write.o)
 .note          0x00002abc       0x14 /cern/99/lib/libpacklib.a(cfopei.o)
 .note          0x00002ad0       0x14 /cern/99/lib/libpacklib.a(cfstat.o)
 .note          0x00002ae4       0x14 /cern/99/lib/libpacklib.a(fchtak.o)
 .note          0x00002af8       0x14 /cern/99/lib/libpacklib.a(gshowf.o)
 .note          0x00002b0c       0x14 /cern/99/lib/libpacklib.a(icluns.o)
 .note          0x00002b20       0x14 /cern/99/lib/libpacklib.a(traceq.o)
 .note          0x00002b34       0x14 /cern/99/lib/libpacklib.a(xinbf.o)
 .note          0x00002b48       0x14 /cern/99/lib/libpacklib.a(xinbs.o)
 .note          0x00002b5c       0x14 /cern/99/lib/libpacklib.a(halloc.o)
 .note          0x00002b70       0x14 /cern/99/lib/libpacklib.a(hrfile.o)
 .note          0x00002b84       0x14 /cern/99/lib/libpacklib.a(hfc1.o)
 .note          0x00002b98       0x14 /cern/99/lib/libpacklib.a(hlccmp.o)
 .note          0x00002bac       0x14 /cern/99/lib/libpacklib.a(hlgnxt.o)
 .note          0x00002bc0       0x14 /cern/99/lib/libpacklib.a(hlhcmp.o)
 .note          0x00002bd4       0x14 /cern/99/lib/libpacklib.a(hlpos.o)
 .note          0x00002be8       0x14 /cern/99/lib/libpacklib.a(dzsnap.o)
 .note          0x00002bfc       0x14 /cern/99/lib/libpacklib.a(dztext.o)
 .note          0x00002c10       0x14 /cern/99/lib/libpacklib.a(zpage.o)
 .note          0x00002c24       0x14 /cern/99/lib/libpacklib.a(fzipha.o)
 .note          0x00002c38       0x14 /cern/99/lib/libpacklib.a(fziphd.o)
 .note          0x00002c4c       0x14 /cern/99/lib/libpacklib.a(fziphm.o)
 .note          0x00002c60       0x14 /cern/99/lib/libpacklib.a(fziphr.o)
 .note          0x00002c74       0x14 /cern/99/lib/libpacklib.a(fziprl.o)
 .note          0x00002c88       0x14 /cern/99/lib/libpacklib.a(fzoffn.o)
 .note          0x00002c9c       0x14 /cern/99/lib/libpacklib.a(fzoffx.o)
 .note          0x00002cb0       0x14 /cern/99/lib/libpacklib.a(fzon1.o)
 .note          0x00002cc4       0x14 /cern/99/lib/libpacklib.a(fzon2.o)
 .note          0x00002cd8       0x14 /cern/99/lib/libpacklib.a(fzon3.o)
 .note          0x00002cec       0x14 /cern/99/lib/libpacklib.a(fzon4.o)
 .note          0x00002d00       0x14 /cern/99/lib/libpacklib.a(fzon5.o)
 .note          0x00002d14       0x14 /cern/99/lib/libpacklib.a(fzon6.o)
 .note          0x00002d28       0x14 /cern/99/lib/libpacklib.a(fzorec.o)
 .note          0x00002d3c       0x14 /cern/99/lib/libpacklib.a(fzotab.o)
 .note          0x00002d50       0x14 /cern/99/lib/libpacklib.a(fzotrn.o)
 .note          0x00002d64       0x14 /cern/99/lib/libpacklib.a(fzotxt.o)
 .note          0x00002d78       0x14 /cern/99/lib/libpacklib.a(fzicv.o)
 .note          0x00002d8c       0x14 /cern/99/lib/libpacklib.a(fzotrx.o)
 .note          0x00002da0       0x14 /cern/99/lib/libpacklib.a(mzend.o)
 .note          0x00002db4       0x14 /cern/99/lib/libpacklib.a(mzmaps.o)
 .note          0x00002dc8       0x14 /cern/99/lib/libpacklib.a(mzmark.o)
 .note          0x00002ddc       0x14 /cern/99/lib/libpacklib.a(mzwork.o)
 .note          0x00002df0       0x14 /cern/99/lib/libpacklib.a(zitoh.o)
 .note          0x00002e04       0x14 /cern/99/lib/libpacklib.a(rzallo.o)
 .note          0x00002e18       0x14 /cern/99/lib/libpacklib.a(rzdelk.o)
 .note          0x00002e2c       0x14 /cern/99/lib/libpacklib.a(rzexpd.o)
 .note          0x00002e40       0x14 /cern/99/lib/libpacklib.a(rzfile.o)
 .note          0x00002e54       0x14 /cern/99/lib/libpacklib.a(rzllok.o)
 .note          0x00002e68       0x14 /cern/99/lib/libpacklib.a(rzlock.o)
 .note          0x00002e7c       0x14 /cern/99/lib/libpacklib.a(rzmake.o)
 .note          0x00002e90       0x14 /cern/99/lib/libpacklib.a(rzobkn.o)
 .note          0x00002ea4       0x14 /cern/99/lib/libpacklib.a(rzpurf.o)
 .note          0x00002eb8       0x14 /cern/99/lib/libpacklib.a(rzveri.o)
 .note          0x00002ecc       0x14 /cern/99/lib/libpacklib.a(rzwrt.o)
 .note          0x00002ee0       0x14 /cern/99/lib/libpacklib.a(connect.o)
 .note          0x00002ef4       0x14 /cern/99/lib/libpacklib.a(getacct.o)
 .note          0x00002f08       0x14 /cern/99/lib/libpacklib.a(getacctent.o)
 .note          0x00002f1c       0x14 /cern/99/lib/libpacklib.a(getconfent.o)
 .note          0x00002f30       0x14 /cern/99/lib/libpacklib.a(getifnam.o)
 .note          0x00002f44       0x14 /cern/99/lib/libpacklib.a(log.o)
 .note          0x00002f58       0x14 /cern/99/lib/libpacklib.a(remote.o)
 .note          0x00002f6c       0x14 /cern/99/lib/libpacklib.a(setnetio.o)
 .note          0x00002f80       0x14 /cern/99/lib/libpacklib.a(vxinvc.o)
 .note          0x00002f94       0x14 /cern/99/lib/libpacklib.a(cfstati.o)
 .note          0x00002fa8       0x14 /cern/99/lib/libpacklib.a(dzare1.o)
 .note          0x00002fbc       0x14 /cern/99/lib/libpacklib.a(dzbkup.o)
 .note          0x00002fd0       0x14 /cern/99/lib/libpacklib.a(dzbkxr.o)
 .note          0x00002fe4       0x14 /cern/99/lib/libpacklib.a(dzdata.o)
 .note          0x00002ff8       0x14 /cern/99/lib/libpacklib.a(dzmap.o)
 .note          0x0000300c       0x14 /cern/99/lib/libpacklib.a(dzopt.o)
 .note          0x00003020       0x14 /cern/99/lib/libpacklib.a(dzshpr.o)
 .note          0x00003034       0x14 /cern/99/lib/libpacklib.a(dztyp.o)
 .note          0x00003048       0x14 /cern/99/lib/libpacklib.a(fziasc.o)
 .note          0x0000305c       0x14 /cern/99/lib/libpacklib.a(fzichh.o)
 .note          0x00003070       0x14 /cern/99/lib/libpacklib.a(fzidum.o)
 .note          0x00003084       0x14 /cern/99/lib/libpacklib.a(fzophr.o)
 .note          0x00003098       0x14 /cern/99/lib/libpacklib.a(fzocv.o)
 .note          0x000030ac       0x14 /cern/99/lib/libpacklib.a(izbcd.o)
 .note          0x000030c0       0x14 /cern/99/lib/libpacklib.a(rzdlok.o)
 .note          0x000030d4       0x14 /cern/99/lib/libpacklib.a(rzver1.o)
 .note          0x000030e8       0x14 /cern/99/lib/libpacklib.a(rzver2.o)
 .note          0x000030fc       0x14 /cern/99/lib/libpacklib.a(stat.o)
 .note          0x00003110       0x14 /cern/99/lib/libpacklib.a(cfweof.o)
 .note          0x00003124       0x14 /cern/99/lib/libpacklib.a(iumode.o)
 .note          0x00003138       0x14 /cern/99/lib/libpacklib.a(iufind.o)
 .note          0x0000314c       0x14 /cern/99/lib/libpacklib.a(iusame.o)
 .note          0x00003160       0x14 /cern/99/lib/libpacklib.a(jrsbyt.o)
 .note          0x00003174       0x14 /cern/99/lib/libpacklib.a(ucopiv.o)
 .note          0x00003188       0x14 /cern/99/lib/libpacklib.a(dzbkdv.o)
 .note          0x0000319c       0x14 /cern/99/lib/libpacklib.a(dzbkhd.o)
 .note          0x000031b0       0x14 /cern/99/lib/libpacklib.a(dziopr.o)
 .note          0x000031c4       0x14 /cern/99/lib/libpacklib.a(fzialn.o)
 .note          0x000031d8       0x14 /cern/99/lib/libpacklib.a(fzoasc.o)
 .note          0x000031ec       0x14 /cern/99/lib/libpacklib.a(izchav.o)
 .note          0x00003200       0x14 /cern/99/lib/libpacklib.a(rzprnk.o)
 .note          0x00003214       0x14 /cern/99/lib/libpacklib.a(mstat.o)
 .note          0x00003228       0x14 /cern/99/lib/libpacklib.a(dziopd.o)
 .note          0x0000323c       0x14 /cern/99/lib/libpacklib.a(dzioph.o)
 .note          0x00003250       0x14 /cern/99/lib/libpacklib.a(fzoaln.o)
 .note          0x00003264       0x14 /cern/99/lib/libpacklib.a(fzoapk.o)
 .note          0x00003278       0x14 /cern/99/lib/libpacklib.a(uh1toc.o)
 .note          0x0000328c       0x14 /cern/99/lib/libmathlib.a(dsyev.o)
 .note          0x000032a0       0x14 /cern/99/lib/libmathlib.a(dsytrd.o)
 .note          0x000032b4       0x14 /cern/99/lib/libmathlib.a(ilaenv.o)
 .note          0x000032c8       0x14 /cern/99/lib/libmathlib.a(lsame.o)
 .note          0x000032dc       0x14 /cern/99/lib/libmathlib.a(xerbla.o)
 .note          0x000032f0       0x14 /cern/99/lib/libmathlib.a(dscal.o)
 .note          0x00003304       0x14 /cern/99/lib/libmathlib.a(dsyr2k.o)
 .note          0x00003318       0x14 /cern/99/lib/libmathlib.a(dlamch.o)
 .note          0x0000332c       0x14 /cern/99/lib/libmathlib.a(dlansy.o)
 .note          0x00003340       0x14 /cern/99/lib/libmathlib.a(dlascl.o)
 .note          0x00003354       0x14 /cern/99/lib/libmathlib.a(dlassq.o)
 .note          0x00003368       0x14 /cern/99/lib/libmathlib.a(dlatrd.o)
 .note          0x0000337c       0x14 /cern/99/lib/libmathlib.a(dorgtr.o)
 .note          0x00003390       0x14 /cern/99/lib/libmathlib.a(dsteqr.o)
 .note          0x000033a4       0x14 /cern/99/lib/libmathlib.a(dsterf.o)
 .note          0x000033b8       0x14 /cern/99/lib/libmathlib.a(dsytd2.o)
 .note          0x000033cc       0x14 /cern/99/lib/libmathlib.a(daxpy.o)
 .note          0x000033e0       0x14 /cern/99/lib/libmathlib.a(ddot.o)
 .note          0x000033f4       0x14 /cern/99/lib/libmathlib.a(dgemv.o)
 .note          0x00003408       0x14 /cern/99/lib/libmathlib.a(dswap.o)
 .note          0x0000341c       0x14 /cern/99/lib/libmathlib.a(dsymv.o)
 .note          0x00003430       0x14 /cern/99/lib/libmathlib.a(dsyr2.o)
 .note          0x00003444       0x14 /cern/99/lib/libmathlib.a(dlae2.o)
 .note          0x00003458       0x14 /cern/99/lib/libmathlib.a(dlaev2.o)
 .note          0x0000346c       0x14 /cern/99/lib/libmathlib.a(dlanst.o)
 .note          0x00003480       0x14 /cern/99/lib/libmathlib.a(dlapy2.o)
 .note          0x00003494       0x14 /cern/99/lib/libmathlib.a(dlarfg.o)
 .note          0x000034a8       0x14 /cern/99/lib/libmathlib.a(dlartg.o)
 .note          0x000034bc       0x14 /cern/99/lib/libmathlib.a(dlaset.o)
 .note          0x000034d0       0x14 /cern/99/lib/libmathlib.a(dlasr.o)
 .note          0x000034e4       0x14 /cern/99/lib/libmathlib.a(dlasrt.o)
 .note          0x000034f8       0x14 /cern/99/lib/libmathlib.a(dorgql.o)
 .note          0x0000350c       0x14 /cern/99/lib/libmathlib.a(dorgqr.o)
 .note          0x00003520       0x14 /cern/99/lib/libmathlib.a(dnrm2.o)
 .note          0x00003534       0x14 /cern/99/lib/libmathlib.a(dlarfb.o)
 .note          0x00003548       0x14 /cern/99/lib/libmathlib.a(dlarft.o)
 .note          0x0000355c       0x14 /cern/99/lib/libmathlib.a(dorg2l.o)
 .note          0x00003570       0x14 /cern/99/lib/libmathlib.a(dorg2r.o)
 .note          0x00003584       0x14 /cern/99/lib/libmathlib.a(dcopy.o)
 .note          0x00003598       0x14 /cern/99/lib/libmathlib.a(dgemm.o)
 .note          0x000035ac       0x14 /cern/99/lib/libmathlib.a(dtrmm.o)
 .note          0x000035c0       0x14 /cern/99/lib/libmathlib.a(dtrmv.o)
 .note          0x000035d4       0x14 /cern/99/lib/libmathlib.a(dlarf.o)
 .note          0x000035e8       0x14 /cern/99/lib/libmathlib.a(dger.o)
 .note          0x000035fc       0x14 /usr/lib/libc_nonshared.a(atexit.oS)
 .note          0x00003610       0x14 /usr/lib/gcc-lib/i686-pc-linux-gnu/2.95.3/libg2c.a(close.o)
 .note          0x00003624       0x14 /usr/lib/gcc-lib/i686-pc-linux-gnu/2.95.3/libg2c.a(dolio.o)
 .note          0x00003638       0x14 /usr/lib/gcc-lib/i686-pc-linux-gnu/2.95.3/libg2c.a(due.o)
 .note          0x0000364c       0x14 /usr/lib/gcc-lib/i686-pc-linux-gnu/2.95.3/libg2c.a(endfile.o)
 .note          0x00003660       0x14 /usr/lib/gcc-lib/i686-pc-linux-gnu/2.95.3/libg2c.a(err.o)
 .note          0x00003674       0x14 /usr/lib/gcc-lib/i686-pc-linux-gnu/2.95.3/libg2c.a(fmt.o)
 .note          0x00003688       0x14 /usr/lib/gcc-lib/i686-pc-linux-gnu/2.95.3/libg2c.a(iio.o)
 .note          0x0000369c       0x14 /usr/lib/gcc-lib/i686-pc-linux-gnu/2.95.3/libg2c.a(inquire.o)
 .note          0x000036b0       0x14 /usr/lib/gcc-lib/i686-pc-linux-gnu/2.95.3/libg2c.a(lread.o)
 .note          0x000036c4       0x14 /usr/lib/gcc-lib/i686-pc-linux-gnu/2.95.3/libg2c.a(open.o)
 .note          0x000036d8       0x14 /usr/lib/gcc-lib/i686-pc-linux-gnu/2.95.3/libg2c.a(rdfmt.o)
 .note          0x000036ec       0x14 /usr/lib/gcc-lib/i686-pc-linux-gnu/2.95.3/libg2c.a(rewind.o)
 .note          0x00003700       0x14 /usr/lib/gcc-lib/i686-pc-linux-gnu/2.95.3/libg2c.a(rsfe.o)
 .note          0x00003714       0x14 /usr/lib/gcc-lib/i686-pc-linux-gnu/2.95.3/libg2c.a(sfe.o)
 .note          0x00003728       0x14 /usr/lib/gcc-lib/i686-pc-linux-gnu/2.95.3/libg2c.a(sue.o)
 .note          0x0000373c       0x14 /usr/lib/gcc-lib/i686-pc-linux-gnu/2.95.3/libg2c.a(uio.o)
 .note          0x00003750       0x14 /usr/lib/gcc-lib/i686-pc-linux-gnu/2.95.3/libg2c.a(util.o)
 .note          0x00003764       0x14 /usr/lib/gcc-lib/i686-pc-linux-gnu/2.95.3/libg2c.a(wrtfmt.o)
 .note          0x00003778       0x14 /usr/lib/gcc-lib/i686-pc-linux-gnu/2.95.3/libg2c.a(wsfe.o)
 .note          0x0000378c       0x14 /usr/lib/gcc-lib/i686-pc-linux-gnu/2.95.3/libg2c.a(wsle.o)
 .note          0x000037a0       0x14 /usr/lib/gcc-lib/i686-pc-linux-gnu/2.95.3/libg2c.a(main.o)
 .note          0x000037b4       0x14 /usr/lib/gcc-lib/i686-pc-linux-gnu/2.95.3/libg2c.a(s_stop.o)
 .note          0x000037c8       0x14 /usr/lib/gcc-lib/i686-pc-linux-gnu/2.95.3/libg2c.a(sig_die.o)
 .note          0x000037dc       0x14 /usr/lib/gcc-lib/i686-pc-linux-gnu/2.95.3/libg2c.a(setarg.o)
 .note          0x000037f0       0x14 /usr/lib/gcc-lib/i686-pc-linux-gnu/2.95.3/libg2c.a(setsig.o)
 .note          0x00003804       0x14 /usr/lib/gcc-lib/i686-pc-linux-gnu/2.95.3/libg2c.a(pow_dd.o)
 .note          0x00003818       0x14 /usr/lib/gcc-lib/i686-pc-linux-gnu/2.95.3/libg2c.a(pow_zz.o)
 .note          0x0000382c       0x14 /usr/lib/gcc-lib/i686-pc-linux-gnu/2.95.3/libg2c.a(c_abs.o)
 .note          0x00003840       0x14 /usr/lib/gcc-lib/i686-pc-linux-gnu/2.95.3/libg2c.a(z_log.o)
 .note          0x00003854       0x14 /usr/lib/gcc-lib/i686-pc-linux-gnu/2.95.3/libg2c.a(z_sqrt.o)
 .note          0x00003868       0x14 /usr/lib/gcc-lib/i686-pc-linux-gnu/2.95.3/libg2c.a(r_lg10.o)
 .note          0x0000387c       0x14 /usr/lib/gcc-lib/i686-pc-linux-gnu/2.95.3/libg2c.a(r_mod.o)
 .note          0x00003890       0x14 /usr/lib/gcc-lib/i686-pc-linux-gnu/2.95.3/libg2c.a(i_indx.o)
 .note          0x000038a4       0x14 /usr/lib/gcc-lib/i686-pc-linux-gnu/2.95.3/libg2c.a(l_gt.o)
 .note          0x000038b8       0x14 /usr/lib/gcc-lib/i686-pc-linux-gnu/2.95.3/libg2c.a(l_lt.o)
 .note          0x000038cc       0x14 /usr/lib/gcc-lib/i686-pc-linux-gnu/2.95.3/libg2c.a(s_cat.o)
 .note          0x000038e0       0x14 /usr/lib/gcc-lib/i686-pc-linux-gnu/2.95.3/libg2c.a(s_cmp.o)
 .note          0x000038f4       0x14 /usr/lib/gcc-lib/i686-pc-linux-gnu/2.95.3/libg2c.a(s_copy.o)
 .note          0x00003908       0x14 /usr/lib/gcc-lib/i686-pc-linux-gnu/2.95.3/libg2c.a(lnblnk_.o)
 .note          0x0000391c       0x14 /usr/lib/gcc-lib/i686-pc-linux-gnu/2.95.3/libg2c.a(fmtlib.o)
 .note          0x00003930       0x14 /usr/lib/gcc-lib/i686-pc-linux-gnu/2.95.3/libg2c.a(lwrite.o)
 .note          0x00003944       0x14 /usr/lib/gcc-lib/i686-pc-linux-gnu/2.95.3/libg2c.a(wref.o)
 .note          0x00003958       0x14 /usr/lib/gcc-lib/i686-pc-linux-gnu/2.95.3/libg2c.a(F77_aloc.o)
 .note          0x0000396c       0x14 /usr/lib/gcc-lib/i686-pc-linux-gnu/2.95.3/libg2c.a(cabs.o)
 .note          0x00003980       0x14 /usr/lib/gcc-lib/i686-pc-linux-gnu/2.95.3/libg2c.a(exit_.o)
 .note          0x00003994       0x14 /usr/lib/gcc-lib/i686-pc-linux-gnu/2.95.3/crtend.o
 .note          0x000039a8       0x14 /usr/lib/crtn.o
